
TinyG.elf:     file format elf32-avr

Sections:
Idx Name          Size      VMA       LMA       File off  Algn
  0 .text         000094c4  00000000  00000000  00000094  2**1
                  CONTENTS, ALLOC, LOAD, READONLY, CODE
  1 .data         0000011c  00802000  000094c4  00009558  2**0
                  CONTENTS, ALLOC, LOAD, DATA
  2 .bss          00000546  0080211c  0080211c  00009674  2**0
                  ALLOC
  3 .debug_aranges 00000400  00000000  00000000  00009674  2**0
                  CONTENTS, READONLY, DEBUGGING
  4 .debug_pubnames 000011d1  00000000  00000000  00009a74  2**0
                  CONTENTS, READONLY, DEBUGGING
  5 .debug_info   0000dd44  00000000  00000000  0000ac45  2**0
                  CONTENTS, READONLY, DEBUGGING
  6 .debug_abbrev 00002fdb  00000000  00000000  00018989  2**0
                  CONTENTS, READONLY, DEBUGGING
  7 .debug_line   0000504c  00000000  00000000  0001b964  2**0
                  CONTENTS, READONLY, DEBUGGING
  8 .debug_frame  00000c40  00000000  00000000  000209b0  2**2
                  CONTENTS, READONLY, DEBUGGING
  9 .debug_str    00002706  00000000  00000000  000215f0  2**0
                  CONTENTS, READONLY, DEBUGGING
 10 .debug_loc    00003df7  00000000  00000000  00023cf6  2**0
                  CONTENTS, READONLY, DEBUGGING
 11 .debug_ranges 00000168  00000000  00000000  00027aed  2**0
                  CONTENTS, READONLY, DEBUGGING

Disassembly of section .text:

00000000 <__vectors>:
       0:	0c 94 08 0f 	jmp	0x1e10	; 0x1e10 <__ctors_end>
       4:	0c 94 29 0f 	jmp	0x1e52	; 0x1e52 <__bad_interrupt>
       8:	0c 94 29 0f 	jmp	0x1e52	; 0x1e52 <__bad_interrupt>
       c:	0c 94 29 0f 	jmp	0x1e52	; 0x1e52 <__bad_interrupt>
      10:	0c 94 29 0f 	jmp	0x1e52	; 0x1e52 <__bad_interrupt>
      14:	0c 94 29 0f 	jmp	0x1e52	; 0x1e52 <__bad_interrupt>
      18:	0c 94 29 0f 	jmp	0x1e52	; 0x1e52 <__bad_interrupt>
      1c:	0c 94 29 0f 	jmp	0x1e52	; 0x1e52 <__bad_interrupt>
      20:	0c 94 29 0f 	jmp	0x1e52	; 0x1e52 <__bad_interrupt>
      24:	0c 94 29 0f 	jmp	0x1e52	; 0x1e52 <__bad_interrupt>
      28:	0c 94 29 0f 	jmp	0x1e52	; 0x1e52 <__bad_interrupt>
      2c:	0c 94 29 0f 	jmp	0x1e52	; 0x1e52 <__bad_interrupt>
      30:	0c 94 29 0f 	jmp	0x1e52	; 0x1e52 <__bad_interrupt>
      34:	0c 94 29 0f 	jmp	0x1e52	; 0x1e52 <__bad_interrupt>
      38:	0c 94 06 28 	jmp	0x500c	; 0x500c <__vector_14>
      3c:	0c 94 29 0f 	jmp	0x1e52	; 0x1e52 <__bad_interrupt>
      40:	0c 94 29 0f 	jmp	0x1e52	; 0x1e52 <__bad_interrupt>
      44:	0c 94 29 0f 	jmp	0x1e52	; 0x1e52 <__bad_interrupt>
      48:	0c 94 29 0f 	jmp	0x1e52	; 0x1e52 <__bad_interrupt>
      4c:	0c 94 29 0f 	jmp	0x1e52	; 0x1e52 <__bad_interrupt>
      50:	0c 94 29 0f 	jmp	0x1e52	; 0x1e52 <__bad_interrupt>
      54:	0c 94 29 0f 	jmp	0x1e52	; 0x1e52 <__bad_interrupt>
      58:	0c 94 29 0f 	jmp	0x1e52	; 0x1e52 <__bad_interrupt>
      5c:	0c 94 29 0f 	jmp	0x1e52	; 0x1e52 <__bad_interrupt>
      60:	0c 94 29 0f 	jmp	0x1e52	; 0x1e52 <__bad_interrupt>
      64:	0c 94 0a 34 	jmp	0x6814	; 0x6814 <__vector_25>
      68:	0c 94 c6 33 	jmp	0x678c	; 0x678c <__vector_26>
      6c:	0c 94 29 0f 	jmp	0x1e52	; 0x1e52 <__bad_interrupt>
      70:	0c 94 1c 35 	jmp	0x6a38	; 0x6a38 <__vector_28>
      74:	0c 94 b8 34 	jmp	0x6970	; 0x6970 <__vector_29>
      78:	0c 94 02 35 	jmp	0x6a04	; 0x6a04 <__vector_30>
      7c:	0c 94 29 0f 	jmp	0x1e52	; 0x1e52 <__bad_interrupt>
      80:	0c 94 29 0f 	jmp	0x1e52	; 0x1e52 <__bad_interrupt>
      84:	0c 94 29 0f 	jmp	0x1e52	; 0x1e52 <__bad_interrupt>
      88:	0c 94 29 0f 	jmp	0x1e52	; 0x1e52 <__bad_interrupt>
      8c:	0c 94 29 0f 	jmp	0x1e52	; 0x1e52 <__bad_interrupt>
      90:	0c 94 29 0f 	jmp	0x1e52	; 0x1e52 <__bad_interrupt>
      94:	0c 94 29 0f 	jmp	0x1e52	; 0x1e52 <__bad_interrupt>
      98:	0c 94 29 0f 	jmp	0x1e52	; 0x1e52 <__bad_interrupt>
      9c:	0c 94 29 0f 	jmp	0x1e52	; 0x1e52 <__bad_interrupt>
      a0:	0c 94 29 0f 	jmp	0x1e52	; 0x1e52 <__bad_interrupt>
      a4:	0c 94 29 0f 	jmp	0x1e52	; 0x1e52 <__bad_interrupt>
      a8:	0c 94 29 0f 	jmp	0x1e52	; 0x1e52 <__bad_interrupt>
      ac:	0c 94 00 30 	jmp	0x6000	; 0x6000 <__vector_43>
      b0:	0c 94 0a 30 	jmp	0x6014	; 0x6014 <__vector_44>
      b4:	0c 94 29 0f 	jmp	0x1e52	; 0x1e52 <__bad_interrupt>
      b8:	0c 94 29 0f 	jmp	0x1e52	; 0x1e52 <__bad_interrupt>
      bc:	0c 94 3c 27 	jmp	0x4e78	; 0x4e78 <__vector_47>
      c0:	0c 94 29 0f 	jmp	0x1e52	; 0x1e52 <__bad_interrupt>
      c4:	0c 94 29 0f 	jmp	0x1e52	; 0x1e52 <__bad_interrupt>
      c8:	0c 94 29 0f 	jmp	0x1e52	; 0x1e52 <__bad_interrupt>
      cc:	0c 94 29 0f 	jmp	0x1e52	; 0x1e52 <__bad_interrupt>
      d0:	0c 94 29 0f 	jmp	0x1e52	; 0x1e52 <__bad_interrupt>
      d4:	0c 94 29 0f 	jmp	0x1e52	; 0x1e52 <__bad_interrupt>
      d8:	0c 94 29 0f 	jmp	0x1e52	; 0x1e52 <__bad_interrupt>
      dc:	0c 94 29 0f 	jmp	0x1e52	; 0x1e52 <__bad_interrupt>
      e0:	0c 94 29 0f 	jmp	0x1e52	; 0x1e52 <__bad_interrupt>
      e4:	0c 94 29 0f 	jmp	0x1e52	; 0x1e52 <__bad_interrupt>
      e8:	0c 94 29 0f 	jmp	0x1e52	; 0x1e52 <__bad_interrupt>
      ec:	0c 94 29 0f 	jmp	0x1e52	; 0x1e52 <__bad_interrupt>
      f0:	0c 94 29 0f 	jmp	0x1e52	; 0x1e52 <__bad_interrupt>
      f4:	0c 94 29 0f 	jmp	0x1e52	; 0x1e52 <__bad_interrupt>
      f8:	0c 94 29 0f 	jmp	0x1e52	; 0x1e52 <__bad_interrupt>
      fc:	0c 94 29 0f 	jmp	0x1e52	; 0x1e52 <__bad_interrupt>
     100:	0c 94 14 30 	jmp	0x6028	; 0x6028 <__vector_64>
     104:	0c 94 1e 30 	jmp	0x603c	; 0x603c <__vector_65>
     108:	0c 94 d8 2f 	jmp	0x5fb0	; 0x5fb0 <__vector_66>
     10c:	0c 94 e2 2f 	jmp	0x5fc4	; 0x5fc4 <__vector_67>
     110:	0c 94 29 0f 	jmp	0x1e52	; 0x1e52 <__bad_interrupt>
     114:	0c 94 29 0f 	jmp	0x1e52	; 0x1e52 <__bad_interrupt>
     118:	0c 94 29 0f 	jmp	0x1e52	; 0x1e52 <__bad_interrupt>
     11c:	0c 94 29 0f 	jmp	0x1e52	; 0x1e52 <__bad_interrupt>
     120:	0c 94 29 0f 	jmp	0x1e52	; 0x1e52 <__bad_interrupt>
     124:	0c 94 29 0f 	jmp	0x1e52	; 0x1e52 <__bad_interrupt>
     128:	0c 94 29 0f 	jmp	0x1e52	; 0x1e52 <__bad_interrupt>
     12c:	0c 94 29 0f 	jmp	0x1e52	; 0x1e52 <__bad_interrupt>
     130:	0c 94 29 0f 	jmp	0x1e52	; 0x1e52 <__bad_interrupt>
     134:	0c 94 a1 27 	jmp	0x4f42	; 0x4f42 <__vector_77>
     138:	0c 94 29 0f 	jmp	0x1e52	; 0x1e52 <__bad_interrupt>
     13c:	0c 94 29 0f 	jmp	0x1e52	; 0x1e52 <__bad_interrupt>
     140:	0c 94 29 0f 	jmp	0x1e52	; 0x1e52 <__bad_interrupt>
     144:	0c 94 29 0f 	jmp	0x1e52	; 0x1e52 <__bad_interrupt>
     148:	0c 94 29 0f 	jmp	0x1e52	; 0x1e52 <__bad_interrupt>
     14c:	0c 94 29 0f 	jmp	0x1e52	; 0x1e52 <__bad_interrupt>
     150:	0c 94 29 0f 	jmp	0x1e52	; 0x1e52 <__bad_interrupt>
     154:	0c 94 29 0f 	jmp	0x1e52	; 0x1e52 <__bad_interrupt>
     158:	0c 94 29 0f 	jmp	0x1e52	; 0x1e52 <__bad_interrupt>
     15c:	0c 94 29 0f 	jmp	0x1e52	; 0x1e52 <__bad_interrupt>
     160:	0c 94 29 0f 	jmp	0x1e52	; 0x1e52 <__bad_interrupt>
     164:	0c 94 29 0f 	jmp	0x1e52	; 0x1e52 <__bad_interrupt>
     168:	0c 94 29 0f 	jmp	0x1e52	; 0x1e52 <__bad_interrupt>
     16c:	0c 94 29 0f 	jmp	0x1e52	; 0x1e52 <__bad_interrupt>
     170:	0c 94 29 0f 	jmp	0x1e52	; 0x1e52 <__bad_interrupt>
     174:	0c 94 29 0f 	jmp	0x1e52	; 0x1e52 <__bad_interrupt>
     178:	0c 94 29 0f 	jmp	0x1e52	; 0x1e52 <__bad_interrupt>
     17c:	0c 94 29 0f 	jmp	0x1e52	; 0x1e52 <__bad_interrupt>
     180:	0c 94 29 0f 	jmp	0x1e52	; 0x1e52 <__bad_interrupt>
     184:	0c 94 29 0f 	jmp	0x1e52	; 0x1e52 <__bad_interrupt>
     188:	0c 94 29 0f 	jmp	0x1e52	; 0x1e52 <__bad_interrupt>
     18c:	0c 94 29 0f 	jmp	0x1e52	; 0x1e52 <__bad_interrupt>
     190:	0c 94 29 0f 	jmp	0x1e52	; 0x1e52 <__bad_interrupt>
     194:	0c 94 29 0f 	jmp	0x1e52	; 0x1e52 <__bad_interrupt>
     198:	0c 94 29 0f 	jmp	0x1e52	; 0x1e52 <__bad_interrupt>
     19c:	0c 94 29 0f 	jmp	0x1e52	; 0x1e52 <__bad_interrupt>
     1a0:	0c 94 ec 2f 	jmp	0x5fd8	; 0x5fd8 <__vector_104>
     1a4:	0c 94 f6 2f 	jmp	0x5fec	; 0x5fec <__vector_105>
     1a8:	0c 94 29 0f 	jmp	0x1e52	; 0x1e52 <__bad_interrupt>
     1ac:	0c 94 29 0f 	jmp	0x1e52	; 0x1e52 <__bad_interrupt>
     1b0:	0c 94 d7 26 	jmp	0x4dae	; 0x4dae <__vector_108>
     1b4:	0c 94 29 0f 	jmp	0x1e52	; 0x1e52 <__bad_interrupt>
     1b8:	0c 94 29 0f 	jmp	0x1e52	; 0x1e52 <__bad_interrupt>
     1bc:	0c 94 29 0f 	jmp	0x1e52	; 0x1e52 <__bad_interrupt>
     1c0:	0c 94 29 0f 	jmp	0x1e52	; 0x1e52 <__bad_interrupt>
     1c4:	0c 94 29 0f 	jmp	0x1e52	; 0x1e52 <__bad_interrupt>
     1c8:	0c 94 29 0f 	jmp	0x1e52	; 0x1e52 <__bad_interrupt>
     1cc:	0c 94 29 0f 	jmp	0x1e52	; 0x1e52 <__bad_interrupt>
     1d0:	0c 94 29 0f 	jmp	0x1e52	; 0x1e52 <__bad_interrupt>
     1d4:	0c 94 29 0f 	jmp	0x1e52	; 0x1e52 <__bad_interrupt>
     1d8:	0c 94 29 0f 	jmp	0x1e52	; 0x1e52 <__bad_interrupt>
     1dc:	0c 94 29 0f 	jmp	0x1e52	; 0x1e52 <__bad_interrupt>
     1e0:	0c 94 29 0f 	jmp	0x1e52	; 0x1e52 <__bad_interrupt>
     1e4:	0c 94 29 0f 	jmp	0x1e52	; 0x1e52 <__bad_interrupt>
     1e8:	08 4a       	sbci	r16, 0xA8	; 168
     1ea:	d7 3b       	cpi	r29, 0xB7	; 183
     1ec:	3b ce       	rjmp	.-906    	; 0xfffffe64 <__eeprom_end+0xff7efe64>
     1ee:	01 6e       	ori	r16, 0xE1	; 225
     1f0:	84 bc       	out	0x24, r8	; 36
     1f2:	bf fd       	.word	0xfdbf	; ????
     1f4:	c1 2f       	mov	r28, r17
     1f6:	3d 6c       	ori	r19, 0xCD	; 205
     1f8:	74 31       	cpi	r23, 0x14	; 20
     1fa:	9a bd       	out	0x2a, r25	; 42
     1fc:	56 83       	std	Z+6, r21	; 0x06
     1fe:	3d da       	rcall	.-2950   	; 0xfffff67a <__eeprom_end+0xff7ef67a>
     200:	3d 00       	.word	0x003d	; ????
     202:	c7 7f       	andi	r28, 0xF7	; 247
     204:	11 be       	out	0x31, r1	; 49
     206:	d9 e4       	ldi	r29, 0x49	; 73
     208:	bb 4c       	sbci	r27, 0xCB	; 203
     20a:	3e 91       	ld	r19, -X
     20c:	6b aa       	std	Y+51, r6	; 0x33
     20e:	aa be       	out	0x3a, r10	; 58
     210:	00 00       	nop
     212:	00 80       	ld	r0, Z
     214:	3f 05       	cpc	r19, r15
     216:	a8 4c       	sbci	r26, 0xC8	; 200
     218:	cd b2       	in	r12, 0x1d	; 29
     21a:	d4 4e       	sbci	r29, 0xE4	; 228
     21c:	b9 38       	cpi	r27, 0x89	; 137
     21e:	36 a9       	ldd	r19, Z+54	; 0x36
     220:	02 0c       	add	r0, r2
     222:	50 b9       	out	0x00, r21	; 0
     224:	91 86       	std	Z+9, r9	; 0x09
     226:	88 08       	sbc	r8, r8
     228:	3c a6       	std	Y+44, r3	; 0x2c
     22a:	aa aa       	std	Y+50, r10	; 0x32
     22c:	2a be       	out	0x3a, r2	; 58
     22e:	00 00       	nop
     230:	00 80       	ld	r0, Z
     232:	3f 6e       	ori	r19, 0xEF	; 239

00000233 <__c.1790>:
     233:	6e 61 6e 00                                         nan.

00000237 <__c.1788>:
     237:	69 6e 66 00                                         inf.

0000023b <__c.3958>:
     23b:	25 73 0a 00                                         %s..

0000023f <cfgMsgXaxis>:
     23f:	58 00                                               X.

00000241 <cfgMsgYaxis>:
     241:	59 00                                               Y.

00000243 <cfgMsgZaxis>:
     243:	5a 00                                               Z.

00000245 <cfgMsgAaxis>:
     245:	41 00                                               A.

00000247 <cfgMsgs>:
     247:	3f 02 41 02 43 02 45 02                             ?.A.C.E.

0000024f <configs_P>:
     24f:	6d 6d 5f 70 65 72 5f 61 72 63 5f 73 65 67 6d 65     mm_per_arc_segme
     25f:	6e 74 20 3d 20 30 2e 32 20 0a 78 5f 73 65 65 6b     nt = 0.2 .x_seek
     26f:	5f 73 74 65 70 73 5f 73 65 63 20 3d 20 31 30 30     _steps_sec = 100
     27f:	30 20 0a 79 5f 73 65 65 6b 5f 73 74 65 70 73 5f     0 .y_seek_steps_
     28f:	73 65 63 20 3d 20 31 31 30 30 20 0a 7a 5f 73 65     sec = 1100 .z_se
     29f:	65 6b 5f 73 74 65 70 73 5f 73 65 63 20 3d 20 31     ek_steps_sec = 1
     2af:	32 30 30 20 0a 61 5f 73 65 65 6b 5f 73 74 65 70     200 .a_seek_step
     2bf:	73 5f 73 65 63 20 3d 20 31 33 30 30 20 0a 78 5f     s_sec = 1300 .x_
     2cf:	66 65 65 64 5f 73 74 65 70 73 5f 73 65 63 20 3d     feed_steps_sec =
     2df:	20 36 30 30 20 0a 79 5f 66 65 65 64 5f 73 74 65      600 .y_feed_ste
     2ef:	70 73 5f 73 65 63 20 3d 20 37 30 30 20 0a 7a 5f     ps_sec = 700 .z_
     2ff:	66 65 65 64 5f 73 74 65 70 73 5f 73 65 63 20 3d     feed_steps_sec =
     30f:	20 38 30 30 20 0a 61 5f 66 65 65 64 5f 73 74 65      800 .a_feed_ste
     31f:	70 73 5f 73 65 63 20 3d 20 39 30 30 20 0a 78 5f     ps_sec = 900 .x_
     32f:	64 65 67 72 65 65 5f 73 74 65 70 20 3d 20 30 2e     degree_step = 0.
     33f:	39 09 0a 78 5f 6d 6d 5f 72 65 76 20 3d 20 35 2e     9..x_mm_rev = 5.
     34f:	30 20 0a 78 5f 6d 6d 5f 74 72 61 76 65 6c 09 3d     0 .x_mm_travel.=
     35f:	20 34 31 30 20 0a 7a 5f 6d 69 63 72 6f 73 74 65      410 .z_microste
     36f:	70 09 3d 20 32 09 20 0a 78 5f 6c 6f 77 5f 70 77     p.= 2. .x_low_pw
     37f:	72 5f 69 64 6c 65 20 3d 20 30 20 0a 78 5f 6c 69     r_idle = 0 .x_li
     38f:	6d 69 74 5f 65 6e 61 62 6c 65 3d 09 30 00           mit_enable=.0.

0000039d <__c.3757>:
     39d:	20 28 73 74 65 70 73 5f 70 65 72 5f 6d 6d 3a 20      (steps_per_mm: 
     3ad:	20 20 20 25 37 2e 32 66 20 6d 69 63 72 6f 73 74        %7.2f microst
     3bd:	65 70 73 20 2f 20 6d 69 6c 6c 69 6d 65 74 65 72     eps / millimeter
     3cd:	29 0a 0a 00                                         )...

000003d1 <__c.3755>:
     3d1:	20 20 70 6f 6c 61 72 69 74 79 3a 20 20 20 20 20       polarity:     
     3e1:	20 20 20 25 34 64 20 20 20 20 31 3d 69 6e 76 65        %4d    1=inve
     3f1:	72 74 65 64 2c 20 30 3d 6e 6f 72 6d 61 6c 0a 00     rted, 0=normal..

00000401 <__c.3753>:
     401:	20 20 6c 6f 77 5f 70 77 72 5f 69 64 6c 65 3a 20       low_pwr_idle: 
     411:	20 20 20 25 34 64 20 20 20 20 31 3d 65 6e 61 62        %4d    1=enab
     421:	6c 65 64 2c 20 30 3d 64 69 73 61 62 6c 65 64 0a     led, 0=disabled.
	...

00000432 <__c.3751>:
     432:	20 20 6c 69 6d 69 74 5f 65 6e 61 62 6c 65 3a 20       limit_enable: 
     442:	20 20 20 25 34 64 20 20 20 20 31 3d 65 6e 61 62        %4d    1=enab
     452:	6c 65 64 2c 20 30 3d 64 69 73 61 62 6c 65 64 0a     led, 0=disabled.
	...

00000463 <__c.3749>:
     463:	20 20 6d 6d 5f 74 72 61 76 65 6c 3a 20 20 20 20       mm_travel:    
     473:	20 20 20 25 37 2e 32 66 20 6d 69 6c 6c 69 6d 65        %7.2f millime
     483:	74 65 72 73 20 74 6f 74 61 6c 20 74 72 61 76 65     ters total trave
     493:	6c 0a 00                                            l..

00000496 <__c.3747>:
     496:	20 20 6d 6d 5f 72 65 76 6f 6c 75 74 69 6f 6e 3a       mm_revolution:
     4a6:	20 20 20 25 37 2e 32 66 20 6d 69 6c 6c 69 6d 65        %7.2f millime
     4b6:	74 65 72 73 20 2f 20 72 65 76 6f 6c 75 74 69 6f     ters / revolutio
     4c6:	6e 0a 00                                            n..

000004c9 <__c.3745>:
     4c9:	20 20 64 65 67 72 65 65 5f 70 65 72 5f 73 74 65       degree_per_ste
     4d9:	70 3a 20 25 37 2e 32 66 20 64 65 67 72 65 65 73     p: %7.2f degrees
     4e9:	20 2f 20 73 74 65 70 20 28 77 68 6f 6c 65 20 73      / step (whole s
     4f9:	74 65 70 73 29 0a 00                                teps)..

00000500 <__c.3743>:
     500:	20 20 6d 69 63 72 6f 73 74 65 70 73 3a 20 20 20       microsteps:   
     510:	20 20 20 25 34 64 20 20 20 20 6d 69 63 72 6f 73        %4d    micros
     520:	74 65 70 73 20 2f 20 77 68 6f 6c 65 20 73 74 65     teps / whole ste
     530:	70 0a 00                                            p..

00000533 <__c.3741>:
     533:	20 20 66 65 65 64 5f 73 74 65 70 73 5f 73 65 63       feed_steps_sec
     543:	3a 20 20 25 34 64 20 20 20 20 73 74 65 70 73 20     :  %4d    steps 
     553:	2f 20 73 65 63 6f 6e 64 20 28 77 68 6f 6c 65 20     / second (whole 
     563:	73 74 65 70 73 29 0a 00                             steps)..

0000056b <__c.3739>:
     56b:	20 20 73 65 65 6b 5f 73 74 65 70 73 5f 73 65 63       seek_steps_sec
     57b:	3a 20 20 25 34 64 20 20 20 20 73 74 65 70 73 20     :  %4d    steps 
     58b:	2f 20 73 65 63 6f 6e 64 20 28 77 68 6f 6c 65 20     / second (whole 
     59b:	73 74 65 70 73 29 0a 00                             steps)..

000005a3 <__c.3734>:
     5a3:	25 53 20 41 78 69 73 20 43 6f 6e 66 69 67 75 72     %S Axis Configur
     5b3:	61 74 69 6f 6e 20 56 61 6c 75 65 73 0a 00           ation Values..

000005c1 <__c.3720>:
     5c1:	20 28 64 65 66 61 75 6c 74 5f 66 65 65 64 5f 72      (default_feed_r
     5d1:	61 74 65 3a 20 20 25 35 2e 33 66 20 6d 6d 20 2f     ate:  %5.3f mm /
     5e1:	20 73 65 63 6f 6e 64 29 0a 0a 00                     second)...

000005ec <__c.3718>:
     5ec:	20 28 64 65 66 61 75 6c 74 5f 73 65 65 6b 5f 72      (default_seek_r
     5fc:	61 74 65 3a 20 20 25 35 2e 33 66 20 6d 6d 20 2f     ate:  %5.3f mm /
     60c:	20 73 65 63 6f 6e 64 29 0a 00                        second)..

00000616 <__c.3716>:
     616:	20 20 6d 6d 5f 70 65 72 5f 61 72 63 5f 73 65 67       mm_per_arc_seg
     626:	6d 65 6e 74 3a 20 25 35 2e 33 66 20 6d 6d 20 2f     ment: %5.3f mm /
     636:	20 73 65 67 6d 65 6e 74 0a 00                        segment..

00000640 <__c.3714>:
     640:	47 2d 63 6f 64 65 20 4d 6f 64 65 6c 20 43 6f 6e     G-code Model Con
     650:	66 69 67 75 72 61 74 69 6f 6e 20 56 61 6c 75 65     figuration Value
     660:	73 20 2d 2d 2d 0a 00                                s ---..

00000667 <__c.3712>:
     667:	0a 2a 2a 2a 2a 2a 20 43 4f 4e 46 49 47 55 52 41     .***** CONFIGURA
     677:	54 49 4f 4e 20 5b 76 65 72 73 69 6f 6e 20 25 64     TION [version %d
     687:	5d 20 2a 2a 2a 2a 0a 00                             ] ****..

0000068f <__c.3718>:
     68f:	0a 0a 2a 2a 2a 2a 20 58 6d 65 67 61 20 49 4f 20     ..**** Xmega IO 
     69f:	73 75 62 73 79 73 74 65 6d 20 69 6e 69 74 69 61     subsystem initia
     6af:	6c 69 7a 65 64 20 2a 2a 2a 2a 0a 00                 lized ****..

000006bb <square_test1>:
     6bb:	67 31 20 66 33 33 33 20 78 30 20 79 30 0a 78 31     g1 f333 x0 y0.x1
     6cb:	20 79 30 0a 78 31 20 79 31 0a 78 30 20 79 31 0a      y0.x1 y1.x0 y1.
     6db:	78 30 20 79 30 0a 78 31 20 79 30 0a 78 31 20 79     x0 y0.x1 y0.x1 y
     6eb:	31 0a 78 30 20 79 31 0a 78 30 20 79 30 0a 78 31     1.x0 y1.x0 y0.x1
     6fb:	20 79 30 0a 78 31 20 79 31 0a 78 30 20 79 31 0a      y0.x1 y1.x0 y1.
     70b:	78 30 20 79 30 0a 78 31 20 79 30 0a 78 31 20 79     x0 y0.x1 y0.x1 y
     71b:	31 0a 78 30 20 79 31 0a 78 30 20 79 30 00           1.x0 y1.x0 y0.

00000729 <square_test2>:
     729:	67 31 20 66 33 33 33 20 78 30 20 79 30 0a 78 32     g1 f333 x0 y0.x2
     739:	20 79 30 0a 78 32 20 79 32 0a 78 30 20 79 32 0a      y0.x2 y2.x0 y2.
     749:	78 30 20 79 30 00                                   x0 y0.

0000074f <square_test10>:
     74f:	67 31 20 66 33 33 33 20 78 2d 31 30 20 79 2d 35     g1 f333 x-10 y-5
     75f:	0a 78 31 30 20 79 31 30 0a 78 30 20 79 31 30 0a     .x10 y10.x0 y10.
     76f:	78 30 20 79 30 0a 78 35 20 79 35 00                 x0 y0.x5 y5.

0000077b <circle_test10>:
     77b:	67 31 20 66 33 33 33 20 78 30 20 79 35 0a 67 33     g1 f333 x0 y5.g3
     78b:	20 66 33 33 33 20 78 31 30 20 79 35 20 69 30 20      f333 x10 y5 i0 
     79b:	6a 35 0a 67 33 20 78 35 20 79 31 30 20 69 2d 35     j5.g3 x5 y10 i-5
     7ab:	20 6a 30 0a 67 33 20 78 30 20 79 35 20 69 30 20      j0.g3 x0 y5 i0 
     7bb:	6a 2d 35 0a 67 33 20 78 35 20 79 30 20 69 35 20     j-5.g3 x5 y0 i5 
     7cb:	6a 30 0a 67 31 20 66 33 33 33 20 78 31 30 20 79     j0.g1 f333 x10 y
     7db:	30 00                                               0.

000007dd <square_circle_test10>:
     7dd:	67 31 20 66 33 33 33 20 78 31 30 20 79 30 0a 78     g1 f333 x10 y0.x
     7ed:	31 30 20 79 31 30 0a 78 30 20 79 31 30 0a 78 30     10 y10.x0 y10.x0
     7fd:	20 79 30 0a 78 35 0a 67 33 20 78 31 30 20 79 35      y0.x5.g3 x10 y5
     80d:	20 69 30 20 6a 35 0a 67 33 20 78 35 20 79 31 30      i0 j5.g3 x5 y10
     81d:	20 69 2d 35 20 6a 30 0a 67 33 20 78 30 20 79 35      i-5 j0.g3 x0 y5
     82d:	20 69 30 20 6a 2d 35 0a 67 33 20 78 35 20 79 30      i0 j-5.g3 x5 y0
     83d:	20 69 35 20 6a 30 0a 67 31 20 66 33 33 33 20 78      i5 j0.g1 f333 x
     84d:	31 30 20 79 30 00                                   10 y0.

00000853 <square_circle_test100>:
     853:	67 31 20 66 33 33 33 20 78 31 30 30 20 79 30 0a     g1 f333 x100 y0.
     863:	78 31 30 30 20 79 31 30 30 0a 78 30 20 79 31 30     x100 y100.x0 y10
     873:	30 0a 78 30 20 79 30 0a 78 35 30 0a 67 33 20 78     0.x0 y0.x50.g3 x
     883:	31 30 30 20 79 35 30 20 69 30 20 6a 35 30 0a 67     100 y50 i0 j50.g
     893:	33 20 78 35 30 20 79 31 30 30 20 69 2d 35 30 20     3 x50 y100 i-50 
     8a3:	6a 30 0a 67 33 20 78 30 20 79 35 30 20 69 30 20     j0.g3 x0 y50 i0 
     8b3:	6a 2d 35 30 0a 67 33 20 78 35 30 20 79 30 20 69     j-50.g3 x50 y0 i
     8c3:	35 30 20 6a 30 00                                   50 j0.

000008c9 <spiral_test5>:
     8c9:	67 31 20 66 33 30 30 20 78 2e 35 20 79 30 0a 67     g1 f300 x.5 y0.g
     8d9:	32 78 31 59 30 49 30 4a 30 0a 67 32 78 31 2e 35     2x1Y0I0J0.g2x1.5
     8e9:	59 30 49 30 4a 30 0a 67 32 78 32 59 30 49 30 4a     Y0I0J0.g2x2Y0I0J
     8f9:	30 0a 67 32 78 32 2e 35 59 30 49 30 4a 30 0a 67     0.g2x2.5Y0I0J0.g
     909:	32 78 33 59 30 49 30 4a 30 0a 67 32 78 33 2e 35     2x3Y0I0J0.g2x3.5
     919:	59 30 49 30 4a 30 0a 67 32 78 34 59 30 49 30 4a     Y0I0J0.g2x4Y0I0J
     929:	30 0a 67 32 78 34 2e 35 59 30 49 30 4a 30 0a 67     0.g2x4.5Y0I0J0.g
     939:	32 78 35 59 30 49 30 4a 30 00                       2x5Y0I0J0.

00000943 <spiral_test50a>:
     943:	67 31 20 66 33 33 33 20 78 30 20 79 30 0a 67 33     g1 f333 x0 y0.g3
     953:	20 78 35 30 20 79 35 30 20 69 30 20 6a 35 30 00      x50 y50 i0 j50.

00000963 <dwell_test1>:
     963:	67 30 20 78 31 30 0a 67 34 20 70 31 0a 67 30 20     g0 x10.g4 p1.g0 
     973:	78 32 30 0a 67 34 20 70 31 0a 67 30 20 78 31 30     x20.g4 p1.g0 x10
     983:	0a 67 34 20 70 31 0a 67 30 20 78 30 30 0a 67 34     .g4 p1.g0 x00.g4
     993:	20 70 31 0a 67 30 20 78 31 30 0a 67 34 20 70 31      p1.g0 x10.g4 p1
     9a3:	0a 67 30 20 78 32 30 0a 67 34 20 70 31 0a 67 30     .g0 x20.g4 p1.g0
     9b3:	20 78 31 30 0a 67 34 20 70 31 0a 67 30 20 78 30      x10.g4 p1.g0 x0
     9c3:	0a 67 34 20 70 31 0a 67 30 20 78 31 30 0a 67 34     .g4 p1.g0 x10.g4
     9d3:	20 70 31 0a 67 30 20 78 32 30 0a 67 34 20 70 31      p1.g0 x20.g4 p1
     9e3:	0a 67 30 20 78 31 30 0a 67 34 20 70 31 0a 67 30     .g0 x10.g4 p1.g0
     9f3:	20 78 30 00                                          x0.

000009f7 <dwell_test2>:
     9f7:	67 30 20 78 31 0a 67 34 20 70 31 0a 67 30 20 78     g0 x1.g4 p1.g0 x
     a07:	32 0a 67 34 20 70 31 0a 67 30 20 78 31 0a 67 34     2.g4 p1.g0 x1.g4
     a17:	20 70 31 0a 67 30 20 78 30 0a 67 34 20 70 31 0a      p1.g0 x0.g4 p1.
     a27:	67 30 20 78 31 0a 67 34 20 70 31 0a 67 30 20 78     g0 x1.g4 p1.g0 x
     a37:	32 0a 67 34 20 70 31 0a 67 30 20 78 31 0a 67 34     2.g4 p1.g0 x1.g4
     a47:	20 70 31 0a 67 30 20 78 30 0a 67 34 20 70 31 0a      p1.g0 x0.g4 p1.
     a57:	67 30 20 78 31 0a 67 34 20 70 31 0a 67 30 20 78     g0 x1.g4 p1.g0 x
     a67:	32 0a 67 34 20 70 31 0a 67 30 20 78 31 0a 67 34     2.g4 p1.g0 x1.g4
     a77:	20 70 31 0a 67 30 20 78 30 00                        p1.g0 x0.

00000a81 <dwell_testMax>:
     a81:	67 34 20 70 32 30 30 2e 31 00                       g4 p200.1.

00000a8b <g0_test1>:
     a8b:	67 30 20 78 31 30 20 79 32 30 20 7a 33 30 0a 67     g0 x10 y20 z30.g
     a9b:	30 20 78 30 20 79 32 31 20 7a 2d 33 34 2e 32 00     0 x0 y21 z-34.2.

00000aab <g0_test2>:
     aab:	67 30 20 78 31 30 20 79 32 30 20 7a 34 30 0a 67     g0 x10 y20 z40.g
     abb:	30 20 78 30 20 79 30 20 7a 30 0a 67 30 20 78 31     0 x0 y0 z0.g0 x1
     acb:	30 20 79 32 30 20 7a 34 30 0a 67 30 20 78 30 20     0 y20 z40.g0 x0 
     adb:	79 30 20 7a 30 00                                   y0 z0.

00000ae1 <g0_test3>:
     ae1:	67 31 20 66 33 30 30 20 78 31 20 79 32 20 7a 33     g1 f300 x1 y2 z3
     af1:	0a 67 31 20 78 32 20 79 34 20 7a 36 0a 67 31 20     .g1 x2 y4 z6.g1 
     b01:	78 34 30 20 79 2d 36 37 20 7a 2d 31 32 00           x40 y-67 z-12.

00000b0f <radius_arc_test1>:
     b0f:	67 31 20 66 33 30 30 20 78 31 20 79 31 0a 67 32     g1 f300 x1 y1.g2
     b1f:	20 66 33 32 30 20 78 31 30 31 20 79 31 30 31 20      f320 x101 y101 
     b2f:	72 35 30 0a 00                                      r50..

00000b34 <radius_arc_test2>:
     b34:	67 32 0a 00                                         g2..

00000b38 <zoetrope>:
     b38:	47 39 30 0a 46 33 32 30 0a 47 31 20 58 2d 32 37     G90.F320.G1 X-27
     b48:	2e 37 38 31 34 20 59 31 31 2e 33 32 32 32 20 0a     .7814 Y11.3222 .
     b58:	47 31 20 58 2d 31 33 2e 37 39 35 32 20 59 31 2e     G1 X-13.7952 Y1.
     b68:	39 39 38 30 33 20 0a 47 31 20 58 2d 32 37 2e 37     99803 .G1 X-27.7
     b78:	38 31 34 20 59 31 31 2e 33 32 32 32 20 0a 47 31     814 Y11.3222 .G1
     b88:	20 58 2d 32 37 2e 37 38 31 34 20 59 31 2e 39 39      X-27.7814 Y1.99
     b98:	38 30 33 20 0a 47 31 20 58 2d 32 37 2e 37 38 31     803 .G1 X-27.781
     ba8:	34 20 59 31 31 2e 33 32 32 32 20 0a 47 31 20 58     4 Y11.3222 .G1 X
     bb8:	2d 32 37 2e 37 38 31 34 20 59 31 2e 39 39 38 30     -27.7814 Y1.9980
     bc8:	33 20 0a 47 31 20 58 2d 31 33 2e 37 39 35 32 20     3 .G1 X-13.7952 
     bd8:	59 31 2e 39 39 38 30 33 20 0a 47 31 20 58 2d 31     Y1.99803 .G1 X-1
     be8:	33 2e 37 39 35 32 20 59 31 31 2e 33 32 32 32 20     3.7952 Y11.3222 
     bf8:	0a 47 31 20 58 2d 31 33 2e 37 39 35 32 20 59 31     .G1 X-13.7952 Y1
     c08:	2e 39 39 38 30 33 20 0a 47 31 20 58 2d 31 30 2e     .99803 .G1 X-10.
     c18:	38 30 35 35 20 59 32 31 2e 31 32 31 39 20 0a 47     8055 Y21.1219 .G
     c28:	31 20 58 2d 31 31 2e 33 39 36 31 20 59 31 39 2e     1 X-11.3961 Y19.
     c38:	37 35 34 38 20 0a 47 31 20 58 2d 31 31 2e 35 35     7548 .G1 X-11.55
     c48:	38 20 59 31 37 2e 38 37 38 20 0a 47 31 20 58 2d     8 Y17.878 .G1 X-
     c58:	31 30 2e 37 38 31 34 20 59 31 35 2e 39 32 30 32     10.7814 Y15.9202
     c68:	20 0a 47 31 20 58 2d 39 2e 39 32 33 39 36 20 59      .G1 X-9.92396 Y
     c78:	31 34 2e 39 30 30 39 20 0a 47 31 20 58 2d 38 2e     14.9009 .G1 X-8.
     c88:	31 32 38 30 39 20 59 31 33 2e 38 30 30 37 20 0a     12809 Y13.8007 .
     c98:	47 31 20 58 2d 36 2e 32 35 31 32 39 20 59 31 33     G1 X-6.25129 Y13
     ca8:	2e 36 33 38 38 20 0a 47 31 20 58 2d 34 2e 38 30     .6388 .G1 X-4.80
     cb8:	33 32 34 20 59 31 33 2e 39 38 36 36 20 0a 47 31     324 Y13.9866 .G1
     cc8:	20 58 2d 33 2e 32 37 34 32 35 20 59 31 35 2e 32      X-3.27425 Y15.2
     cd8:	37 32 38 20 0a 47 31 20 58 2d 32 2e 36 38 33 36     728 .G1 X-2.6836
     ce8:	37 20 59 31 36 2e 36 34 20 0a 47 31 20 58 2d 32     7 Y16.64 .G1 X-2
     cf8:	2e 35 32 31 38 32 20 59 31 38 2e 35 31 36 38 20     .52182 Y18.5168 
     d08:	0a 47 31 20 58 2d 33 2e 32 39 38 33 37 20 59 32     .G1 X-3.29837 Y2
     d18:	30 2e 34 37 34 35 20 0a 47 31 20 58 2d 34 2e 31     0.4745 .G1 X-4.1
     d28:	35 35 38 34 20 59 32 31 2e 34 39 33 38 20 0a 47     5584 Y21.4938 .G
     d38:	31 20 58 2d 35 2e 39 35 31 37 31 20 59 32 32 2e     1 X-5.95171 Y22.
     d48:	35 39 34 31 20 0a 47 31 20 58 2d 37 2e 38 32 38     5941 .G1 X-7.828
     d58:	35 20 59 32 32 2e 37 35 35 39 20 0a 47 31 20 58     5 Y22.7559 .G1 X
     d68:	2d 39 2e 32 37 36 35 36 20 59 32 32 2e 34 30 38     -9.27656 Y22.408
     d78:	31 20 0a 47 31 20 58 2d 31 30 2e 38 30 35 35 20     1 .G1 X-10.8055 
     d88:	59 32 31 2e 31 32 31 39 20 0a 47 31 20 58 34 2e     Y21.1219 .G1 X4.
     d98:	32 37 35 37 36 20 59 31 38 2e 37 34 36 20 0a 47     27576 Y18.746 .G
     da8:	31 20 58 31 32 2e 32 31 30 33 20 59 31 37 2e 37     1 X12.2103 Y17.7
     db8:	38 38 20 0a 47 31 20 58 31 32 2e 33 36 39 39 20     88 .G1 X12.3699 
     dc8:	59 31 39 2e 31 31 30 34 20 0a 47 31 20 58 31 31     Y19.1104 .G1 X11
     dd8:	2e 38 36 38 34 20 59 32 30 2e 35 31 32 37 20 0a     .8684 Y20.5127 .
     de8:	47 31 20 58 31 31 2e 32 38 37 20 59 32 31 2e 32     G1 X11.287 Y21.2
     df8:	35 33 37 20 0a 47 31 20 58 31 30 2e 30 34 34 34     537 .G1 X10.0444
     e08:	20 59 32 32 2e 30 37 34 36 20 0a 47 31 20 58 38      Y22.0746 .G1 X8
     e18:	2e 30 36 30 37 37 20 59 32 32 2e 33 31 34 31 20     .06077 Y22.3141 
     e28:	0a 47 31 20 58 36 2e 36 35 38 35 33 20 59 32 31     .G1 X6.65853 Y21
     e38:	2e 38 31 32 35 20 0a 47 31 20 58 35 2e 31 37 36     .8125 .G1 X5.176
     e48:	34 35 20 59 32 30 2e 36 34 39 38 20 0a 47 31 20     45 Y20.6498 .G1 
     e58:	58 34 2e 32 37 35 37 36 20 59 31 38 2e 37 34 36     X4.27576 Y18.746
     e68:	20 0a 47 31 20 58 34 2e 31 31 36 31 20 59 31 37      .G1 X4.1161 Y17
     e78:	2e 34 32 33 35 20 0a 47 31 20 58 34 2e 35 33 37     .4235 .G1 X4.537
     e88:	38 33 20 59 31 35 2e 33 36 30 31 20 0a 47 31 20     83 Y15.3601 .G1 
     e98:	58 35 2e 37 30 30 35 39 20 59 31 33 2e 38 37 38     X5.70059 Y13.878
     ea8:	20 0a 47 31 20 58 36 2e 39 34 33 31 37 20 59 31      .G1 X6.94317 Y1
     eb8:	33 2e 30 35 37 32 20 0a 47 31 20 58 38 2e 39 32     3.0572 .G1 X8.92
     ec8:	36 38 20 59 31 32 2e 38 31 37 37 20 0a 47 31 20     68 Y12.8177 .G1 
     ed8:	58 31 30 2e 33 32 39 20 59 31 33 2e 33 31 39 32     X10.329 Y13.3192
     ee8:	20 0a 47 31 20 58 31 31 2e 38 31 31 31 20 59 31      .G1 X11.8111 Y1
     ef8:	34 2e 34 38 32 20 0a 47 31 20 58 32 33 2e 36 35     4.482 .G1 X23.65
     f08:	30 39 20 59 31 34 2e 39 35 31 20 0a 47 31 20 58     09 Y14.951 .G1 X
     f18:	31 34 2e 38 36 38 37 20 59 37 2e 38 30 35 30 39     14.8687 Y7.80509
     f28:	20 0a 47 31 20 58 31 33 2e 37 33 39 32 20 59 36      .G1 X13.7392 Y6
     f38:	2e 30 32 37 34 35 20 0a 47 31 20 58 31 34 2e 30     .02745 .G1 X14.0
     f48:	36 33 33 20 59 34 2e 35 37 33 39 20 0a 47 31 20     633 Y4.5739 .G1 
     f58:	58 31 34 2e 39 30 34 20 59 33 2e 35 34 30 37 20     X14.904 Y3.5407 
     f68:	0a 47 31 20 58 31 38 2e 37 37 33 37 20 59 31 33     .G1 X18.7737 Y13
     f78:	2e 35 35 38 34 20 0a 47 31 20 58 32 31 2e 37 31     .5584 .G1 X21.71
     f88:	36 31 20 59 39 2e 39 34 32 31 34 20 0a 47 31 20     61 Y9.94214 .G1 
     f98:	58 31 38 2e 37 37 33 37 20 59 31 33 2e 35 35 38     X18.7737 Y13.558
     fa8:	34 20 0a 47 31 20 58 32 33 2e 32 33 35 32 20 59     4 .G1 X23.2352 Y
     fb8:	31 2e 33 31 35 33 33 20 0a 47 31 20 58 31 34 2e     1.31533 .G1 X14.
     fc8:	30 34 37 34 20 59 2d 30 2e 32 37 33 38 34 38 20     0474 Y-0.273848 
     fd8:	0a 47 31 20 58 32 33 2e 32 33 35 32 20 59 31 2e     .G1 X23.2352 Y1.
     fe8:	33 31 35 33 33 20 0a 47 31 20 58 31 39 2e 32 39     31533 .G1 X19.29
     ff8:	37 36 20 59 30 2e 36 33 34 32 35 32 20 0a 47 31     76 Y0.634252 .G1
    1008:	20 58 32 31 2e 33 37 39 39 20 59 30 2e 33 31 38      X21.3799 Y0.318
    1018:	35 32 34 20 0a 47 31 20 58 32 32 2e 39 31 39 34     524 .G1 X22.9194
    1028:	20 59 2d 30 2e 37 36 36 39 38 31 20 0a 47 31 20      Y-0.766981 .G1 
    1038:	58 32 33 2e 38 30 32 37 20 59 2d 31 2e 39 36 36     X23.8027 Y-1.966
    1048:	20 0a 47 31 20 58 32 34 2e 31 34 33 33 20 59 2d      .G1 X24.1433 Y-
    1058:	33 2e 39 33 34 38 20 0a 47 31 20 58 31 38 2e 36     3.9348 .G1 X18.6
    1068:	39 31 33 20 59 2d 31 34 2e 36 31 32 37 20 0a 47     913 Y-14.6127 .G
    1078:	31 20 58 31 38 2e 36 35 31 37 20 59 2d 31 33 2e     1 X18.6517 Y-13.
    1088:	31 32 33 39 20 0a 47 31 20 58 31 38 2e 30 30 38     1239 .G1 X18.008
    1098:	36 20 59 2d 31 31 2e 33 35 33 33 20 0a 47 31 20     6 Y-11.3533 .G1 
    10a8:	58 31 36 2e 34 38 30 33 20 59 2d 39 2e 39 30 34     X16.4803 Y-9.904
    10b8:	32 35 20 0a 47 31 20 58 31 35 2e 32 37 33 34 20     25 .G1 X15.2734 
    10c8:	59 2d 39 2e 33 34 30 34 36 20 0a 47 31 20 58 31     Y-9.34046 .G1 X1
    10d8:	33 2e 31 38 31 33 20 59 2d 39 2e 30 39 38 32 20     3.1813 Y-9.0982 
    10e8:	0a 47 31 20 58 31 31 2e 34 31 30 37 20 59 2d 39     .G1 X11.4107 Y-9
    10f8:	2e 37 34 31 32 35 20 0a 47 31 20 58 31 30 2e 32     .74125 .G1 X10.2
    1108:	34 33 35 20 59 2d 31 30 2e 36 36 36 32 20 0a 47     435 Y-10.6662 .G
    1118:	31 20 58 39 2e 33 39 37 38 34 20 59 2d 31 32 2e     1 X9.39784 Y-12.
    1128:	34 37 36 34 20 0a 47 31 20 58 39 2e 34 33 37 34     4764 .G1 X9.4374
    1138:	37 20 59 2d 31 33 2e 39 36 35 31 20 0a 47 31 20     7 Y-13.9651 .G1 
    1148:	58 31 30 2e 30 38 30 35 20 59 2d 31 35 2e 37 33     X10.0805 Y-15.73
    1158:	35 37 20 0a 47 31 20 58 31 31 2e 36 30 38 39 20     57 .G1 X11.6089 
    1168:	59 2d 31 37 2e 31 38 34 38 20 0a 47 31 20 58 31     Y-17.1848 .G1 X1
    1178:	32 2e 38 31 35 37 20 59 2d 31 37 2e 37 34 38 36     2.8157 Y-17.7486
    1188:	20 0a 47 31 20 58 31 34 2e 39 30 37 38 20 59 2d      .G1 X14.9078 Y-
    1198:	31 37 2e 39 39 30 39 20 0a 47 31 20 58 31 36 2e     17.9909 .G1 X16.
    11a8:	36 37 38 34 20 59 2d 31 37 2e 33 34 37 38 20 0a     6784 Y-17.3478 .
    11b8:	47 31 20 58 31 37 2e 38 34 35 36 20 59 2d 31 36     G1 X17.8456 Y-16
    11c8:	2e 34 32 32 39 20 0a 47 31 20 58 31 38 2e 36 39     .4229 .G1 X18.69
    11d8:	31 33 20 59 2d 31 34 2e 36 31 32 37 20 0a 47 31     13 Y-14.6127 .G1
    11e8:	20 58 34 2e 36 31 32 34 36 20 59 2d 32 32 2e 38      X4.61246 Y-22.8
    11f8:	31 30 37 20 0a 47 31 20 58 30 2e 32 38 39 34 31     107 .G1 X0.28941
    1208:	35 20 59 2d 39 2e 35 30 39 33 37 20 0a 47 31 20     5 Y-9.50937 .G1 
    1218:	58 34 2e 36 31 32 34 36 20 59 2d 32 32 2e 38 31     X4.61246 Y-22.81
    1228:	30 37 20 0a 47 31 20 58 33 2e 39 39 34 38 38 20     07 .G1 X3.99488 
    1238:	59 2d 32 30 2e 39 31 30 35 20 0a 47 31 20 58 33     Y-20.9105 .G1 X3
    1248:	2e 31 33 39 38 31 20 59 2d 32 32 2e 35 38 39 20     .13981 Y-22.589 
    1258:	0a 47 31 20 58 32 2e 30 37 38 38 37 20 59 2d 32     .G1 X2.07887 Y-2
    1268:	33 2e 36 33 34 31 20 0a 47 31 20 58 30 2e 31 37     3.6341 .G1 X0.17
    1278:	38 36 38 34 20 59 2d 32 34 2e 32 35 31 37 20 0a     8684 Y-24.2517 .
    1288:	47 31 20 58 2d 31 2e 32 39 33 39 37 20 59 2d 32     G1 X-1.29397 Y-2
    1298:	34 2e 30 33 20 0a 47 31 20 58 2d 32 2e 39 37 32     4.03 .G1 X-2.972
    12a8:	34 38 20 59 2d 32 33 2e 31 37 35 20 0a 47 31 20     48 Y-23.175 .G1 
    12b8:	58 2d 34 2e 32 32 33 34 35 20 59 2d 32 31 2e 34     X-4.22345 Y-21.4
    12c8:	38 30 36 20 0a 47 31 20 58 2d 34 2e 36 33 35 31     806 .G1 X-4.6351
    12d8:	37 20 59 2d 32 30 2e 32 31 33 38 20 0a 47 31 20     7 Y-20.2138 .G1 
    12e8:	58 2d 34 2e 36 31 39 33 35 20 59 2d 31 38 2e 31     X-4.61935 Y-18.1
    12f8:	30 37 38 20 0a 47 31 20 58 2d 33 2e 37 36 34 32     078 .G1 X-3.7642
    1308:	38 20 59 2d 31 36 2e 34 32 39 33 20 0a 47 31 20     8 Y-16.4293 .G1 
    1318:	58 2d 32 2e 37 30 33 33 35 20 59 2d 31 35 2e 33     X-2.70335 Y-15.3
    1328:	38 34 32 20 0a 47 31 20 58 2d 30 2e 38 30 33 31     842 .G1 X-0.8031
    1338:	35 36 20 59 2d 31 34 2e 37 36 36 36 20 0a 47 31     56 Y-14.7666 .G1
    1348:	20 58 30 2e 36 36 39 34 39 36 20 59 2d 31 34 2e      X0.669496 Y-14.
    1358:	39 38 38 33 20 0a 47 31 20 58 32 2e 33 34 38 30     9883 .G1 X2.3480
    1368:	31 20 59 2d 31 35 2e 38 34 33 33 20 0a 47 31 20     1 Y-15.8433 .G1 
    1378:	58 2d 31 30 2e 39 34 37 39 20 59 2d 31 35 2e 38     X-10.9479 Y-15.8
    1388:	30 36 32 20 0a 47 31 20 58 2d 31 37 2e 39 35 35     062 .G1 X-17.955
    1398:	33 20 59 2d 31 31 2e 39 36 32 39 20 0a 47 31 20     3 Y-11.9629 .G1 
    13a8:	58 2d 31 38 2e 35 39 35 39 20 59 2d 31 33 2e 31     X-18.5959 Y-13.1
    13b8:	33 30 38 20 0a 47 31 20 58 2d 31 38 2e 36 35 32     308 .G1 X-18.652
    13c8:	35 20 59 2d 31 34 2e 36 31 39 20 0a 47 31 20 58     5 Y-14.619 .G1 X
    13d8:	2d 31 38 2e 33 38 38 38 20 59 2d 31 35 2e 35 32     -18.3888 Y-15.52
    13e8:	33 32 20 0a 47 31 20 58 2d 31 37 2e 35 34 31 32     32 .G1 X-17.5412
    13f8:	20 59 2d 31 36 2e 37 34 37 37 20 0a 47 31 20 58      Y-16.7477 .G1 X
    1408:	2d 31 35 2e 37 38 39 33 20 59 2d 31 37 2e 37 30     -15.7893 Y-17.70
    1418:	38 35 20 0a 47 31 20 58 2d 31 34 2e 33 30 31 31     85 .G1 X-14.3011
    1428:	20 59 2d 31 37 2e 37 36 35 31 20 0a 47 31 20 58      Y-17.7651 .G1 X
    1438:	2d 31 32 2e 34 39 32 37 20 59 2d 31 37 2e 32 33     -12.4927 Y-17.23
    1448:	37 38 20 0a 47 31 20 58 2d 31 30 2e 39 34 37 39     78 .G1 X-10.9479
    1458:	20 59 2d 31 35 2e 38 30 36 32 20 0a 47 31 20 58      Y-15.8062 .G1 X
    1468:	2d 31 30 2e 33 30 37 34 20 59 2d 31 34 2e 36 33     -10.3074 Y-14.63
    1478:	38 33 20 0a 47 31 20 58 2d 39 2e 39 33 30 35 32     83 .G1 X-9.93052
    1488:	20 59 2d 31 32 2e 35 36 36 32 20 0a 47 31 20 58      Y-12.5662 .G1 X
    1498:	2d 31 30 2e 34 35 37 39 20 59 2d 31 30 2e 37 35     -10.4579 Y-10.75
    14a8:	37 37 20 0a 47 31 20 58 2d 31 31 2e 33 30 35 35     77 .G1 X-11.3055
    14b8:	20 59 2d 39 2e 35 33 33 32 35 20 0a 47 31 20 58      Y-9.53325 .G1 X
    14c8:	2d 31 33 2e 30 35 37 33 20 59 2d 38 2e 35 37 32     -13.0573 Y-8.572
    14d8:	34 33 20 0a 47 31 20 58 2d 31 34 2e 35 34 35 35     43 .G1 X-14.5455
    14e8:	20 59 2d 38 2e 35 31 35 38 33 00                     Y-8.51583.

000014f3 <contraptor_circle>:
    14f3:	47 32 31 0a 47 39 30 20 0a 47 30 20 5a 31 2e 35     G21.G90 .G0 Z1.5
    1503:	20 0a 47 31 37 20 0a 4d 33 20 53 30 20 0a 47 30      .G17 .M3 S0 .G0
    1513:	20 58 31 37 2e 36 30 37 35 20 59 33 35 2e 36 37      X17.6075 Y35.67
    1523:	39 37 20 0a 47 31 20 46 31 30 30 2e 30 20 5a 2d     97 .G1 F100.0 Z-
    1533:	30 2e 35 20 0a 47 31 20 46 32 30 30 2e 30 20 58     0.5 .G1 F200.0 X
    1543:	32 31 2e 34 30 36 38 20 59 33 35 2e 32 36 35 34     21.4068 Y35.2654
    1553:	20 0a 47 32 20 58 32 30 2e 31 38 31 39 20 59 33      .G2 X20.1819 Y3
    1563:	32 2e 37 33 36 33 20 49 2d 39 2e 30 35 32 36 20     2.7363 I-9.0526 
    1573:	4a 32 2e 38 32 33 33 20 0a 47 32 20 58 31 38 2e     J2.8233 .G2 X18.
    1583:	30 37 37 33 20 59 33 30 2e 37 30 37 32 20 49 2d     0773 Y30.7072 I-
    1593:	36 2e 35 34 20 4a 34 2e 36 37 37 33 20 0a 47 32     6.54 J4.6773 .G2
    15a3:	20 58 31 35 2e 31 32 34 33 20 59 32 39 2e 34 34      X15.1243 Y29.44
    15b3:	34 34 20 49 2d 34 2e 37 34 31 34 20 4a 37 2e 30     44 I-4.7414 J7.0
    15c3:	30 33 37 20 0a 47 32 20 58 31 31 2e 38 36 37 37     037 .G2 X11.8677
    15d3:	20 59 32 39 2e 30 38 35 37 20 49 2d 32 2e 39 36      Y29.0857 I-2.96
    15e3:	30 35 20 4a 31 31 2e 39 31 34 37 20 0a 47 32 20     05 J11.9147 .G2 
    15f3:	58 37 2e 37 38 30 33 20 59 32 39 2e 36 36 39 37     X7.7803 Y29.6697
    1603:	20 49 2d 30 2e 33 38 35 33 20 4a 31 31 2e 38 39      I-0.3853 J11.89
    1613:	39 20 0a 47 32 20 58 34 2e 33 31 20 59 33 31 2e     9 .G2 X4.31 Y31.
    1623:	36 36 32 31 20 49 32 2e 34 37 39 31 20 4a 38 2e     6621 I2.4791 J8.
    1633:	33 33 36 38 20 0a 47 32 20 58 32 2e 31 32 34 33     3368 .G2 X2.1243
    1643:	20 59 33 35 2e 30 35 35 32 20 49 36 2e 30 35 37      Y35.0552 I6.057
    1653:	34 20 4a 36 2e 33 30 32 34 20 0a 47 32 20 58 31     4 J6.3024 .G2 X1
    1663:	2e 35 33 32 20 59 33 38 2e 39 32 32 37 20 49 31     .532 Y38.9227 I1
    1673:	32 2e 37 34 33 33 20 4a 33 2e 39 33 30 36 20 0a     2.7433 J3.9306 .
    1683:	47 32 20 58 32 2e 31 32 38 36 20 59 34 32 2e 39     G2 X2.1286 Y42.9
    1693:	30 37 39 20 49 31 34 2e 30 32 38 31 20 4a 2d 30     079 I14.0281 J-0
    16a3:	2e 30 36 33 20 0a 47 32 20 58 34 2e 33 35 30 38     .063 .G2 X4.3508
    16b3:	20 59 34 36 2e 34 31 37 35 20 49 38 2e 35 31 36      Y46.4175 I8.516
    16c3:	36 20 4a 2d 32 2e 39 33 34 32 20 0a 47 32 20 58     6 J-2.9342 .G2 X
    16d3:	37 2e 36 37 39 34 20 59 34 38 2e 34 35 20 49 36     7.6794 Y48.45 I6
    16e3:	2e 31 36 34 37 20 4a 2d 36 2e 33 35 33 39 20 0a     .1647 J-6.3539 .
    16f3:	47 32 20 58 31 31 2e 36 36 33 35 20 59 34 39 2e     G2 X11.6635 Y49.
    1703:	30 38 34 20 49 33 2e 36 32 37 39 20 4a 2d 39 2e     084 I3.6279 J-9.
    1713:	39 36 33 36 20 0a 47 32 20 58 31 35 2e 35 33 39     9636 .G2 X15.539
    1723:	33 20 59 34 38 2e 34 35 38 37 20 49 30 2e 33 34     3 Y48.4587 I0.34
    1733:	33 33 20 4a 2d 31 30 2e 31 39 36 38 20 0a 47 32     33 J-10.1968 .G2
    1743:	20 58 31 38 2e 37 37 31 38 20 59 34 36 2e 34 37      X18.7718 Y46.47
    1753:	31 36 20 49 2d 32 2e 38 32 31 33 20 4a 2d 38 2e     16 I-2.8213 J-8.
    1763:	32 31 32 34 20 0a 47 32 20 58 32 30 2e 39 34 36     2124 .G2 X20.946
    1773:	35 20 59 34 33 2e 30 32 38 35 20 49 2d 36 2e 31     5 Y43.0285 I-6.1
    1783:	37 34 38 20 4a 2d 36 2e 33 30 38 33 20 0a 47 32     748 J-6.3083 .G2
    1793:	20 58 32 31 2e 35 32 39 34 20 59 33 39 2e 31 32      X21.5294 Y39.12
    17a3:	30 39 20 49 2d 31 33 2e 32 31 39 32 20 4a 2d 33     09 I-13.2192 J-3
    17b3:	2e 39 36 39 32 20 0a 47 32 20 58 32 31 2e 35 30     .9692 .G2 X21.50
    17c3:	39 20 59 33 38 2e 32 35 36 31 20 49 2d 33 32 2e     9 Y38.2561 I-32.
    17d3:	33 37 20 4a 30 2e 33 33 31 39 20 0a 47 31 20 58     37 J0.3319 .G1 X
    17e3:	35 2e 33 33 31 33 20 0a 47 33 20 58 35 2e 38 35     5.3313 .G3 X5.85
    17f3:	34 39 20 59 33 35 2e 36 38 33 31 20 49 39 2e 39     49 Y35.6831 I9.9
    1803:	33 32 32 20 4a 30 2e 36 38 31 36 20 0a 47 33 20     322 J0.6816 .G3 
    1813:	58 37 2e 33 35 33 35 20 59 33 33 2e 34 32 37 37     X7.3535 Y33.4277
    1823:	20 49 35 2e 37 35 33 32 20 4a 32 2e 31 39 37 31      I5.7532 J2.1971
    1833:	20 0a 47 33 20 58 31 31 2e 38 38 38 31 20 59 33      .G3 X11.8881 Y3
    1843:	31 2e 37 35 32 32 20 49 34 2e 31 34 20 4a 34 2e     1.7522 I4.14 J4.
    1853:	32 33 30 35 20 0a 47 33 20 58 31 35 2e 33 34 30     2305 .G3 X15.340
    1863:	32 20 59 33 32 2e 36 38 39 20 49 30 2e 33 34 30     2 Y32.689 I0.340
    1873:	34 20 4a 35 2e 35 37 34 32 20 0a 47 33 20 58 31     4 J5.5742 .G3 X1
    1883:	36 2e 37 32 30 36 20 59 33 34 2e 30 33 38 39 20     6.7206 Y34.0389 
    1893:	49 2d 32 2e 39 33 32 39 20 4a 34 2e 33 37 39 39     I-2.9329 J4.3799
    18a3:	20 0a 47 33 20 58 31 37 2e 36 30 37 35 20 59 33      .G3 X17.6075 Y3
    18b3:	35 2e 36 37 39 37 20 49 2d 37 2e 30 38 31 36 20     5.6797 I-7.0816 
    18c3:	4a 34 2e 38 38 38 20 0a 47 30 20 5a 31 2e 35 00     J4.888 .G0 Z1.5.

000018d3 <tgModeStringControl>:
    18d3:	43 4f 4e 54 52 4f 4c 20 4d 4f 44 45 00              CONTROL MODE.

000018e0 <tgModeStringConfig>:
    18e0:	43 4f 4e 46 49 47 20 4d 4f 44 45 00                 CONFIG MODE.

000018ec <tgModeStringGCode>:
    18ec:	47 2d 43 4f 44 45 20 4d 4f 44 45 00                 G-CODE MODE.

000018f8 <tgModeStringDirect>:
    18f8:	44 49 52 45 43 54 20 44 52 49 56 45 00              DIRECT DRIVE.

00001905 <tgModeStrings>:
    1905:	d3 18 e0 18 ec 18 f8 18                             ........

0000190d <tgStatusMsg00>:
    190d:	4f 4b 00                                            OK.

00001910 <tgStatusMsg01>:
    1910:	45 52 52 4f 52 00                                   ERROR.

00001916 <tgStatusMsg02>:
    1916:	45 41 47 41 49 4e 00                                EAGAIN.

0000191d <tgStatusMsg03>:
    191d:	4e 4f 4f 50 00                                      NOOP.

00001922 <tgStatusMsg04>:
    1922:	45 6e 64 20 6f 66 20 6c 69 6e 65 00                 End of line.

0000192e <tgStatusMsg05>:
    192e:	45 6e 64 20 6f 66 20 66 69 6c 65 00                 End of file.

0000193a <tgStatusMsg06>:
    193a:	46 69 6c 65 20 6e 6f 74 20 6f 70 65 6e 00           File not open.

00001948 <tgStatusMsg07>:
    1948:	4e 6f 20 73 75 63 68 20 64 65 76 69 63 65 00        No such device.

00001957 <tgStatusMsg08>:
    1957:	42 75 66 66 65 72 20 65 6d 70 74 79 00              Buffer empty.

00001964 <tgStatusMsg09>:
    1964:	42 75 66 66 65 72 20 66 75 6c 6c 20 2d 20 66 61     Buffer full - fa
    1974:	74 61 6c 00                                         tal.

00001978 <tgStatusMsg10>:
    1978:	42 75 66 66 65 72 20 66 75 6c 6c 20 2d 20 6e 6f     Buffer full - no
    1988:	6e 2d 66 61 74 61 6c 00                             n-fatal.

00001990 <tgStatusMsg11>:
    1990:	51 55 49 54 00                                      QUIT.

00001995 <tgStatusMsg12>:
    1995:	55 6e 72 65 63 6f 67 6e 69 7a 65 64 20 63 6f 6d     Unrecognized com
    19a5:	6d 61 6e 64 00                                      mand.

000019aa <tgStatusMsg13>:
    19aa:	45 78 70 65 63 74 65 64 20 63 6f 6d 6d 61 6e 64     Expected command
    19ba:	20 6c 65 74 74 65 72 00                              letter.

000019c2 <tgStatusMsg14>:
    19c2:	55 6e 73 75 70 70 6f 72 74 65 64 20 73 74 61 74     Unsupported stat
    19d2:	65 6d 65 6e 74 00                                   ement.

000019d8 <tgStatusMsg15>:
    19d8:	50 61 72 61 6d 65 74 65 72 20 6f 76 65 72 20 72     Parameter over r
    19e8:	61 6e 67 65 00                                      ange.

000019ed <tgStatusMsg16>:
    19ed:	42 61 64 20 6e 75 6d 62 65 72 20 66 6f 72 6d 61     Bad number forma
    19fd:	74 00                                               t.

000019ff <tgStatusMsg17>:
    19ff:	46 6c 6f 61 74 69 6e 67 20 70 6f 69 6e 74 20 65     Floating point e
    1a0f:	72 72 6f 72 00                                      rror.

00001a14 <tgStatusMsg18>:
    1a14:	4d 6f 74 69 6f 6e 20 63 6f 6e 74 72 6f 6c 20 65     Motion control e
    1a24:	72 72 6f 72 00                                      rror.

00001a29 <tgStatusMsg19>:
    1a29:	41 72 63 20 73 70 65 63 69 66 69 63 61 74 69 6f     Arc specificatio
    1a39:	6e 20 65 72 72 6f 72 00                             n error.

00001a41 <tgStatusMsg20>:
    1a41:	5a 65 72 6f 20 6c 65 6e 67 74 68 20 6c 69 6e 65     Zero length line
	...

00001a52 <tgStatusStrings>:
    1a52:	0d 19 10 19 16 19 1d 19 22 19 2e 19 3a 19 48 19     ........"...:.H.
    1a62:	57 19 64 19 78 19 90 19 95 19 aa 19 c2 19 d8 19     W.d.x...........
    1a72:	ed 19 ff 19 14 1a 29 1a 41 1a                       ......).A.

00001a7c <__c.4102>:
    1a7c:	25 53 3a 20 25 73 0a 00                             %S: %s..

00001a84 <__c.3996>:
    1a84:	45 6e 64 20 6f 66 20 63 6f 6d 6d 61 6e 64 20 66     End of command f
    1a94:	69 6c 65 0a 00                                      ile..

00001a99 <__c.4060>:
    1a99:	54 69 6e 79 47 20 5b 25 53 5d 2a 3e 20 00           TinyG [%S]*> .

00001aa7 <__c.3972>:
    1aa7:	62 75 69 6c 64 20 32 30 38 00                       build 208.

00001ab1 <__c.3970>:
    1ab1:	54 69 6e 79 47 20 2d 20 56 65 72 73 69 6f 6e 20     TinyG - Version 
    1ac1:	25 53 0a 00                                         %S..

00001ac5 <bsel>:
    1ac5:	00 cf 67 33 22 21 1f 1b 13 01 01                    ..g3"!.....

00001ad0 <bscale>:
    1ad0:	00 00 00 00 00 f0 e0 d0 c0 10 01                    ...........

00001adb <readlnFuncs>:
    1adb:	75 32 31 32 31 32 31 32 31 32 31 32 31 32 31 32     u212121212121212
    1aeb:	bf 32 31 32 75 32 31 32 31 32 75 32 31 32 31 32     .212u21212u21212
    1afb:	31 32 31 32 31 32 31 32 31 32 31 32 31 32 31 32     1212121212121212
    1b0b:	31 32 31 32 31 32 31 32 31 32 31 32 31 32 31 32     1212121212121212
    1b1b:	31 32 31 32 31 32 31 32 31 32 31 32 31 32 31 32     1212121212121212
    1b2b:	31 32 31 32 31 32 31 32 31 32 31 32 31 32 31 32     1212121212121212
    1b3b:	31 32 31 32 31 32 31 32 31 32 31 32 31 32 31 32     1212121212121212
    1b4b:	31 32 31 32 31 32 a8 32 31 32 31 32 31 32 31 32     121212.212121212
    1b5b:	31 32 31 32 31 32 31 32 31 32 31 32 31 32 31 32     1212121212121212
    1b6b:	31 32 31 32 31 32 31 32 31 32 31 32 31 32 31 32     1212121212121212
    1b7b:	31 32 31 32 31 32 31 32 31 32 31 32 31 32 31 32     1212121212121212
    1b8b:	31 32 31 32 31 32 31 32 31 32 31 32 31 32 31 32     1212121212121212
    1b9b:	31 32 31 32 31 32 31 32 31 32 31 32 31 32 31 32     1212121212121212
    1bab:	31 32 31 32 31 32 31 32 31 32 31 32 31 32 31 32     1212121212121212
    1bbb:	31 32 31 32 31 32 31 32 31 32 31 32 31 32 31 32     1212121212121212
    1bcb:	31 32 31 32 31 32 31 32 31 32 31 32 31 32 bf 32     12121212121212.2

00001bdb <getcFuncs>:
    1bdb:	68 31 3b 31 3b 31 3b 31 3b 31 3b 31 3b 31 3b 31     h1;1;1;1;1;1;1;1
    1beb:	bd 31 3b 31 68 31 3b 31 3b 31 68 31 3b 31 3b 31     .1;1h1;1;1h1;1;1
    1bfb:	3b 31 3b 31 3b 31 3b 31 3b 31 3b 31 3b 31 3b 31     ;1;1;1;1;1;1;1;1
    1c0b:	3b 31 3b 31 3b 31 3b 31 3b 31 3b 31 3b 31 3b 31     ;1;1;1;1;1;1;1;1
    1c1b:	3b 31 3b 31 3b 31 3b 31 3b 31 3b 31 3b 31 3b 31     ;1;1;1;1;1;1;1;1
    1c2b:	3b 31 3b 31 3b 31 3b 31 3b 31 3b 31 3b 31 3b 31     ;1;1;1;1;1;1;1;1
    1c3b:	3b 31 3b 31 3b 31 3b 31 3b 31 3b 31 3b 31 3b 31     ;1;1;1;1;1;1;1;1
    1c4b:	3b 31 3b 31 3b 31 a6 31 3b 31 3b 31 3b 31 3b 31     ;1;1;1.1;1;1;1;1
    1c5b:	3b 31 3b 31 3b 31 3b 31 3b 31 3b 31 3b 31 3b 31     ;1;1;1;1;1;1;1;1
    1c6b:	3b 31 3b 31 3b 31 3b 31 3b 31 3b 31 3b 31 3b 31     ;1;1;1;1;1;1;1;1
    1c7b:	3b 31 3b 31 3b 31 3b 31 3b 31 3b 31 3b 31 3b 31     ;1;1;1;1;1;1;1;1
    1c8b:	3b 31 3b 31 3b 31 3b 31 3b 31 3b 31 3b 31 3b 31     ;1;1;1;1;1;1;1;1
    1c9b:	3b 31 3b 31 3b 31 3b 31 3b 31 3b 31 3b 31 3b 31     ;1;1;1;1;1;1;1;1
    1cab:	3b 31 3b 31 3b 31 3b 31 3b 31 3b 31 3b 31 3b 31     ;1;1;1;1;1;1;1;1
    1cbb:	3b 31 3b 31 3b 31 3b 31 3b 31 3b 31 3b 31 3b 31     ;1;1;1;1;1;1;1;1
    1ccb:	3b 31 3b 31 3b 31 3b 31 3b 31 3b 31 3b 31 bd 31     ;1;1;1;1;1;1;1.1

00001cdb <pstr_inf>:
    1cdb:	49 4e 46                                            INF

00001cde <pstr_inity>:
    1cde:	49 4e 49 54 59                                      INITY

00001ce3 <pstr_nan>:
    1ce3:	4e 41 4e                                            NAN

00001ce6 <pwr_m10>:
    1ce6:	cd cc cc 3d 0a d7 23 3c 17 b7 d1 38 77 cc 2b 32     ...=..#<...8w.+2
    1cf6:	95 95 e6 24 1f b1 4f 0a                             ...$..O.

00001cfe <pwr_p10>:
    1cfe:	00 00 20 41 00 00 c8 42 00 40 1c 46 20 bc be 4c     .. A...B.@.F ..L
    1d0e:	ca 1b 0e 5a ae c5 9d 74 00 40 7a 10 f3 5a 00 a0     ...Z...t.@z..Z..
    1d1e:	72 4e 18 09 00 10 a5 d4 e8 00 00 e8 76 48 17 00     rN..........vH..
    1d2e:	00 e4 0b 54 02 00 00 ca 9a 3b 00 00 00 e1 f5 05     ...T.....;......
    1d3e:	00 00 80 96 98 00 00 00 40 42 0f 00 00 00 a0 86     ........@B......
    1d4e:	01 00 00 00 10 27 00 00 00 00 e8 03 00 00 00 00     .....'..........
    1d5e:	64 00 00 00 00 00 0a 00 00 00 00 00 01 00 00 00     d...............
    1d6e:	00 00 2c 76 d8 88 dc 67 4f 08 23 df c1 df ae 59     ..,v...gO.#....Y
    1d7e:	e1 b1 b7 96 e5 e3 e4 53 c6 3a e6 51 99 76 96 e8     .......S.:.Q.v..
    1d8e:	e6 c2 84 26 eb 89 8c 9b 62 ed 40 7c 6f fc ef bc     ...&....b.@|o...
    1d9e:	9c 9f 40 f2 ba a5 6f a5 f4 90 05 5a 2a f7 5c 93     ..@...o....Z*.\.
    1dae:	6b 6c f9 67 6d c1 1b fc e0 e4 0d 47 fe f5 20 e6     kl.gm......G.. .
    1dbe:	b5 00 d0 ed 90 2e 03 00 94 35 77 05 00 80 84 1e     .........5w.....
    1dce:	08 00 00 20 4e 0a 00 00 00 c8 0c 33 33 33 33 0f     ... N......3333.
    1dde:	98 6e 12 83 11 41 ef 8d 21 14 89 3b e6 55 16 cf     .n...A..!..;.U..
    1dee:	fe e6 db 18 d1 84 4b 38 1b f7 7c 1d 90 1d a4 bb     ......K8..|.....
    1dfe:	e4 24 20 32 84 72 5e 22 81 00 c9 f1 24 ec a1 e5     .$ 2.r^"....$...
    1e0e:	3d 27                                               ='

00001e10 <__ctors_end>:
    1e10:	11 24       	eor	r1, r1
    1e12:	1f be       	out	0x3f, r1	; 63
    1e14:	cf ef       	ldi	r28, 0xFF	; 255
    1e16:	df e5       	ldi	r29, 0x5F	; 95
    1e18:	de bf       	out	0x3e, r29	; 62
    1e1a:	cd bf       	out	0x3d, r28	; 61
    1e1c:	00 e0       	ldi	r16, 0x00	; 0
    1e1e:	0c bf       	out	0x3c, r16	; 60

00001e20 <__do_copy_data>:
    1e20:	11 e2       	ldi	r17, 0x21	; 33
    1e22:	a0 e0       	ldi	r26, 0x00	; 0
    1e24:	b0 e2       	ldi	r27, 0x20	; 32
    1e26:	e4 ec       	ldi	r30, 0xC4	; 196
    1e28:	f4 e9       	ldi	r31, 0x94	; 148
    1e2a:	00 e0       	ldi	r16, 0x00	; 0
    1e2c:	0b bf       	out	0x3b, r16	; 59
    1e2e:	02 c0       	rjmp	.+4      	; 0x1e34 <__do_copy_data+0x14>
    1e30:	07 90       	elpm	r0, Z+
    1e32:	0d 92       	st	X+, r0
    1e34:	ac 31       	cpi	r26, 0x1C	; 28
    1e36:	b1 07       	cpc	r27, r17
    1e38:	d9 f7       	brne	.-10     	; 0x1e30 <__do_copy_data+0x10>

00001e3a <__do_clear_bss>:
    1e3a:	16 e2       	ldi	r17, 0x26	; 38
    1e3c:	ac e1       	ldi	r26, 0x1C	; 28
    1e3e:	b1 e2       	ldi	r27, 0x21	; 33
    1e40:	01 c0       	rjmp	.+2      	; 0x1e44 <.do_clear_bss_start>

00001e42 <.do_clear_bss_loop>:
    1e42:	1d 92       	st	X+, r1

00001e44 <.do_clear_bss_start>:
    1e44:	a2 36       	cpi	r26, 0x62	; 98
    1e46:	b1 07       	cpc	r27, r17
    1e48:	e1 f7       	brne	.-8      	; 0x1e42 <.do_clear_bss_loop>
    1e4a:	0e 94 2b 0f 	call	0x1e56	; 0x1e56 <main>
    1e4e:	0c 94 60 4a 	jmp	0x94c0	; 0x94c0 <_exit>

00001e52 <__bad_interrupt>:
    1e52:	0c 94 00 00 	jmp	0	; 0x0 <__vectors>

00001e56 <main>:


int main(void) 
{
	// Order dependent inits are numbered (n):
	cli();
    1e56:	f8 94       	cli
	hw_init();					// (1) hardware setup
    1e58:	0e 94 b9 36 	call	0x6d72	; 0x6d72 <hw_init>
	xio_init();					// (2) xmega io subsystem
    1e5c:	0e 94 e2 29 	call	0x53c4	; 0x53c4 <xio_init>
	cfg_init();					// (3) config record from eeprom (reqs xio)
    1e60:	0e 94 b3 17 	call	0x2f66	; 0x2f66 <cfg_init>
	tg_init();					// (4) tinyg controller (selects std devices)
    1e64:	0e 94 b7 2b 	call	0x576e	; 0x576e <tg_init>
	xio_init_stdio();			// (5) set stdin, stdout, stderr
    1e68:	0e 94 b9 29 	call	0x5372	; 0x5372 <xio_init_stdio>

	st_init(); 					// stepper subsystem
    1e6c:	0e 94 91 24 	call	0x4922	; 0x4922 <st_init>
	ls_init();					// limit switches
    1e70:	0e 94 b0 2f 	call	0x5f60	; 0x5f60 <ls_init>
	mv_init();					// move buffers
    1e74:	0e 94 f8 2c 	call	0x59f0	; 0x59f0 <mv_init>
	mc_init();					// motion control subsystem
    1e78:	0e 94 ab 1b 	call	0x3756	; 0x3756 <mc_init>
	spindle_init();				// spindle controller
    1e7c:	0e 94 75 24 	call	0x48ea	; 0x48ea <spindle_init>
	en_init();					// encoders
    1e80:	0e 94 03 1b 	call	0x3606	; 0x3606 <en_init>
	gc_init();					// gcode-parser
    1e84:	0e 94 82 0f 	call	0x1f04	; 0x1f04 <gc_init>
	dd_init();					// direct drive commands
    1e88:	0e 94 f4 2c 	call	0x59e8	; 0x59e8 <dd_init>

	PMIC_SetVectorLocationToApplication();  // as opposed to boot rom
    1e8c:	0e 94 79 28 	call	0x50f2	; 0x50f2 <PMIC_SetVectorLocationToApplication>
	PMIC_EnableLowLevel();		// enable TX interrupts
    1e90:	e0 ea       	ldi	r30, 0xA0	; 160
    1e92:	f0 e0       	ldi	r31, 0x00	; 0
    1e94:	80 91 a2 00 	lds	r24, 0x00A2
    1e98:	81 60       	ori	r24, 0x01	; 1
    1e9a:	82 83       	std	Z+2, r24	; 0x02
	PMIC_EnableMediumLevel(); 	// enable RX interrupts
    1e9c:	80 91 a2 00 	lds	r24, 0x00A2
    1ea0:	82 60       	ori	r24, 0x02	; 2
    1ea2:	82 83       	std	Z+2, r24	; 0x02
	PMIC_EnableHighLevel();		// enable stepper timer interrupts
    1ea4:	80 91 a2 00 	lds	r24, 0x00A2
    1ea8:	84 60       	ori	r24, 0x04	; 4
    1eaa:	82 83       	std	Z+2, r24	; 0x02
	sei();						// enable global interrupts
    1eac:	78 94       	sei

	tg_alive();					// (LAST) announce things are online
    1eae:	0e 94 27 2c 	call	0x584e	; 0x584e <tg_alive>

//	xio_queue_RX_string_usb("g0 x10 y11 z12\n");
//	xio_queue_RX_string_usb("g92 x0 y0 z0\n");
//	xio_queue_RX_string_usb("g0 x0 y0 z0\n");

	xio_queue_RX_string_usb("F60.000000 \n");
    1eb2:	80 e0       	ldi	r24, 0x00	; 0
    1eb4:	90 e2       	ldi	r25, 0x20	; 32
    1eb6:	0e 94 91 34 	call	0x6922	; 0x6922 <xio_queue_RX_string_usb>

#ifdef __NORMAL_MODE
	for(;;){
		tg_controller();	// this node executes gcode blocks received via RS485
    1eba:	0e 94 d8 2c 	call	0x59b0	; 0x59b0 <tg_controller>
    1ebe:	fd cf       	rjmp	.-6      	; 0x1eba <main+0x64>

00001ec0 <select_plane>:
 * select_plane() - select axis plane 
 */

void select_plane(uint8_t axis_0, uint8_t axis_1, uint8_t axis_2) 
{
	gc.plane_axis_0 = axis_0;
    1ec0:	80 93 2f 21 	sts	0x212F, r24
	gc.plane_axis_1 = axis_1;
    1ec4:	60 93 30 21 	sts	0x2130, r22
	gc.plane_axis_2 = axis_2;
    1ec8:	40 93 31 21 	sts	0x2131, r20
}
    1ecc:	08 95       	ret

00001ece <to_millimeters>:
 * to_millimeters()
 */

//inline float to_millimeters(double value) 	// inline won't compile at -O0
float to_millimeters(double value) 
{
    1ece:	ef 92       	push	r14
    1ed0:	ff 92       	push	r15
    1ed2:	0f 93       	push	r16
    1ed4:	1f 93       	push	r17
    1ed6:	7b 01       	movw	r14, r22
    1ed8:	8c 01       	movw	r16, r24
	return(gc.inches_mode ? (value * INCHES_PER_MM) : value);
    1eda:	80 91 2a 21 	lds	r24, 0x212A
    1ede:	88 23       	and	r24, r24
    1ee0:	51 f0       	breq	.+20     	; 0x1ef6 <to_millimeters+0x28>
    1ee2:	c8 01       	movw	r24, r16
    1ee4:	b7 01       	movw	r22, r14
    1ee6:	25 e8       	ldi	r18, 0x85	; 133
    1ee8:	32 e4       	ldi	r19, 0x42	; 66
    1eea:	41 e2       	ldi	r20, 0x21	; 33
    1eec:	5d e3       	ldi	r21, 0x3D	; 61
    1eee:	0e 94 2f 45 	call	0x8a5e	; 0x8a5e <__mulsf3>
    1ef2:	7b 01       	movw	r14, r22
    1ef4:	8c 01       	movw	r16, r24
}
    1ef6:	b7 01       	movw	r22, r14
    1ef8:	c8 01       	movw	r24, r16
    1efa:	1f 91       	pop	r17
    1efc:	0f 91       	pop	r16
    1efe:	ff 90       	pop	r15
    1f00:	ef 90       	pop	r14
    1f02:	08 95       	ret

00001f04 <gc_init>:
/* 
 * gc_init() 
 */

void gc_init() {
	memset(&gc, 0, sizeof(gc));				// must set doubles independently (true?)
    1f04:	86 e5       	ldi	r24, 0x56	; 86
    1f06:	ec e1       	ldi	r30, 0x1C	; 28
    1f08:	f1 e2       	ldi	r31, 0x21	; 33
    1f0a:	df 01       	movw	r26, r30
    1f0c:	1d 92       	st	X+, r1
    1f0e:	8a 95       	dec	r24
    1f10:	e9 f7       	brne	.-6      	; 0x1f0c <gc_init+0x8>
  	gc.dwell_time = 0; 						// was 'p' 
    1f12:	80 e0       	ldi	r24, 0x00	; 0
    1f14:	90 e0       	ldi	r25, 0x00	; 0
    1f16:	a0 e0       	ldi	r26, 0x00	; 0
    1f18:	b0 e0       	ldi	r27, 0x00	; 0
    1f1a:	80 93 32 21 	sts	0x2132, r24
    1f1e:	90 93 33 21 	sts	0x2133, r25
    1f22:	a0 93 34 21 	sts	0x2134, r26
    1f26:	b0 93 35 21 	sts	0x2135, r27
	gc.radius = 0;							// radius value
    1f2a:	80 93 36 21 	sts	0x2136, r24
    1f2e:	90 93 37 21 	sts	0x2137, r25
    1f32:	a0 93 38 21 	sts	0x2138, r26
    1f36:	b0 93 39 21 	sts	0x2139, r27
	gc.feed_rate = cfg.default_feed_rate;	// Note: is divided by 60 in Grbl
    1f3a:	80 91 62 22 	lds	r24, 0x2262
    1f3e:	90 91 63 22 	lds	r25, 0x2263
    1f42:	a0 91 64 22 	lds	r26, 0x2264
    1f46:	b0 91 65 22 	lds	r27, 0x2265
    1f4a:	80 93 3a 21 	sts	0x213A, r24
    1f4e:	90 93 3b 21 	sts	0x213B, r25
    1f52:	a0 93 3c 21 	sts	0x213C, r26
    1f56:	b0 93 3d 21 	sts	0x213D, r27
	gc.seek_rate = cfg.default_seek_rate;	// Note: is divided by 60 in Grbl
    1f5a:	80 91 66 22 	lds	r24, 0x2266
    1f5e:	90 91 67 22 	lds	r25, 0x2267
    1f62:	a0 91 68 22 	lds	r26, 0x2268
    1f66:	b0 91 69 22 	lds	r27, 0x2269
    1f6a:	80 93 3e 21 	sts	0x213E, r24
    1f6e:	90 93 3f 21 	sts	0x213F, r25
    1f72:	a0 93 40 21 	sts	0x2140, r26
    1f76:	b0 93 41 21 	sts	0x2141, r27

	gc.absolute_mode = TRUE;
    1f7a:	21 e0       	ldi	r18, 0x01	; 1
    1f7c:	20 93 2b 21 	sts	0x212B, r18
	gc.inverse_feed_rate = -1; 				// negative inverse_feed_rate means 
    1f80:	80 e0       	ldi	r24, 0x00	; 0
    1f82:	90 e0       	ldi	r25, 0x00	; 0
    1f84:	a0 e8       	ldi	r26, 0x80	; 128
    1f86:	bf eb       	ldi	r27, 0xBF	; 191
    1f88:	80 93 46 21 	sts	0x2146, r24
    1f8c:	90 93 47 21 	sts	0x2147, r25
    1f90:	a0 93 48 21 	sts	0x2148, r26
    1f94:	b0 93 49 21 	sts	0x2149, r27
											//	  no inverse_feed_rate specified
	gc.radius_mode = FALSE;
    1f98:	10 92 2c 21 	sts	0x212C, r1
	gc.absolute_override = FALSE; 			// TRUE=absolute motion for this block only{G53}
    1f9c:	10 92 2e 21 	sts	0x212E, r1
	gc.next_action = NEXT_ACTION_NONE; 		// no operation
    1fa0:	10 92 26 21 	sts	0x2126, r1
 * select_plane() - select axis plane 
 */

void select_plane(uint8_t axis_0, uint8_t axis_1, uint8_t axis_2) 
{
	gc.plane_axis_0 = axis_0;
    1fa4:	10 92 2f 21 	sts	0x212F, r1
	gc.plane_axis_1 = axis_1;
    1fa8:	20 93 30 21 	sts	0x2130, r18
	gc.plane_axis_2 = axis_2;
    1fac:	82 e0       	ldi	r24, 0x02	; 2
    1fae:	80 93 31 21 	sts	0x2131, r24
	gc.radius_mode = FALSE;
	gc.absolute_override = FALSE; 			// TRUE=absolute motion for this block only{G53}
	gc.next_action = NEXT_ACTION_NONE; 		// no operation

	select_plane(X, Y, Z);					// default planes, 0, 1 and 2
}
    1fb2:	08 95       	ret

00001fb4 <_gc_next_statement>:
 *	Returns TRUE if there was a statement, FALSE if end of string was reached
 *	or there was an error (check gc.status).
 */

int _gc_next_statement(char *letter, double *value_ptr, 
					   double *fraction_ptr, char *buf, int *i) {
    1fb4:	4f 92       	push	r4
    1fb6:	5f 92       	push	r5
    1fb8:	6f 92       	push	r6
    1fba:	7f 92       	push	r7
    1fbc:	8f 92       	push	r8
    1fbe:	9f 92       	push	r9
    1fc0:	af 92       	push	r10
    1fc2:	bf 92       	push	r11
    1fc4:	cf 92       	push	r12
    1fc6:	df 92       	push	r13
    1fc8:	ef 92       	push	r14
    1fca:	ff 92       	push	r15
    1fcc:	0f 93       	push	r16
    1fce:	1f 93       	push	r17
    1fd0:	df 93       	push	r29
    1fd2:	cf 93       	push	r28
    1fd4:	0f 92       	push	r0
    1fd6:	0f 92       	push	r0
    1fd8:	cd b7       	in	r28, 0x3d	; 61
    1fda:	de b7       	in	r29, 0x3e	; 62
    1fdc:	7c 01       	movw	r14, r24
    1fde:	3b 01       	movw	r6, r22
    1fe0:	2a 01       	movw	r4, r20
    1fe2:	49 01       	movw	r8, r18
    1fe4:	58 01       	movw	r10, r16
	if (buf[*i] == 0) {
    1fe6:	d8 01       	movw	r26, r16
    1fe8:	ed 91       	ld	r30, X+
    1fea:	fc 91       	ld	r31, X
    1fec:	e2 0f       	add	r30, r18
    1fee:	f3 1f       	adc	r31, r19
    1ff0:	80 81       	ld	r24, Z
    1ff2:	88 23       	and	r24, r24
    1ff4:	51 f0       	breq	.+20     	; 0x200a <_gc_next_statement+0x56>
		return(FALSE); // No more statements
	}
  
	*letter = buf[*i];
    1ff6:	f7 01       	movw	r30, r14
    1ff8:	80 83       	st	Z, r24
	if(!isupper(*letter)) {
    1ffa:	90 e0       	ldi	r25, 0x00	; 0
    1ffc:	0e 94 dc 48 	call	0x91b8	; 0x91b8 <isupper>
    2000:	89 2b       	or	r24, r25
    2002:	31 f4       	brne	.+12     	; 0x2010 <_gc_next_statement+0x5c>
		gc.status = TG_EXPECTED_COMMAND_LETTER;
    2004:	8d e0       	ldi	r24, 0x0D	; 13
    2006:	80 93 1c 21 	sts	0x211C, r24
    200a:	20 e0       	ldi	r18, 0x00	; 0
    200c:	30 e0       	ldi	r19, 0x00	; 0
    200e:	34 c0       	rjmp	.+104    	; 0x2078 <_gc_next_statement+0xc4>
		return(FALSE);
	}
	(*i)++;
    2010:	d8 01       	movw	r26, r16
    2012:	8d 91       	ld	r24, X+
    2014:	9c 91       	ld	r25, X
    2016:	11 97       	sbiw	r26, 0x01	; 1
    2018:	01 96       	adiw	r24, 0x01	; 1
    201a:	8d 93       	st	X+, r24
    201c:	9c 93       	st	X, r25
 *	double_ptr	pointer to double to be read
 */

int _gc_read_double(char *buf, int *i, double *double_ptr) 
{
	char *start = buf + *i;
    201e:	84 01       	movw	r16, r8
    2020:	08 0f       	add	r16, r24
    2022:	19 1f       	adc	r17, r25
	char *end;
  
	*double_ptr = strtod(start, &end);
    2024:	c8 01       	movw	r24, r16
    2026:	be 01       	movw	r22, r28
    2028:	6f 5f       	subi	r22, 0xFF	; 255
    202a:	7f 4f       	sbci	r23, 0xFF	; 255
    202c:	0e 94 78 46 	call	0x8cf0	; 0x8cf0 <strtod>
    2030:	6b 01       	movw	r12, r22
    2032:	7c 01       	movw	r14, r24
    2034:	f3 01       	movw	r30, r6
    2036:	60 83       	st	Z, r22
    2038:	71 83       	std	Z+1, r23	; 0x01
    203a:	82 83       	std	Z+2, r24	; 0x02
    203c:	93 83       	std	Z+3, r25	; 0x03
	if(end == start) { 
    203e:	89 81       	ldd	r24, Y+1	; 0x01
    2040:	9a 81       	ldd	r25, Y+2	; 0x02
    2042:	80 17       	cp	r24, r16
    2044:	91 07       	cpc	r25, r17
    2046:	11 f4       	brne	.+4      	; 0x204c <_gc_next_statement+0x98>
		gc.status = TG_BAD_NUMBER_FORMAT; 
    2048:	80 e1       	ldi	r24, 0x10	; 16
    204a:	dd cf       	rjmp	.-70     	; 0x2006 <_gc_next_statement+0x52>
		return(FALSE); 
	};
	*i = end - buf;
    204c:	88 19       	sub	r24, r8
    204e:	99 09       	sbc	r25, r9
    2050:	d5 01       	movw	r26, r10
    2052:	8d 93       	st	X+, r24
    2054:	9c 93       	st	X, r25
	}
	(*i)++;
	if (!_gc_read_double(buf, i, value_ptr)) {
		return(FALSE);
	};
	*fraction_ptr = (*value_ptr - trunc(*value_ptr));
    2056:	c7 01       	movw	r24, r14
    2058:	b6 01       	movw	r22, r12
    205a:	0e 94 dd 45 	call	0x8bba	; 0x8bba <trunc>
    205e:	9b 01       	movw	r18, r22
    2060:	ac 01       	movw	r20, r24
    2062:	c7 01       	movw	r24, r14
    2064:	b6 01       	movw	r22, r12
    2066:	0e 94 cd 41 	call	0x839a	; 0x839a <__subsf3>
    206a:	f2 01       	movw	r30, r4
    206c:	60 83       	st	Z, r22
    206e:	71 83       	std	Z+1, r23	; 0x01
    2070:	82 83       	std	Z+2, r24	; 0x02
    2072:	93 83       	std	Z+3, r25	; 0x03
    2074:	21 e0       	ldi	r18, 0x01	; 1
    2076:	30 e0       	ldi	r19, 0x00	; 0
	return(TRUE);
}
    2078:	c9 01       	movw	r24, r18
    207a:	0f 90       	pop	r0
    207c:	0f 90       	pop	r0
    207e:	cf 91       	pop	r28
    2080:	df 91       	pop	r29
    2082:	1f 91       	pop	r17
    2084:	0f 91       	pop	r16
    2086:	ff 90       	pop	r15
    2088:	ef 90       	pop	r14
    208a:	df 90       	pop	r13
    208c:	cf 90       	pop	r12
    208e:	bf 90       	pop	r11
    2090:	af 90       	pop	r10
    2092:	9f 90       	pop	r9
    2094:	8f 90       	pop	r8
    2096:	7f 90       	pop	r7
    2098:	6f 90       	pop	r6
    209a:	5f 90       	pop	r5
    209c:	4f 90       	pop	r4
    209e:	08 95       	ret

000020a0 <theta>:
 *	Find the angle in radians of deviance from the positive y axis. 
 *	negative angles to the left of y-axis, positive to the right.
 */

double theta(double x, double y)
{
    20a0:	af 92       	push	r10
    20a2:	bf 92       	push	r11
    20a4:	cf 92       	push	r12
    20a6:	df 92       	push	r13
    20a8:	ef 92       	push	r14
    20aa:	ff 92       	push	r15
    20ac:	0f 93       	push	r16
    20ae:	1f 93       	push	r17
    20b0:	79 01       	movw	r14, r18
    20b2:	8a 01       	movw	r16, r20
	double theta = atan(x/fabs(y));
    20b4:	5f 77       	andi	r21, 0x7F	; 127
    20b6:	0e 94 74 42 	call	0x84e8	; 0x84e8 <__divsf3>
    20ba:	0e 94 32 42 	call	0x8464	; 0x8464 <atan>
    20be:	5b 01       	movw	r10, r22
    20c0:	6c 01       	movw	r12, r24

	if (y>0) {
    20c2:	c8 01       	movw	r24, r16
    20c4:	b7 01       	movw	r22, r14
    20c6:	20 e0       	ldi	r18, 0x00	; 0
    20c8:	30 e0       	ldi	r19, 0x00	; 0
    20ca:	40 e0       	ldi	r20, 0x00	; 0
    20cc:	50 e0       	ldi	r21, 0x00	; 0
    20ce:	0e 94 5d 44 	call	0x88ba	; 0x88ba <__gesf2>
    20d2:	18 16       	cp	r1, r24
    20d4:	cc f0       	brlt	.+50     	; 0x2108 <theta+0x68>
		return(theta);
	} else {
		if (theta>0) 
    20d6:	c6 01       	movw	r24, r12
    20d8:	b5 01       	movw	r22, r10
    20da:	20 e0       	ldi	r18, 0x00	; 0
    20dc:	30 e0       	ldi	r19, 0x00	; 0
    20de:	40 e0       	ldi	r20, 0x00	; 0
    20e0:	50 e0       	ldi	r21, 0x00	; 0
    20e2:	0e 94 5d 44 	call	0x88ba	; 0x88ba <__gesf2>
    20e6:	18 16       	cp	r1, r24
    20e8:	2c f4       	brge	.+10     	; 0x20f4 <theta+0x54>
	    {
			return(M_PI-theta);
    20ea:	6b ed       	ldi	r22, 0xDB	; 219
    20ec:	7f e0       	ldi	r23, 0x0F	; 15
    20ee:	89 e4       	ldi	r24, 0x49	; 73
    20f0:	90 e4       	ldi	r25, 0x40	; 64
    20f2:	04 c0       	rjmp	.+8      	; 0x20fc <theta+0x5c>
    	} else {
			return(-M_PI-theta);
    20f4:	6b ed       	ldi	r22, 0xDB	; 219
    20f6:	7f e0       	ldi	r23, 0x0F	; 15
    20f8:	89 e4       	ldi	r24, 0x49	; 73
    20fa:	90 ec       	ldi	r25, 0xC0	; 192
    20fc:	a6 01       	movw	r20, r12
    20fe:	95 01       	movw	r18, r10
    2100:	0e 94 cd 41 	call	0x839a	; 0x839a <__subsf3>
    2104:	5b 01       	movw	r10, r22
    2106:	6c 01       	movw	r12, r24
		}
	}
}
    2108:	b5 01       	movw	r22, r10
    210a:	c6 01       	movw	r24, r12
    210c:	1f 91       	pop	r17
    210e:	0f 91       	pop	r16
    2110:	ff 90       	pop	r15
    2112:	ef 90       	pop	r14
    2114:	df 90       	pop	r13
    2116:	cf 90       	pop	r12
    2118:	bf 90       	pop	r11
    211a:	af 90       	pop	r10
    211c:	08 95       	ret

0000211e <gc_execute_block>:
 *	The line is assumed to contain only uppercase characters and signed floats 
 *	(no whitespace).
 */

uint8_t gc_execute_block(char *buf) 
{
    211e:	2f 92       	push	r2
    2120:	3f 92       	push	r3
    2122:	4f 92       	push	r4
    2124:	5f 92       	push	r5
    2126:	6f 92       	push	r6
    2128:	7f 92       	push	r7
    212a:	8f 92       	push	r8
    212c:	9f 92       	push	r9
    212e:	af 92       	push	r10
    2130:	bf 92       	push	r11
    2132:	cf 92       	push	r12
    2134:	df 92       	push	r13
    2136:	ef 92       	push	r14
    2138:	ff 92       	push	r15
    213a:	0f 93       	push	r16
    213c:	1f 93       	push	r17
    213e:	df 93       	push	r29
    2140:	cf 93       	push	r28
    2142:	cd b7       	in	r28, 0x3d	; 61
    2144:	de b7       	in	r29, 0x3e	; 62
    2146:	68 97       	sbiw	r28, 0x18	; 24
    2148:	cd bf       	out	0x3d, r28	; 61
    214a:	de bf       	out	0x3e, r29	; 62
    214c:	5c 01       	movw	r10, r24
	int i = 0;  				// index into Gcode block buffer (buf)
    214e:	19 82       	std	Y+1, r1	; 0x01
    2150:	1a 82       	std	Y+2, r1	; 0x02
  
	clear_vector(gc.target);
    2152:	e6 e5       	ldi	r30, 0x56	; 86
    2154:	f1 e2       	ldi	r31, 0x21	; 33
    2156:	8c e0       	ldi	r24, 0x0C	; 12
    2158:	df 01       	movw	r26, r30
    215a:	28 2f       	mov	r18, r24
    215c:	1d 92       	st	X+, r1
    215e:	2a 95       	dec	r18
    2160:	e9 f7       	brne	.-6      	; 0x215c <gc_execute_block+0x3e>
	clear_vector(gc.offset);
    2162:	3c 96       	adiw	r30, 0x0c	; 12
    2164:	df 01       	movw	r26, r30
    2166:	1d 92       	st	X+, r1
    2168:	8a 95       	dec	r24
    216a:	e9 f7       	brne	.-6      	; 0x2166 <gc_execute_block+0x48>

	gc.status = TG_OK;
    216c:	10 92 1c 21 	sts	0x211C, r1
	gc.set_origin_mode = 0;	// you are not in set origin mode unless you say you are
    2170:	10 92 2d 21 	sts	0x212D, r1

  // Pass 1: Commands
	while(_gc_next_statement(&gc.letter, &gc.value, &gc.fraction, buf, &i)) {
    2174:	4e 01       	movw	r8, r28
    2176:	08 94       	sec
    2178:	81 1c       	adc	r8, r1
    217a:	91 1c       	adc	r9, r1

			case 'M':
				switch((int)gc.value) {
					case 0: case 1: gc.program_flow = PROGRAM_FLOW_PAUSED; break;
					case 2: case 30: case 60: gc.program_flow = PROGRAM_FLOW_COMPLETED; break;
					case 3: gc.spindle_direction = 1; break;
    217c:	ff 24       	eor	r15, r15
    217e:	f3 94       	inc	r15
					case 4: gc.spindle_direction = -1; break;
					case 5: gc.spindle_direction = 0; break;
        			default: gc.status = TG_UNSUPPORTED_STATEMENT;
    2180:	be e0       	ldi	r27, 0x0E	; 14
    2182:	cb 2e       	mov	r12, r27
				break;

			case 'M':
				switch((int)gc.value) {
					case 0: case 1: gc.program_flow = PROGRAM_FLOW_PAUSED; break;
					case 2: case 30: case 60: gc.program_flow = PROGRAM_FLOW_COMPLETED; break;
    2184:	a2 e0       	ldi	r26, 0x02	; 2
    2186:	ea 2e       	mov	r14, r26
					case 3: gc.spindle_direction = 1; break;
					case 4: gc.spindle_direction = -1; break;
    2188:	77 24       	eor	r7, r7
    218a:	7a 94       	dec	r7

					case 20: { gc.inches_mode = TRUE; break; }
					case 21: { gc.inches_mode = FALSE; break; }

					case 28: { gc.next_action = NEXT_ACTION_GO_HOME; break; }
					case 30: { gc.next_action = NEXT_ACTION_GO_HOME; break; }
    218c:	f3 e0       	ldi	r31, 0x03	; 3
    218e:	df 2e       	mov	r13, r31

					case 53: { gc.absolute_override = TRUE; break; }
					case 80: { gc.motion_mode = MOTION_MODE_CANCEL; break; }
    2190:	e4 e0       	ldi	r30, 0x04	; 4
    2192:	6e 2e       	mov	r6, r30
    2194:	0a c1       	rjmp	.+532    	; 0x23aa <gc_execute_block+0x28c>
	gc.status = TG_OK;
	gc.set_origin_mode = 0;	// you are not in set origin mode unless you say you are

  // Pass 1: Commands
	while(_gc_next_statement(&gc.letter, &gc.value, &gc.fraction, buf, &i)) {
    	switch(gc.letter) {
    2196:	80 91 1d 21 	lds	r24, 0x211D
    219a:	8d 34       	cpi	r24, 0x4D	; 77
    219c:	09 f4       	brne	.+2      	; 0x21a0 <gc_execute_block+0x82>
    219e:	be c0       	rjmp	.+380    	; 0x231c <gc_execute_block+0x1fe>
    21a0:	84 35       	cpi	r24, 0x54	; 84
    21a2:	09 f4       	brne	.+2      	; 0x21a6 <gc_execute_block+0x88>
    21a4:	f0 c0       	rjmp	.+480    	; 0x2386 <gc_execute_block+0x268>
    21a6:	87 34       	cpi	r24, 0x47	; 71
    21a8:	09 f0       	breq	.+2      	; 0x21ac <gc_execute_block+0x8e>
    21aa:	fb c0       	rjmp	.+502    	; 0x23a2 <gc_execute_block+0x284>
			case 'G':
				switch((int)gc.value) {
    21ac:	60 91 1e 21 	lds	r22, 0x211E
    21b0:	70 91 1f 21 	lds	r23, 0x211F
    21b4:	80 91 20 21 	lds	r24, 0x2120
    21b8:	90 91 21 21 	lds	r25, 0x2121
    21bc:	0e 94 dc 42 	call	0x85b8	; 0x85b8 <__fixsfsi>
    21c0:	65 31       	cpi	r22, 0x15	; 21
    21c2:	71 05       	cpc	r23, r1
    21c4:	09 f4       	brne	.+2      	; 0x21c8 <gc_execute_block+0xaa>
    21c6:	8f c0       	rjmp	.+286    	; 0x22e6 <gc_execute_block+0x1c8>
    21c8:	66 31       	cpi	r22, 0x16	; 22
    21ca:	71 05       	cpc	r23, r1
    21cc:	84 f5       	brge	.+96     	; 0x222e <gc_execute_block+0x110>
    21ce:	64 30       	cpi	r22, 0x04	; 4
    21d0:	71 05       	cpc	r23, r1
    21d2:	09 f4       	brne	.+2      	; 0x21d6 <gc_execute_block+0xb8>
    21d4:	6d c0       	rjmp	.+218    	; 0x22b0 <gc_execute_block+0x192>
    21d6:	65 30       	cpi	r22, 0x05	; 5
    21d8:	71 05       	cpc	r23, r1
    21da:	a4 f4       	brge	.+40     	; 0x2204 <gc_execute_block+0xe6>
    21dc:	61 30       	cpi	r22, 0x01	; 1
    21de:	71 05       	cpc	r23, r1
    21e0:	09 f4       	brne	.+2      	; 0x21e4 <gc_execute_block+0xc6>
    21e2:	57 c0       	rjmp	.+174    	; 0x2292 <gc_execute_block+0x174>
    21e4:	62 30       	cpi	r22, 0x02	; 2
    21e6:	71 05       	cpc	r23, r1
    21e8:	24 f4       	brge	.+8      	; 0x21f2 <gc_execute_block+0xd4>
    21ea:	67 2b       	or	r22, r23
    21ec:	09 f4       	brne	.+2      	; 0x21f0 <gc_execute_block+0xd2>
    21ee:	4c c0       	rjmp	.+152    	; 0x2288 <gc_execute_block+0x16a>
    21f0:	c7 c0       	rjmp	.+398    	; 0x2380 <gc_execute_block+0x262>
    21f2:	62 30       	cpi	r22, 0x02	; 2
    21f4:	71 05       	cpc	r23, r1
    21f6:	09 f4       	brne	.+2      	; 0x21fa <gc_execute_block+0xdc>
    21f8:	51 c0       	rjmp	.+162    	; 0x229c <gc_execute_block+0x17e>
    21fa:	63 30       	cpi	r22, 0x03	; 3
    21fc:	71 05       	cpc	r23, r1
    21fe:	09 f0       	breq	.+2      	; 0x2202 <gc_execute_block+0xe4>
    2200:	bf c0       	rjmp	.+382    	; 0x2380 <gc_execute_block+0x262>
    2202:	51 c0       	rjmp	.+162    	; 0x22a6 <gc_execute_block+0x188>
    2204:	62 31       	cpi	r22, 0x12	; 18
    2206:	71 05       	cpc	r23, r1
    2208:	09 f4       	brne	.+2      	; 0x220c <gc_execute_block+0xee>
    220a:	5c c0       	rjmp	.+184    	; 0x22c4 <gc_execute_block+0x1a6>
    220c:	63 31       	cpi	r22, 0x13	; 19
    220e:	71 05       	cpc	r23, r1
    2210:	2c f4       	brge	.+10     	; 0x221c <gc_execute_block+0xfe>
    2212:	61 31       	cpi	r22, 0x11	; 17
    2214:	71 05       	cpc	r23, r1
    2216:	09 f0       	breq	.+2      	; 0x221a <gc_execute_block+0xfc>
    2218:	b3 c0       	rjmp	.+358    	; 0x2380 <gc_execute_block+0x262>
    221a:	4d c0       	rjmp	.+154    	; 0x22b6 <gc_execute_block+0x198>
    221c:	63 31       	cpi	r22, 0x13	; 19
    221e:	71 05       	cpc	r23, r1
    2220:	09 f4       	brne	.+2      	; 0x2224 <gc_execute_block+0x106>
    2222:	57 c0       	rjmp	.+174    	; 0x22d2 <gc_execute_block+0x1b4>
    2224:	64 31       	cpi	r22, 0x14	; 20
    2226:	71 05       	cpc	r23, r1
    2228:	09 f0       	breq	.+2      	; 0x222c <gc_execute_block+0x10e>
    222a:	aa c0       	rjmp	.+340    	; 0x2380 <gc_execute_block+0x262>
    222c:	59 c0       	rjmp	.+178    	; 0x22e0 <gc_execute_block+0x1c2>
    222e:	6a 35       	cpi	r22, 0x5A	; 90
    2230:	71 05       	cpc	r23, r1
    2232:	09 f4       	brne	.+2      	; 0x2236 <gc_execute_block+0x118>
    2234:	64 c0       	rjmp	.+200    	; 0x22fe <gc_execute_block+0x1e0>
    2236:	6b 35       	cpi	r22, 0x5B	; 91
    2238:	71 05       	cpc	r23, r1
    223a:	ac f4       	brge	.+42     	; 0x2266 <gc_execute_block+0x148>
    223c:	6e 31       	cpi	r22, 0x1E	; 30
    223e:	71 05       	cpc	r23, r1
    2240:	09 f4       	brne	.+2      	; 0x2244 <gc_execute_block+0x126>
    2242:	54 c0       	rjmp	.+168    	; 0x22ec <gc_execute_block+0x1ce>
    2244:	6f 31       	cpi	r22, 0x1F	; 31
    2246:	71 05       	cpc	r23, r1
    2248:	2c f4       	brge	.+10     	; 0x2254 <gc_execute_block+0x136>
    224a:	6c 31       	cpi	r22, 0x1C	; 28
    224c:	71 05       	cpc	r23, r1
    224e:	09 f0       	breq	.+2      	; 0x2252 <gc_execute_block+0x134>
    2250:	97 c0       	rjmp	.+302    	; 0x2380 <gc_execute_block+0x262>
    2252:	4c c0       	rjmp	.+152    	; 0x22ec <gc_execute_block+0x1ce>
    2254:	65 33       	cpi	r22, 0x35	; 53
    2256:	71 05       	cpc	r23, r1
    2258:	09 f4       	brne	.+2      	; 0x225c <gc_execute_block+0x13e>
    225a:	4b c0       	rjmp	.+150    	; 0x22f2 <gc_execute_block+0x1d4>
    225c:	60 35       	cpi	r22, 0x50	; 80
    225e:	71 05       	cpc	r23, r1
    2260:	09 f0       	breq	.+2      	; 0x2264 <gc_execute_block+0x146>
    2262:	8e c0       	rjmp	.+284    	; 0x2380 <gc_execute_block+0x262>
    2264:	49 c0       	rjmp	.+146    	; 0x22f8 <gc_execute_block+0x1da>
    2266:	6c 35       	cpi	r22, 0x5C	; 92
    2268:	71 05       	cpc	r23, r1
    226a:	09 f4       	brne	.+2      	; 0x226e <gc_execute_block+0x150>
    226c:	4e c0       	rjmp	.+156    	; 0x230a <gc_execute_block+0x1ec>
    226e:	6c 35       	cpi	r22, 0x5C	; 92
    2270:	71 05       	cpc	r23, r1
    2272:	0c f4       	brge	.+2      	; 0x2276 <gc_execute_block+0x158>
    2274:	47 c0       	rjmp	.+142    	; 0x2304 <gc_execute_block+0x1e6>
    2276:	6d 35       	cpi	r22, 0x5D	; 93
    2278:	71 05       	cpc	r23, r1
    227a:	09 f4       	brne	.+2      	; 0x227e <gc_execute_block+0x160>
    227c:	49 c0       	rjmp	.+146    	; 0x2310 <gc_execute_block+0x1f2>
    227e:	6e 35       	cpi	r22, 0x5E	; 94
    2280:	71 05       	cpc	r23, r1
    2282:	09 f0       	breq	.+2      	; 0x2286 <gc_execute_block+0x168>
    2284:	7d c0       	rjmp	.+250    	; 0x2380 <gc_execute_block+0x262>
    2286:	47 c0       	rjmp	.+142    	; 0x2316 <gc_execute_block+0x1f8>
					case 0:  { gc.next_action = NEXT_ACTION_MOTION;
    2288:	f0 92 26 21 	sts	0x2126, r15
							   gc.motion_mode = MOTION_MODE_RAPID_LINEAR; break; }
    228c:	10 92 28 21 	sts	0x2128, r1
    2290:	88 c0       	rjmp	.+272    	; 0x23a2 <gc_execute_block+0x284>

					case 1:  { gc.next_action = NEXT_ACTION_MOTION;
    2292:	f0 92 26 21 	sts	0x2126, r15
							   gc.motion_mode = MOTION_MODE_LINEAR; break; }
    2296:	f0 92 28 21 	sts	0x2128, r15
    229a:	83 c0       	rjmp	.+262    	; 0x23a2 <gc_execute_block+0x284>

					case 2:  { gc.next_action = NEXT_ACTION_MOTION;
    229c:	f0 92 26 21 	sts	0x2126, r15
					           gc.motion_mode = MOTION_MODE_CW_ARC; break; }
    22a0:	e0 92 28 21 	sts	0x2128, r14
    22a4:	7e c0       	rjmp	.+252    	; 0x23a2 <gc_execute_block+0x284>

					case 3:  { gc.next_action = NEXT_ACTION_MOTION;
    22a6:	f0 92 26 21 	sts	0x2126, r15
					           gc.motion_mode = MOTION_MODE_CCW_ARC; break; }
    22aa:	d0 92 28 21 	sts	0x2128, r13
    22ae:	79 c0       	rjmp	.+242    	; 0x23a2 <gc_execute_block+0x284>

					case 4:  { gc.next_action = NEXT_ACTION_DWELL; break; }
    22b0:	e0 92 26 21 	sts	0x2126, r14
    22b4:	76 c0       	rjmp	.+236    	; 0x23a2 <gc_execute_block+0x284>
 * select_plane() - select axis plane 
 */

void select_plane(uint8_t axis_0, uint8_t axis_1, uint8_t axis_2) 
{
	gc.plane_axis_0 = axis_0;
    22b6:	10 92 2f 21 	sts	0x212F, r1
	gc.plane_axis_1 = axis_1;
    22ba:	f0 92 30 21 	sts	0x2130, r15
	gc.plane_axis_2 = axis_2;
    22be:	e0 92 31 21 	sts	0x2131, r14
    22c2:	6f c0       	rjmp	.+222    	; 0x23a2 <gc_execute_block+0x284>
 * select_plane() - select axis plane 
 */

void select_plane(uint8_t axis_0, uint8_t axis_1, uint8_t axis_2) 
{
	gc.plane_axis_0 = axis_0;
    22c4:	10 92 2f 21 	sts	0x212F, r1
	gc.plane_axis_1 = axis_1;
    22c8:	e0 92 30 21 	sts	0x2130, r14
	gc.plane_axis_2 = axis_2;
    22cc:	f0 92 31 21 	sts	0x2131, r15
    22d0:	68 c0       	rjmp	.+208    	; 0x23a2 <gc_execute_block+0x284>
 * select_plane() - select axis plane 
 */

void select_plane(uint8_t axis_0, uint8_t axis_1, uint8_t axis_2) 
{
	gc.plane_axis_0 = axis_0;
    22d2:	f0 92 2f 21 	sts	0x212F, r15
	gc.plane_axis_1 = axis_1;
    22d6:	e0 92 30 21 	sts	0x2130, r14
	gc.plane_axis_2 = axis_2;
    22da:	10 92 31 21 	sts	0x2131, r1
    22de:	61 c0       	rjmp	.+194    	; 0x23a2 <gc_execute_block+0x284>

					case 17: { select_plane(X, Y, Z); break; }
					case 18: { select_plane(X, Z, Y); break; }
					case 19: { select_plane(Y, Z, X); break; }

					case 20: { gc.inches_mode = TRUE; break; }
    22e0:	f0 92 2a 21 	sts	0x212A, r15
    22e4:	5e c0       	rjmp	.+188    	; 0x23a2 <gc_execute_block+0x284>
					case 21: { gc.inches_mode = FALSE; break; }
    22e6:	10 92 2a 21 	sts	0x212A, r1
    22ea:	5b c0       	rjmp	.+182    	; 0x23a2 <gc_execute_block+0x284>

					case 28: { gc.next_action = NEXT_ACTION_GO_HOME; break; }
					case 30: { gc.next_action = NEXT_ACTION_GO_HOME; break; }
    22ec:	d0 92 26 21 	sts	0x2126, r13
    22f0:	58 c0       	rjmp	.+176    	; 0x23a2 <gc_execute_block+0x284>

					case 53: { gc.absolute_override = TRUE; break; }
    22f2:	f0 92 2e 21 	sts	0x212E, r15
    22f6:	55 c0       	rjmp	.+170    	; 0x23a2 <gc_execute_block+0x284>
					case 80: { gc.motion_mode = MOTION_MODE_CANCEL; break; }
    22f8:	60 92 28 21 	sts	0x2128, r6
    22fc:	52 c0       	rjmp	.+164    	; 0x23a2 <gc_execute_block+0x284>
					case 90: { gc.absolute_mode = TRUE; break; }
    22fe:	f0 92 2b 21 	sts	0x212B, r15
    2302:	4f c0       	rjmp	.+158    	; 0x23a2 <gc_execute_block+0x284>
					case 91: { gc.absolute_mode = FALSE; break; }
    2304:	10 92 2b 21 	sts	0x212B, r1
    2308:	4c c0       	rjmp	.+152    	; 0x23a2 <gc_execute_block+0x284>
					case 92: { gc.set_origin_mode = TRUE; break; }
    230a:	f0 92 2d 21 	sts	0x212D, r15
    230e:	49 c0       	rjmp	.+146    	; 0x23a2 <gc_execute_block+0x284>
					case 93: { gc.inverse_feed_rate_mode = TRUE; break; }
    2310:	f0 92 29 21 	sts	0x2129, r15
    2314:	46 c0       	rjmp	.+140    	; 0x23a2 <gc_execute_block+0x284>
					case 94: { gc.inverse_feed_rate_mode = FALSE; break; }
    2316:	10 92 29 21 	sts	0x2129, r1
    231a:	43 c0       	rjmp	.+134    	; 0x23a2 <gc_execute_block+0x284>
					default: gc.status = TG_UNSUPPORTED_STATEMENT;
				}
				break;

			case 'M':
				switch((int)gc.value) {
    231c:	60 91 1e 21 	lds	r22, 0x211E
    2320:	70 91 1f 21 	lds	r23, 0x211F
    2324:	80 91 20 21 	lds	r24, 0x2120
    2328:	90 91 21 21 	lds	r25, 0x2121
    232c:	0e 94 dc 42 	call	0x85b8	; 0x85b8 <__fixsfsi>
    2330:	63 30       	cpi	r22, 0x03	; 3
    2332:	71 05       	cpc	r23, r1
    2334:	e1 f0       	breq	.+56     	; 0x236e <gc_execute_block+0x250>
    2336:	64 30       	cpi	r22, 0x04	; 4
    2338:	71 05       	cpc	r23, r1
    233a:	34 f4       	brge	.+12     	; 0x2348 <gc_execute_block+0x22a>
    233c:	77 fd       	sbrc	r23, 7
    233e:	20 c0       	rjmp	.+64     	; 0x2380 <gc_execute_block+0x262>
    2340:	62 30       	cpi	r22, 0x02	; 2
    2342:	71 05       	cpc	r23, r1
    2344:	74 f0       	brlt	.+28     	; 0x2362 <gc_execute_block+0x244>
    2346:	10 c0       	rjmp	.+32     	; 0x2368 <gc_execute_block+0x24a>
    2348:	65 30       	cpi	r22, 0x05	; 5
    234a:	71 05       	cpc	r23, r1
    234c:	b1 f0       	breq	.+44     	; 0x237a <gc_execute_block+0x25c>
    234e:	65 30       	cpi	r22, 0x05	; 5
    2350:	71 05       	cpc	r23, r1
    2352:	84 f0       	brlt	.+32     	; 0x2374 <gc_execute_block+0x256>
    2354:	6e 31       	cpi	r22, 0x1E	; 30
    2356:	71 05       	cpc	r23, r1
    2358:	39 f0       	breq	.+14     	; 0x2368 <gc_execute_block+0x24a>
    235a:	6c 33       	cpi	r22, 0x3C	; 60
    235c:	71 05       	cpc	r23, r1
    235e:	81 f4       	brne	.+32     	; 0x2380 <gc_execute_block+0x262>
    2360:	03 c0       	rjmp	.+6      	; 0x2368 <gc_execute_block+0x24a>
					case 0: case 1: gc.program_flow = PROGRAM_FLOW_PAUSED; break;
    2362:	f0 92 27 21 	sts	0x2127, r15
    2366:	1d c0       	rjmp	.+58     	; 0x23a2 <gc_execute_block+0x284>
					case 2: case 30: case 60: gc.program_flow = PROGRAM_FLOW_COMPLETED; break;
    2368:	e0 92 27 21 	sts	0x2127, r14
    236c:	1a c0       	rjmp	.+52     	; 0x23a2 <gc_execute_block+0x284>
					case 3: gc.spindle_direction = 1; break;
    236e:	f0 92 6f 21 	sts	0x216F, r15
    2372:	17 c0       	rjmp	.+46     	; 0x23a2 <gc_execute_block+0x284>
					case 4: gc.spindle_direction = -1; break;
    2374:	70 92 6f 21 	sts	0x216F, r7
    2378:	14 c0       	rjmp	.+40     	; 0x23a2 <gc_execute_block+0x284>
					case 5: gc.spindle_direction = 0; break;
    237a:	10 92 6f 21 	sts	0x216F, r1
    237e:	11 c0       	rjmp	.+34     	; 0x23a2 <gc_execute_block+0x284>
        			default: gc.status = TG_UNSUPPORTED_STATEMENT;
    2380:	c0 92 1c 21 	sts	0x211C, r12
    2384:	0e c0       	rjmp	.+28     	; 0x23a2 <gc_execute_block+0x284>
				}
				break;

			case 'T': gc.tool = trunc(gc.value); break;
    2386:	60 91 1e 21 	lds	r22, 0x211E
    238a:	70 91 1f 21 	lds	r23, 0x211F
    238e:	80 91 20 21 	lds	r24, 0x2120
    2392:	90 91 21 21 	lds	r25, 0x2121
    2396:	0e 94 dd 45 	call	0x8bba	; 0x8bba <trunc>
    239a:	0e 94 e1 42 	call	0x85c2	; 0x85c2 <__fixunssfsi>
    239e:	60 93 6e 21 	sts	0x216E, r22
		}
		if(gc.status) {
    23a2:	80 91 1c 21 	lds	r24, 0x211C
    23a6:	88 23       	and	r24, r24
    23a8:	69 f4       	brne	.+26     	; 0x23c4 <gc_execute_block+0x2a6>

	gc.status = TG_OK;
	gc.set_origin_mode = 0;	// you are not in set origin mode unless you say you are

  // Pass 1: Commands
	while(_gc_next_statement(&gc.letter, &gc.value, &gc.fraction, buf, &i)) {
    23aa:	8d e1       	ldi	r24, 0x1D	; 29
    23ac:	91 e2       	ldi	r25, 0x21	; 33
    23ae:	6e e1       	ldi	r22, 0x1E	; 30
    23b0:	71 e2       	ldi	r23, 0x21	; 33
    23b2:	42 e2       	ldi	r20, 0x22	; 34
    23b4:	51 e2       	ldi	r21, 0x21	; 33
    23b6:	95 01       	movw	r18, r10
    23b8:	84 01       	movw	r16, r8
    23ba:	0e 94 da 0f 	call	0x1fb4	; 0x1fb4 <_gc_next_statement>
    23be:	89 2b       	or	r24, r25
    23c0:	09 f0       	breq	.+2      	; 0x23c4 <gc_execute_block+0x2a6>
    23c2:	e9 ce       	rjmp	.-558    	; 0x2196 <gc_execute_block+0x78>
			break;
		}
	}
  
  // If there were any errors parsing this line return right away with the bad news
	if (gc.status) { 
    23c4:	80 91 1c 21 	lds	r24, 0x211C
    23c8:	88 23       	and	r24, r24
    23ca:	09 f0       	breq	.+2      	; 0x23ce <gc_execute_block+0x2b0>
    23cc:	c2 c3       	rjmp	.+1924   	; 0x2b52 <gc_execute_block+0xa34>
		return(gc.status); 
	}

	i = 0;
    23ce:	19 82       	std	Y+1, r1	; 0x01
    23d0:	1a 82       	std	Y+2, r1	; 0x02
	clear_vector(gc.offset);
    23d2:	e2 e6       	ldi	r30, 0x62	; 98
    23d4:	f1 e2       	ldi	r31, 0x21	; 33
    23d6:	8c e0       	ldi	r24, 0x0C	; 12
    23d8:	df 01       	movw	r26, r30
    23da:	1d 92       	st	X+, r1
    23dc:	8a 95       	dec	r24
    23de:	e9 f7       	brne	.-6      	; 0x23da <gc_execute_block+0x2bc>
	memcpy(gc.target, gc.position, sizeof(gc.target)); // target = position
    23e0:	df 01       	movw	r26, r30
    23e2:	1c 97       	sbiw	r26, 0x0c	; 12
    23e4:	78 97       	sbiw	r30, 0x18	; 24
    23e6:	8c e0       	ldi	r24, 0x0C	; 12
    23e8:	01 90       	ld	r0, Z+
    23ea:	0d 92       	st	X+, r0
    23ec:	81 50       	subi	r24, 0x01	; 1
    23ee:	e1 f7       	brne	.-8      	; 0x23e8 <gc_execute_block+0x2ca>
    23f0:	cc c0       	rjmp	.+408    	; 0x258a <gc_execute_block+0x46c>

  // Pass 2: Parameters
	while(_gc_next_statement(&gc.letter, &gc.value, &gc.fraction, buf, &i)) {
		gc.unit_converted_value = to_millimeters(gc.value);
    23f2:	c0 90 1e 21 	lds	r12, 0x211E
    23f6:	d0 90 1f 21 	lds	r13, 0x211F
    23fa:	e0 90 20 21 	lds	r14, 0x2120
    23fe:	f0 90 21 21 	lds	r15, 0x2121
 */

//inline float to_millimeters(double value) 	// inline won't compile at -O0
float to_millimeters(double value) 
{
	return(gc.inches_mode ? (value * INCHES_PER_MM) : value);
    2402:	80 91 2a 21 	lds	r24, 0x212A
    2406:	88 23       	and	r24, r24
    2408:	19 f4       	brne	.+6      	; 0x2410 <gc_execute_block+0x2f2>
    240a:	a7 01       	movw	r20, r14
    240c:	96 01       	movw	r18, r12
    240e:	0a c0       	rjmp	.+20     	; 0x2424 <gc_execute_block+0x306>
    2410:	c7 01       	movw	r24, r14
    2412:	b6 01       	movw	r22, r12
    2414:	25 e8       	ldi	r18, 0x85	; 133
    2416:	32 e4       	ldi	r19, 0x42	; 66
    2418:	41 e2       	ldi	r20, 0x21	; 33
    241a:	5d e3       	ldi	r21, 0x3D	; 61
    241c:	0e 94 2f 45 	call	0x8a5e	; 0x8a5e <__mulsf3>
    2420:	9b 01       	movw	r18, r22
    2422:	ac 01       	movw	r20, r24
	clear_vector(gc.offset);
	memcpy(gc.target, gc.position, sizeof(gc.target)); // target = position

  // Pass 2: Parameters
	while(_gc_next_statement(&gc.letter, &gc.value, &gc.fraction, buf, &i)) {
		gc.unit_converted_value = to_millimeters(gc.value);
    2424:	20 93 42 21 	sts	0x2142, r18
    2428:	30 93 43 21 	sts	0x2143, r19
    242c:	40 93 44 21 	sts	0x2144, r20
    2430:	50 93 45 21 	sts	0x2145, r21
		switch(gc.letter) {
    2434:	00 91 1d 21 	lds	r16, 0x211D
    2438:	00 35       	cpi	r16, 0x50	; 80
    243a:	09 f4       	brne	.+2      	; 0x243e <gc_execute_block+0x320>
    243c:	47 c0       	rjmp	.+142    	; 0x24cc <gc_execute_block+0x3ae>
    243e:	01 35       	cpi	r16, 0x51	; 81
    2440:	58 f4       	brcc	.+22     	; 0x2458 <gc_execute_block+0x33a>
    2442:	06 34       	cpi	r16, 0x46	; 70
    2444:	c1 f0       	breq	.+48     	; 0x2476 <gc_execute_block+0x358>
    2446:	06 34       	cpi	r16, 0x46	; 70
    2448:	08 f4       	brcc	.+2      	; 0x244c <gc_execute_block+0x32e>
    244a:	a7 c0       	rjmp	.+334    	; 0x259a <gc_execute_block+0x47c>
    244c:	80 2f       	mov	r24, r16
    244e:	89 54       	subi	r24, 0x49	; 73
    2450:	83 30       	cpi	r24, 0x03	; 3
    2452:	08 f0       	brcs	.+2      	; 0x2456 <gc_execute_block+0x338>
    2454:	a2 c0       	rjmp	.+324    	; 0x259a <gc_execute_block+0x47c>
    2456:	2d c0       	rjmp	.+90     	; 0x24b2 <gc_execute_block+0x394>
    2458:	03 35       	cpi	r16, 0x53	; 83
    245a:	09 f4       	brne	.+2      	; 0x245e <gc_execute_block+0x340>
    245c:	4b c0       	rjmp	.+150    	; 0x24f4 <gc_execute_block+0x3d6>
    245e:	04 35       	cpi	r16, 0x54	; 84
    2460:	20 f4       	brcc	.+8      	; 0x246a <gc_execute_block+0x34c>
    2462:	02 35       	cpi	r16, 0x52	; 82
    2464:	09 f0       	breq	.+2      	; 0x2468 <gc_execute_block+0x34a>
    2466:	99 c0       	rjmp	.+306    	; 0x259a <gc_execute_block+0x47c>
    2468:	3a c0       	rjmp	.+116    	; 0x24de <gc_execute_block+0x3c0>
    246a:	80 2f       	mov	r24, r16
    246c:	88 55       	subi	r24, 0x58	; 88
    246e:	83 30       	cpi	r24, 0x03	; 3
    2470:	08 f0       	brcs	.+2      	; 0x2474 <gc_execute_block+0x356>
    2472:	93 c0       	rjmp	.+294    	; 0x259a <gc_execute_block+0x47c>
    2474:	48 c0       	rjmp	.+144    	; 0x2506 <gc_execute_block+0x3e8>
			case 'F': 
				if (gc.inverse_feed_rate_mode) {
    2476:	80 91 29 21 	lds	r24, 0x2129
    247a:	88 23       	and	r24, r24
    247c:	49 f0       	breq	.+18     	; 0x2490 <gc_execute_block+0x372>
					gc.inverse_feed_rate = gc.unit_converted_value; // secs per motion for this motion only
    247e:	20 93 46 21 	sts	0x2146, r18
    2482:	30 93 47 21 	sts	0x2147, r19
    2486:	40 93 48 21 	sts	0x2148, r20
    248a:	50 93 49 21 	sts	0x2149, r21
    248e:	85 c0       	rjmp	.+266    	; 0x259a <gc_execute_block+0x47c>
				} else {
					gc.feed_rate = gc.unit_converted_value/60; // mm per second
    2490:	ca 01       	movw	r24, r20
    2492:	b9 01       	movw	r22, r18
    2494:	20 e0       	ldi	r18, 0x00	; 0
    2496:	30 e0       	ldi	r19, 0x00	; 0
    2498:	40 e7       	ldi	r20, 0x70	; 112
    249a:	52 e4       	ldi	r21, 0x42	; 66
    249c:	0e 94 74 42 	call	0x84e8	; 0x84e8 <__divsf3>
    24a0:	60 93 3a 21 	sts	0x213A, r22
    24a4:	70 93 3b 21 	sts	0x213B, r23
    24a8:	80 93 3c 21 	sts	0x213C, r24
    24ac:	90 93 3d 21 	sts	0x213D, r25
    24b0:	74 c0       	rjmp	.+232    	; 0x259a <gc_execute_block+0x47c>
				}
				break;
			case 'I': case 'J': case 'K': {
				gc.offset[gc.letter-'I'] = gc.unit_converted_value; 
    24b2:	e0 2f       	mov	r30, r16
    24b4:	f0 e0       	ldi	r31, 0x00	; 0
    24b6:	ee 0f       	add	r30, r30
    24b8:	ff 1f       	adc	r31, r31
    24ba:	ee 0f       	add	r30, r30
    24bc:	ff 1f       	adc	r31, r31
    24be:	e2 5c       	subi	r30, 0xC2	; 194
    24c0:	ff 4d       	sbci	r31, 0xDF	; 223
    24c2:	20 83       	st	Z, r18
    24c4:	31 83       	std	Z+1, r19	; 0x01
    24c6:	42 83       	std	Z+2, r20	; 0x02
    24c8:	53 83       	std	Z+3, r21	; 0x03
    24ca:	67 c0       	rjmp	.+206    	; 0x259a <gc_execute_block+0x47c>
				break;
			}
			case 'P': {
				gc.dwell_time = gc.value; 			// dwell time in seconds
    24cc:	c0 92 32 21 	sts	0x2132, r12
    24d0:	d0 92 33 21 	sts	0x2133, r13
    24d4:	e0 92 34 21 	sts	0x2134, r14
    24d8:	f0 92 35 21 	sts	0x2135, r15
    24dc:	5e c0       	rjmp	.+188    	; 0x259a <gc_execute_block+0x47c>
				break;
			}
			case 'R': {
				gc.radius = gc.unit_converted_value; 
    24de:	20 93 36 21 	sts	0x2136, r18
    24e2:	30 93 37 21 	sts	0x2137, r19
    24e6:	40 93 38 21 	sts	0x2138, r20
    24ea:	50 93 39 21 	sts	0x2139, r21
				gc.radius_mode = TRUE; 
    24ee:	70 92 2c 21 	sts	0x212C, r7
    24f2:	53 c0       	rjmp	.+166    	; 0x259a <gc_execute_block+0x47c>
				break;
			}
			case 'S': {
				gc.spindle_speed = gc.value; 
    24f4:	c7 01       	movw	r24, r14
    24f6:	b6 01       	movw	r22, r12
    24f8:	0e 94 dc 42 	call	0x85b8	; 0x85b8 <__fixsfsi>
    24fc:	60 93 70 21 	sts	0x2170, r22
    2500:	70 93 71 21 	sts	0x2171, r23
    2504:	4a c0       	rjmp	.+148    	; 0x259a <gc_execute_block+0x47c>
				break;
			}
			case 'X': case 'Y': case 'Z': {
				if (gc.set_origin_mode) {
    2506:	80 91 2d 21 	lds	r24, 0x212D
    250a:	88 23       	and	r24, r24
    250c:	99 f0       	breq	.+38     	; 0x2534 <gc_execute_block+0x416>
					gc.position[gc.letter - 'X'] = gc.unit_converted_value;
    250e:	e0 2f       	mov	r30, r16
    2510:	f0 e0       	ldi	r31, 0x00	; 0
    2512:	ee 0f       	add	r30, r30
    2514:	ff 1f       	adc	r31, r31
    2516:	ee 0f       	add	r30, r30
    2518:	ff 1f       	adc	r31, r31
    251a:	e4 54       	subi	r30, 0x44	; 68
    251c:	f0 4e       	sbci	r31, 0xE0	; 224
    251e:	26 a7       	std	Z+46, r18	; 0x2e
    2520:	37 a7       	std	Z+47, r19	; 0x2f
    2522:	40 ab       	std	Z+48, r20	; 0x30
    2524:	51 ab       	std	Z+49, r21	; 0x31
					gc.target[gc.letter - 'X'] = gc.position[gc.letter - 'X'];
    2526:	22 af       	std	Z+58, r18	; 0x3a
    2528:	33 af       	std	Z+59, r19	; 0x3b
    252a:	44 af       	std	Z+60, r20	; 0x3c
    252c:	55 af       	std	Z+61, r21	; 0x3d
//					memcpy(gc.target, gc.position, sizeof(gc.target));	// target = position
					gc.next_action = NEXT_ACTION_SET_COORDINATES;
    252e:	60 92 26 21 	sts	0x2126, r6
    2532:	33 c0       	rjmp	.+102    	; 0x259a <gc_execute_block+0x47c>
				} else if (gc.absolute_mode || gc.absolute_override) {
    2534:	80 91 2b 21 	lds	r24, 0x212B
    2538:	88 23       	and	r24, r24
    253a:	21 f4       	brne	.+8      	; 0x2544 <gc_execute_block+0x426>
    253c:	80 91 2e 21 	lds	r24, 0x212E
    2540:	88 23       	and	r24, r24
    2542:	69 f0       	breq	.+26     	; 0x255e <gc_execute_block+0x440>
					gc.target[gc.letter - 'X'] = gc.unit_converted_value;
    2544:	e0 2f       	mov	r30, r16
    2546:	f0 e0       	ldi	r31, 0x00	; 0
    2548:	ee 0f       	add	r30, r30
    254a:	ff 1f       	adc	r31, r31
    254c:	ee 0f       	add	r30, r30
    254e:	ff 1f       	adc	r31, r31
    2550:	e4 54       	subi	r30, 0x44	; 68
    2552:	f0 4e       	sbci	r31, 0xE0	; 224
    2554:	22 af       	std	Z+58, r18	; 0x3a
    2556:	33 af       	std	Z+59, r19	; 0x3b
    2558:	44 af       	std	Z+60, r20	; 0x3c
    255a:	55 af       	std	Z+61, r21	; 0x3d
    255c:	1e c0       	rjmp	.+60     	; 0x259a <gc_execute_block+0x47c>
				} else {
					gc.target[gc.letter - 'X'] += gc.unit_converted_value;
    255e:	10 e0       	ldi	r17, 0x00	; 0
    2560:	00 0f       	add	r16, r16
    2562:	11 1f       	adc	r17, r17
    2564:	00 0f       	add	r16, r16
    2566:	11 1f       	adc	r17, r17
    2568:	04 54       	subi	r16, 0x44	; 68
    256a:	10 4e       	sbci	r17, 0xE0	; 224
    256c:	f8 01       	movw	r30, r16
    256e:	62 ad       	ldd	r22, Z+58	; 0x3a
    2570:	73 ad       	ldd	r23, Z+59	; 0x3b
    2572:	84 ad       	ldd	r24, Z+60	; 0x3c
    2574:	95 ad       	ldd	r25, Z+61	; 0x3d
    2576:	0e 94 ce 41 	call	0x839c	; 0x839c <__addsf3>
    257a:	d8 01       	movw	r26, r16
    257c:	da 96       	adiw	r26, 0x3a	; 58
    257e:	6d 93       	st	X+, r22
    2580:	7d 93       	st	X+, r23
    2582:	8d 93       	st	X+, r24
    2584:	9c 93       	st	X, r25
    2586:	dd 97       	sbiw	r26, 0x3d	; 61
    2588:	08 c0       	rjmp	.+16     	; 0x259a <gc_execute_block+0x47c>
	i = 0;
	clear_vector(gc.offset);
	memcpy(gc.target, gc.position, sizeof(gc.target)); // target = position

  // Pass 2: Parameters
	while(_gc_next_statement(&gc.letter, &gc.value, &gc.fraction, buf, &i)) {
    258a:	4e 01       	movw	r8, r28
    258c:	08 94       	sec
    258e:	81 1c       	adc	r8, r1
    2590:	91 1c       	adc	r9, r1
			case 'X': case 'Y': case 'Z': {
				if (gc.set_origin_mode) {
					gc.position[gc.letter - 'X'] = gc.unit_converted_value;
					gc.target[gc.letter - 'X'] = gc.position[gc.letter - 'X'];
//					memcpy(gc.target, gc.position, sizeof(gc.target));	// target = position
					gc.next_action = NEXT_ACTION_SET_COORDINATES;
    2592:	14 e0       	ldi	r17, 0x04	; 4
    2594:	61 2e       	mov	r6, r17
				gc.dwell_time = gc.value; 			// dwell time in seconds
				break;
			}
			case 'R': {
				gc.radius = gc.unit_converted_value; 
				gc.radius_mode = TRUE; 
    2596:	77 24       	eor	r7, r7
    2598:	73 94       	inc	r7
	i = 0;
	clear_vector(gc.offset);
	memcpy(gc.target, gc.position, sizeof(gc.target)); // target = position

  // Pass 2: Parameters
	while(_gc_next_statement(&gc.letter, &gc.value, &gc.fraction, buf, &i)) {
    259a:	8d e1       	ldi	r24, 0x1D	; 29
    259c:	91 e2       	ldi	r25, 0x21	; 33
    259e:	6e e1       	ldi	r22, 0x1E	; 30
    25a0:	71 e2       	ldi	r23, 0x21	; 33
    25a2:	42 e2       	ldi	r20, 0x22	; 34
    25a4:	51 e2       	ldi	r21, 0x21	; 33
    25a6:	95 01       	movw	r18, r10
    25a8:	84 01       	movw	r16, r8
    25aa:	0e 94 da 0f 	call	0x1fb4	; 0x1fb4 <_gc_next_statement>
    25ae:	89 2b       	or	r24, r25
    25b0:	09 f0       	breq	.+2      	; 0x25b4 <gc_execute_block+0x496>
    25b2:	1f cf       	rjmp	.-450    	; 0x23f2 <gc_execute_block+0x2d4>
			}
		}	
	}
  
  // If there were any errors parsing this line return right away with the bad news
  	if (gc.status) {
    25b4:	80 91 1c 21 	lds	r24, 0x211C
    25b8:	88 23       	and	r24, r24
    25ba:	09 f0       	breq	.+2      	; 0x25be <gc_execute_block+0x4a0>
    25bc:	ca c2       	rjmp	.+1428   	; 0x2b52 <gc_execute_block+0xa34>
		return(gc.status); 
	}
    
  // Update spindle state
	if (gc.spindle_direction) {
    25be:	80 91 6f 21 	lds	r24, 0x216F
    25c2:	88 23       	and	r24, r24
    25c4:	71 f0       	breq	.+28     	; 0x25e2 <gc_execute_block+0x4c4>
    	spindle_run(gc.spindle_direction, gc.spindle_speed);
    25c6:	40 91 70 21 	lds	r20, 0x2170
    25ca:	50 91 71 21 	lds	r21, 0x2171
    25ce:	66 27       	eor	r22, r22
    25d0:	57 fd       	sbrc	r21, 7
    25d2:	60 95       	com	r22
    25d4:	76 2f       	mov	r23, r22
    25d6:	99 27       	eor	r25, r25
    25d8:	87 fd       	sbrc	r24, 7
    25da:	90 95       	com	r25
    25dc:	0e 94 7c 24 	call	0x48f8	; 0x48f8 <spindle_run>
    25e0:	02 c0       	rjmp	.+4      	; 0x25e6 <gc_execute_block+0x4c8>
	} else {
		spindle_stop();
    25e2:	0e 94 8c 24 	call	0x4918	; 0x4918 <spindle_stop>
	}
  
  // Perform any physical actions
	switch (gc.next_action) {
    25e6:	80 91 26 21 	lds	r24, 0x2126
    25ea:	82 30       	cpi	r24, 0x02	; 2
    25ec:	51 f1       	breq	.+84     	; 0x2642 <gc_execute_block+0x524>
    25ee:	83 30       	cpi	r24, 0x03	; 3
    25f0:	20 f4       	brcc	.+8      	; 0x25fa <gc_execute_block+0x4dc>
    25f2:	81 30       	cpi	r24, 0x01	; 1
    25f4:	09 f0       	breq	.+2      	; 0x25f8 <gc_execute_block+0x4da>
    25f6:	9e c2       	rjmp	.+1340   	; 0x2b34 <gc_execute_block+0xa16>
    25f8:	2f c0       	rjmp	.+94     	; 0x2658 <gc_execute_block+0x53a>
    25fa:	83 30       	cpi	r24, 0x03	; 3
    25fc:	21 f0       	breq	.+8      	; 0x2606 <gc_execute_block+0x4e8>
    25fe:	84 30       	cpi	r24, 0x04	; 4
    2600:	09 f0       	breq	.+2      	; 0x2604 <gc_execute_block+0x4e6>
    2602:	98 c2       	rjmp	.+1328   	; 0x2b34 <gc_execute_block+0xa16>
    2604:	03 c0       	rjmp	.+6      	; 0x260c <gc_execute_block+0x4ee>
		case NEXT_ACTION_NONE: {				// nothing to do here
			break;
		}

		case NEXT_ACTION_GO_HOME: { 
			gc.status = mc_go_home(); 
    2606:	0e 94 a1 1b 	call	0x3742	; 0x3742 <mc_go_home>
    260a:	92 c2       	rjmp	.+1316   	; 0x2b30 <gc_execute_block+0xa12>
			break;
		}

		case NEXT_ACTION_SET_COORDINATES: { 
			gc.status = mc_set_position(gc.position[X], gc.position[Y], gc.position[Z]); 
    260c:	60 91 4a 21 	lds	r22, 0x214A
    2610:	70 91 4b 21 	lds	r23, 0x214B
    2614:	80 91 4c 21 	lds	r24, 0x214C
    2618:	90 91 4d 21 	lds	r25, 0x214D
    261c:	20 91 4e 21 	lds	r18, 0x214E
    2620:	30 91 4f 21 	lds	r19, 0x214F
    2624:	40 91 50 21 	lds	r20, 0x2150
    2628:	50 91 51 21 	lds	r21, 0x2151
    262c:	e0 90 52 21 	lds	r14, 0x2152
    2630:	f0 90 53 21 	lds	r15, 0x2153
    2634:	00 91 54 21 	lds	r16, 0x2154
    2638:	10 91 55 21 	lds	r17, 0x2155
    263c:	0e 94 3a 1c 	call	0x3874	; 0x3874 <mc_set_position>
    2640:	77 c2       	rjmp	.+1262   	; 0x2b30 <gc_execute_block+0xa12>
			break;
		}

		case NEXT_ACTION_DWELL: {
			gc.status = mc_dwell(gc.dwell_time); 
    2642:	60 91 32 21 	lds	r22, 0x2132
    2646:	70 91 33 21 	lds	r23, 0x2133
    264a:	80 91 34 21 	lds	r24, 0x2134
    264e:	90 91 35 21 	lds	r25, 0x2135
    2652:	0e 94 00 1c 	call	0x3800	; 0x3800 <mc_dwell>
    2656:	6c c2       	rjmp	.+1240   	; 0x2b30 <gc_execute_block+0xa12>
			break;
		}

		case NEXT_ACTION_MOTION: {
			switch (gc.motion_mode) {
    2658:	b0 91 28 21 	lds	r27, 0x2128
    265c:	b8 8f       	std	Y+24, r27	; 0x18
    265e:	b2 30       	cpi	r27, 0x02	; 2
    2660:	20 f0       	brcs	.+8      	; 0x266a <gc_execute_block+0x54c>
    2662:	b4 30       	cpi	r27, 0x04	; 4
    2664:	08 f0       	brcs	.+2      	; 0x2668 <gc_execute_block+0x54a>
    2666:	66 c2       	rjmp	.+1228   	; 0x2b34 <gc_execute_block+0xa16>
    2668:	31 c0       	rjmp	.+98     	; 0x26cc <gc_execute_block+0x5ae>
				case MOTION_MODE_CANCEL: {
					break;
				}

				case MOTION_MODE_RAPID_LINEAR: case MOTION_MODE_LINEAR: {
					gc.status = mc_line(gc.target[X], gc.target[Y], gc.target[Z],
    266a:	60 91 56 21 	lds	r22, 0x2156
    266e:	70 91 57 21 	lds	r23, 0x2157
    2672:	80 91 58 21 	lds	r24, 0x2158
    2676:	90 91 59 21 	lds	r25, 0x2159
    267a:	20 91 5a 21 	lds	r18, 0x215A
    267e:	30 91 5b 21 	lds	r19, 0x215B
    2682:	40 91 5c 21 	lds	r20, 0x215C
    2686:	50 91 5d 21 	lds	r21, 0x215D
    268a:	e0 90 5e 21 	lds	r14, 0x215E
    268e:	f0 90 5f 21 	lds	r15, 0x215F
    2692:	00 91 60 21 	lds	r16, 0x2160
    2696:	10 91 61 21 	lds	r17, 0x2161
    269a:	80 90 29 21 	lds	r8, 0x2129
    269e:	88 20       	and	r8, r8
    26a0:	49 f0       	breq	.+18     	; 0x26b4 <gc_execute_block+0x596>
    26a2:	a0 90 46 21 	lds	r10, 0x2146
    26a6:	b0 90 47 21 	lds	r11, 0x2147
    26aa:	c0 90 48 21 	lds	r12, 0x2148
    26ae:	d0 90 49 21 	lds	r13, 0x2149
    26b2:	08 c0       	rjmp	.+16     	; 0x26c4 <gc_execute_block+0x5a6>
    26b4:	a0 90 3a 21 	lds	r10, 0x213A
    26b8:	b0 90 3b 21 	lds	r11, 0x213B
    26bc:	c0 90 3c 21 	lds	r12, 0x213C
    26c0:	d0 90 3d 21 	lds	r13, 0x213D
    26c4:	99 24       	eor	r9, r9
    26c6:	0e 94 98 1c 	call	0x3930	; 0x3930 <mc_line>
    26ca:	32 c2       	rjmp	.+1124   	; 0x2b30 <gc_execute_block+0xa12>
 * _gc_compute_arc() - arc computation helper routine 
 */

int _gc_compute_arc()
{
	if (gc.radius_mode) {
    26cc:	80 91 2c 21 	lds	r24, 0x212C
    26d0:	88 23       	and	r24, r24
    26d2:	09 f4       	brne	.+2      	; 0x26d6 <gc_execute_block+0x5b8>
    26d4:	ec c0       	rjmp	.+472    	; 0x28ae <gc_execute_block+0x790>
      	i = (x - (y * h_x2_div_d))/2
      	j = (y + (x * h_x2_div_d))/2  
	*/
        
	// Calculate the change in position along each selected axis
	x = gc.target[gc.plane_axis_0]-gc.position[gc.plane_axis_0];
    26d6:	e0 91 2f 21 	lds	r30, 0x212F
    26da:	f0 e0       	ldi	r31, 0x00	; 0
    26dc:	ee 0f       	add	r30, r30
    26de:	ff 1f       	adc	r31, r31
    26e0:	ee 0f       	add	r30, r30
    26e2:	ff 1f       	adc	r31, r31
    26e4:	e4 5e       	subi	r30, 0xE4	; 228
    26e6:	fe 4d       	sbci	r31, 0xDE	; 222
    26e8:	62 ad       	ldd	r22, Z+58	; 0x3a
    26ea:	73 ad       	ldd	r23, Z+59	; 0x3b
    26ec:	84 ad       	ldd	r24, Z+60	; 0x3c
    26ee:	95 ad       	ldd	r25, Z+61	; 0x3d
    26f0:	26 a5       	ldd	r18, Z+46	; 0x2e
    26f2:	37 a5       	ldd	r19, Z+47	; 0x2f
    26f4:	40 a9       	ldd	r20, Z+48	; 0x30
    26f6:	51 a9       	ldd	r21, Z+49	; 0x31
    26f8:	0e 94 cd 41 	call	0x839a	; 0x839a <__subsf3>
    26fc:	6f 83       	std	Y+7, r22	; 0x07
    26fe:	78 87       	std	Y+8, r23	; 0x08
    2700:	89 87       	std	Y+9, r24	; 0x09
    2702:	9a 87       	std	Y+10, r25	; 0x0a
	y = gc.target[gc.plane_axis_1]-gc.position[gc.plane_axis_1];
    2704:	e0 91 30 21 	lds	r30, 0x2130
    2708:	f0 e0       	ldi	r31, 0x00	; 0
    270a:	ee 0f       	add	r30, r30
    270c:	ff 1f       	adc	r31, r31
    270e:	ee 0f       	add	r30, r30
    2710:	ff 1f       	adc	r31, r31
    2712:	e4 5e       	subi	r30, 0xE4	; 228
    2714:	fe 4d       	sbci	r31, 0xDE	; 222
    2716:	62 ad       	ldd	r22, Z+58	; 0x3a
    2718:	73 ad       	ldd	r23, Z+59	; 0x3b
    271a:	84 ad       	ldd	r24, Z+60	; 0x3c
    271c:	95 ad       	ldd	r25, Z+61	; 0x3d
    271e:	26 a5       	ldd	r18, Z+46	; 0x2e
    2720:	37 a5       	ldd	r19, Z+47	; 0x2f
    2722:	40 a9       	ldd	r20, Z+48	; 0x30
    2724:	51 a9       	ldd	r21, Z+49	; 0x31
    2726:	0e 94 cd 41 	call	0x839a	; 0x839a <__subsf3>
    272a:	1b 01       	movw	r2, r22
    272c:	2c 01       	movw	r4, r24
        
	clear_vector(&gc.offset);
    272e:	10 92 62 21 	sts	0x2162, r1
    2732:	10 92 63 21 	sts	0x2163, r1
	 // == -(h * 2 / d)
	h_x2_div_d = -sqrt(4 * gc.radius*gc.radius - ((x*x) - (y*y))) / hypot(x,y);
    2736:	60 90 36 21 	lds	r6, 0x2136
    273a:	70 90 37 21 	lds	r7, 0x2137
    273e:	80 90 38 21 	lds	r8, 0x2138
    2742:	90 90 39 21 	lds	r9, 0x2139
    2746:	c4 01       	movw	r24, r8
    2748:	b3 01       	movw	r22, r6
    274a:	20 e0       	ldi	r18, 0x00	; 0
    274c:	30 e0       	ldi	r19, 0x00	; 0
    274e:	40 e8       	ldi	r20, 0x80	; 128
    2750:	50 e4       	ldi	r21, 0x40	; 64
    2752:	0e 94 2f 45 	call	0x8a5e	; 0x8a5e <__mulsf3>
    2756:	a4 01       	movw	r20, r8
    2758:	93 01       	movw	r18, r6
    275a:	0e 94 2f 45 	call	0x8a5e	; 0x8a5e <__mulsf3>
    275e:	5b 01       	movw	r10, r22
    2760:	6c 01       	movw	r12, r24
    2762:	6f 81       	ldd	r22, Y+7	; 0x07
    2764:	78 85       	ldd	r23, Y+8	; 0x08
    2766:	89 85       	ldd	r24, Y+9	; 0x09
    2768:	9a 85       	ldd	r25, Y+10	; 0x0a
    276a:	9b 01       	movw	r18, r22
    276c:	ac 01       	movw	r20, r24
    276e:	0e 94 2f 45 	call	0x8a5e	; 0x8a5e <__mulsf3>
    2772:	7b 01       	movw	r14, r22
    2774:	8c 01       	movw	r16, r24
    2776:	c2 01       	movw	r24, r4
    2778:	b1 01       	movw	r22, r2
    277a:	a2 01       	movw	r20, r4
    277c:	91 01       	movw	r18, r2
    277e:	0e 94 2f 45 	call	0x8a5e	; 0x8a5e <__mulsf3>
    2782:	9b 01       	movw	r18, r22
    2784:	ac 01       	movw	r20, r24
    2786:	c8 01       	movw	r24, r16
    2788:	b7 01       	movw	r22, r14
    278a:	0e 94 cd 41 	call	0x839a	; 0x839a <__subsf3>
    278e:	9b 01       	movw	r18, r22
    2790:	ac 01       	movw	r20, r24
    2792:	c6 01       	movw	r24, r12
    2794:	b5 01       	movw	r22, r10
    2796:	0e 94 cd 41 	call	0x839a	; 0x839a <__subsf3>
    279a:	0e 94 9c 45 	call	0x8b38	; 0x8b38 <sqrt>
    279e:	7b 01       	movw	r14, r22
    27a0:	8c 01       	movw	r16, r24
    27a2:	6f 81       	ldd	r22, Y+7	; 0x07
    27a4:	78 85       	ldd	r23, Y+8	; 0x08
    27a6:	89 85       	ldd	r24, Y+9	; 0x09
    27a8:	9a 85       	ldd	r25, Y+10	; 0x0a
    27aa:	a2 01       	movw	r20, r4
    27ac:	91 01       	movw	r18, r2
    27ae:	0e 94 6a 44 	call	0x88d4	; 0x88d4 <hypot>
    27b2:	9b 01       	movw	r18, r22
    27b4:	ac 01       	movw	r20, r24
    27b6:	17 fb       	bst	r17, 7
    27b8:	10 95       	com	r17
    27ba:	17 f9       	bld	r17, 7
    27bc:	10 95       	com	r17
    27be:	c8 01       	movw	r24, r16
    27c0:	b7 01       	movw	r22, r14
    27c2:	0e 94 74 42 	call	0x84e8	; 0x84e8 <__divsf3>
    27c6:	7b 01       	movw	r14, r22
    27c8:	8c 01       	movw	r16, r24

	// If r is smaller than d the arc is now traversing the complex plane beyond
	// the reach of any real CNC, and thus - for practical reasons - we will 
	// terminate promptly (well spoken Simen!)
	if(isnan(h_x2_div_d)) { 
    27ca:	a8 01       	movw	r20, r16
    27cc:	97 01       	movw	r18, r14
    27ce:	0e 94 e4 45 	call	0x8bc8	; 0x8bc8 <__unordsf2>
    27d2:	88 23       	and	r24, r24
    27d4:	21 f0       	breq	.+8      	; 0x27de <gc_execute_block+0x6c0>
		gc.status = TG_FLOATING_POINT_ERROR; 
    27d6:	81 e1       	ldi	r24, 0x11	; 17
    27d8:	80 93 1c 21 	sts	0x211C, r24
    27dc:	65 c0       	rjmp	.+202    	; 0x28a8 <gc_execute_block+0x78a>
		return(gc.status); 
	}

	// Invert the sign of h_x2_div_d if circle is counter clockwise 
	// (see sketch below)
	if (gc.motion_mode == MOTION_MODE_CCW_ARC) {
    27de:	e8 8d       	ldd	r30, Y+24	; 0x18
    27e0:	e3 30       	cpi	r30, 0x03	; 3
    27e2:	21 f4       	brne	.+8      	; 0x27ec <gc_execute_block+0x6ce>
		h_x2_div_d = -h_x2_div_d;
    27e4:	17 fb       	bst	r17, 7
    27e6:	10 95       	com	r17
    27e8:	17 f9       	bld	r17, 7
    27ea:	10 95       	com	r17
	// Negative R is g-code-alese for "I want a circle with more than 180 degrees
	// of travel" (go figure!), even though it is advised against ever generating
	// such circles in a single line of g-code. By inverting the sign of 
	// h_x2_div_d the center of the circles is placed on the opposite side of 
	// the line of travel and thus we get the unadvisably long arcs as prescribed.
	if (gc.radius < 0) { 
    27ec:	c4 01       	movw	r24, r8
    27ee:	b3 01       	movw	r22, r6
    27f0:	20 e0       	ldi	r18, 0x00	; 0
    27f2:	30 e0       	ldi	r19, 0x00	; 0
    27f4:	40 e0       	ldi	r20, 0x00	; 0
    27f6:	50 e0       	ldi	r21, 0x00	; 0
    27f8:	0e 94 6d 42 	call	0x84da	; 0x84da <__cmpsf2>
    27fc:	88 23       	and	r24, r24
    27fe:	24 f4       	brge	.+8      	; 0x2808 <gc_execute_block+0x6ea>
		h_x2_div_d = -h_x2_div_d; 
    2800:	17 fb       	bst	r17, 7
    2802:	10 95       	com	r17
    2804:	17 f9       	bld	r17, 7
    2806:	10 95       	com	r17
	}        
        
	// Complete the operation by calculating the actual center of the arc
	gc.offset[gc.plane_axis_0] = (x-(y*h_x2_div_d))/2;
    2808:	80 91 2f 21 	lds	r24, 0x212F
    280c:	c8 2e       	mov	r12, r24
    280e:	dd 24       	eor	r13, r13
    2810:	cc 0c       	add	r12, r12
    2812:	dd 1c       	adc	r13, r13
    2814:	cc 0c       	add	r12, r12
    2816:	dd 1c       	adc	r13, r13
    2818:	22 e6       	ldi	r18, 0x62	; 98
    281a:	31 e2       	ldi	r19, 0x21	; 33
    281c:	c2 0e       	add	r12, r18
    281e:	d3 1e       	adc	r13, r19
    2820:	c2 01       	movw	r24, r4
    2822:	b1 01       	movw	r22, r2
    2824:	a8 01       	movw	r20, r16
    2826:	97 01       	movw	r18, r14
    2828:	0e 94 2f 45 	call	0x8a5e	; 0x8a5e <__mulsf3>
    282c:	9b 01       	movw	r18, r22
    282e:	ac 01       	movw	r20, r24
    2830:	6f 81       	ldd	r22, Y+7	; 0x07
    2832:	78 85       	ldd	r23, Y+8	; 0x08
    2834:	89 85       	ldd	r24, Y+9	; 0x09
    2836:	9a 85       	ldd	r25, Y+10	; 0x0a
    2838:	0e 94 cd 41 	call	0x839a	; 0x839a <__subsf3>
    283c:	20 e0       	ldi	r18, 0x00	; 0
    283e:	30 e0       	ldi	r19, 0x00	; 0
    2840:	40 e0       	ldi	r20, 0x00	; 0
    2842:	5f e3       	ldi	r21, 0x3F	; 63
    2844:	0e 94 2f 45 	call	0x8a5e	; 0x8a5e <__mulsf3>
    2848:	d6 01       	movw	r26, r12
    284a:	6d 93       	st	X+, r22
    284c:	7d 93       	st	X+, r23
    284e:	8d 93       	st	X+, r24
    2850:	9c 93       	st	X, r25
    2852:	13 97       	sbiw	r26, 0x03	; 3
	gc.offset[gc.plane_axis_1] = (y+(x*h_x2_div_d))/2;
    2854:	80 91 30 21 	lds	r24, 0x2130
    2858:	c8 2e       	mov	r12, r24
    285a:	dd 24       	eor	r13, r13
    285c:	cc 0c       	add	r12, r12
    285e:	dd 1c       	adc	r13, r13
    2860:	cc 0c       	add	r12, r12
    2862:	dd 1c       	adc	r13, r13
    2864:	e2 e6       	ldi	r30, 0x62	; 98
    2866:	f1 e2       	ldi	r31, 0x21	; 33
    2868:	ce 0e       	add	r12, r30
    286a:	df 1e       	adc	r13, r31
    286c:	6f 81       	ldd	r22, Y+7	; 0x07
    286e:	78 85       	ldd	r23, Y+8	; 0x08
    2870:	89 85       	ldd	r24, Y+9	; 0x09
    2872:	9a 85       	ldd	r25, Y+10	; 0x0a
    2874:	a8 01       	movw	r20, r16
    2876:	97 01       	movw	r18, r14
    2878:	0e 94 2f 45 	call	0x8a5e	; 0x8a5e <__mulsf3>
    287c:	9b 01       	movw	r18, r22
    287e:	ac 01       	movw	r20, r24
    2880:	c2 01       	movw	r24, r4
    2882:	b1 01       	movw	r22, r2
    2884:	0e 94 ce 41 	call	0x839c	; 0x839c <__addsf3>
    2888:	20 e0       	ldi	r18, 0x00	; 0
    288a:	30 e0       	ldi	r19, 0x00	; 0
    288c:	40 e0       	ldi	r20, 0x00	; 0
    288e:	5f e3       	ldi	r21, 0x3F	; 63
    2890:	0e 94 2f 45 	call	0x8a5e	; 0x8a5e <__mulsf3>
    2894:	d6 01       	movw	r26, r12
    2896:	6d 93       	st	X+, r22
    2898:	7d 93       	st	X+, r23
    289a:	8d 93       	st	X+, r24
    289c:	9c 93       	st	X, r25
    289e:	13 97       	sbiw	r26, 0x03	; 3
 */

int _gc_compute_arc()
{
	if (gc.radius_mode) {
		if ((_gc_compute_radius_arc() != TG_OK)) {
    28a0:	80 91 1c 21 	lds	r24, 0x211C
    28a4:	88 23       	and	r24, r24
    28a6:	19 f0       	breq	.+6      	; 0x28ae <gc_execute_block+0x790>
			return (gc.status);
    28a8:	80 91 1c 21 	lds	r24, 0x211C
    28ac:	41 c1       	rjmp	.+642    	; 0x2b30 <gc_execute_block+0xa12>
                  *   /
                    C   <- theta_start (e.g. -145 degrees: theta_start == -PI*(3/4))
 	*/

	// calculate the theta (angle) of the current point
	theta_start = theta(-gc.offset[gc.plane_axis_0], -gc.offset[gc.plane_axis_1]);
    28ae:	e0 91 2f 21 	lds	r30, 0x212F
    28b2:	f0 e0       	ldi	r31, 0x00	; 0
    28b4:	ee 0f       	add	r30, r30
    28b6:	ff 1f       	adc	r31, r31
    28b8:	ee 0f       	add	r30, r30
    28ba:	ff 1f       	adc	r31, r31
    28bc:	ee 59       	subi	r30, 0x9E	; 158
    28be:	fe 4d       	sbci	r31, 0xDE	; 222
    28c0:	60 81       	ld	r22, Z
    28c2:	71 81       	ldd	r23, Z+1	; 0x01
    28c4:	82 81       	ldd	r24, Z+2	; 0x02
    28c6:	93 81       	ldd	r25, Z+3	; 0x03
    28c8:	90 58       	subi	r25, 0x80	; 128
    28ca:	e0 91 30 21 	lds	r30, 0x2130
    28ce:	f0 e0       	ldi	r31, 0x00	; 0
    28d0:	ee 0f       	add	r30, r30
    28d2:	ff 1f       	adc	r31, r31
    28d4:	ee 0f       	add	r30, r30
    28d6:	ff 1f       	adc	r31, r31
    28d8:	ee 59       	subi	r30, 0x9E	; 158
    28da:	fe 4d       	sbci	r31, 0xDE	; 222
    28dc:	20 81       	ld	r18, Z
    28de:	31 81       	ldd	r19, Z+1	; 0x01
    28e0:	42 81       	ldd	r20, Z+2	; 0x02
    28e2:	53 81       	ldd	r21, Z+3	; 0x03
    28e4:	50 58       	subi	r21, 0x80	; 128
    28e6:	0e 94 50 10 	call	0x20a0	; 0x20a0 <theta>
    28ea:	6f 87       	std	Y+15, r22	; 0x0f
    28ec:	78 8b       	std	Y+16, r23	; 0x10
    28ee:	89 8b       	std	Y+17, r24	; 0x11
    28f0:	9a 8b       	std	Y+18, r25	; 0x12
	if(isnan(theta_start)) { 
    28f2:	9b 01       	movw	r18, r22
    28f4:	ac 01       	movw	r20, r24
    28f6:	0e 94 e4 45 	call	0x8bc8	; 0x8bc8 <__unordsf2>
    28fa:	88 23       	and	r24, r24
    28fc:	09 f0       	breq	.+2      	; 0x2900 <gc_execute_block+0x7e2>
    28fe:	54 c0       	rjmp	.+168    	; 0x29a8 <gc_execute_block+0x88a>
		gc.status = TG_ARC_SPECIFICATION_ERROR;
		return(gc.status); 
	}

	// calculate the theta (angle) of the target point
	theta_end = theta(gc.target[gc.plane_axis_0] 
    2900:	e0 91 2f 21 	lds	r30, 0x212F
    2904:	0e 2f       	mov	r16, r30
    2906:	10 e0       	ldi	r17, 0x00	; 0
    2908:	e0 91 30 21 	lds	r30, 0x2130
    290c:	ce 2e       	mov	r12, r30
    290e:	dd 24       	eor	r13, r13
    2910:	00 0f       	add	r16, r16
    2912:	11 1f       	adc	r17, r17
    2914:	00 0f       	add	r16, r16
    2916:	11 1f       	adc	r17, r17
    2918:	04 5e       	subi	r16, 0xE4	; 228
    291a:	1e 4d       	sbci	r17, 0xDE	; 222
    291c:	f8 01       	movw	r30, r16
    291e:	ea 5b       	subi	r30, 0xBA	; 186
    2920:	ff 4f       	sbci	r31, 0xFF	; 255
    2922:	d8 01       	movw	r26, r16
    2924:	da 96       	adiw	r26, 0x3a	; 58
    2926:	6d 91       	ld	r22, X+
    2928:	7d 91       	ld	r23, X+
    292a:	8d 91       	ld	r24, X+
    292c:	9c 91       	ld	r25, X
    292e:	dd 97       	sbiw	r26, 0x3d	; 61
    2930:	20 81       	ld	r18, Z
    2932:	31 81       	ldd	r19, Z+1	; 0x01
    2934:	42 81       	ldd	r20, Z+2	; 0x02
    2936:	53 81       	ldd	r21, Z+3	; 0x03
    2938:	0e 94 cd 41 	call	0x839a	; 0x839a <__subsf3>
    293c:	f8 01       	movw	r30, r16
    293e:	26 a5       	ldd	r18, Z+46	; 0x2e
    2940:	37 a5       	ldd	r19, Z+47	; 0x2f
    2942:	40 a9       	ldd	r20, Z+48	; 0x30
    2944:	51 a9       	ldd	r21, Z+49	; 0x31
    2946:	0e 94 cd 41 	call	0x839a	; 0x839a <__subsf3>
    294a:	7b 01       	movw	r14, r22
    294c:	8c 01       	movw	r16, r24
    294e:	cc 0c       	add	r12, r12
    2950:	dd 1c       	adc	r13, r13
    2952:	cc 0c       	add	r12, r12
    2954:	dd 1c       	adc	r13, r13
    2956:	2c e1       	ldi	r18, 0x1C	; 28
    2958:	31 e2       	ldi	r19, 0x21	; 33
    295a:	c2 0e       	add	r12, r18
    295c:	d3 1e       	adc	r13, r19
    295e:	f6 01       	movw	r30, r12
    2960:	ea 5b       	subi	r30, 0xBA	; 186
    2962:	ff 4f       	sbci	r31, 0xFF	; 255
    2964:	d6 01       	movw	r26, r12
    2966:	da 96       	adiw	r26, 0x3a	; 58
    2968:	6d 91       	ld	r22, X+
    296a:	7d 91       	ld	r23, X+
    296c:	8d 91       	ld	r24, X+
    296e:	9c 91       	ld	r25, X
    2970:	dd 97       	sbiw	r26, 0x3d	; 61
    2972:	20 81       	ld	r18, Z
    2974:	31 81       	ldd	r19, Z+1	; 0x01
    2976:	42 81       	ldd	r20, Z+2	; 0x02
    2978:	53 81       	ldd	r21, Z+3	; 0x03
    297a:	0e 94 cd 41 	call	0x839a	; 0x839a <__subsf3>
    297e:	f6 01       	movw	r30, r12
    2980:	26 a5       	ldd	r18, Z+46	; 0x2e
    2982:	37 a5       	ldd	r19, Z+47	; 0x2f
    2984:	40 a9       	ldd	r20, Z+48	; 0x30
    2986:	51 a9       	ldd	r21, Z+49	; 0x31
    2988:	0e 94 cd 41 	call	0x839a	; 0x839a <__subsf3>
    298c:	9b 01       	movw	r18, r22
    298e:	ac 01       	movw	r20, r24
    2990:	c8 01       	movw	r24, r16
    2992:	b7 01       	movw	r22, r14
    2994:	0e 94 50 10 	call	0x20a0	; 0x20a0 <theta>
    2998:	7b 01       	movw	r14, r22
    299a:	8c 01       	movw	r16, r24
					- gc.position[gc.plane_axis_0], 
 					  gc.target[gc.plane_axis_1] 
					- gc.offset[gc.plane_axis_1] 
					- gc.position[gc.plane_axis_1]);

	if(isnan(theta_end)) { 
    299c:	a8 01       	movw	r20, r16
    299e:	97 01       	movw	r18, r14
    29a0:	0e 94 e4 45 	call	0x8bc8	; 0x8bc8 <__unordsf2>
    29a4:	88 23       	and	r24, r24
    29a6:	19 f0       	breq	.+6      	; 0x29ae <gc_execute_block+0x890>
		gc.status = TG_ARC_SPECIFICATION_ERROR; 
    29a8:	83 e1       	ldi	r24, 0x13	; 19
    29aa:	90 e0       	ldi	r25, 0x00	; 0
    29ac:	c1 c0       	rjmp	.+386    	; 0x2b30 <gc_execute_block+0xa12>
		return(gc.status);
	}

	// ensure that the difference is positive so that we have clockwise travel
	if (theta_end < theta_start) {
    29ae:	c8 01       	movw	r24, r16
    29b0:	b7 01       	movw	r22, r14
    29b2:	2f 85       	ldd	r18, Y+15	; 0x0f
    29b4:	38 89       	ldd	r19, Y+16	; 0x10
    29b6:	49 89       	ldd	r20, Y+17	; 0x11
    29b8:	5a 89       	ldd	r21, Y+18	; 0x12
    29ba:	0e 94 6d 42 	call	0x84da	; 0x84da <__cmpsf2>
    29be:	88 23       	and	r24, r24
    29c0:	54 f4       	brge	.+20     	; 0x29d6 <gc_execute_block+0x8b8>
		theta_end += 2*M_PI;
    29c2:	c8 01       	movw	r24, r16
    29c4:	b7 01       	movw	r22, r14
    29c6:	2b ed       	ldi	r18, 0xDB	; 219
    29c8:	3f e0       	ldi	r19, 0x0F	; 15
    29ca:	49 ec       	ldi	r20, 0xC9	; 201
    29cc:	50 e4       	ldi	r21, 0x40	; 64
    29ce:	0e 94 ce 41 	call	0x839c	; 0x839c <__addsf3>
    29d2:	7b 01       	movw	r14, r22
    29d4:	8c 01       	movw	r16, r24
	}
	angular_travel = theta_end - theta_start;
    29d6:	c8 01       	movw	r24, r16
    29d8:	b7 01       	movw	r22, r14
    29da:	2f 85       	ldd	r18, Y+15	; 0x0f
    29dc:	38 89       	ldd	r19, Y+16	; 0x10
    29de:	49 89       	ldd	r20, Y+17	; 0x11
    29e0:	5a 89       	ldd	r21, Y+18	; 0x12
    29e2:	0e 94 cd 41 	call	0x839a	; 0x839a <__subsf3>
    29e6:	6b 87       	std	Y+11, r22	; 0x0b
    29e8:	7c 87       	std	Y+12, r23	; 0x0c
    29ea:	8d 87       	std	Y+13, r24	; 0x0d
    29ec:	9e 87       	std	Y+14, r25	; 0x0e

	// Invert angular motion if the g-code wanted a counterclockwise arc
	if (gc.motion_mode == MOTION_MODE_CCW_ARC) {
    29ee:	80 91 28 21 	lds	r24, 0x2128
    29f2:	83 30       	cpi	r24, 0x03	; 3
    29f4:	71 f4       	brne	.+28     	; 0x2a12 <gc_execute_block+0x8f4>
		angular_travel = angular_travel - 2*M_PI;
    29f6:	6b 85       	ldd	r22, Y+11	; 0x0b
    29f8:	7c 85       	ldd	r23, Y+12	; 0x0c
    29fa:	8d 85       	ldd	r24, Y+13	; 0x0d
    29fc:	9e 85       	ldd	r25, Y+14	; 0x0e
    29fe:	2b ed       	ldi	r18, 0xDB	; 219
    2a00:	3f e0       	ldi	r19, 0x0F	; 15
    2a02:	49 ec       	ldi	r20, 0xC9	; 201
    2a04:	50 e4       	ldi	r21, 0x40	; 64
    2a06:	0e 94 cd 41 	call	0x839a	; 0x839a <__subsf3>
    2a0a:	6b 87       	std	Y+11, r22	; 0x0b
    2a0c:	7c 87       	std	Y+12, r23	; 0x0c
    2a0e:	8d 87       	std	Y+13, r24	; 0x0d
    2a10:	9e 87       	std	Y+14, r25	; 0x0e
	}

	// Find the radius
	radius_tmp = hypot(gc.offset[gc.plane_axis_0], gc.offset[gc.plane_axis_1]);
    2a12:	80 91 2f 21 	lds	r24, 0x212F
    2a16:	28 2f       	mov	r18, r24
    2a18:	30 e0       	ldi	r19, 0x00	; 0
    2a1a:	2d 83       	std	Y+5, r18	; 0x05
    2a1c:	3e 83       	std	Y+6, r19	; 0x06
    2a1e:	f9 01       	movw	r30, r18
    2a20:	ee 0f       	add	r30, r30
    2a22:	ff 1f       	adc	r31, r31
    2a24:	ee 0f       	add	r30, r30
    2a26:	ff 1f       	adc	r31, r31
    2a28:	ee 59       	subi	r30, 0x9E	; 158
    2a2a:	fe 4d       	sbci	r31, 0xDE	; 222
    2a2c:	e0 80       	ld	r14, Z
    2a2e:	f1 80       	ldd	r15, Z+1	; 0x01
    2a30:	02 81       	ldd	r16, Z+2	; 0x02
    2a32:	13 81       	ldd	r17, Z+3	; 0x03
    2a34:	80 91 30 21 	lds	r24, 0x2130
    2a38:	a8 2f       	mov	r26, r24
    2a3a:	b0 e0       	ldi	r27, 0x00	; 0
    2a3c:	ab 83       	std	Y+3, r26	; 0x03
    2a3e:	bc 83       	std	Y+4, r27	; 0x04
    2a40:	fd 01       	movw	r30, r26
    2a42:	ee 0f       	add	r30, r30
    2a44:	ff 1f       	adc	r31, r31
    2a46:	ee 0f       	add	r30, r30
    2a48:	ff 1f       	adc	r31, r31
    2a4a:	ee 59       	subi	r30, 0x9E	; 158
    2a4c:	fe 4d       	sbci	r31, 0xDE	; 222
    2a4e:	20 81       	ld	r18, Z
    2a50:	31 81       	ldd	r19, Z+1	; 0x01
    2a52:	42 81       	ldd	r20, Z+2	; 0x02
    2a54:	53 81       	ldd	r21, Z+3	; 0x03

	// Calculate the motion along the depth axis of the helix
	depth = gc.target[gc.plane_axis_2] - gc.position[gc.plane_axis_2];
    2a56:	80 91 31 21 	lds	r24, 0x2131
    2a5a:	28 2e       	mov	r2, r24
    2a5c:	33 24       	eor	r3, r3
    2a5e:	f1 01       	movw	r30, r2
    2a60:	ee 0f       	add	r30, r30
    2a62:	ff 1f       	adc	r31, r31
    2a64:	ee 0f       	add	r30, r30
    2a66:	ff 1f       	adc	r31, r31
    2a68:	e4 5e       	subi	r30, 0xE4	; 228
    2a6a:	fe 4d       	sbci	r31, 0xDE	; 222
    2a6c:	82 ad       	ldd	r24, Z+58	; 0x3a
    2a6e:	93 ad       	ldd	r25, Z+59	; 0x3b
    2a70:	a4 ad       	ldd	r26, Z+60	; 0x3c
    2a72:	b5 ad       	ldd	r27, Z+61	; 0x3d
    2a74:	8c 8b       	std	Y+20, r24	; 0x14
    2a76:	9d 8b       	std	Y+21, r25	; 0x15
    2a78:	ae 8b       	std	Y+22, r26	; 0x16
    2a7a:	bf 8b       	std	Y+23, r27	; 0x17
    2a7c:	a6 a4       	ldd	r10, Z+46	; 0x2e
    2a7e:	b7 a4       	ldd	r11, Z+47	; 0x2f
    2a80:	c0 a8       	ldd	r12, Z+48	; 0x30
    2a82:	d1 a8       	ldd	r13, Z+49	; 0x31

	// Trace the arc
	gc.status = mc_arc(theta_start, angular_travel, radius_tmp, depth, 
    2a84:	90 91 29 21 	lds	r25, 0x2129
    2a88:	9b 8b       	std	Y+19, r25	; 0x13
    2a8a:	99 23       	and	r25, r25
    2a8c:	49 f0       	breq	.+18     	; 0x2aa0 <gc_execute_block+0x982>
    2a8e:	40 90 46 21 	lds	r4, 0x2146
    2a92:	50 90 47 21 	lds	r5, 0x2147
    2a96:	60 90 48 21 	lds	r6, 0x2148
    2a9a:	70 90 49 21 	lds	r7, 0x2149
    2a9e:	08 c0       	rjmp	.+16     	; 0x2ab0 <gc_execute_block+0x992>
    2aa0:	40 90 3a 21 	lds	r4, 0x213A
    2aa4:	50 90 3b 21 	lds	r5, 0x213B
    2aa8:	60 90 3c 21 	lds	r6, 0x213C
    2aac:	70 90 3d 21 	lds	r7, 0x213D
	if (gc.motion_mode == MOTION_MODE_CCW_ARC) {
		angular_travel = angular_travel - 2*M_PI;
	}

	// Find the radius
	radius_tmp = hypot(gc.offset[gc.plane_axis_0], gc.offset[gc.plane_axis_1]);
    2ab0:	c8 01       	movw	r24, r16
    2ab2:	b7 01       	movw	r22, r14
    2ab4:	0e 94 6a 44 	call	0x88d4	; 0x88d4 <hypot>
    2ab8:	7b 01       	movw	r14, r22
    2aba:	8c 01       	movw	r16, r24

	// Calculate the motion along the depth axis of the helix
	depth = gc.target[gc.plane_axis_2] - gc.position[gc.plane_axis_2];

	// Trace the arc
	gc.status = mc_arc(theta_start, angular_travel, radius_tmp, depth, 
    2abc:	ad b7       	in	r26, 0x3d	; 61
    2abe:	be b7       	in	r27, 0x3e	; 62
    2ac0:	1a 97       	sbiw	r26, 0x0a	; 10
    2ac2:	ad bf       	out	0x3d, r26	; 61
    2ac4:	be bf       	out	0x3e, r27	; 62
    2ac6:	8d b6       	in	r8, 0x3d	; 61
    2ac8:	9e b6       	in	r9, 0x3e	; 62
    2aca:	08 94       	sec
    2acc:	81 1c       	adc	r8, r1
    2ace:	91 1c       	adc	r9, r1
    2ad0:	6c 89       	ldd	r22, Y+20	; 0x14
    2ad2:	7d 89       	ldd	r23, Y+21	; 0x15
    2ad4:	8e 89       	ldd	r24, Y+22	; 0x16
    2ad6:	9f 89       	ldd	r25, Y+23	; 0x17
    2ad8:	a6 01       	movw	r20, r12
    2ada:	95 01       	movw	r18, r10
    2adc:	0e 94 cd 41 	call	0x839a	; 0x839a <__subsf3>
    2ae0:	5b 01       	movw	r10, r22
    2ae2:	6c 01       	movw	r12, r24
    2ae4:	2b 81       	ldd	r18, Y+3	; 0x03
    2ae6:	3c 81       	ldd	r19, Y+4	; 0x04
    2ae8:	f4 01       	movw	r30, r8
    2aea:	20 83       	st	Z, r18
    2aec:	31 83       	std	Z+1, r19	; 0x01
    2aee:	22 82       	std	Z+2, r2	; 0x02
    2af0:	33 82       	std	Z+3, r3	; 0x03
    2af2:	d4 01       	movw	r26, r8
    2af4:	14 96       	adiw	r26, 0x04	; 4
    2af6:	4d 92       	st	X+, r4
    2af8:	5d 92       	st	X+, r5
    2afa:	6d 92       	st	X+, r6
    2afc:	7c 92       	st	X, r7
    2afe:	17 97       	sbiw	r26, 0x07	; 7
    2b00:	eb 89       	ldd	r30, Y+19	; 0x13
    2b02:	18 96       	adiw	r26, 0x08	; 8
    2b04:	ec 93       	st	X, r30
    2b06:	18 97       	sbiw	r26, 0x08	; 8
    2b08:	19 96       	adiw	r26, 0x09	; 9
    2b0a:	1c 92       	st	X, r1
    2b0c:	6f 85       	ldd	r22, Y+15	; 0x0f
    2b0e:	78 89       	ldd	r23, Y+16	; 0x10
    2b10:	89 89       	ldd	r24, Y+17	; 0x11
    2b12:	9a 89       	ldd	r25, Y+18	; 0x12
    2b14:	2b 85       	ldd	r18, Y+11	; 0x0b
    2b16:	3c 85       	ldd	r19, Y+12	; 0x0c
    2b18:	4d 85       	ldd	r20, Y+13	; 0x0d
    2b1a:	5e 85       	ldd	r21, Y+14	; 0x0e
    2b1c:	8d 80       	ldd	r8, Y+5	; 0x05
    2b1e:	9e 80       	ldd	r9, Y+6	; 0x06
    2b20:	0e 94 e1 1e 	call	0x3dc2	; 0x3dc2 <mc_arc>
	// has completed the arc. So the endpoint should be passed to the generator and
	// executed there.
//	gc.status = mc_line(gc.target[X_AXIS], gc.target[Y_AXIS], gc.target[Z_AXIS], 
//					   (gc.inverse_feed_rate_mode) ? gc.inverse_feed_rate : 
//						gc.feed_rate, gc.inverse_feed_rate_mode);
	return (gc.status);
    2b24:	2d b7       	in	r18, 0x3d	; 61
    2b26:	3e b7       	in	r19, 0x3e	; 62
    2b28:	26 5f       	subi	r18, 0xF6	; 246
    2b2a:	3f 4f       	sbci	r19, 0xFF	; 255
    2b2c:	2d bf       	out	0x3d, r18	; 61
    2b2e:	3e bf       	out	0x3e, r19	; 62
										gc.inverse_feed_rate_mode); 
					break;
				}

				case MOTION_MODE_CW_ARC: case MOTION_MODE_CCW_ARC: {
					gc.status = _gc_compute_arc(); 
    2b30:	80 93 1c 21 	sts	0x211C, r24
	/* As far as the g-code parser is concerned the position is now == target. 
	 * In reality, motion control / steppers will still be processing the action
	 * and the real tool position is still close to the starting point.
	 * The endpoint position is not moved if there has been an interpreter error.
	 */
	if ((gc.status == TG_OK) || (gc.status == TG_EAGAIN)) {
    2b34:	80 91 1c 21 	lds	r24, 0x211C
    2b38:	88 23       	and	r24, r24
    2b3a:	11 f0       	breq	.+4      	; 0x2b40 <gc_execute_block+0xa22>
    2b3c:	82 30       	cpi	r24, 0x02	; 2
    2b3e:	49 f4       	brne	.+18     	; 0x2b52 <gc_execute_block+0xa34>
		memcpy(gc.position, gc.target, sizeof(gc.target));
    2b40:	ea e4       	ldi	r30, 0x4A	; 74
    2b42:	f1 e2       	ldi	r31, 0x21	; 33
    2b44:	df 01       	movw	r26, r30
    2b46:	1c 96       	adiw	r26, 0x0c	; 12
    2b48:	9c e0       	ldi	r25, 0x0C	; 12
    2b4a:	0d 90       	ld	r0, X+
    2b4c:	01 92       	st	Z+, r0
    2b4e:	91 50       	subi	r25, 0x01	; 1
    2b50:	e1 f7       	brne	.-8      	; 0x2b4a <gc_execute_block+0xa2c>
	};
	return(gc.status);
}
    2b52:	68 96       	adiw	r28, 0x18	; 24
    2b54:	cd bf       	out	0x3d, r28	; 61
    2b56:	de bf       	out	0x3e, r29	; 62
    2b58:	cf 91       	pop	r28
    2b5a:	df 91       	pop	r29
    2b5c:	1f 91       	pop	r17
    2b5e:	0f 91       	pop	r16
    2b60:	ff 90       	pop	r15
    2b62:	ef 90       	pop	r14
    2b64:	df 90       	pop	r13
    2b66:	cf 90       	pop	r12
    2b68:	bf 90       	pop	r11
    2b6a:	af 90       	pop	r10
    2b6c:	9f 90       	pop	r9
    2b6e:	8f 90       	pop	r8
    2b70:	7f 90       	pop	r7
    2b72:	6f 90       	pop	r6
    2b74:	5f 90       	pop	r5
    2b76:	4f 90       	pop	r4
    2b78:	3f 90       	pop	r3
    2b7a:	2f 90       	pop	r2
    2b7c:	08 95       	ret

00002b7e <gc_gcode_parser>:
/*
 * gc_gcode_parser() - parse a block (line) of gcode
 */

uint8_t gc_gcode_parser(char *block)
{
    2b7e:	df 92       	push	r13
    2b80:	ef 92       	push	r14
    2b82:	ff 92       	push	r15
    2b84:	0f 93       	push	r16
    2b86:	1f 93       	push	r17
    2b88:	cf 93       	push	r28
    2b8a:	df 93       	push	r29
    2b8c:	7c 01       	movw	r14, r24
	char *comment=0;	// comment pointer - first char past opening paren
	uint8_t i=0; 		// index for incoming characters
	uint8_t j=0;		// index for normalized characters

	// discard deleted block
	if (block[0] == '/') {
    2b8e:	fc 01       	movw	r30, r24
    2b90:	80 81       	ld	r24, Z
    2b92:	8f 32       	cpi	r24, 0x2F	; 47
    2b94:	19 f0       	breq	.+6      	; 0x2b9c <gc_gcode_parser+0x1e>
    2b96:	00 e0       	ldi	r16, 0x00	; 0
    2b98:	dd 24       	eor	r13, r13
    2b9a:	2a c0       	rjmp	.+84     	; 0x2bf0 <gc_gcode_parser+0x72>
		block[0] = 0;
    2b9c:	f7 01       	movw	r30, r14
    2b9e:	10 82       	st	Z, r1
    2ba0:	6c c0       	rjmp	.+216    	; 0x2c7a <gc_gcode_parser+0xfc>
		return;
	}
	// normalize the comamnd block & mark the comment(if any)
	while ((c = toupper(block[i++])) != 0) {// NUL character
    2ba2:	d3 94       	inc	r13
		if ((isupper(c)) || (isdigit(c))) {	// capture common chars
    2ba4:	81 2f       	mov	r24, r17
    2ba6:	90 e0       	ldi	r25, 0x00	; 0
    2ba8:	0e 94 dc 48 	call	0x91b8	; 0x91b8 <isupper>
    2bac:	89 2b       	or	r24, r25
    2bae:	d9 f4       	brne	.+54     	; 0x2be6 <gc_gcode_parser+0x68>
    2bb0:	81 2f       	mov	r24, r17
    2bb2:	90 e0       	ldi	r25, 0x00	; 0
    2bb4:	c0 97       	sbiw	r24, 0x30	; 48
    2bb6:	0a 97       	sbiw	r24, 0x0a	; 10
    2bb8:	b0 f0       	brcs	.+44     	; 0x2be6 <gc_gcode_parser+0x68>
		 	block[j++] = c; 
			continue;
		}
		if (c == '(') {						// detect & handle comments
    2bba:	18 32       	cpi	r17, 0x28	; 40
    2bbc:	41 f4       	brne	.+16     	; 0x2bce <gc_gcode_parser+0x50>
			block[j] = 0;
    2bbe:	f7 01       	movw	r30, r14
    2bc0:	e0 0f       	add	r30, r16
    2bc2:	f1 1d       	adc	r31, r1
    2bc4:	10 82       	st	Z, r1
			comment = &block[i]; 
    2bc6:	e7 01       	movw	r28, r14
    2bc8:	cd 0d       	add	r28, r13
    2bca:	d1 1d       	adc	r29, r1
    2bcc:	1d c0       	rjmp	.+58     	; 0x2c08 <gc_gcode_parser+0x8a>
			break;
		}
		if (c <= ' ') continue;				// toss controls & whitespace
    2bce:	11 32       	cpi	r17, 0x21	; 33
    2bd0:	78 f0       	brcs	.+30     	; 0x2bf0 <gc_gcode_parser+0x72>
		if (c == 0x7F) continue;			// toss DELETE
    2bd2:	1f 37       	cpi	r17, 0x7F	; 127
    2bd4:	69 f0       	breq	.+26     	; 0x2bf0 <gc_gcode_parser+0x72>
		if (strchr("!$%,;:?@^_~`\'\"", c))	// toss invalid punctuation
    2bd6:	8d e0       	ldi	r24, 0x0D	; 13
    2bd8:	90 e2       	ldi	r25, 0x20	; 32
    2bda:	61 2f       	mov	r22, r17
    2bdc:	70 e0       	ldi	r23, 0x00	; 0
    2bde:	0e 94 18 49 	call	0x9230	; 0x9230 <strchr>
    2be2:	00 97       	sbiw	r24, 0x00	; 0
    2be4:	29 f4       	brne	.+10     	; 0x2bf0 <gc_gcode_parser+0x72>
			continue;
		block[j++] = c;
    2be6:	f7 01       	movw	r30, r14
    2be8:	e0 0f       	add	r30, r16
    2bea:	f1 1d       	adc	r31, r1
    2bec:	10 83       	st	Z, r17
    2bee:	0f 5f       	subi	r16, 0xFF	; 255
	if (block[0] == '/') {
		block[0] = 0;
		return;
	}
	// normalize the comamnd block & mark the comment(if any)
	while ((c = toupper(block[i++])) != 0) {// NUL character
    2bf0:	f7 01       	movw	r30, r14
    2bf2:	ed 0d       	add	r30, r13
    2bf4:	f1 1d       	adc	r31, r1
    2bf6:	80 81       	ld	r24, Z
    2bf8:	90 e0       	ldi	r25, 0x00	; 0
    2bfa:	0e 94 ed 48 	call	0x91da	; 0x91da <toupper>
    2bfe:	18 2f       	mov	r17, r24
    2c00:	88 23       	and	r24, r24
    2c02:	79 f6       	brne	.-98     	; 0x2ba2 <gc_gcode_parser+0x24>
    2c04:	c0 e0       	ldi	r28, 0x00	; 0
    2c06:	d0 e0       	ldi	r29, 0x00	; 0
		if (c == 0x7F) continue;			// toss DELETE
		if (strchr("!$%,;:?@^_~`\'\"", c))	// toss invalid punctuation
			continue;
		block[j++] = c;
	}
	block[j] = 0;							// nul terminate the command
    2c08:	f7 01       	movw	r30, r14
    2c0a:	e0 0f       	add	r30, r16
    2c0c:	f1 1d       	adc	r31, r1
    2c0e:	10 82       	st	Z, r1
	if (comment) {
    2c10:	20 97       	sbiw	r28, 0x00	; 0
    2c12:	99 f1       	breq	.+102    	; 0x2c7a <gc_gcode_parser+0xfc>
		if ((toupper(comment[0]) == 'M') && 
    2c14:	88 81       	ld	r24, Y
    2c16:	90 e0       	ldi	r25, 0x00	; 0
    2c18:	0e 94 ed 48 	call	0x91da	; 0x91da <toupper>
    2c1c:	8d 34       	cpi	r24, 0x4D	; 77
    2c1e:	91 05       	cpc	r25, r1
    2c20:	61 f5       	brne	.+88     	; 0x2c7a <gc_gcode_parser+0xfc>
    2c22:	89 81       	ldd	r24, Y+1	; 0x01
    2c24:	90 e0       	ldi	r25, 0x00	; 0
    2c26:	0e 94 ed 48 	call	0x91da	; 0x91da <toupper>
    2c2a:	83 35       	cpi	r24, 0x53	; 83
    2c2c:	91 05       	cpc	r25, r1
    2c2e:	29 f5       	brne	.+74     	; 0x2c7a <gc_gcode_parser+0xfc>
    2c30:	8a 81       	ldd	r24, Y+2	; 0x02
    2c32:	90 e0       	ldi	r25, 0x00	; 0
    2c34:	0e 94 ed 48 	call	0x91da	; 0x91da <toupper>
    2c38:	87 34       	cpi	r24, 0x47	; 71
    2c3a:	91 05       	cpc	r25, r1
    2c3c:	f1 f4       	brne	.+60     	; 0x2c7a <gc_gcode_parser+0xfc>
    2c3e:	04 c0       	rjmp	.+8      	; 0x2c48 <gc_gcode_parser+0xca>
			(toupper(comment[1]) == 'S') &&
			(toupper(comment[2]) == 'G')) {
			i=0;
			while ((c = comment[i++]) != 0) {// remove trailing parenthesis
				if (c == ')') {
    2c40:	99 32       	cpi	r25, 0x29	; 41
    2c42:	19 f4       	brne	.+6      	; 0x2c4a <gc_gcode_parser+0xcc>
					comment[--i] = 0;
    2c44:	10 82       	st	Z, r1
    2c46:	08 c0       	rjmp	.+16     	; 0x2c58 <gc_gcode_parser+0xda>
    2c48:	80 e0       	ldi	r24, 0x00	; 0
	if (comment) {
		if ((toupper(comment[0]) == 'M') && 
			(toupper(comment[1]) == 'S') &&
			(toupper(comment[2]) == 'G')) {
			i=0;
			while ((c = comment[i++]) != 0) {// remove trailing parenthesis
    2c4a:	fe 01       	movw	r30, r28
    2c4c:	e8 0f       	add	r30, r24
    2c4e:	f1 1d       	adc	r31, r1
    2c50:	90 81       	ld	r25, Z
    2c52:	8f 5f       	subi	r24, 0xFF	; 255
    2c54:	99 23       	and	r25, r25
    2c56:	a1 f7       	brne	.-24     	; 0x2c40 <gc_gcode_parser+0xc2>
				if (c == ')') {
					comment[--i] = 0;
					break;
				}
			}
			printf_P(PSTR("%s\n"), (comment+3));
    2c58:	00 d0       	rcall	.+0      	; 0x2c5a <gc_gcode_parser+0xdc>
    2c5a:	0f 92       	push	r0
    2c5c:	8b e3       	ldi	r24, 0x3B	; 59
    2c5e:	92 e0       	ldi	r25, 0x02	; 2
    2c60:	ed b7       	in	r30, 0x3d	; 61
    2c62:	fe b7       	in	r31, 0x3e	; 62
    2c64:	81 83       	std	Z+1, r24	; 0x01
    2c66:	92 83       	std	Z+2, r25	; 0x02
    2c68:	23 96       	adiw	r28, 0x03	; 3
    2c6a:	c3 83       	std	Z+3, r28	; 0x03
    2c6c:	d4 83       	std	Z+4, r29	; 0x04
    2c6e:	0e 94 9a 49 	call	0x9334	; 0x9334 <printf_P>
    2c72:	0f 90       	pop	r0
    2c74:	0f 90       	pop	r0
    2c76:	0f 90       	pop	r0
    2c78:	0f 90       	pop	r0
 */

uint8_t gc_gcode_parser(char *block)
{
	_gc_normalize_gcode_block(block);
	if (block[0] == 0) { 					// ignore comments (stripped)
    2c7a:	f7 01       	movw	r30, r14
    2c7c:	80 81       	ld	r24, Z
    2c7e:	88 23       	and	r24, r24
    2c80:	71 f0       	breq	.+28     	; 0x2c9e <gc_gcode_parser+0x120>
		return(TG_OK);
	}
	if (block[0] == 'Q') {					// quit gcode mode
    2c82:	81 35       	cpi	r24, 0x51	; 81
    2c84:	11 f4       	brne	.+4      	; 0x2c8a <gc_gcode_parser+0x10c>
    2c86:	8b e0       	ldi	r24, 0x0B	; 11
    2c88:	0a c0       	rjmp	.+20     	; 0x2c9e <gc_gcode_parser+0x120>
		return(TG_QUIT);
	}
	gc.status = gc_execute_block(block);	// execute gcode block
    2c8a:	c7 01       	movw	r24, r14
    2c8c:	0e 94 8f 10 	call	0x211e	; 0x211e <gc_execute_block>
    2c90:	80 93 1c 21 	sts	0x211C, r24
	tg_print_status(gc.status, block);
    2c94:	b7 01       	movw	r22, r14
    2c96:	0e 94 d7 2b 	call	0x57ae	; 0x57ae <tg_print_status>
	return (gc.status);
    2c9a:	80 91 1c 21 	lds	r24, 0x211C
}
    2c9e:	df 91       	pop	r29
    2ca0:	cf 91       	pop	r28
    2ca2:	1f 91       	pop	r17
    2ca4:	0f 91       	pop	r16
    2ca6:	ff 90       	pop	r15
    2ca8:	ef 90       	pop	r14
    2caa:	df 90       	pop	r13
    2cac:	08 95       	ret

00002cae <gc_send_to_parser>:
 *	Inject a block into parser taking gcode command processing state into account
 */

void gc_send_to_parser(char *block)
{
	gc_gcode_parser(block);
    2cae:	0e 94 bf 15 	call	0x2b7e	; 0x2b7e <gc_gcode_parser>
	return;
}
    2cb2:	08 95       	ret

00002cb4 <_cfg_computed>:
 * _cfg_computed() - helper function to generate computed config values 
 *	call this every time you change any configs
 */

void _cfg_computed() 
{
    2cb4:	cf 92       	push	r12
    2cb6:	df 92       	push	r13
    2cb8:	ef 92       	push	r14
    2cba:	ff 92       	push	r15
    2cbc:	0f 93       	push	r16
    2cbe:	1f 93       	push	r17
    2cc0:	cf 93       	push	r28
    2cc2:	df 93       	push	r29
    2cc4:	ca e6       	ldi	r28, 0x6A	; 106
    2cc6:	d2 e2       	ldi	r29, 0x22	; 34
	// = 360 / (degree_per_step/microstep) / mm_per_rev
	for (uint8_t i=X; i<=A; i++) {
		cfg.a[i].steps_per_mm = (360 / (cfg.a[i].degree_per_step / 
    2cc8:	68 81       	ld	r22, Y
    2cca:	70 e0       	ldi	r23, 0x00	; 0
    2ccc:	88 27       	eor	r24, r24
    2cce:	77 fd       	sbrc	r23, 7
    2cd0:	80 95       	com	r24
    2cd2:	98 2f       	mov	r25, r24
    2cd4:	0e 94 0f 43 	call	0x861e	; 0x861e <__floatsisf>
    2cd8:	9b 01       	movw	r18, r22
    2cda:	ac 01       	movw	r20, r24
    2cdc:	6f 81       	ldd	r22, Y+7	; 0x07
    2cde:	78 85       	ldd	r23, Y+8	; 0x08
    2ce0:	89 85       	ldd	r24, Y+9	; 0x09
    2ce2:	9a 85       	ldd	r25, Y+10	; 0x0a
    2ce4:	0e 94 74 42 	call	0x84e8	; 0x84e8 <__divsf3>
    2ce8:	9b 01       	movw	r18, r22
    2cea:	ac 01       	movw	r20, r24
    2cec:	60 e0       	ldi	r22, 0x00	; 0
    2cee:	70 e0       	ldi	r23, 0x00	; 0
    2cf0:	84 eb       	ldi	r24, 0xB4	; 180
    2cf2:	93 e4       	ldi	r25, 0x43	; 67
    2cf4:	0e 94 74 42 	call	0x84e8	; 0x84e8 <__divsf3>
    2cf8:	2b 85       	ldd	r18, Y+11	; 0x0b
    2cfa:	3c 85       	ldd	r19, Y+12	; 0x0c
    2cfc:	4d 85       	ldd	r20, Y+13	; 0x0d
    2cfe:	5e 85       	ldd	r21, Y+14	; 0x0e
    2d00:	0e 94 74 42 	call	0x84e8	; 0x84e8 <__divsf3>
    2d04:	6b 8b       	std	Y+19, r22	; 0x13
    2d06:	7c 8b       	std	Y+20, r23	; 0x14
    2d08:	8d 8b       	std	Y+21, r24	; 0x15
    2d0a:	9e 8b       	std	Y+22, r25	; 0x16
    2d0c:	68 96       	adiw	r28, 0x18	; 24
 */

void _cfg_computed() 
{
	// = 360 / (degree_per_step/microstep) / mm_per_rev
	for (uint8_t i=X; i<=A; i++) {
    2d0e:	82 e2       	ldi	r24, 0x22	; 34
    2d10:	ca 3c       	cpi	r28, 0xCA	; 202
    2d12:	d8 07       	cpc	r29, r24
    2d14:	c9 f6       	brne	.-78     	; 0x2cc8 <_cfg_computed+0x14>
										cfg.a[i].microstep)) / 
										cfg.a[i].mm_per_rev;
	}

	// = feed_steps_sec / (360/degree_per_step/microstep)
	cfg.default_feed_rate = (cfg.a[X].feed_steps_sec * cfg.a[X].microstep) / 
    2d16:	00 91 6a 22 	lds	r16, 0x226A
    2d1a:	10 e0       	ldi	r17, 0x00	; 0
    2d1c:	b8 01       	movw	r22, r16
    2d1e:	88 27       	eor	r24, r24
    2d20:	77 fd       	sbrc	r23, 7
    2d22:	80 95       	com	r24
    2d24:	98 2f       	mov	r25, r24
    2d26:	0e 94 0f 43 	call	0x861e	; 0x861e <__floatsisf>
    2d2a:	9b 01       	movw	r18, r22
    2d2c:	ac 01       	movw	r20, r24
    2d2e:	60 91 71 22 	lds	r22, 0x2271
    2d32:	70 91 72 22 	lds	r23, 0x2272
    2d36:	80 91 73 22 	lds	r24, 0x2273
    2d3a:	90 91 74 22 	lds	r25, 0x2274
    2d3e:	0e 94 74 42 	call	0x84e8	; 0x84e8 <__divsf3>
    2d42:	9b 01       	movw	r18, r22
    2d44:	ac 01       	movw	r20, r24
    2d46:	60 e0       	ldi	r22, 0x00	; 0
    2d48:	70 e0       	ldi	r23, 0x00	; 0
    2d4a:	84 eb       	ldi	r24, 0xB4	; 180
    2d4c:	93 e4       	ldi	r25, 0x43	; 67
    2d4e:	0e 94 74 42 	call	0x84e8	; 0x84e8 <__divsf3>
    2d52:	6b 01       	movw	r12, r22
    2d54:	7c 01       	movw	r14, r24
    2d56:	80 91 6f 22 	lds	r24, 0x226F
    2d5a:	90 91 70 22 	lds	r25, 0x2270
    2d5e:	08 9f       	mul	r16, r24
    2d60:	b0 01       	movw	r22, r0
    2d62:	09 9f       	mul	r16, r25
    2d64:	70 0d       	add	r23, r0
    2d66:	18 9f       	mul	r17, r24
    2d68:	70 0d       	add	r23, r0
    2d6a:	11 24       	eor	r1, r1
    2d6c:	80 e0       	ldi	r24, 0x00	; 0
    2d6e:	90 e0       	ldi	r25, 0x00	; 0
    2d70:	0e 94 0d 43 	call	0x861a	; 0x861a <__floatunsisf>
    2d74:	a7 01       	movw	r20, r14
    2d76:	96 01       	movw	r18, r12
    2d78:	0e 94 74 42 	call	0x84e8	; 0x84e8 <__divsf3>
    2d7c:	60 93 62 22 	sts	0x2262, r22
    2d80:	70 93 63 22 	sts	0x2263, r23
    2d84:	80 93 64 22 	sts	0x2264, r24
    2d88:	90 93 65 22 	sts	0x2265, r25
							(360/(cfg.a[X].degree_per_step / cfg.a[X].microstep));

	// = seek_steps_sec / (360/degree_per_step/microstep)
	cfg.default_seek_rate = (cfg.a[X].seek_steps_sec * cfg.a[X].microstep) / 
    2d8c:	80 91 6d 22 	lds	r24, 0x226D
    2d90:	90 91 6e 22 	lds	r25, 0x226E
    2d94:	08 9f       	mul	r16, r24
    2d96:	b0 01       	movw	r22, r0
    2d98:	09 9f       	mul	r16, r25
    2d9a:	70 0d       	add	r23, r0
    2d9c:	18 9f       	mul	r17, r24
    2d9e:	70 0d       	add	r23, r0
    2da0:	11 24       	eor	r1, r1
    2da2:	80 e0       	ldi	r24, 0x00	; 0
    2da4:	90 e0       	ldi	r25, 0x00	; 0
    2da6:	0e 94 0d 43 	call	0x861a	; 0x861a <__floatunsisf>
    2daa:	a7 01       	movw	r20, r14
    2dac:	96 01       	movw	r18, r12
    2dae:	0e 94 74 42 	call	0x84e8	; 0x84e8 <__divsf3>
    2db2:	60 93 66 22 	sts	0x2266, r22
    2db6:	70 93 67 22 	sts	0x2267, r23
    2dba:	80 93 68 22 	sts	0x2268, r24
    2dbe:	90 93 69 22 	sts	0x2269, r25
							(360/(cfg.a[X].degree_per_step / cfg.a[X].microstep));
}
    2dc2:	df 91       	pop	r29
    2dc4:	cf 91       	pop	r28
    2dc6:	1f 91       	pop	r17
    2dc8:	0f 91       	pop	r16
    2dca:	ff 90       	pop	r15
    2dcc:	ef 90       	pop	r14
    2dce:	df 90       	pop	r13
    2dd0:	cf 90       	pop	r12
    2dd2:	08 95       	ret

00002dd4 <cfg_reset>:
 * config_reset() - load default settings into config 
 */

void cfg_reset()
{
	cfg.config_version = EEPROM_DATA_VERSION;
    2dd4:	ec e5       	ldi	r30, 0x5C	; 92
    2dd6:	f2 e2       	ldi	r31, 0x22	; 34
    2dd8:	84 e6       	ldi	r24, 0x64	; 100
    2dda:	80 93 5c 22 	sts	0x225C, r24
	cfg.mm_per_arc_segment = MM_PER_ARC_SEGMENT;
    2dde:	8d ec       	ldi	r24, 0xCD	; 205
    2de0:	9c ec       	ldi	r25, 0xCC	; 204
    2de2:	ac e4       	ldi	r26, 0x4C	; 76
    2de4:	bd e3       	ldi	r27, 0x3D	; 61
    2de6:	80 93 5e 22 	sts	0x225E, r24
    2dea:	90 93 5f 22 	sts	0x225F, r25
    2dee:	a0 93 60 22 	sts	0x2260, r26
    2df2:	b0 93 61 22 	sts	0x2261, r27

	cfg.a[X].seek_steps_sec = X_SEEK_WHOLE_STEPS_PER_SEC;
    2df6:	8c ed       	ldi	r24, 0xDC	; 220
    2df8:	95 e0       	ldi	r25, 0x05	; 5
    2dfa:	80 93 6d 22 	sts	0x226D, r24
    2dfe:	90 93 6e 22 	sts	0x226E, r25
	cfg.a[Y].seek_steps_sec = Y_SEEK_WHOLE_STEPS_PER_SEC;
    2e02:	80 93 85 22 	sts	0x2285, r24
    2e06:	90 93 86 22 	sts	0x2286, r25
	cfg.a[Z].seek_steps_sec = Z_SEEK_WHOLE_STEPS_PER_SEC;
    2e0a:	80 93 9d 22 	sts	0x229D, r24
    2e0e:	90 93 9e 22 	sts	0x229E, r25
	cfg.a[A].seek_steps_sec = A_SEEK_WHOLE_STEPS_PER_SEC;
    2e12:	80 93 b5 22 	sts	0x22B5, r24
    2e16:	90 93 b6 22 	sts	0x22B6, r25

	cfg.a[X].feed_steps_sec = X_FEED_WHOLE_STEPS_PER_SEC;
    2e1a:	80 93 6f 22 	sts	0x226F, r24
    2e1e:	90 93 70 22 	sts	0x2270, r25
	cfg.a[Y].feed_steps_sec = Y_FEED_WHOLE_STEPS_PER_SEC;
    2e22:	80 93 87 22 	sts	0x2287, r24
    2e26:	90 93 88 22 	sts	0x2288, r25
	cfg.a[Z].feed_steps_sec = Z_FEED_WHOLE_STEPS_PER_SEC;
    2e2a:	80 93 9f 22 	sts	0x229F, r24
    2e2e:	90 93 a0 22 	sts	0x22A0, r25
	cfg.a[A].feed_steps_sec = A_FEED_WHOLE_STEPS_PER_SEC;
    2e32:	80 93 b7 22 	sts	0x22B7, r24
    2e36:	90 93 b8 22 	sts	0x22B8, r25

	cfg.a[X].degree_per_step = X_DEGREE_PER_WHOLE_STEP;
    2e3a:	86 e6       	ldi	r24, 0x66	; 102
    2e3c:	96 e6       	ldi	r25, 0x66	; 102
    2e3e:	a6 ee       	ldi	r26, 0xE6	; 230
    2e40:	bf e3       	ldi	r27, 0x3F	; 63
    2e42:	80 93 71 22 	sts	0x2271, r24
    2e46:	90 93 72 22 	sts	0x2272, r25
    2e4a:	a0 93 73 22 	sts	0x2273, r26
    2e4e:	b0 93 74 22 	sts	0x2274, r27
	cfg.a[Y].degree_per_step = Y_DEGREE_PER_WHOLE_STEP;
    2e52:	80 93 89 22 	sts	0x2289, r24
    2e56:	90 93 8a 22 	sts	0x228A, r25
    2e5a:	a0 93 8b 22 	sts	0x228B, r26
    2e5e:	b0 93 8c 22 	sts	0x228C, r27
	cfg.a[Z].degree_per_step = Z_DEGREE_PER_WHOLE_STEP;
    2e62:	80 93 a1 22 	sts	0x22A1, r24
    2e66:	90 93 a2 22 	sts	0x22A2, r25
    2e6a:	a0 93 a3 22 	sts	0x22A3, r26
    2e6e:	b0 93 a4 22 	sts	0x22A4, r27
	cfg.a[A].degree_per_step = A_DEGREE_PER_WHOLE_STEP;
    2e72:	80 93 b9 22 	sts	0x22B9, r24
    2e76:	90 93 ba 22 	sts	0x22BA, r25
    2e7a:	a0 93 bb 22 	sts	0x22BB, r26
    2e7e:	b0 93 bc 22 	sts	0x22BC, r27

	cfg.a[X].mm_per_rev = X_MM_PER_REVOLUTION;
    2e82:	8c e5       	ldi	r24, 0x5C	; 92
    2e84:	9f e8       	ldi	r25, 0x8F	; 143
    2e86:	a2 ea       	ldi	r26, 0xA2	; 162
    2e88:	bf e3       	ldi	r27, 0x3F	; 63
    2e8a:	80 93 75 22 	sts	0x2275, r24
    2e8e:	90 93 76 22 	sts	0x2276, r25
    2e92:	a0 93 77 22 	sts	0x2277, r26
    2e96:	b0 93 78 22 	sts	0x2278, r27
	cfg.a[Y].mm_per_rev = Y_MM_PER_REVOLUTION;
    2e9a:	80 93 8d 22 	sts	0x228D, r24
    2e9e:	90 93 8e 22 	sts	0x228E, r25
    2ea2:	a0 93 8f 22 	sts	0x228F, r26
    2ea6:	b0 93 90 22 	sts	0x2290, r27
	cfg.a[Z].mm_per_rev = Z_MM_PER_REVOLUTION;
    2eaa:	80 93 a5 22 	sts	0x22A5, r24
    2eae:	90 93 a6 22 	sts	0x22A6, r25
    2eb2:	a0 93 a7 22 	sts	0x22A7, r26
    2eb6:	b0 93 a8 22 	sts	0x22A8, r27
	cfg.a[A].mm_per_rev = A_MM_PER_REVOLUTION;
    2eba:	80 93 bd 22 	sts	0x22BD, r24
    2ebe:	90 93 be 22 	sts	0x22BE, r25
    2ec2:	a0 93 bf 22 	sts	0x22BF, r26
    2ec6:	b0 93 c0 22 	sts	0x22C0, r27
	
	cfg.a[X].mm_travel = X_MM_TRAVEL;
    2eca:	80 e0       	ldi	r24, 0x00	; 0
    2ecc:	90 e0       	ldi	r25, 0x00	; 0
    2ece:	a8 ec       	ldi	r26, 0xC8	; 200
    2ed0:	b3 e4       	ldi	r27, 0x43	; 67
    2ed2:	80 93 79 22 	sts	0x2279, r24
    2ed6:	90 93 7a 22 	sts	0x227A, r25
    2eda:	a0 93 7b 22 	sts	0x227B, r26
    2ede:	b0 93 7c 22 	sts	0x227C, r27
	cfg.a[Y].mm_travel = Y_MM_TRAVEL;
    2ee2:	80 93 91 22 	sts	0x2291, r24
    2ee6:	90 93 92 22 	sts	0x2292, r25
    2eea:	a0 93 93 22 	sts	0x2293, r26
    2eee:	b0 93 94 22 	sts	0x2294, r27
	cfg.a[Z].mm_travel = Z_MM_TRAVEL;
    2ef2:	80 e0       	ldi	r24, 0x00	; 0
    2ef4:	90 e0       	ldi	r25, 0x00	; 0
    2ef6:	a6 e9       	ldi	r26, 0x96	; 150
    2ef8:	b3 e4       	ldi	r27, 0x43	; 67
    2efa:	80 93 a9 22 	sts	0x22A9, r24
    2efe:	90 93 aa 22 	sts	0x22AA, r25
    2f02:	a0 93 ab 22 	sts	0x22AB, r26
    2f06:	b0 93 ac 22 	sts	0x22AC, r27
	cfg.a[A].mm_travel = A_MM_TRAVEL;
    2f0a:	80 e0       	ldi	r24, 0x00	; 0
    2f0c:	90 e0       	ldi	r25, 0x00	; 0
    2f0e:	a0 e8       	ldi	r26, 0x80	; 128
    2f10:	bf eb       	ldi	r27, 0xBF	; 191
    2f12:	80 93 c1 22 	sts	0x22C1, r24
    2f16:	90 93 c2 22 	sts	0x22C2, r25
    2f1a:	a0 93 c3 22 	sts	0x22C3, r26
    2f1e:	b0 93 c4 22 	sts	0x22C4, r27
	
	cfg.a[X].microstep = X_MICROSTEPS;
    2f22:	88 e0       	ldi	r24, 0x08	; 8
    2f24:	80 93 6a 22 	sts	0x226A, r24
	cfg.a[Y].microstep = Y_MICROSTEPS;
    2f28:	80 93 82 22 	sts	0x2282, r24
	cfg.a[Z].microstep = Z_MICROSTEPS;
    2f2c:	86 af       	std	Z+62, r24	; 0x3e
	cfg.a[A].microstep = A_MICROSTEPS;
    2f2e:	80 93 b2 22 	sts	0x22B2, r24

	cfg.a[X].polarity = X_POLARITY;
    2f32:	10 92 6c 22 	sts	0x226C, r1
	cfg.a[Y].polarity = Y_POLARITY;
    2f36:	81 e0       	ldi	r24, 0x01	; 1
    2f38:	80 93 84 22 	sts	0x2284, r24
	cfg.a[Z].polarity = Z_POLARITY;
    2f3c:	10 92 9c 22 	sts	0x229C, r1
	cfg.a[A].polarity = A_POLARITY;
    2f40:	10 92 b4 22 	sts	0x22B4, r1

	cfg.a[X].limit_enable = X_LIMIT_ENABLE;
    2f44:	80 93 81 22 	sts	0x2281, r24
	cfg.a[Y].limit_enable = Y_LIMIT_ENABLE;
    2f48:	85 af       	std	Z+61, r24	; 0x3d
	cfg.a[Z].limit_enable = Z_LIMIT_ENABLE;
    2f4a:	80 93 b1 22 	sts	0x22B1, r24
	cfg.a[A].limit_enable = A_LIMIT_ENABLE;
    2f4e:	10 92 c9 22 	sts	0x22C9, r1

	cfg.a[X].low_pwr_idle = X_LOW_POWER_IDLE;
    2f52:	80 93 6b 22 	sts	0x226B, r24
	cfg.a[Y].low_pwr_idle = Y_LOW_POWER_IDLE;
    2f56:	80 93 83 22 	sts	0x2283, r24
	cfg.a[Z].low_pwr_idle = Z_LOW_POWER_IDLE;
    2f5a:	87 af       	std	Z+63, r24	; 0x3f
	cfg.a[A].low_pwr_idle = A_LOW_POWER_IDLE;
    2f5c:	80 93 b3 22 	sts	0x22B3, r24

	_cfg_computed();		// generate computed values from the above
    2f60:	0e 94 5a 16 	call	0x2cb4	; 0x2cb4 <_cfg_computed>
}
    2f64:	08 95       	ret

00002f66 <cfg_init>:
 * cfg_init() - initialize config system 
 */

void cfg_init() 
{
	cfg_reset();
    2f66:	0e 94 ea 16 	call	0x2dd4	; 0x2dd4 <cfg_reset>
}
    2f6a:	08 95       	ret

00002f6c <cfg_write>:
 */

void cfg_write()
{
//	eeprom_put_char(0, CONFIG_VERSION);
	memcpy_to_eeprom_with_checksum(0, (char*)&cfg, sizeof(struct cfgStructGlobal));
    2f6c:	80 e0       	ldi	r24, 0x00	; 0
    2f6e:	90 e0       	ldi	r25, 0x00	; 0
    2f70:	6c e5       	ldi	r22, 0x5C	; 92
    2f72:	72 e2       	ldi	r23, 0x22	; 34
    2f74:	4e e6       	ldi	r20, 0x6E	; 110
    2f76:	50 e0       	ldi	r21, 0x00	; 0
    2f78:	0e 94 c4 2a 	call	0x5588	; 0x5588 <memcpy_to_eeprom_with_checksum>
}
    2f7c:	08 95       	ret

00002f7e <cfg_read>:
 * cfg_read() - read config data from EEPROM into the config struct 
 */

int cfg_read()
{
	uint8_t version = eeprom_get_char(0);	// Check version-byte of eeprom
    2f7e:	80 e0       	ldi	r24, 0x00	; 0
    2f80:	90 e0       	ldi	r25, 0x00	; 0
    2f82:	0e 94 16 2a 	call	0x542c	; 0x542c <eeprom_get_char>

	if (version != EEPROM_DATA_VERSION) {	// Read config-record and check checksum
    2f86:	84 36       	cpi	r24, 0x64	; 100
    2f88:	19 f0       	breq	.+6      	; 0x2f90 <cfg_read+0x12>
    2f8a:	20 e0       	ldi	r18, 0x00	; 0
    2f8c:	30 e0       	ldi	r19, 0x00	; 0
    2f8e:	0d c0       	rjmp	.+26     	; 0x2faa <cfg_read+0x2c>
		return(FALSE); 
	} 
  	if (!(memcpy_from_eeprom_with_checksum
    2f90:	8c e5       	ldi	r24, 0x5C	; 92
    2f92:	92 e2       	ldi	r25, 0x22	; 34
    2f94:	60 e0       	ldi	r22, 0x00	; 0
    2f96:	70 e0       	ldi	r23, 0x00	; 0
    2f98:	4e e6       	ldi	r20, 0x6E	; 110
    2f9a:	50 e0       	ldi	r21, 0x00	; 0
    2f9c:	0e 94 20 2a 	call	0x5440	; 0x5440 <memcpy_from_eeprom_with_checksum>
    2fa0:	00 97       	sbiw	r24, 0x00	; 0
    2fa2:	11 f0       	breq	.+4      	; 0x2fa8 <cfg_read+0x2a>
    2fa4:	81 e0       	ldi	r24, 0x01	; 1
    2fa6:	90 e0       	ldi	r25, 0x00	; 0
    2fa8:	9c 01       	movw	r18, r24
		((char*)&cfg, 0, sizeof(struct cfgStructGlobal)))) {
    	return(FALSE);
  	}
  	return(TRUE);
}
    2faa:	c9 01       	movw	r24, r18
    2fac:	08 95       	ret

00002fae <_cfg_dump_axis>:
		_cfg_dump_axis(axis);
	}
}

void _cfg_dump_axis(uint8_t	axis)
{
    2fae:	ef 92       	push	r14
    2fb0:	ff 92       	push	r15
    2fb2:	0f 93       	push	r16
    2fb4:	1f 93       	push	r17
	printf_P(PSTR("%S Axis Configuration Values\n"),(PGM_P)pgm_read_word(&cfgMsgs[axis]));
    2fb6:	e8 2e       	mov	r14, r24
    2fb8:	ff 24       	eor	r15, r15
    2fba:	87 01       	movw	r16, r14
    2fbc:	00 0f       	add	r16, r16
    2fbe:	11 1f       	adc	r17, r17
    2fc0:	f8 01       	movw	r30, r16
    2fc2:	e9 5b       	subi	r30, 0xB9	; 185
    2fc4:	fd 4f       	sbci	r31, 0xFD	; 253
    2fc6:	25 91       	lpm	r18, Z+
    2fc8:	34 91       	lpm	r19, Z+
    2fca:	00 d0       	rcall	.+0      	; 0x2fcc <_cfg_dump_axis+0x1e>
    2fcc:	0f 92       	push	r0
    2fce:	83 ea       	ldi	r24, 0xA3	; 163
    2fd0:	95 e0       	ldi	r25, 0x05	; 5
    2fd2:	ad b7       	in	r26, 0x3d	; 61
    2fd4:	be b7       	in	r27, 0x3e	; 62
    2fd6:	11 96       	adiw	r26, 0x01	; 1
    2fd8:	8d 93       	st	X+, r24
    2fda:	9c 93       	st	X, r25
    2fdc:	12 97       	sbiw	r26, 0x02	; 2
    2fde:	13 96       	adiw	r26, 0x03	; 3
    2fe0:	2d 93       	st	X+, r18
    2fe2:	3c 93       	st	X, r19
    2fe4:	14 97       	sbiw	r26, 0x04	; 4
    2fe6:	0e 94 9a 49 	call	0x9334	; 0x9334 <printf_P>
	printf_P(PSTR("  seek_steps_sec:  %4d    steps / second (whole steps)\n"), CFG(axis).seek_steps_sec);
    2fea:	8b e6       	ldi	r24, 0x6B	; 107
    2fec:	95 e0       	ldi	r25, 0x05	; 5
    2fee:	ed b7       	in	r30, 0x3d	; 61
    2ff0:	fe b7       	in	r31, 0x3e	; 62
    2ff2:	81 83       	std	Z+1, r24	; 0x01
    2ff4:	92 83       	std	Z+2, r25	; 0x02
    2ff6:	0e 0d       	add	r16, r14
    2ff8:	1f 1d       	adc	r17, r15
    2ffa:	83 e0       	ldi	r24, 0x03	; 3
    2ffc:	00 0f       	add	r16, r16
    2ffe:	11 1f       	adc	r17, r17
    3000:	8a 95       	dec	r24
    3002:	e1 f7       	brne	.-8      	; 0x2ffc <_cfg_dump_axis+0x4e>
    3004:	04 5a       	subi	r16, 0xA4	; 164
    3006:	1d 4d       	sbci	r17, 0xDD	; 221
    3008:	d8 01       	movw	r26, r16
    300a:	51 96       	adiw	r26, 0x11	; 17
    300c:	8d 91       	ld	r24, X+
    300e:	9c 91       	ld	r25, X
    3010:	52 97       	sbiw	r26, 0x12	; 18
    3012:	83 83       	std	Z+3, r24	; 0x03
    3014:	94 83       	std	Z+4, r25	; 0x04
    3016:	0e 94 9a 49 	call	0x9334	; 0x9334 <printf_P>
	printf_P(PSTR("  feed_steps_sec:  %4d    steps / second (whole steps)\n"), CFG(axis).feed_steps_sec);
    301a:	83 e3       	ldi	r24, 0x33	; 51
    301c:	95 e0       	ldi	r25, 0x05	; 5
    301e:	ed b7       	in	r30, 0x3d	; 61
    3020:	fe b7       	in	r31, 0x3e	; 62
    3022:	81 83       	std	Z+1, r24	; 0x01
    3024:	92 83       	std	Z+2, r25	; 0x02
    3026:	d8 01       	movw	r26, r16
    3028:	53 96       	adiw	r26, 0x13	; 19
    302a:	8d 91       	ld	r24, X+
    302c:	9c 91       	ld	r25, X
    302e:	54 97       	sbiw	r26, 0x14	; 20
    3030:	83 83       	std	Z+3, r24	; 0x03
    3032:	94 83       	std	Z+4, r25	; 0x04
    3034:	0e 94 9a 49 	call	0x9334	; 0x9334 <printf_P>
	printf_P(PSTR("  microsteps:      %4d    microsteps / whole step\n"), CFG(axis).microstep);
    3038:	ed b7       	in	r30, 0x3d	; 61
    303a:	fe b7       	in	r31, 0x3e	; 62
    303c:	31 96       	adiw	r30, 0x01	; 1
    303e:	80 e0       	ldi	r24, 0x00	; 0
    3040:	95 e0       	ldi	r25, 0x05	; 5
    3042:	ad b7       	in	r26, 0x3d	; 61
    3044:	be b7       	in	r27, 0x3e	; 62
    3046:	11 96       	adiw	r26, 0x01	; 1
    3048:	8d 93       	st	X+, r24
    304a:	9c 93       	st	X, r25
    304c:	12 97       	sbiw	r26, 0x02	; 2
    304e:	d8 01       	movw	r26, r16
    3050:	1e 96       	adiw	r26, 0x0e	; 14
    3052:	8c 91       	ld	r24, X
    3054:	82 83       	std	Z+2, r24	; 0x02
    3056:	13 82       	std	Z+3, r1	; 0x03
    3058:	0e 94 9a 49 	call	0x9334	; 0x9334 <printf_P>
	printf_P(PSTR("  degree_per_step: %7.2f degrees / step (whole steps)\n"), CFG(axis).degree_per_step);
    305c:	0f 92       	push	r0
    305e:	0f 92       	push	r0
    3060:	89 ec       	ldi	r24, 0xC9	; 201
    3062:	94 e0       	ldi	r25, 0x04	; 4
    3064:	ed b7       	in	r30, 0x3d	; 61
    3066:	fe b7       	in	r31, 0x3e	; 62
    3068:	81 83       	std	Z+1, r24	; 0x01
    306a:	92 83       	std	Z+2, r25	; 0x02
    306c:	f8 01       	movw	r30, r16
    306e:	85 89       	ldd	r24, Z+21	; 0x15
    3070:	96 89       	ldd	r25, Z+22	; 0x16
    3072:	a7 89       	ldd	r26, Z+23	; 0x17
    3074:	b0 8d       	ldd	r27, Z+24	; 0x18
    3076:	ed b7       	in	r30, 0x3d	; 61
    3078:	fe b7       	in	r31, 0x3e	; 62
    307a:	83 83       	std	Z+3, r24	; 0x03
    307c:	94 83       	std	Z+4, r25	; 0x04
    307e:	a5 83       	std	Z+5, r26	; 0x05
    3080:	b6 83       	std	Z+6, r27	; 0x06
    3082:	0e 94 9a 49 	call	0x9334	; 0x9334 <printf_P>
	printf_P(PSTR("  mm_revolution:   %7.2f millimeters / revolution\n"), CFG(axis).mm_per_rev);
    3086:	86 e9       	ldi	r24, 0x96	; 150
    3088:	94 e0       	ldi	r25, 0x04	; 4
    308a:	ad b7       	in	r26, 0x3d	; 61
    308c:	be b7       	in	r27, 0x3e	; 62
    308e:	11 96       	adiw	r26, 0x01	; 1
    3090:	8d 93       	st	X+, r24
    3092:	9c 93       	st	X, r25
    3094:	12 97       	sbiw	r26, 0x02	; 2
    3096:	f8 01       	movw	r30, r16
    3098:	81 8d       	ldd	r24, Z+25	; 0x19
    309a:	92 8d       	ldd	r25, Z+26	; 0x1a
    309c:	a3 8d       	ldd	r26, Z+27	; 0x1b
    309e:	b4 8d       	ldd	r27, Z+28	; 0x1c
    30a0:	ed b7       	in	r30, 0x3d	; 61
    30a2:	fe b7       	in	r31, 0x3e	; 62
    30a4:	83 83       	std	Z+3, r24	; 0x03
    30a6:	94 83       	std	Z+4, r25	; 0x04
    30a8:	a5 83       	std	Z+5, r26	; 0x05
    30aa:	b6 83       	std	Z+6, r27	; 0x06
    30ac:	0e 94 9a 49 	call	0x9334	; 0x9334 <printf_P>
	printf_P(PSTR("  mm_travel:       %7.2f millimeters total travel\n"), CFG(axis).mm_travel);
    30b0:	83 e6       	ldi	r24, 0x63	; 99
    30b2:	94 e0       	ldi	r25, 0x04	; 4
    30b4:	ad b7       	in	r26, 0x3d	; 61
    30b6:	be b7       	in	r27, 0x3e	; 62
    30b8:	11 96       	adiw	r26, 0x01	; 1
    30ba:	8d 93       	st	X+, r24
    30bc:	9c 93       	st	X, r25
    30be:	12 97       	sbiw	r26, 0x02	; 2
    30c0:	f8 01       	movw	r30, r16
    30c2:	85 8d       	ldd	r24, Z+29	; 0x1d
    30c4:	96 8d       	ldd	r25, Z+30	; 0x1e
    30c6:	a7 8d       	ldd	r26, Z+31	; 0x1f
    30c8:	b0 a1       	ldd	r27, Z+32	; 0x20
    30ca:	ed b7       	in	r30, 0x3d	; 61
    30cc:	fe b7       	in	r31, 0x3e	; 62
    30ce:	83 83       	std	Z+3, r24	; 0x03
    30d0:	94 83       	std	Z+4, r25	; 0x04
    30d2:	a5 83       	std	Z+5, r26	; 0x05
    30d4:	b6 83       	std	Z+6, r27	; 0x06
    30d6:	0e 94 9a 49 	call	0x9334	; 0x9334 <printf_P>
	printf_P(PSTR("  limit_enable:    %4d    1=enabled, 0=disabled\n"), CFG(axis).limit_enable);
    30da:	0f 90       	pop	r0
    30dc:	0f 90       	pop	r0
    30de:	ed b7       	in	r30, 0x3d	; 61
    30e0:	fe b7       	in	r31, 0x3e	; 62
    30e2:	31 96       	adiw	r30, 0x01	; 1
    30e4:	82 e3       	ldi	r24, 0x32	; 50
    30e6:	94 e0       	ldi	r25, 0x04	; 4
    30e8:	ad b7       	in	r26, 0x3d	; 61
    30ea:	be b7       	in	r27, 0x3e	; 62
    30ec:	11 96       	adiw	r26, 0x01	; 1
    30ee:	8d 93       	st	X+, r24
    30f0:	9c 93       	st	X, r25
    30f2:	12 97       	sbiw	r26, 0x02	; 2
    30f4:	d8 01       	movw	r26, r16
    30f6:	95 96       	adiw	r26, 0x25	; 37
    30f8:	8c 91       	ld	r24, X
    30fa:	82 83       	std	Z+2, r24	; 0x02
    30fc:	13 82       	std	Z+3, r1	; 0x03
    30fe:	0e 94 9a 49 	call	0x9334	; 0x9334 <printf_P>
	printf_P(PSTR("  low_pwr_idle:    %4d    1=enabled, 0=disabled\n"), CFG(axis).low_pwr_idle);
    3102:	ed b7       	in	r30, 0x3d	; 61
    3104:	fe b7       	in	r31, 0x3e	; 62
    3106:	31 96       	adiw	r30, 0x01	; 1
    3108:	81 e0       	ldi	r24, 0x01	; 1
    310a:	94 e0       	ldi	r25, 0x04	; 4
    310c:	ad b7       	in	r26, 0x3d	; 61
    310e:	be b7       	in	r27, 0x3e	; 62
    3110:	11 96       	adiw	r26, 0x01	; 1
    3112:	8d 93       	st	X+, r24
    3114:	9c 93       	st	X, r25
    3116:	12 97       	sbiw	r26, 0x02	; 2
    3118:	d8 01       	movw	r26, r16
    311a:	1f 96       	adiw	r26, 0x0f	; 15
    311c:	8c 91       	ld	r24, X
    311e:	82 83       	std	Z+2, r24	; 0x02
    3120:	13 82       	std	Z+3, r1	; 0x03
    3122:	0e 94 9a 49 	call	0x9334	; 0x9334 <printf_P>
	printf_P(PSTR("  polarity:        %4d    1=inverted, 0=normal\n"), CFG(axis).polarity);
    3126:	ed b7       	in	r30, 0x3d	; 61
    3128:	fe b7       	in	r31, 0x3e	; 62
    312a:	31 96       	adiw	r30, 0x01	; 1
    312c:	81 ed       	ldi	r24, 0xD1	; 209
    312e:	93 e0       	ldi	r25, 0x03	; 3
    3130:	ad b7       	in	r26, 0x3d	; 61
    3132:	be b7       	in	r27, 0x3e	; 62
    3134:	11 96       	adiw	r26, 0x01	; 1
    3136:	8d 93       	st	X+, r24
    3138:	9c 93       	st	X, r25
    313a:	12 97       	sbiw	r26, 0x02	; 2
    313c:	d8 01       	movw	r26, r16
    313e:	50 96       	adiw	r26, 0x10	; 16
    3140:	8c 91       	ld	r24, X
    3142:	82 83       	std	Z+2, r24	; 0x02
    3144:	13 82       	std	Z+3, r1	; 0x03
    3146:	0e 94 9a 49 	call	0x9334	; 0x9334 <printf_P>
	printf_P(PSTR(" (steps_per_mm:    %7.2f microsteps / millimeter)\n\n"), CFG(axis).steps_per_mm);
    314a:	0f 92       	push	r0
    314c:	0f 92       	push	r0
    314e:	8d e9       	ldi	r24, 0x9D	; 157
    3150:	93 e0       	ldi	r25, 0x03	; 3
    3152:	ed b7       	in	r30, 0x3d	; 61
    3154:	fe b7       	in	r31, 0x3e	; 62
    3156:	81 83       	std	Z+1, r24	; 0x01
    3158:	92 83       	std	Z+2, r25	; 0x02
    315a:	f8 01       	movw	r30, r16
    315c:	81 a1       	ldd	r24, Z+33	; 0x21
    315e:	92 a1       	ldd	r25, Z+34	; 0x22
    3160:	a3 a1       	ldd	r26, Z+35	; 0x23
    3162:	b4 a1       	ldd	r27, Z+36	; 0x24
    3164:	ed b7       	in	r30, 0x3d	; 61
    3166:	fe b7       	in	r31, 0x3e	; 62
    3168:	83 83       	std	Z+3, r24	; 0x03
    316a:	94 83       	std	Z+4, r25	; 0x04
    316c:	a5 83       	std	Z+5, r26	; 0x05
    316e:	b6 83       	std	Z+6, r27	; 0x06
    3170:	0e 94 9a 49 	call	0x9334	; 0x9334 <printf_P>
    3174:	8d b7       	in	r24, 0x3d	; 61
    3176:	9e b7       	in	r25, 0x3e	; 62
    3178:	06 96       	adiw	r24, 0x06	; 6
    317a:	8d bf       	out	0x3d, r24	; 61
    317c:	9e bf       	out	0x3e, r25	; 62
}
    317e:	1f 91       	pop	r17
    3180:	0f 91       	pop	r16
    3182:	ff 90       	pop	r15
    3184:	ef 90       	pop	r14
    3186:	08 95       	ret

00003188 <cfg_dump>:
	cfgMsgZaxis,
	cfgMsgAaxis
};

void cfg_dump()
{
    3188:	1f 93       	push	r17
	printf_P(PSTR("\n***** CONFIGURATION [version %d] ****\n"), cfg.config_version);
    318a:	00 d0       	rcall	.+0      	; 0x318c <cfg_dump+0x4>
    318c:	0f 92       	push	r0
    318e:	ed b7       	in	r30, 0x3d	; 61
    3190:	fe b7       	in	r31, 0x3e	; 62
    3192:	31 96       	adiw	r30, 0x01	; 1
    3194:	87 e6       	ldi	r24, 0x67	; 103
    3196:	96 e0       	ldi	r25, 0x06	; 6
    3198:	ad b7       	in	r26, 0x3d	; 61
    319a:	be b7       	in	r27, 0x3e	; 62
    319c:	11 96       	adiw	r26, 0x01	; 1
    319e:	8d 93       	st	X+, r24
    31a0:	9c 93       	st	X, r25
    31a2:	12 97       	sbiw	r26, 0x02	; 2
    31a4:	80 91 5c 22 	lds	r24, 0x225C
    31a8:	82 83       	std	Z+2, r24	; 0x02
    31aa:	13 82       	std	Z+3, r1	; 0x03
    31ac:	0e 94 9a 49 	call	0x9334	; 0x9334 <printf_P>
	printf_P(PSTR("G-code Model Configuration Values ---\n"));
    31b0:	0f 90       	pop	r0
    31b2:	0f 90       	pop	r0
    31b4:	80 e4       	ldi	r24, 0x40	; 64
    31b6:	96 e0       	ldi	r25, 0x06	; 6
    31b8:	ed b7       	in	r30, 0x3d	; 61
    31ba:	fe b7       	in	r31, 0x3e	; 62
    31bc:	81 83       	std	Z+1, r24	; 0x01
    31be:	92 83       	std	Z+2, r25	; 0x02
    31c0:	0e 94 9a 49 	call	0x9334	; 0x9334 <printf_P>
	printf_P(PSTR("  mm_per_arc_segment: %5.3f mm / segment\n"), cfg.mm_per_arc_segment);
    31c4:	00 d0       	rcall	.+0      	; 0x31c6 <cfg_dump+0x3e>
    31c6:	0f 92       	push	r0
    31c8:	86 e1       	ldi	r24, 0x16	; 22
    31ca:	96 e0       	ldi	r25, 0x06	; 6
    31cc:	ad b7       	in	r26, 0x3d	; 61
    31ce:	be b7       	in	r27, 0x3e	; 62
    31d0:	11 96       	adiw	r26, 0x01	; 1
    31d2:	8d 93       	st	X+, r24
    31d4:	9c 93       	st	X, r25
    31d6:	12 97       	sbiw	r26, 0x02	; 2
    31d8:	80 91 5e 22 	lds	r24, 0x225E
    31dc:	90 91 5f 22 	lds	r25, 0x225F
    31e0:	a0 91 60 22 	lds	r26, 0x2260
    31e4:	b0 91 61 22 	lds	r27, 0x2261
    31e8:	ed b7       	in	r30, 0x3d	; 61
    31ea:	fe b7       	in	r31, 0x3e	; 62
    31ec:	83 83       	std	Z+3, r24	; 0x03
    31ee:	94 83       	std	Z+4, r25	; 0x04
    31f0:	a5 83       	std	Z+5, r26	; 0x05
    31f2:	b6 83       	std	Z+6, r27	; 0x06
    31f4:	0e 94 9a 49 	call	0x9334	; 0x9334 <printf_P>
	printf_P(PSTR(" (default_seek_rate:  %5.3f mm / second)\n"), cfg.default_seek_rate);
    31f8:	8c ee       	ldi	r24, 0xEC	; 236
    31fa:	95 e0       	ldi	r25, 0x05	; 5
    31fc:	ad b7       	in	r26, 0x3d	; 61
    31fe:	be b7       	in	r27, 0x3e	; 62
    3200:	11 96       	adiw	r26, 0x01	; 1
    3202:	8d 93       	st	X+, r24
    3204:	9c 93       	st	X, r25
    3206:	12 97       	sbiw	r26, 0x02	; 2
    3208:	80 91 66 22 	lds	r24, 0x2266
    320c:	90 91 67 22 	lds	r25, 0x2267
    3210:	a0 91 68 22 	lds	r26, 0x2268
    3214:	b0 91 69 22 	lds	r27, 0x2269
    3218:	ed b7       	in	r30, 0x3d	; 61
    321a:	fe b7       	in	r31, 0x3e	; 62
    321c:	83 83       	std	Z+3, r24	; 0x03
    321e:	94 83       	std	Z+4, r25	; 0x04
    3220:	a5 83       	std	Z+5, r26	; 0x05
    3222:	b6 83       	std	Z+6, r27	; 0x06
    3224:	0e 94 9a 49 	call	0x9334	; 0x9334 <printf_P>
	printf_P(PSTR(" (default_feed_rate:  %5.3f mm / second)\n\n"), cfg.default_feed_rate);
    3228:	81 ec       	ldi	r24, 0xC1	; 193
    322a:	95 e0       	ldi	r25, 0x05	; 5
    322c:	ad b7       	in	r26, 0x3d	; 61
    322e:	be b7       	in	r27, 0x3e	; 62
    3230:	11 96       	adiw	r26, 0x01	; 1
    3232:	8d 93       	st	X+, r24
    3234:	9c 93       	st	X, r25
    3236:	12 97       	sbiw	r26, 0x02	; 2
    3238:	80 91 62 22 	lds	r24, 0x2262
    323c:	90 91 63 22 	lds	r25, 0x2263
    3240:	a0 91 64 22 	lds	r26, 0x2264
    3244:	b0 91 65 22 	lds	r27, 0x2265
    3248:	ed b7       	in	r30, 0x3d	; 61
    324a:	fe b7       	in	r31, 0x3e	; 62
    324c:	83 83       	std	Z+3, r24	; 0x03
    324e:	94 83       	std	Z+4, r25	; 0x04
    3250:	a5 83       	std	Z+5, r26	; 0x05
    3252:	b6 83       	std	Z+6, r27	; 0x06
    3254:	0e 94 9a 49 	call	0x9334	; 0x9334 <printf_P>
    3258:	10 e0       	ldi	r17, 0x00	; 0
    325a:	8d b7       	in	r24, 0x3d	; 61
    325c:	9e b7       	in	r25, 0x3e	; 62
    325e:	06 96       	adiw	r24, 0x06	; 6
    3260:	8d bf       	out	0x3d, r24	; 61
    3262:	9e bf       	out	0x3e, r25	; 62

	for (uint8_t axis=X; axis<=A; axis++) {
		_cfg_dump_axis(axis);
    3264:	81 2f       	mov	r24, r17
    3266:	0e 94 d7 17 	call	0x2fae	; 0x2fae <_cfg_dump_axis>
	printf_P(PSTR("G-code Model Configuration Values ---\n"));
	printf_P(PSTR("  mm_per_arc_segment: %5.3f mm / segment\n"), cfg.mm_per_arc_segment);
	printf_P(PSTR(" (default_seek_rate:  %5.3f mm / second)\n"), cfg.default_seek_rate);
	printf_P(PSTR(" (default_feed_rate:  %5.3f mm / second)\n\n"), cfg.default_feed_rate);

	for (uint8_t axis=X; axis<=A; axis++) {
    326a:	1f 5f       	subi	r17, 0xFF	; 255
    326c:	14 30       	cpi	r17, 0x04	; 4
    326e:	d1 f7       	brne	.-12     	; 0x3264 <cfg_dump+0xdc>
		_cfg_dump_axis(axis);
	}
}
    3270:	1f 91       	pop	r17
    3272:	08 95       	ret

00003274 <cfg_parse>:
 *		y_mm_revolution = 1.27	(mm per revolution of the Y axis)
 *		ymmr=1.27				(mm per revolution of the Y axis)
 */

int cfg_parse(char *text)
{
    3274:	cf 92       	push	r12
    3276:	df 92       	push	r13
    3278:	ef 92       	push	r14
    327a:	ff 92       	push	r15
    327c:	0f 93       	push	r16
    327e:	1f 93       	push	r17
    3280:	df 93       	push	r29
    3282:	cf 93       	push	r28
    3284:	0f 92       	push	r0
    3286:	0f 92       	push	r0
    3288:	cd b7       	in	r28, 0x3d	; 61
    328a:	de b7       	in	r29, 0x3e	; 62
    328c:	7c 01       	movw	r14, r24
	char c;
	char *val = 0;				// pointer to normalized value 
	char *end = 0;				// pointer to end of value
    328e:	19 82       	std	Y+1, r1	; 0x01
    3290:	1a 82       	std	Y+2, r1	; 0x02
    3292:	cc 24       	eor	r12, r12
    3294:	dd 24       	eor	r13, r13
    3296:	00 e0       	ldi	r16, 0x00	; 0
    3298:	10 e0       	ldi	r17, 0x00	; 0
    329a:	22 c0       	rjmp	.+68     	; 0x32e0 <cfg_parse+0x6c>
	uint8_t j = 0;				// buffer write index
	uint8_t	axis = 0;			// axis index

	// normalize and split text in place
	while ((c = toupper(text[i++])) != 0) {
		if (c == '=') {							// handle separator
    329c:	9d 33       	cpi	r25, 0x3D	; 61
    329e:	49 f4       	brne	.+18     	; 0x32b2 <cfg_parse+0x3e>
			text[j++] = 0;						// terminate tag at separator
    32a0:	f7 01       	movw	r30, r14
    32a2:	e1 0f       	add	r30, r17
    32a4:	f1 1d       	adc	r31, r1
    32a6:	10 82       	st	Z, r1
    32a8:	1f 5f       	subi	r17, 0xFF	; 255
			val = &text[j];						// new string starts at value
    32aa:	67 01       	movw	r12, r14
    32ac:	c1 0e       	add	r12, r17
    32ae:	d1 1c       	adc	r13, r1
    32b0:	17 c0       	rjmp	.+46     	; 0x32e0 <cfg_parse+0x6c>
		} else if ( (c == '-') || 				// capture special characters
    32b2:	9d 32       	cpi	r25, 0x2D	; 45
    32b4:	81 f0       	breq	.+32     	; 0x32d6 <cfg_parse+0x62>
    32b6:	9b 32       	cpi	r25, 0x2B	; 43
    32b8:	71 f0       	breq	.+28     	; 0x32d6 <cfg_parse+0x62>
    32ba:	9e 32       	cpi	r25, 0x2E	; 46
    32bc:	61 f0       	breq	.+24     	; 0x32d6 <cfg_parse+0x62>
    32be:	9f 33       	cpi	r25, 0x3F	; 63
    32c0:	51 f0       	breq	.+20     	; 0x32d6 <cfg_parse+0x62>
    32c2:	98 32       	cpi	r25, 0x28	; 40
    32c4:	41 f0       	breq	.+16     	; 0x32d6 <cfg_parse+0x62>
					(c == '+') || 
					(c == '.') || 
					(c == '?') || 
					(c == '(')) { 
			text[j++] = c;
		} else if (c >= 'A' && c <= 'Z') {		// capture letters
    32c6:	89 2f       	mov	r24, r25
    32c8:	81 54       	subi	r24, 0x41	; 65
    32ca:	8a 31       	cpi	r24, 0x1A	; 26
    32cc:	20 f0       	brcs	.+8      	; 0x32d6 <cfg_parse+0x62>
			text[j++] = c;
		} else if (c >= '0' && c <= '9') {		// capture numbers
    32ce:	89 2f       	mov	r24, r25
    32d0:	80 53       	subi	r24, 0x30	; 48
    32d2:	8a 30       	cpi	r24, 0x0A	; 10
    32d4:	28 f4       	brcc	.+10     	; 0x32e0 <cfg_parse+0x6c>
			text[j++] = c;
    32d6:	f7 01       	movw	r30, r14
    32d8:	e1 0f       	add	r30, r17
    32da:	f1 1d       	adc	r31, r1
    32dc:	90 83       	st	Z, r25
    32de:	1f 5f       	subi	r17, 0xFF	; 255
	uint8_t i = 0;				// buffer read index (buf must be < 256 chars)
	uint8_t j = 0;				// buffer write index
	uint8_t	axis = 0;			// axis index

	// normalize and split text in place
	while ((c = toupper(text[i++])) != 0) {
    32e0:	f7 01       	movw	r30, r14
    32e2:	e0 0f       	add	r30, r16
    32e4:	f1 1d       	adc	r31, r1
    32e6:	0f 5f       	subi	r16, 0xFF	; 255
    32e8:	80 81       	ld	r24, Z
    32ea:	90 e0       	ldi	r25, 0x00	; 0
    32ec:	0e 94 ed 48 	call	0x91da	; 0x91da <toupper>
    32f0:	98 2f       	mov	r25, r24
    32f2:	88 23       	and	r24, r24
    32f4:	99 f6       	brne	.-90     	; 0x329c <cfg_parse+0x28>
			text[j++] = c;
		} else if (c >= '0' && c <= '9') {		// capture numbers
			text[j++] = c;
		}
	}
	text[j++] = 0;								// nul terminate line
    32f6:	f7 01       	movw	r30, r14
    32f8:	e1 0f       	add	r30, r17
    32fa:	f1 1d       	adc	r31, r1
    32fc:	10 82       	st	Z, r1
	end = &text[j];								// needed for string-to-double
    32fe:	1f 5f       	subi	r17, 0xFF	; 255
    3300:	c7 01       	movw	r24, r14
    3302:	81 0f       	add	r24, r17
    3304:	91 1d       	adc	r25, r1
    3306:	89 83       	std	Y+1, r24	; 0x01
    3308:	9a 83       	std	Y+2, r25	; 0x02

	// pick off tag characters starting with first character
	cfg.status = TG_OK;
    330a:	10 92 5d 22 	sts	0x225D, r1
	switch (text[0]) {
    330e:	f7 01       	movw	r30, r14
    3310:	80 81       	ld	r24, Z
    3312:	81 35       	cpi	r24, 0x51	; 81
    3314:	d1 f0       	breq	.+52     	; 0x334a <cfg_parse+0xd6>
    3316:	82 35       	cpi	r24, 0x52	; 82
    3318:	60 f4       	brcc	.+24     	; 0x3332 <cfg_parse+0xbe>
    331a:	81 34       	cpi	r24, 0x41	; 65
    331c:	59 f1       	breq	.+86     	; 0x3374 <cfg_parse+0x100>
    331e:	82 34       	cpi	r24, 0x42	; 66
    3320:	28 f4       	brcc	.+10     	; 0x332c <cfg_parse+0xb8>
    3322:	88 32       	cpi	r24, 0x28	; 40
    3324:	11 f1       	breq	.+68     	; 0x336a <cfg_parse+0xf6>
    3326:	8f 33       	cpi	r24, 0x3F	; 63
    3328:	39 f5       	brne	.+78     	; 0x3378 <cfg_parse+0x104>
    332a:	0c c0       	rjmp	.+24     	; 0x3344 <cfg_parse+0xd0>
    332c:	8d 34       	cpi	r24, 0x4D	; 77
    332e:	21 f5       	brne	.+72     	; 0x3378 <cfg_parse+0x104>
    3330:	0e c0       	rjmp	.+28     	; 0x334e <cfg_parse+0xda>
    3332:	89 35       	cpi	r24, 0x59	; 89
    3334:	29 f0       	breq	.+10     	; 0x3340 <cfg_parse+0xcc>
    3336:	8a 35       	cpi	r24, 0x5A	; 90
    3338:	d9 f0       	breq	.+54     	; 0x3370 <cfg_parse+0xfc>
    333a:	88 35       	cpi	r24, 0x58	; 88
    333c:	e9 f4       	brne	.+58     	; 0x3378 <cfg_parse+0x104>
    333e:	1f c0       	rjmp	.+62     	; 0x337e <cfg_parse+0x10a>
    3340:	11 e0       	ldi	r17, 0x01	; 1
    3342:	1e c0       	rjmp	.+60     	; 0x3380 <cfg_parse+0x10c>
		case '?': cfg_dump(); cfg.status = TG_OK; break;
    3344:	0e 94 c4 18 	call	0x3188	; 0x3188 <cfg_dump>
    3348:	10 c0       	rjmp	.+32     	; 0x336a <cfg_parse+0xf6>
		case '(': cfg.status = TG_OK; break;		// ignore comment lines
		case 'Q': cfg.status = TG_QUIT; break;
    334a:	8b e0       	ldi	r24, 0x0B	; 11
    334c:	16 c0       	rjmp	.+44     	; 0x337a <cfg_parse+0x106>
		case 'M': cfg.mm_per_arc_segment = strtod(val, &end); 
    334e:	c6 01       	movw	r24, r12
    3350:	be 01       	movw	r22, r28
    3352:	6f 5f       	subi	r22, 0xFF	; 255
    3354:	7f 4f       	sbci	r23, 0xFF	; 255
    3356:	0e 94 78 46 	call	0x8cf0	; 0x8cf0 <strtod>
    335a:	60 93 5e 22 	sts	0x225E, r22
    335e:	70 93 5f 22 	sts	0x225F, r23
    3362:	80 93 60 22 	sts	0x2260, r24
    3366:	90 93 61 22 	sts	0x2261, r25
				  cfg.status = TG_OK; 
    336a:	10 92 5d 22 	sts	0x225D, r1
    336e:	07 c0       	rjmp	.+14     	; 0x337e <cfg_parse+0x10a>
				  break;
    3370:	12 e0       	ldi	r17, 0x02	; 2
    3372:	06 c0       	rjmp	.+12     	; 0x3380 <cfg_parse+0x10c>

		case 'X': axis = X; break;
		case 'Y': axis = Y; break;
		case 'Z': axis = Z; break;
    3374:	13 e0       	ldi	r17, 0x03	; 3
    3376:	04 c0       	rjmp	.+8      	; 0x3380 <cfg_parse+0x10c>
		case 'A': axis = A; break;

		default: cfg.status = TG_UNRECOGNIZED_COMMAND; 	// error return
    3378:	8c e0       	ldi	r24, 0x0C	; 12
    337a:	80 93 5d 22 	sts	0x225D, r24
    337e:	10 e0       	ldi	r17, 0x00	; 0
	}
	if (cfg.status == TG_OK) {
    3380:	80 91 5d 22 	lds	r24, 0x225D
    3384:	88 23       	and	r24, r24
    3386:	09 f0       	breq	.+2      	; 0x338a <cfg_parse+0x116>
    3388:	ee c0       	rjmp	.+476    	; 0x3566 <cfg_parse+0x2f2>
		cfg.status = TG_OK;							// pre-emptive setting
    338a:	10 92 5d 22 	sts	0x225D, r1
		switch (text[1]) {
    338e:	f7 01       	movw	r30, r14
    3390:	81 81       	ldd	r24, Z+1	; 0x01
    3392:	8c 34       	cpi	r24, 0x4C	; 76
    3394:	09 f4       	brne	.+2      	; 0x3398 <cfg_parse+0x124>
    3396:	b8 c0       	rjmp	.+368    	; 0x3508 <cfg_parse+0x294>
    3398:	8d 34       	cpi	r24, 0x4D	; 77
    339a:	30 f4       	brcc	.+12     	; 0x33a8 <cfg_parse+0x134>
    339c:	84 34       	cpi	r24, 0x44	; 68
    339e:	a9 f1       	breq	.+106    	; 0x340a <cfg_parse+0x196>
    33a0:	86 34       	cpi	r24, 0x46	; 70
    33a2:	09 f0       	breq	.+2      	; 0x33a6 <cfg_parse+0x132>
    33a4:	dd c0       	rjmp	.+442    	; 0x3560 <cfg_parse+0x2ec>
    33a6:	1d c0       	rjmp	.+58     	; 0x33e2 <cfg_parse+0x16e>
    33a8:	80 35       	cpi	r24, 0x50	; 80
    33aa:	09 f4       	brne	.+2      	; 0x33ae <cfg_parse+0x13a>
    33ac:	47 c0       	rjmp	.+142    	; 0x343c <cfg_parse+0x1c8>
    33ae:	83 35       	cpi	r24, 0x53	; 83
    33b0:	21 f0       	breq	.+8      	; 0x33ba <cfg_parse+0x146>
    33b2:	8d 34       	cpi	r24, 0x4D	; 77
    33b4:	09 f0       	breq	.+2      	; 0x33b8 <cfg_parse+0x144>
    33b6:	d4 c0       	rjmp	.+424    	; 0x3560 <cfg_parse+0x2ec>
    33b8:	58 c0       	rjmp	.+176    	; 0x346a <cfg_parse+0x1f6>
			case 'S': CFG(axis).seek_steps_sec = (uint16_t)atoi(val); break;
    33ba:	c6 01       	movw	r24, r12
    33bc:	0e 94 e6 47 	call	0x8fcc	; 0x8fcc <atoi>
    33c0:	21 2f       	mov	r18, r17
    33c2:	30 e0       	ldi	r19, 0x00	; 0
    33c4:	f9 01       	movw	r30, r18
    33c6:	ee 0f       	add	r30, r30
    33c8:	ff 1f       	adc	r31, r31
    33ca:	e2 0f       	add	r30, r18
    33cc:	f3 1f       	adc	r31, r19
    33ce:	23 e0       	ldi	r18, 0x03	; 3
    33d0:	ee 0f       	add	r30, r30
    33d2:	ff 1f       	adc	r31, r31
    33d4:	2a 95       	dec	r18
    33d6:	e1 f7       	brne	.-8      	; 0x33d0 <cfg_parse+0x15c>
    33d8:	e4 5a       	subi	r30, 0xA4	; 164
    33da:	fd 4d       	sbci	r31, 0xDD	; 221
    33dc:	81 8b       	std	Z+17, r24	; 0x11
    33de:	92 8b       	std	Z+18, r25	; 0x12
    33e0:	c2 c0       	rjmp	.+388    	; 0x3566 <cfg_parse+0x2f2>
			case 'F': CFG(axis).feed_steps_sec = (uint16_t)atoi(val); break;
    33e2:	c6 01       	movw	r24, r12
    33e4:	0e 94 e6 47 	call	0x8fcc	; 0x8fcc <atoi>
    33e8:	21 2f       	mov	r18, r17
    33ea:	30 e0       	ldi	r19, 0x00	; 0
    33ec:	f9 01       	movw	r30, r18
    33ee:	ee 0f       	add	r30, r30
    33f0:	ff 1f       	adc	r31, r31
    33f2:	e2 0f       	add	r30, r18
    33f4:	f3 1f       	adc	r31, r19
    33f6:	13 e0       	ldi	r17, 0x03	; 3
    33f8:	ee 0f       	add	r30, r30
    33fa:	ff 1f       	adc	r31, r31
    33fc:	1a 95       	dec	r17
    33fe:	e1 f7       	brne	.-8      	; 0x33f8 <cfg_parse+0x184>
    3400:	e4 5a       	subi	r30, 0xA4	; 164
    3402:	fd 4d       	sbci	r31, 0xDD	; 221
    3404:	83 8b       	std	Z+19, r24	; 0x13
    3406:	94 8b       	std	Z+20, r25	; 0x14
    3408:	ae c0       	rjmp	.+348    	; 0x3566 <cfg_parse+0x2f2>
			case 'D': CFG(axis).degree_per_step = strtod(val, &end); break;
    340a:	c6 01       	movw	r24, r12
    340c:	be 01       	movw	r22, r28
    340e:	6f 5f       	subi	r22, 0xFF	; 255
    3410:	7f 4f       	sbci	r23, 0xFF	; 255
    3412:	0e 94 78 46 	call	0x8cf0	; 0x8cf0 <strtod>
    3416:	21 2f       	mov	r18, r17
    3418:	30 e0       	ldi	r19, 0x00	; 0
    341a:	f9 01       	movw	r30, r18
    341c:	ee 0f       	add	r30, r30
    341e:	ff 1f       	adc	r31, r31
    3420:	e2 0f       	add	r30, r18
    3422:	f3 1f       	adc	r31, r19
    3424:	a3 e0       	ldi	r26, 0x03	; 3
    3426:	ee 0f       	add	r30, r30
    3428:	ff 1f       	adc	r31, r31
    342a:	aa 95       	dec	r26
    342c:	e1 f7       	brne	.-8      	; 0x3426 <cfg_parse+0x1b2>
    342e:	e4 5a       	subi	r30, 0xA4	; 164
    3430:	fd 4d       	sbci	r31, 0xDD	; 221
    3432:	65 8b       	std	Z+21, r22	; 0x15
    3434:	76 8b       	std	Z+22, r23	; 0x16
    3436:	87 8b       	std	Z+23, r24	; 0x17
    3438:	90 8f       	std	Z+24, r25	; 0x18
    343a:	95 c0       	rjmp	.+298    	; 0x3566 <cfg_parse+0x2f2>
			case 'P': CFG(axis).polarity = (uint8_t)atoi(val);
    343c:	c6 01       	movw	r24, r12
    343e:	0e 94 e6 47 	call	0x8fcc	; 0x8fcc <atoi>
    3442:	68 2f       	mov	r22, r24
    3444:	81 2f       	mov	r24, r17
    3446:	90 e0       	ldi	r25, 0x00	; 0
    3448:	fc 01       	movw	r30, r24
    344a:	ee 0f       	add	r30, r30
    344c:	ff 1f       	adc	r31, r31
    344e:	e8 0f       	add	r30, r24
    3450:	f9 1f       	adc	r31, r25
    3452:	53 e0       	ldi	r21, 0x03	; 3
    3454:	ee 0f       	add	r30, r30
    3456:	ff 1f       	adc	r31, r31
    3458:	5a 95       	dec	r21
    345a:	e1 f7       	brne	.-8      	; 0x3454 <cfg_parse+0x1e0>
    345c:	e4 5a       	subi	r30, 0xA4	; 164
    345e:	fd 4d       	sbci	r31, 0xDD	; 221
    3460:	60 8b       	std	Z+16, r22	; 0x10
					  st_set_polarity(axis, CFG(axis).polarity);
    3462:	81 2f       	mov	r24, r17
    3464:	0e 94 00 25 	call	0x4a00	; 0x4a00 <st_set_polarity>
    3468:	7e c0       	rjmp	.+252    	; 0x3566 <cfg_parse+0x2f2>
					  break;

			case 'M': 
				if (text[2] == 'I') {
    346a:	f7 01       	movw	r30, r14
    346c:	82 81       	ldd	r24, Z+2	; 0x02
    346e:	89 34       	cpi	r24, 0x49	; 73
    3470:	99 f4       	brne	.+38     	; 0x3498 <cfg_parse+0x224>
					CFG(axis).microstep = (uint8_t)atoi(val); break;
    3472:	c6 01       	movw	r24, r12
    3474:	0e 94 e6 47 	call	0x8fcc	; 0x8fcc <atoi>
    3478:	21 2f       	mov	r18, r17
    347a:	30 e0       	ldi	r19, 0x00	; 0
    347c:	f9 01       	movw	r30, r18
    347e:	ee 0f       	add	r30, r30
    3480:	ff 1f       	adc	r31, r31
    3482:	e2 0f       	add	r30, r18
    3484:	f3 1f       	adc	r31, r19
    3486:	93 e0       	ldi	r25, 0x03	; 3
    3488:	ee 0f       	add	r30, r30
    348a:	ff 1f       	adc	r31, r31
    348c:	9a 95       	dec	r25
    348e:	e1 f7       	brne	.-8      	; 0x3488 <cfg_parse+0x214>
    3490:	e4 5a       	subi	r30, 0xA4	; 164
    3492:	fd 4d       	sbci	r31, 0xDD	; 221
    3494:	86 87       	std	Z+14, r24	; 0x0e
    3496:	67 c0       	rjmp	.+206    	; 0x3566 <cfg_parse+0x2f2>
				} else if (text[3] == 'R') {
    3498:	f7 01       	movw	r30, r14
    349a:	83 81       	ldd	r24, Z+3	; 0x03
    349c:	82 35       	cpi	r24, 0x52	; 82
    349e:	c9 f4       	brne	.+50     	; 0x34d2 <cfg_parse+0x25e>
					CFG(axis).mm_per_rev = strtod(val, &end); break;
    34a0:	c6 01       	movw	r24, r12
    34a2:	be 01       	movw	r22, r28
    34a4:	6f 5f       	subi	r22, 0xFF	; 255
    34a6:	7f 4f       	sbci	r23, 0xFF	; 255
    34a8:	0e 94 78 46 	call	0x8cf0	; 0x8cf0 <strtod>
    34ac:	21 2f       	mov	r18, r17
    34ae:	30 e0       	ldi	r19, 0x00	; 0
    34b0:	f9 01       	movw	r30, r18
    34b2:	ee 0f       	add	r30, r30
    34b4:	ff 1f       	adc	r31, r31
    34b6:	e2 0f       	add	r30, r18
    34b8:	f3 1f       	adc	r31, r19
    34ba:	13 e0       	ldi	r17, 0x03	; 3
    34bc:	ee 0f       	add	r30, r30
    34be:	ff 1f       	adc	r31, r31
    34c0:	1a 95       	dec	r17
    34c2:	e1 f7       	brne	.-8      	; 0x34bc <cfg_parse+0x248>
    34c4:	e4 5a       	subi	r30, 0xA4	; 164
    34c6:	fd 4d       	sbci	r31, 0xDD	; 221
    34c8:	61 8f       	std	Z+25, r22	; 0x19
    34ca:	72 8f       	std	Z+26, r23	; 0x1a
    34cc:	83 8f       	std	Z+27, r24	; 0x1b
    34ce:	94 8f       	std	Z+28, r25	; 0x1c
    34d0:	4a c0       	rjmp	.+148    	; 0x3566 <cfg_parse+0x2f2>
				} else if (text[3] == 'T') {
    34d2:	84 35       	cpi	r24, 0x54	; 84
    34d4:	c9 f4       	brne	.+50     	; 0x3508 <cfg_parse+0x294>
					CFG(axis).mm_travel = strtod(val, &end); break;
    34d6:	c6 01       	movw	r24, r12
    34d8:	be 01       	movw	r22, r28
    34da:	6f 5f       	subi	r22, 0xFF	; 255
    34dc:	7f 4f       	sbci	r23, 0xFF	; 255
    34de:	0e 94 78 46 	call	0x8cf0	; 0x8cf0 <strtod>
    34e2:	21 2f       	mov	r18, r17
    34e4:	30 e0       	ldi	r19, 0x00	; 0
    34e6:	f9 01       	movw	r30, r18
    34e8:	ee 0f       	add	r30, r30
    34ea:	ff 1f       	adc	r31, r31
    34ec:	e2 0f       	add	r30, r18
    34ee:	f3 1f       	adc	r31, r19
    34f0:	a3 e0       	ldi	r26, 0x03	; 3
    34f2:	ee 0f       	add	r30, r30
    34f4:	ff 1f       	adc	r31, r31
    34f6:	aa 95       	dec	r26
    34f8:	e1 f7       	brne	.-8      	; 0x34f2 <cfg_parse+0x27e>
    34fa:	e4 5a       	subi	r30, 0xA4	; 164
    34fc:	fd 4d       	sbci	r31, 0xDD	; 221
    34fe:	65 8f       	std	Z+29, r22	; 0x1d
    3500:	76 8f       	std	Z+30, r23	; 0x1e
    3502:	87 8f       	std	Z+31, r24	; 0x1f
    3504:	90 a3       	std	Z+32, r25	; 0x20
    3506:	2f c0       	rjmp	.+94     	; 0x3566 <cfg_parse+0x2f2>
				}
			case 'L': 
				if (text[2] == 'O') {
    3508:	f7 01       	movw	r30, r14
    350a:	82 81       	ldd	r24, Z+2	; 0x02
    350c:	8f 34       	cpi	r24, 0x4F	; 79
    350e:	99 f4       	brne	.+38     	; 0x3536 <cfg_parse+0x2c2>
					CFG(axis).low_pwr_idle = (uint8_t)atoi(val); break;
    3510:	c6 01       	movw	r24, r12
    3512:	0e 94 e6 47 	call	0x8fcc	; 0x8fcc <atoi>
    3516:	21 2f       	mov	r18, r17
    3518:	30 e0       	ldi	r19, 0x00	; 0
    351a:	f9 01       	movw	r30, r18
    351c:	ee 0f       	add	r30, r30
    351e:	ff 1f       	adc	r31, r31
    3520:	e2 0f       	add	r30, r18
    3522:	f3 1f       	adc	r31, r19
    3524:	53 e0       	ldi	r21, 0x03	; 3
    3526:	ee 0f       	add	r30, r30
    3528:	ff 1f       	adc	r31, r31
    352a:	5a 95       	dec	r21
    352c:	e1 f7       	brne	.-8      	; 0x3526 <cfg_parse+0x2b2>
    352e:	e4 5a       	subi	r30, 0xA4	; 164
    3530:	fd 4d       	sbci	r31, 0xDD	; 221
    3532:	87 87       	std	Z+15, r24	; 0x0f
    3534:	18 c0       	rjmp	.+48     	; 0x3566 <cfg_parse+0x2f2>
				} else if (text[2] == 'I') {
    3536:	89 34       	cpi	r24, 0x49	; 73
    3538:	99 f4       	brne	.+38     	; 0x3560 <cfg_parse+0x2ec>
					CFG(axis).limit_enable = (uint8_t)atoi(val); break;
    353a:	c6 01       	movw	r24, r12
    353c:	0e 94 e6 47 	call	0x8fcc	; 0x8fcc <atoi>
    3540:	21 2f       	mov	r18, r17
    3542:	30 e0       	ldi	r19, 0x00	; 0
    3544:	f9 01       	movw	r30, r18
    3546:	ee 0f       	add	r30, r30
    3548:	ff 1f       	adc	r31, r31
    354a:	e2 0f       	add	r30, r18
    354c:	f3 1f       	adc	r31, r19
    354e:	23 e0       	ldi	r18, 0x03	; 3
    3550:	ee 0f       	add	r30, r30
    3552:	ff 1f       	adc	r31, r31
    3554:	2a 95       	dec	r18
    3556:	e1 f7       	brne	.-8      	; 0x3550 <cfg_parse+0x2dc>
    3558:	e4 5a       	subi	r30, 0xA4	; 164
    355a:	fd 4d       	sbci	r31, 0xDD	; 221
    355c:	85 a3       	std	Z+37, r24	; 0x25
    355e:	03 c0       	rjmp	.+6      	; 0x3566 <cfg_parse+0x2f2>
				}

			default: cfg.status = TG_UNRECOGNIZED_COMMAND;	// error return
    3560:	8c e0       	ldi	r24, 0x0C	; 12
    3562:	80 93 5d 22 	sts	0x225D, r24
		}
	}
//	cfg_write();
	return (cfg.status);
}
    3566:	80 91 5d 22 	lds	r24, 0x225D
    356a:	90 e0       	ldi	r25, 0x00	; 0
    356c:	0f 90       	pop	r0
    356e:	0f 90       	pop	r0
    3570:	cf 91       	pop	r28
    3572:	df 91       	pop	r29
    3574:	1f 91       	pop	r17
    3576:	0f 91       	pop	r16
    3578:	ff 90       	pop	r15
    357a:	ef 90       	pop	r14
    357c:	df 90       	pop	r13
    357e:	cf 90       	pop	r12
    3580:	08 95       	ret

00003582 <cfg_test>:
z_microstep	= 2	 \n\
x_low_pwr_idle = 0 \n\
x_limit_enable=	0";

void cfg_test()
{
    3582:	ef 92       	push	r14
    3584:	ff 92       	push	r15
    3586:	0f 93       	push	r16
    3588:	1f 93       	push	r17
    358a:	df 93       	push	r29
    358c:	cf 93       	push	r28
    358e:	cd b7       	in	r28, 0x3d	; 61
    3590:	de b7       	in	r29, 0x3e	; 62
    3592:	a8 97       	sbiw	r28, 0x28	; 40
    3594:	cd bf       	out	0x3d, r28	; 61
    3596:	de bf       	out	0x3e, r29	; 62
    3598:	0f e4       	ldi	r16, 0x4F	; 79
    359a:	12 e0       	ldi	r17, 0x02	; 2
    359c:	a0 e0       	ldi	r26, 0x00	; 0
    359e:	b0 e0       	ldi	r27, 0x00	; 0
		if (c == 0) {									// last line
			text[j] = 0;
			cfg_parse(text);
			break;			
		} else if ((c == '\r') || (c == '\n') || (c == ';')) {	// line complete
			text[j] = 0;							// terminate the string
    35a0:	7e 01       	movw	r14, r28
    35a2:	08 94       	sec
    35a4:	e1 1c       	adc	r14, r1
    35a6:	f1 1c       	adc	r15, r1
    35a8:	02 c0       	rjmp	.+4      	; 0x35ae <cfg_test+0x2c>
z_microstep	= 2	 \n\
x_low_pwr_idle = 0 \n\
x_limit_enable=	0";

void cfg_test()
{
    35aa:	0f 5f       	subi	r16, 0xFF	; 255
    35ac:	1f 4f       	sbci	r17, 0xFF	; 255
	int j = 0;					// RAM buffer index (text)
	char c;

	// feed the parser one line at a time
	while (TRUE) {
		c = pgm_read_byte(&configs_P[i++]);
    35ae:	f8 01       	movw	r30, r16
    35b0:	84 91       	lpm	r24, Z+
		if (c == 0) {									// last line
    35b2:	88 23       	and	r24, r24
    35b4:	89 f4       	brne	.+34     	; 0x35d8 <cfg_test+0x56>
			text[j] = 0;
    35b6:	ce 01       	movw	r24, r28
    35b8:	01 96       	adiw	r24, 0x01	; 1
    35ba:	a8 0f       	add	r26, r24
    35bc:	b9 1f       	adc	r27, r25
    35be:	1c 92       	st	X, r1
			cfg_parse(text);
    35c0:	0e 94 3a 19 	call	0x3274	; 0x3274 <cfg_parse>
		} else if (c <= ' ') { 							// toss whitespace & ctrls
		} else {
			text[j++] = c;							// put characters into line
		}
	}
}
    35c4:	a8 96       	adiw	r28, 0x28	; 40
    35c6:	cd bf       	out	0x3d, r28	; 61
    35c8:	de bf       	out	0x3e, r29	; 62
    35ca:	cf 91       	pop	r28
    35cc:	df 91       	pop	r29
    35ce:	1f 91       	pop	r17
    35d0:	0f 91       	pop	r16
    35d2:	ff 90       	pop	r15
    35d4:	ef 90       	pop	r14
    35d6:	08 95       	ret
		c = pgm_read_byte(&configs_P[i++]);
		if (c == 0) {									// last line
			text[j] = 0;
			cfg_parse(text);
			break;			
		} else if ((c == '\r') || (c == '\n') || (c == ';')) {	// line complete
    35d8:	8d 30       	cpi	r24, 0x0D	; 13
    35da:	21 f0       	breq	.+8      	; 0x35e4 <cfg_test+0x62>
    35dc:	8a 30       	cpi	r24, 0x0A	; 10
    35de:	11 f0       	breq	.+4      	; 0x35e4 <cfg_test+0x62>
    35e0:	8b 33       	cpi	r24, 0x3B	; 59
    35e2:	49 f4       	brne	.+18     	; 0x35f6 <cfg_test+0x74>
			text[j] = 0;							// terminate the string
    35e4:	ae 0d       	add	r26, r14
    35e6:	bf 1d       	adc	r27, r15
    35e8:	1c 92       	st	X, r1
			cfg_parse(text);						// parse line 
    35ea:	c7 01       	movw	r24, r14
    35ec:	0e 94 3a 19 	call	0x3274	; 0x3274 <cfg_parse>
    35f0:	a0 e0       	ldi	r26, 0x00	; 0
    35f2:	b0 e0       	ldi	r27, 0x00	; 0
    35f4:	da cf       	rjmp	.-76     	; 0x35aa <cfg_test+0x28>
			j = 0;			
		} else if (c <= ' ') { 							// toss whitespace & ctrls
    35f6:	81 32       	cpi	r24, 0x21	; 33
    35f8:	c0 f2       	brcs	.-80     	; 0x35aa <cfg_test+0x28>
		} else {
			text[j++] = c;							// put characters into line
    35fa:	f7 01       	movw	r30, r14
    35fc:	ea 0f       	add	r30, r26
    35fe:	fb 1f       	adc	r31, r27
    3600:	80 83       	st	Z, r24
    3602:	11 96       	adiw	r26, 0x01	; 1
    3604:	d2 cf       	rjmp	.-92     	; 0x35aa <cfg_test+0x28>

00003606 <en_init>:
static uint8_t encoder_port_value;

void en_init(void) 
{
	return;
}
    3606:	08 95       	ret

00003608 <en_write>:
 * bits all over the place becuase we have no more contiguous ports left. 
 */

void en_write(uint8_t b)
{
	encoder_port_value = b;
    3608:	80 93 72 21 	sts	0x2172, r24

	if (b & 0x01) { 								// b0 is on A axis
    360c:	98 2f       	mov	r25, r24
    360e:	90 ff       	sbrs	r25, 0
    3610:	07 c0       	rjmp	.+14     	; 0x3620 <en_write+0x18>
		AXIS(A).port->OUTSET = ENCODER_OUT_BIT_bm;
    3612:	e0 91 58 22 	lds	r30, 0x2258
    3616:	f0 91 59 22 	lds	r31, 0x2259
    361a:	80 e2       	ldi	r24, 0x20	; 32
    361c:	85 83       	std	Z+5, r24	; 0x05
    361e:	06 c0       	rjmp	.+12     	; 0x362c <en_write+0x24>
	} else {
		AXIS(A).port->OUTCLR = ENCODER_OUT_BIT_bm;
    3620:	e0 91 58 22 	lds	r30, 0x2258
    3624:	f0 91 59 22 	lds	r31, 0x2259
    3628:	80 e2       	ldi	r24, 0x20	; 32
    362a:	86 83       	std	Z+6, r24	; 0x06
	}

	if (b & 0x02) { 								// b1 is on Z axis
    362c:	91 ff       	sbrs	r25, 1
    362e:	07 c0       	rjmp	.+14     	; 0x363e <en_write+0x36>
		AXIS(Z).port->OUTSET = ENCODER_OUT_BIT_bm;
    3630:	e0 91 48 22 	lds	r30, 0x2248
    3634:	f0 91 49 22 	lds	r31, 0x2249
    3638:	80 e2       	ldi	r24, 0x20	; 32
    363a:	85 83       	std	Z+5, r24	; 0x05
    363c:	06 c0       	rjmp	.+12     	; 0x364a <en_write+0x42>
	} else {
		AXIS(Z).port->OUTCLR = ENCODER_OUT_BIT_bm;
    363e:	e0 91 48 22 	lds	r30, 0x2248
    3642:	f0 91 49 22 	lds	r31, 0x2249
    3646:	80 e2       	ldi	r24, 0x20	; 32
    3648:	86 83       	std	Z+6, r24	; 0x06
	}

	if (b & 0x04) { 								// b2 is on Y axis
    364a:	92 ff       	sbrs	r25, 2
    364c:	07 c0       	rjmp	.+14     	; 0x365c <en_write+0x54>
		AXIS(Y).port->OUTSET = ENCODER_OUT_BIT_bm;
    364e:	e0 91 38 22 	lds	r30, 0x2238
    3652:	f0 91 39 22 	lds	r31, 0x2239
    3656:	80 e2       	ldi	r24, 0x20	; 32
    3658:	85 83       	std	Z+5, r24	; 0x05
    365a:	06 c0       	rjmp	.+12     	; 0x3668 <en_write+0x60>
	} else {
		AXIS(Y).port->OUTCLR = ENCODER_OUT_BIT_bm;
    365c:	e0 91 38 22 	lds	r30, 0x2238
    3660:	f0 91 39 22 	lds	r31, 0x2239
    3664:	80 e2       	ldi	r24, 0x20	; 32
    3666:	86 83       	std	Z+6, r24	; 0x06
	}

	if (b & 0x08) { 								// b3 is on X axis
    3668:	93 ff       	sbrs	r25, 3
    366a:	07 c0       	rjmp	.+14     	; 0x367a <en_write+0x72>
		AXIS(X).port->OUTSET = ENCODER_OUT_BIT_bm;
    366c:	e0 91 28 22 	lds	r30, 0x2228
    3670:	f0 91 29 22 	lds	r31, 0x2229
    3674:	80 e2       	ldi	r24, 0x20	; 32
    3676:	85 83       	std	Z+5, r24	; 0x05
    3678:	08 95       	ret
	} else {
		AXIS(X).port->OUTCLR = ENCODER_OUT_BIT_bm;
    367a:	e0 91 28 22 	lds	r30, 0x2228
    367e:	f0 91 29 22 	lds	r31, 0x2229
    3682:	80 e2       	ldi	r24, 0x20	; 32
    3684:	86 83       	std	Z+6, r24	; 0x06
    3686:	08 95       	ret

00003688 <en_toggle>:
 * en_toggle() - toggle lowest 4 bits of a byte to encoder output port
 */

void en_toggle(uint8_t b)
{
	encoder_port_value ^= b;	// xor the stored encoder value with b
    3688:	90 91 72 21 	lds	r25, 0x2172
    368c:	98 27       	eor	r25, r24
    368e:	90 93 72 21 	sts	0x2172, r25
	en_write(encoder_port_value);
    3692:	89 2f       	mov	r24, r25
    3694:	0e 94 04 1b 	call	0x3608	; 0x3608 <en_write>
}
    3698:	08 95       	ret

0000369a <xmega_init_clocks>:
	while(!testbit(OSC.STATUS,OSC_PLLRDY_bp));  // wait until PLL stable 
	CCPWrite(&CLK.CTRL, CLK_SCLKSEL_PLL_gc);    // Switch to PLL clock
 */

void xmega_init_clocks(void) 
{ 
    369a:	0f 93       	push	r16
    369c:	df 93       	push	r29
    369e:	cf 93       	push	r28
    36a0:	0f 92       	push	r0
    36a2:	cd b7       	in	r28, 0x3d	; 61
    36a4:	de b7       	in	r29, 0x3e	; 62
	CCPWrite(&CLK.CTRL, CLK_SCLKSEL_PLL_gc);    // switch to PLL clock
	OSC.CTRL &= ~OSC_RC2MEN_bm;					// disable internal 2 MHz clock
#endif

#ifdef __CLOCK_EXTERNAL_16MHZ // external 16 Mhx Xtal with 2x PLL = 32 Mhz
	OSC.XOSCCTRL = 0xCB;	// 12-16 MHz crystal; 0.4-16 MHz XTAL w/16K CLK startup
    36a6:	8b ec       	ldi	r24, 0xCB	; 203
    36a8:	e0 e5       	ldi	r30, 0x50	; 80
    36aa:	f0 e0       	ldi	r31, 0x00	; 0
    36ac:	82 83       	std	Z+2, r24	; 0x02
	OSC.CTRL = 0x08;        // enable external crystal oscillator 
    36ae:	88 e0       	ldi	r24, 0x08	; 8
    36b0:	80 93 50 00 	sts	0x0050, r24
	while(!(OSC.STATUS & OSC_XOSCRDY_bm));		// wait for oscillator ready
    36b4:	80 91 51 00 	lds	r24, 0x0051
    36b8:	83 ff       	sbrs	r24, 3
    36ba:	fc cf       	rjmp	.-8      	; 0x36b4 <xmega_init_clocks+0x1a>
	OSC.PLLCTRL = 0xC2;		// XOSC is PLL Source; 2x Factor (32 MHz sys clock)
    36bc:	82 ec       	ldi	r24, 0xC2	; 194
    36be:	e0 e5       	ldi	r30, 0x50	; 80
    36c0:	f0 e0       	ldi	r31, 0x00	; 0
    36c2:	85 83       	std	Z+5, r24	; 0x05
	OSC.CTRL = 0x18;        // Enable PLL & External Oscillator 
    36c4:	88 e1       	ldi	r24, 0x18	; 24
    36c6:	80 93 50 00 	sts	0x0050, r24
	while(!(OSC.STATUS & OSC_PLLRDY_bm));		// wait for PLL ready
    36ca:	80 91 51 00 	lds	r24, 0x0051
    36ce:	84 ff       	sbrs	r24, 4
    36d0:	fc cf       	rjmp	.-8      	; 0x36ca <xmega_init_clocks+0x30>

	// Restore global interrupt setting from scratch register.
        asm("out  0x3F, R1");

#elif defined __GNUC__
	AVR_ENTER_CRITICAL_REGION();
    36d2:	8f b7       	in	r24, 0x3f	; 63
    36d4:	89 83       	std	Y+1, r24	; 0x01
    36d6:	f8 94       	cli
	volatile uint8_t * tmpAddr = address;
#ifdef RAMPZ
	RAMPZ = 0;
    36d8:	1b be       	out	0x3b, r1	; 59
#endif
	asm volatile(
    36da:	24 e0       	ldi	r18, 0x04	; 4
    36dc:	80 e4       	ldi	r24, 0x40	; 64
    36de:	90 e0       	ldi	r25, 0x00	; 0
    36e0:	fc 01       	movw	r30, r24
    36e2:	08 ed       	ldi	r16, 0xD8	; 216
    36e4:	04 bf       	out	0x34, r16	; 52
    36e6:	20 83       	st	Z, r18
		:
		: "r" (tmpAddr), "r" (value), "M" (CCP_IOREG_gc), "i" (&CCP)
		: "r16", "r30", "r31"
		);

	AVR_LEAVE_CRITICAL_REGION();
    36e8:	89 81       	ldd	r24, Y+1	; 0x01
    36ea:	8f bf       	out	0x3f, r24	; 63
	while(!(OSC.STATUS & OSC_XOSCRDY_bm));		// wait for oscillator ready
	OSC.PLLCTRL = 0xC2;		// XOSC is PLL Source; 2x Factor (32 MHz sys clock)
	OSC.CTRL = 0x18;        // Enable PLL & External Oscillator 
	while(!(OSC.STATUS & OSC_PLLRDY_bm));		// wait for PLL ready
	CCPWrite(&CLK.CTRL, CLK_SCLKSEL_PLL_gc);    // switch to PLL clock
	OSC.CTRL &= ~OSC_RC2MEN_bm;					// disable internal 2 MHz clock
    36ec:	80 91 50 00 	lds	r24, 0x0050
    36f0:	8e 7f       	andi	r24, 0xFE	; 254
    36f2:	80 93 50 00 	sts	0x0050, r24
	OSC.CTRL = OSC_RC32MEN_bm; 					// enable internal 32MHz oscillator
	while(!(OSC.STATUS & OSC_RC32MRDY_bm)); 	// wait for oscillator ready
	CCP = CCP_IOREG_gc; 						// Security Signature to modify clk
	CLK.CTRL = 0x01; 							// select sysclock 32MHz osc
#endif
}
    36f6:	0f 90       	pop	r0
    36f8:	cf 91       	pop	r28
    36fa:	df 91       	pop	r29
    36fc:	0f 91       	pop	r16
    36fe:	08 95       	ret

00003700 <xmega_init>:
/*
 * xmega_init()
 */

void xmega_init() {
	xmega_init_clocks();
    3700:	0e 94 4d 1b 	call	0x369a	; 0x369a <xmega_init_clocks>
}
    3704:	08 95       	ret

00003706 <CCPWrite>:
 *  - address A pointer to the address to write to.
 *  - value   The value to put in to the register.
 */

void CCPWrite( volatile uint8_t * address, uint8_t value )
{
    3706:	0f 93       	push	r16
    3708:	df 93       	push	r29
    370a:	cf 93       	push	r28
    370c:	0f 92       	push	r0
    370e:	cd b7       	in	r28, 0x3d	; 61
    3710:	de b7       	in	r29, 0x3e	; 62

	// Restore global interrupt setting from scratch register.
        asm("out  0x3F, R1");

#elif defined __GNUC__
	AVR_ENTER_CRITICAL_REGION();
    3712:	2f b7       	in	r18, 0x3f	; 63
    3714:	29 83       	std	Y+1, r18	; 0x01
    3716:	f8 94       	cli
	volatile uint8_t * tmpAddr = address;
#ifdef RAMPZ
	RAMPZ = 0;
    3718:	1b be       	out	0x3b, r1	; 59
#endif
	asm volatile(
    371a:	fc 01       	movw	r30, r24
    371c:	08 ed       	ldi	r16, 0xD8	; 216
    371e:	04 bf       	out	0x34, r16	; 52
    3720:	60 83       	st	Z, r22
		:
		: "r" (tmpAddr), "r" (value), "M" (CCP_IOREG_gc), "i" (&CCP)
		: "r16", "r30", "r31"
		);

	AVR_LEAVE_CRITICAL_REGION();
    3722:	89 81       	ldd	r24, Y+1	; 0x01
    3724:	8f bf       	out	0x3f, r24	; 63
#endif
}
    3726:	0f 90       	pop	r0
    3728:	cf 91       	pop	r28
    372a:	df 91       	pop	r29
    372c:	0f 91       	pop	r16
    372e:	08 95       	ret

00003730 <mc_motion_pause>:
 */

int mc_motion_pause()
{
	return (TG_OK);
}
    3730:	80 e0       	ldi	r24, 0x00	; 0
    3732:	90 e0       	ldi	r25, 0x00	; 0
    3734:	08 95       	ret

00003736 <mc_motion_resume>:
 */

int mc_motion_resume()
{
	return (TG_OK);
}
    3736:	80 e0       	ldi	r24, 0x00	; 0
    3738:	90 e0       	ldi	r25, 0x00	; 0
    373a:	08 95       	ret

0000373c <mc_motion_end>:
 */

int mc_motion_end()
{
	return (TG_OK);
}
    373c:	80 e0       	ldi	r24, 0x00	; 0
    373e:	90 e0       	ldi	r25, 0x00	; 0
    3740:	08 95       	ret

00003742 <mc_go_home>:
 */

int mc_go_home()
{
//	st_go_home();
	clear_vector(mc.position); // By definition this is location [0, 0, 0]
    3742:	8c e0       	ldi	r24, 0x0C	; 12
    3744:	e4 e7       	ldi	r30, 0x74	; 116
    3746:	f1 e2       	ldi	r31, 0x21	; 33
    3748:	df 01       	movw	r26, r30
    374a:	1d 92       	st	X+, r1
    374c:	8a 95       	dec	r24
    374e:	e9 f7       	brne	.-6      	; 0x374a <mc_go_home+0x8>
	return (TG_OK);
}
    3750:	80 e0       	ldi	r24, 0x00	; 0
    3752:	90 e0       	ldi	r25, 0x00	; 0
    3754:	08 95       	ret

00003756 <mc_init>:
 * mc_init() 
 */

void mc_init()
{
	clear_vector(mc.position);		// zero robot position
    3756:	8c e0       	ldi	r24, 0x0C	; 12
    3758:	e4 e7       	ldi	r30, 0x74	; 116
    375a:	f1 e2       	ldi	r31, 0x21	; 33
    375c:	df 01       	movw	r26, r30
    375e:	1d 92       	st	X+, r1
    3760:	8a 95       	dec	r24
    3762:	e9 f7       	brne	.-6      	; 0x375e <mc_init+0x8>
	mc.line_state = MC_STATE_OFF;	// turn off the generators
    3764:	10 92 73 21 	sts	0x2173, r1
	ma.arc_state = MC_STATE_OFF;
    3768:	10 92 ca 22 	sts	0x22CA, r1
}
    376c:	08 95       	ret

0000376e <mc_line_continue>:
 *
 *	This is a line generator that can be called multiple times until it can 
 *	successfully load the line into the move buffer.
 */
int mc_line_continue() 
{
    376e:	af 92       	push	r10
    3770:	bf 92       	push	r11
    3772:	cf 92       	push	r12
    3774:	df 92       	push	r13
    3776:	ef 92       	push	r14
    3778:	ff 92       	push	r15
    377a:	0f 93       	push	r16
    377c:	1f 93       	push	r17
	if (mc.line_state == MC_STATE_OFF) {
    377e:	80 91 73 21 	lds	r24, 0x2173
    3782:	88 23       	and	r24, r24
    3784:	19 f4       	brne	.+6      	; 0x378c <mc_line_continue+0x1e>
    3786:	23 e0       	ldi	r18, 0x03	; 3
    3788:	30 e0       	ldi	r19, 0x00	; 0
    378a:	30 c0       	rjmp	.+96     	; 0x37ec <mc_line_continue+0x7e>
		return (TG_NOOP);				// return NULL for non-started line
	}
	mc.line_state = MC_STATE_RUNNING; // technically correct but not really needed
    378c:	82 e0       	ldi	r24, 0x02	; 2
    378e:	80 93 73 21 	sts	0x2173, r24
	if (mv_test_move_buffer_full()) { // this is where you would block
    3792:	0e 94 1f 2d 	call	0x5a3e	; 0x5a3e <mv_test_move_buffer_full>
    3796:	88 23       	and	r24, r24
    3798:	19 f0       	breq	.+6      	; 0x37a0 <mc_line_continue+0x32>
    379a:	22 e0       	ldi	r18, 0x02	; 2
    379c:	30 e0       	ldi	r19, 0x00	; 0
    379e:	26 c0       	rjmp	.+76     	; 0x37ec <mc_line_continue+0x7e>
		return (TG_EAGAIN);
	}
	mv_queue_move_buffer(mc.steps[X], mc.steps[Y], mc.steps[Z], mc.microseconds); 
    37a0:	60 91 8c 21 	lds	r22, 0x218C
    37a4:	70 91 8d 21 	lds	r23, 0x218D
    37a8:	80 91 8e 21 	lds	r24, 0x218E
    37ac:	90 91 8f 21 	lds	r25, 0x218F
    37b0:	20 91 90 21 	lds	r18, 0x2190
    37b4:	30 91 91 21 	lds	r19, 0x2191
    37b8:	40 91 92 21 	lds	r20, 0x2192
    37bc:	50 91 93 21 	lds	r21, 0x2193
    37c0:	e0 90 94 21 	lds	r14, 0x2194
    37c4:	f0 90 95 21 	lds	r15, 0x2195
    37c8:	00 91 96 21 	lds	r16, 0x2196
    37cc:	10 91 97 21 	lds	r17, 0x2197
    37d0:	a0 90 98 21 	lds	r10, 0x2198
    37d4:	b0 90 99 21 	lds	r11, 0x2199
    37d8:	c0 90 9a 21 	lds	r12, 0x219A
    37dc:	d0 90 9b 21 	lds	r13, 0x219B
    37e0:	0e 94 4b 2d 	call	0x5a96	; 0x5a96 <mv_queue_move_buffer>

	mc.line_state = MC_STATE_OFF;		// line is done. turn the generator off.
    37e4:	10 92 73 21 	sts	0x2173, r1
    37e8:	20 e0       	ldi	r18, 0x00	; 0
    37ea:	30 e0       	ldi	r19, 0x00	; 0
	return (TG_OK);
}
    37ec:	c9 01       	movw	r24, r18
    37ee:	1f 91       	pop	r17
    37f0:	0f 91       	pop	r16
    37f2:	ff 90       	pop	r15
    37f4:	ef 90       	pop	r14
    37f6:	df 90       	pop	r13
    37f8:	cf 90       	pop	r12
    37fa:	bf 90       	pop	r11
    37fc:	af 90       	pop	r10
    37fe:	08 95       	ret

00003800 <mc_dwell>:
 * NOTE: It's not necessary to set the target as this is set correctly in the Gcode. 
 */

int mc_dwell(double seconds) 
{
	mc.steps[X] = 0;
    3800:	10 92 8c 21 	sts	0x218C, r1
    3804:	10 92 8d 21 	sts	0x218D, r1
    3808:	10 92 8e 21 	sts	0x218E, r1
    380c:	10 92 8f 21 	sts	0x218F, r1
	mc.steps[Y] = 0;
    3810:	10 92 90 21 	sts	0x2190, r1
    3814:	10 92 91 21 	sts	0x2191, r1
    3818:	10 92 92 21 	sts	0x2192, r1
    381c:	10 92 93 21 	sts	0x2193, r1
	mc.steps[Z] = 0;
    3820:	10 92 94 21 	sts	0x2194, r1
    3824:	10 92 95 21 	sts	0x2195, r1
    3828:	10 92 96 21 	sts	0x2196, r1
    382c:	10 92 97 21 	sts	0x2197, r1
	mc.mm_of_travel = 0;	// not actually used, but makes debug make more sense
    3830:	20 e0       	ldi	r18, 0x00	; 0
    3832:	30 e0       	ldi	r19, 0x00	; 0
    3834:	40 e0       	ldi	r20, 0x00	; 0
    3836:	50 e0       	ldi	r21, 0x00	; 0
    3838:	20 93 9c 21 	sts	0x219C, r18
    383c:	30 93 9d 21 	sts	0x219D, r19
    3840:	40 93 9e 21 	sts	0x219E, r20
    3844:	50 93 9f 21 	sts	0x219F, r21
	mc.microseconds = trunc(seconds*1000000);
    3848:	20 e0       	ldi	r18, 0x00	; 0
    384a:	34 e2       	ldi	r19, 0x24	; 36
    384c:	44 e7       	ldi	r20, 0x74	; 116
    384e:	59 e4       	ldi	r21, 0x49	; 73
    3850:	0e 94 2f 45 	call	0x8a5e	; 0x8a5e <__mulsf3>
    3854:	0e 94 e1 42 	call	0x85c2	; 0x85c2 <__fixunssfsi>
    3858:	60 93 98 21 	sts	0x2198, r22
    385c:	70 93 99 21 	sts	0x2199, r23
    3860:	80 93 9a 21 	sts	0x219A, r24
    3864:	90 93 9b 21 	sts	0x219B, r25
	mc.line_state = MC_STATE_NEW;
    3868:	81 e0       	ldi	r24, 0x01	; 1
    386a:	80 93 73 21 	sts	0x2173, r24
	return (mc_line_continue());
    386e:	0e 94 b7 1b 	call	0x376e	; 0x376e <mc_line_continue>
}
    3872:	08 95       	ret

00003874 <mc_set_position>:
/* 
 * mc_set_position() - set current position (support for G92)
 */

int mc_set_position(double x, double y, double z)
{
    3874:	8f 92       	push	r8
    3876:	9f 92       	push	r9
    3878:	af 92       	push	r10
    387a:	bf 92       	push	r11
    387c:	cf 92       	push	r12
    387e:	df 92       	push	r13
    3880:	ef 92       	push	r14
    3882:	ff 92       	push	r15
    3884:	0f 93       	push	r16
    3886:	1f 93       	push	r17
    3888:	49 01       	movw	r8, r18
    388a:	5a 01       	movw	r10, r20
	mc.position[X] = lround(x*CFG(X).steps_per_mm);
    388c:	20 91 7d 22 	lds	r18, 0x227D
    3890:	30 91 7e 22 	lds	r19, 0x227E
    3894:	40 91 7f 22 	lds	r20, 0x227F
    3898:	50 91 80 22 	lds	r21, 0x2280
    389c:	0e 94 2f 45 	call	0x8a5e	; 0x8a5e <__mulsf3>
    38a0:	0e 94 ff 44 	call	0x89fe	; 0x89fe <lround>
    38a4:	24 e7       	ldi	r18, 0x74	; 116
    38a6:	c2 2e       	mov	r12, r18
    38a8:	21 e2       	ldi	r18, 0x21	; 33
    38aa:	d2 2e       	mov	r13, r18
    38ac:	60 93 74 21 	sts	0x2174, r22
    38b0:	70 93 75 21 	sts	0x2175, r23
    38b4:	80 93 76 21 	sts	0x2176, r24
    38b8:	90 93 77 21 	sts	0x2177, r25
	mc.position[Y] = lround(y*CFG(Y).steps_per_mm);
    38bc:	c5 01       	movw	r24, r10
    38be:	b4 01       	movw	r22, r8
    38c0:	20 91 95 22 	lds	r18, 0x2295
    38c4:	30 91 96 22 	lds	r19, 0x2296
    38c8:	40 91 97 22 	lds	r20, 0x2297
    38cc:	50 91 98 22 	lds	r21, 0x2298
    38d0:	0e 94 2f 45 	call	0x8a5e	; 0x8a5e <__mulsf3>
    38d4:	0e 94 ff 44 	call	0x89fe	; 0x89fe <lround>
    38d8:	f6 01       	movw	r30, r12
    38da:	34 96       	adiw	r30, 0x04	; 4
    38dc:	60 93 78 21 	sts	0x2178, r22
    38e0:	71 83       	std	Z+1, r23	; 0x01
    38e2:	82 83       	std	Z+2, r24	; 0x02
    38e4:	93 83       	std	Z+3, r25	; 0x03
	mc.position[Z] = lround(z*CFG(Z).steps_per_mm); 
    38e6:	c8 01       	movw	r24, r16
    38e8:	b7 01       	movw	r22, r14
    38ea:	20 91 ad 22 	lds	r18, 0x22AD
    38ee:	30 91 ae 22 	lds	r19, 0x22AE
    38f2:	40 91 af 22 	lds	r20, 0x22AF
    38f6:	50 91 b0 22 	lds	r21, 0x22B0
    38fa:	0e 94 2f 45 	call	0x8a5e	; 0x8a5e <__mulsf3>
    38fe:	0e 94 ff 44 	call	0x89fe	; 0x89fe <lround>
    3902:	28 e0       	ldi	r18, 0x08	; 8
    3904:	30 e0       	ldi	r19, 0x00	; 0
    3906:	c2 0e       	add	r12, r18
    3908:	d3 1e       	adc	r13, r19
    390a:	60 93 7c 21 	sts	0x217C, r22
    390e:	f6 01       	movw	r30, r12
    3910:	71 83       	std	Z+1, r23	; 0x01
    3912:	82 83       	std	Z+2, r24	; 0x02
    3914:	93 83       	std	Z+3, r25	; 0x03
	return (TG_OK);
}
    3916:	80 e0       	ldi	r24, 0x00	; 0
    3918:	90 e0       	ldi	r25, 0x00	; 0
    391a:	1f 91       	pop	r17
    391c:	0f 91       	pop	r16
    391e:	ff 90       	pop	r15
    3920:	ef 90       	pop	r14
    3922:	df 90       	pop	r13
    3924:	cf 90       	pop	r12
    3926:	bf 90       	pop	r11
    3928:	af 90       	pop	r10
    392a:	9f 90       	pop	r9
    392c:	8f 90       	pop	r8
    392e:	08 95       	ret

00003930 <mc_line>:
 * Zero length lines that are actually dwells come in thru mc_dwell().
 * The mv_queue doesn't check line length and queues anything.
 */

int mc_line(double x, double y, double z, double feed_rate, int invert_feed_rate)
{
    3930:	2f 92       	push	r2
    3932:	3f 92       	push	r3
    3934:	4f 92       	push	r4
    3936:	5f 92       	push	r5
    3938:	6f 92       	push	r6
    393a:	7f 92       	push	r7
    393c:	8f 92       	push	r8
    393e:	9f 92       	push	r9
    3940:	af 92       	push	r10
    3942:	bf 92       	push	r11
    3944:	cf 92       	push	r12
    3946:	df 92       	push	r13
    3948:	ef 92       	push	r14
    394a:	ff 92       	push	r15
    394c:	0f 93       	push	r16
    394e:	1f 93       	push	r17
    3950:	df 93       	push	r29
    3952:	cf 93       	push	r28
    3954:	cd b7       	in	r28, 0x3d	; 61
    3956:	de b7       	in	r29, 0x3e	; 62
    3958:	62 97       	sbiw	r28, 0x12	; 18
    395a:	cd bf       	out	0x3d, r28	; 61
    395c:	de bf       	out	0x3e, r29	; 62
    395e:	19 01       	movw	r2, r18
    3960:	2a 01       	movw	r4, r20
    3962:	ad 86       	std	Y+13, r10	; 0x0d
    3964:	be 86       	std	Y+14, r11	; 0x0e
    3966:	cf 86       	std	Y+15, r12	; 0x0f
    3968:	d8 8a       	std	Y+16, r13	; 0x10
    396a:	89 8a       	std	Y+17, r8	; 0x11
    396c:	9a 8a       	std	Y+18, r9	; 0x12
	mc.target[X] = lround(x*CFG(X).steps_per_mm);
    396e:	20 91 7d 22 	lds	r18, 0x227D
    3972:	30 91 7e 22 	lds	r19, 0x227E
    3976:	40 91 7f 22 	lds	r20, 0x227F
    397a:	50 91 80 22 	lds	r21, 0x2280
    397e:	29 87       	std	Y+9, r18	; 0x09
    3980:	3a 87       	std	Y+10, r19	; 0x0a
    3982:	4b 87       	std	Y+11, r20	; 0x0b
    3984:	5c 87       	std	Y+12, r21	; 0x0c
    3986:	0e 94 2f 45 	call	0x8a5e	; 0x8a5e <__mulsf3>
    398a:	0e 94 ff 44 	call	0x89fe	; 0x89fe <lround>
    398e:	3b 01       	movw	r6, r22
    3990:	4c 01       	movw	r8, r24
    3992:	60 92 80 21 	sts	0x2180, r6
    3996:	70 92 81 21 	sts	0x2181, r7
    399a:	80 92 82 21 	sts	0x2182, r8
    399e:	90 92 83 21 	sts	0x2183, r9
	mc.target[Y] = lround(y*CFG(Y).steps_per_mm);
    39a2:	80 91 95 22 	lds	r24, 0x2295
    39a6:	90 91 96 22 	lds	r25, 0x2296
    39aa:	a0 91 97 22 	lds	r26, 0x2297
    39ae:	b0 91 98 22 	lds	r27, 0x2298
    39b2:	8d 83       	std	Y+5, r24	; 0x05
    39b4:	9e 83       	std	Y+6, r25	; 0x06
    39b6:	af 83       	std	Y+7, r26	; 0x07
    39b8:	b8 87       	std	Y+8, r27	; 0x08
    39ba:	c2 01       	movw	r24, r4
    39bc:	b1 01       	movw	r22, r2
    39be:	2d 81       	ldd	r18, Y+5	; 0x05
    39c0:	3e 81       	ldd	r19, Y+6	; 0x06
    39c2:	4f 81       	ldd	r20, Y+7	; 0x07
    39c4:	58 85       	ldd	r21, Y+8	; 0x08
    39c6:	0e 94 2f 45 	call	0x8a5e	; 0x8a5e <__mulsf3>
    39ca:	0e 94 ff 44 	call	0x89fe	; 0x89fe <lround>
    39ce:	5b 01       	movw	r10, r22
    39d0:	6c 01       	movw	r12, r24
    39d2:	a0 92 84 21 	sts	0x2184, r10
    39d6:	b0 92 85 21 	sts	0x2185, r11
    39da:	c0 92 86 21 	sts	0x2186, r12
    39de:	d0 92 87 21 	sts	0x2187, r13
	mc.target[Z] = lround(z*CFG(Z).steps_per_mm); 
    39e2:	20 91 ad 22 	lds	r18, 0x22AD
    39e6:	30 91 ae 22 	lds	r19, 0x22AE
    39ea:	40 91 af 22 	lds	r20, 0x22AF
    39ee:	50 91 b0 22 	lds	r21, 0x22B0
    39f2:	29 83       	std	Y+1, r18	; 0x01
    39f4:	3a 83       	std	Y+2, r19	; 0x02
    39f6:	4b 83       	std	Y+3, r20	; 0x03
    39f8:	5c 83       	std	Y+4, r21	; 0x04
    39fa:	c8 01       	movw	r24, r16
    39fc:	b7 01       	movw	r22, r14
    39fe:	0e 94 2f 45 	call	0x8a5e	; 0x8a5e <__mulsf3>
    3a02:	0e 94 ff 44 	call	0x89fe	; 0x89fe <lround>
    3a06:	9b 01       	movw	r18, r22
    3a08:	ac 01       	movw	r20, r24
    3a0a:	20 93 88 21 	sts	0x2188, r18
    3a0e:	30 93 89 21 	sts	0x2189, r19
    3a12:	40 93 8a 21 	sts	0x218A, r20
    3a16:	50 93 8b 21 	sts	0x218B, r21

	mc.steps[X] = mc.target[X]-mc.position[X];
    3a1a:	80 91 74 21 	lds	r24, 0x2174
    3a1e:	90 91 75 21 	lds	r25, 0x2175
    3a22:	a0 91 76 21 	lds	r26, 0x2176
    3a26:	b0 91 77 21 	lds	r27, 0x2177
    3a2a:	84 01       	movw	r16, r8
    3a2c:	73 01       	movw	r14, r6
    3a2e:	e8 1a       	sub	r14, r24
    3a30:	f9 0a       	sbc	r15, r25
    3a32:	0a 0b       	sbc	r16, r26
    3a34:	1b 0b       	sbc	r17, r27
    3a36:	e0 92 8c 21 	sts	0x218C, r14
    3a3a:	f0 92 8d 21 	sts	0x218D, r15
    3a3e:	00 93 8e 21 	sts	0x218E, r16
    3a42:	10 93 8f 21 	sts	0x218F, r17
	mc.steps[Y] = mc.target[Y]-mc.position[Y];
    3a46:	80 91 78 21 	lds	r24, 0x2178
    3a4a:	90 91 79 21 	lds	r25, 0x2179
    3a4e:	a0 91 7a 21 	lds	r26, 0x217A
    3a52:	b0 91 7b 21 	lds	r27, 0x217B
    3a56:	a8 1a       	sub	r10, r24
    3a58:	b9 0a       	sbc	r11, r25
    3a5a:	ca 0a       	sbc	r12, r26
    3a5c:	db 0a       	sbc	r13, r27
    3a5e:	a0 92 90 21 	sts	0x2190, r10
    3a62:	b0 92 91 21 	sts	0x2191, r11
    3a66:	c0 92 92 21 	sts	0x2192, r12
    3a6a:	d0 92 93 21 	sts	0x2193, r13
	mc.steps[Z] = mc.target[Z]-mc.position[Z];
    3a6e:	80 91 7c 21 	lds	r24, 0x217C
    3a72:	90 91 7d 21 	lds	r25, 0x217D
    3a76:	a0 91 7e 21 	lds	r26, 0x217E
    3a7a:	b0 91 7f 21 	lds	r27, 0x217F
    3a7e:	19 01       	movw	r2, r18
    3a80:	2a 01       	movw	r4, r20
    3a82:	28 1a       	sub	r2, r24
    3a84:	39 0a       	sbc	r3, r25
    3a86:	4a 0a       	sbc	r4, r26
    3a88:	5b 0a       	sbc	r5, r27
    3a8a:	20 92 94 21 	sts	0x2194, r2
    3a8e:	30 92 95 21 	sts	0x2195, r3
    3a92:	40 92 96 21 	sts	0x2196, r4
    3a96:	50 92 97 21 	sts	0x2197, r5

	// skip zero length lines
	if ((mc.steps[X] + mc.steps[Y] + mc.steps[Z]) == 0) {
    3a9a:	d6 01       	movw	r26, r12
    3a9c:	c5 01       	movw	r24, r10
    3a9e:	8e 0d       	add	r24, r14
    3aa0:	9f 1d       	adc	r25, r15
    3aa2:	a0 1f       	adc	r26, r16
    3aa4:	b1 1f       	adc	r27, r17
    3aa6:	82 0d       	add	r24, r2
    3aa8:	93 1d       	adc	r25, r3
    3aaa:	a4 1d       	adc	r26, r4
    3aac:	b5 1d       	adc	r27, r5
    3aae:	00 97       	sbiw	r24, 0x00	; 0
    3ab0:	a1 05       	cpc	r26, r1
    3ab2:	b1 05       	cpc	r27, r1
    3ab4:	19 f4       	brne	.+6      	; 0x3abc <mc_line+0x18c>
    3ab6:	24 e1       	ldi	r18, 0x14	; 20
    3ab8:	30 e0       	ldi	r19, 0x00	; 0
    3aba:	72 c0       	rjmp	.+228    	; 0x3ba0 <mc_line+0x270>
		return (TG_ZERO_LENGTH_LINE);
	}

	if (invert_feed_rate) {
    3abc:	49 89       	ldd	r20, Y+17	; 0x11
    3abe:	5a 89       	ldd	r21, Y+18	; 0x12
    3ac0:	45 2b       	or	r20, r21
    3ac2:	59 f0       	breq	.+22     	; 0x3ada <mc_line+0x1aa>
		mc.microseconds = lround(ONE_MINUTE_OF_MICROSECONDS/feed_rate);
    3ac4:	60 ec       	ldi	r22, 0xC0	; 192
    3ac6:	71 ee       	ldi	r23, 0xE1	; 225
    3ac8:	84 e6       	ldi	r24, 0x64	; 100
    3aca:	9c e4       	ldi	r25, 0x4C	; 76
    3acc:	2d 85       	ldd	r18, Y+13	; 0x0d
    3ace:	3e 85       	ldd	r19, Y+14	; 0x0e
    3ad0:	4f 85       	ldd	r20, Y+15	; 0x0f
    3ad2:	58 89       	ldd	r21, Y+16	; 0x10
    3ad4:	0e 94 74 42 	call	0x84e8	; 0x84e8 <__divsf3>
    3ad8:	4a c0       	rjmp	.+148    	; 0x3b6e <mc_line+0x23e>
	} else {  // Ask Phythagoras to estimate how many mm next move is going to take
 		mc.mm_of_travel = sqrt(square(mc.steps[X]/CFG(X).steps_per_mm) + 
    3ada:	c8 01       	movw	r24, r16
    3adc:	b7 01       	movw	r22, r14
    3ade:	0e 94 0f 43 	call	0x861e	; 0x861e <__floatsisf>
    3ae2:	29 85       	ldd	r18, Y+9	; 0x09
    3ae4:	3a 85       	ldd	r19, Y+10	; 0x0a
    3ae6:	4b 85       	ldd	r20, Y+11	; 0x0b
    3ae8:	5c 85       	ldd	r21, Y+12	; 0x0c
    3aea:	0e 94 74 42 	call	0x84e8	; 0x84e8 <__divsf3>
    3aee:	0e 94 da 45 	call	0x8bb4	; 0x8bb4 <square>
    3af2:	3b 01       	movw	r6, r22
    3af4:	4c 01       	movw	r8, r24
    3af6:	c6 01       	movw	r24, r12
    3af8:	b5 01       	movw	r22, r10
    3afa:	0e 94 0f 43 	call	0x861e	; 0x861e <__floatsisf>
    3afe:	2d 81       	ldd	r18, Y+5	; 0x05
    3b00:	3e 81       	ldd	r19, Y+6	; 0x06
    3b02:	4f 81       	ldd	r20, Y+7	; 0x07
    3b04:	58 85       	ldd	r21, Y+8	; 0x08
    3b06:	0e 94 74 42 	call	0x84e8	; 0x84e8 <__divsf3>
    3b0a:	0e 94 da 45 	call	0x8bb4	; 0x8bb4 <square>
    3b0e:	5b 01       	movw	r10, r22
    3b10:	6c 01       	movw	r12, r24
    3b12:	c2 01       	movw	r24, r4
    3b14:	b1 01       	movw	r22, r2
    3b16:	0e 94 0f 43 	call	0x861e	; 0x861e <__floatsisf>
    3b1a:	29 81       	ldd	r18, Y+1	; 0x01
    3b1c:	3a 81       	ldd	r19, Y+2	; 0x02
    3b1e:	4b 81       	ldd	r20, Y+3	; 0x03
    3b20:	5c 81       	ldd	r21, Y+4	; 0x04
    3b22:	0e 94 74 42 	call	0x84e8	; 0x84e8 <__divsf3>
    3b26:	0e 94 da 45 	call	0x8bb4	; 0x8bb4 <square>
    3b2a:	7b 01       	movw	r14, r22
    3b2c:	8c 01       	movw	r16, r24
    3b2e:	c4 01       	movw	r24, r8
    3b30:	b3 01       	movw	r22, r6
    3b32:	a6 01       	movw	r20, r12
    3b34:	95 01       	movw	r18, r10
    3b36:	0e 94 ce 41 	call	0x839c	; 0x839c <__addsf3>
    3b3a:	a8 01       	movw	r20, r16
    3b3c:	97 01       	movw	r18, r14
    3b3e:	0e 94 ce 41 	call	0x839c	; 0x839c <__addsf3>
    3b42:	0e 94 9c 45 	call	0x8b38	; 0x8b38 <sqrt>
    3b46:	60 93 9c 21 	sts	0x219C, r22
    3b4a:	70 93 9d 21 	sts	0x219D, r23
    3b4e:	80 93 9e 21 	sts	0x219E, r24
    3b52:	90 93 9f 21 	sts	0x219F, r25
							   square(mc.steps[Y]/CFG(Y).steps_per_mm) + 
							   square(mc.steps[Z]/CFG(Z).steps_per_mm));
		mc.microseconds = lround((mc.mm_of_travel/feed_rate)*1000000);
    3b56:	2d 85       	ldd	r18, Y+13	; 0x0d
    3b58:	3e 85       	ldd	r19, Y+14	; 0x0e
    3b5a:	4f 85       	ldd	r20, Y+15	; 0x0f
    3b5c:	58 89       	ldd	r21, Y+16	; 0x10
    3b5e:	0e 94 74 42 	call	0x84e8	; 0x84e8 <__divsf3>
    3b62:	20 e0       	ldi	r18, 0x00	; 0
    3b64:	34 e2       	ldi	r19, 0x24	; 36
    3b66:	44 e7       	ldi	r20, 0x74	; 116
    3b68:	59 e4       	ldi	r21, 0x49	; 73
    3b6a:	0e 94 2f 45 	call	0x8a5e	; 0x8a5e <__mulsf3>
    3b6e:	0e 94 ff 44 	call	0x89fe	; 0x89fe <lround>
    3b72:	60 93 98 21 	sts	0x2198, r22
    3b76:	70 93 99 21 	sts	0x2199, r23
    3b7a:	80 93 9a 21 	sts	0x219A, r24
    3b7e:	90 93 9b 21 	sts	0x219B, r25
	}
	mc.line_state = MC_STATE_NEW;
    3b82:	81 e0       	ldi	r24, 0x01	; 1
    3b84:	80 93 73 21 	sts	0x2173, r24
	memcpy(mc.position, mc.target, sizeof(mc.target)); 	// record new robot position
    3b88:	e4 e7       	ldi	r30, 0x74	; 116
    3b8a:	f1 e2       	ldi	r31, 0x21	; 33
    3b8c:	df 01       	movw	r26, r30
    3b8e:	1c 96       	adiw	r26, 0x0c	; 12
    3b90:	8c e0       	ldi	r24, 0x0C	; 12
    3b92:	0d 90       	ld	r0, X+
    3b94:	01 92       	st	Z+, r0
    3b96:	81 50       	subi	r24, 0x01	; 1
    3b98:	e1 f7       	brne	.-8      	; 0x3b92 <mc_line+0x262>
	return (mc_line_continue());
    3b9a:	0e 94 b7 1b 	call	0x376e	; 0x376e <mc_line_continue>
    3b9e:	9c 01       	movw	r18, r24
}
    3ba0:	c9 01       	movw	r24, r18
    3ba2:	62 96       	adiw	r28, 0x12	; 18
    3ba4:	cd bf       	out	0x3d, r28	; 61
    3ba6:	de bf       	out	0x3e, r29	; 62
    3ba8:	cf 91       	pop	r28
    3baa:	df 91       	pop	r29
    3bac:	1f 91       	pop	r17
    3bae:	0f 91       	pop	r16
    3bb0:	ff 90       	pop	r15
    3bb2:	ef 90       	pop	r14
    3bb4:	df 90       	pop	r13
    3bb6:	cf 90       	pop	r12
    3bb8:	bf 90       	pop	r11
    3bba:	af 90       	pop	r10
    3bbc:	9f 90       	pop	r9
    3bbe:	8f 90       	pop	r8
    3bc0:	7f 90       	pop	r7
    3bc2:	6f 90       	pop	r6
    3bc4:	5f 90       	pop	r5
    3bc6:	4f 90       	pop	r4
    3bc8:	3f 90       	pop	r3
    3bca:	2f 90       	pop	r2
    3bcc:	08 95       	ret

00003bce <mc_arc_continue>:
 *	This only works because no ISRs queue this buffer, and this continuation 
 *	routine cannot be pre-empted. If these conditions change you need to 
 *	implement a critical region or mutex of some sort.
 */
int mc_arc_continue() 
{
    3bce:	8f 92       	push	r8
    3bd0:	9f 92       	push	r9
    3bd2:	af 92       	push	r10
    3bd4:	bf 92       	push	r11
    3bd6:	cf 92       	push	r12
    3bd8:	df 92       	push	r13
    3bda:	ef 92       	push	r14
    3bdc:	ff 92       	push	r15
    3bde:	0f 93       	push	r16
    3be0:	1f 93       	push	r17
	if (ma.arc_state == MC_STATE_OFF) {
    3be2:	80 91 ca 22 	lds	r24, 0x22CA
    3be6:	88 23       	and	r24, r24
    3be8:	19 f4       	brne	.+6      	; 0x3bf0 <mc_arc_continue+0x22>
    3bea:	23 e0       	ldi	r18, 0x03	; 3
    3bec:	30 e0       	ldi	r19, 0x00	; 0
    3bee:	dd c0       	rjmp	.+442    	; 0x3daa <mc_arc_continue+0x1dc>
		return (TG_NOOP);						// return NULL for non-started arc
	} else if (ma.arc_state == MC_STATE_NEW) {
    3bf0:	81 30       	cpi	r24, 0x01	; 1
    3bf2:	09 f0       	breq	.+2      	; 0x3bf6 <mc_arc_continue+0x28>
    3bf4:	ca c0       	rjmp	.+404    	; 0x3d8a <mc_arc_continue+0x1bc>
		ma.segment_counter=0;
    3bf6:	10 92 cd 22 	sts	0x22CD, r1
    3bfa:	10 92 ce 22 	sts	0x22CE, r1
		ma.arc_state = MC_STATE_RUNNING;
    3bfe:	82 e0       	ldi	r24, 0x02	; 2
    3c00:	80 93 ca 22 	sts	0x22CA, r24
    3c04:	c2 c0       	rjmp	.+388    	; 0x3d8a <mc_arc_continue+0x1bc>
	}
	while (ma.segment_counter <= ma.segments) {
		if (mv_test_move_buffer_full()) {	// this is where you would block
    3c06:	0e 94 1f 2d 	call	0x5a3e	; 0x5a3e <mv_test_move_buffer_full>
    3c0a:	88 23       	and	r24, r24
    3c0c:	19 f0       	breq	.+6      	; 0x3c14 <mc_arc_continue+0x46>
    3c0e:	22 e0       	ldi	r18, 0x02	; 2
    3c10:	30 e0       	ldi	r19, 0x00	; 0
    3c12:	cb c0       	rjmp	.+406    	; 0x3daa <mc_arc_continue+0x1dc>
			return (TG_EAGAIN);
		}
		ma.segment_counter++;
    3c14:	80 91 cd 22 	lds	r24, 0x22CD
    3c18:	90 91 ce 22 	lds	r25, 0x22CE
    3c1c:	01 96       	adiw	r24, 0x01	; 1
    3c1e:	80 93 cd 22 	sts	0x22CD, r24
    3c22:	90 93 ce 22 	sts	0x22CE, r25
		ma.theta += ma.theta_per_segment;
    3c26:	60 91 ef 22 	lds	r22, 0x22EF
    3c2a:	70 91 f0 22 	lds	r23, 0x22F0
    3c2e:	80 91 f1 22 	lds	r24, 0x22F1
    3c32:	90 91 f2 22 	lds	r25, 0x22F2
    3c36:	20 91 fb 22 	lds	r18, 0x22FB
    3c3a:	30 91 fc 22 	lds	r19, 0x22FC
    3c3e:	40 91 fd 22 	lds	r20, 0x22FD
    3c42:	50 91 fe 22 	lds	r21, 0x22FE
    3c46:	0e 94 ce 41 	call	0x839c	; 0x839c <__addsf3>
    3c4a:	7b 01       	movw	r14, r22
    3c4c:	8c 01       	movw	r16, r24
    3c4e:	cb 01       	movw	r24, r22
    3c50:	d8 01       	movw	r26, r16
    3c52:	80 93 ef 22 	sts	0x22EF, r24
    3c56:	90 93 f0 22 	sts	0x22F0, r25
    3c5a:	a0 93 f1 22 	sts	0x22F1, r26
    3c5e:	b0 93 f2 22 	sts	0x22F2, r27
		ma.dtarget[ma.axis_1] = ma.center_x+sin(ma.theta)*ma.radius;
    3c62:	b7 01       	movw	r22, r14
    3c64:	c8 01       	movw	r24, r16
    3c66:	0e 94 92 45 	call	0x8b24	; 0x8b24 <sin>
    3c6a:	80 90 f3 22 	lds	r8, 0x22F3
    3c6e:	90 90 f4 22 	lds	r9, 0x22F4
    3c72:	a0 90 f5 22 	lds	r10, 0x22F5
    3c76:	b0 90 f6 22 	lds	r11, 0x22F6
    3c7a:	c0 90 d1 22 	lds	r12, 0x22D1
    3c7e:	d0 90 d2 22 	lds	r13, 0x22D2
    3c82:	cc 0c       	add	r12, r12
    3c84:	dd 1c       	adc	r13, r13
    3c86:	cc 0c       	add	r12, r12
    3c88:	dd 1c       	adc	r13, r13
    3c8a:	2a ec       	ldi	r18, 0xCA	; 202
    3c8c:	32 e2       	ldi	r19, 0x22	; 34
    3c8e:	c2 0e       	add	r12, r18
    3c90:	d3 1e       	adc	r13, r19
    3c92:	a5 01       	movw	r20, r10
    3c94:	94 01       	movw	r18, r8
    3c96:	0e 94 2f 45 	call	0x8a5e	; 0x8a5e <__mulsf3>
    3c9a:	9b 01       	movw	r18, r22
    3c9c:	ac 01       	movw	r20, r24
    3c9e:	60 91 e7 22 	lds	r22, 0x22E7
    3ca2:	70 91 e8 22 	lds	r23, 0x22E8
    3ca6:	80 91 e9 22 	lds	r24, 0x22E9
    3caa:	90 91 ea 22 	lds	r25, 0x22EA
    3cae:	0e 94 ce 41 	call	0x839c	; 0x839c <__addsf3>
    3cb2:	f6 01       	movw	r30, r12
    3cb4:	65 87       	std	Z+13, r22	; 0x0d
    3cb6:	76 87       	std	Z+14, r23	; 0x0e
    3cb8:	87 87       	std	Z+15, r24	; 0x0f
    3cba:	90 8b       	std	Z+16, r25	; 0x10
		ma.dtarget[ma.axis_2] = ma.center_y+cos(ma.theta)*ma.radius;
    3cbc:	b7 01       	movw	r22, r14
    3cbe:	c8 01       	movw	r24, r16
    3cc0:	0e 94 71 42 	call	0x84e2	; 0x84e2 <cos>
    3cc4:	00 91 d3 22 	lds	r16, 0x22D3
    3cc8:	10 91 d4 22 	lds	r17, 0x22D4
    3ccc:	00 0f       	add	r16, r16
    3cce:	11 1f       	adc	r17, r17
    3cd0:	00 0f       	add	r16, r16
    3cd2:	11 1f       	adc	r17, r17
    3cd4:	06 53       	subi	r16, 0x36	; 54
    3cd6:	1d 4d       	sbci	r17, 0xDD	; 221
    3cd8:	a5 01       	movw	r20, r10
    3cda:	94 01       	movw	r18, r8
    3cdc:	0e 94 2f 45 	call	0x8a5e	; 0x8a5e <__mulsf3>
    3ce0:	9b 01       	movw	r18, r22
    3ce2:	ac 01       	movw	r20, r24
    3ce4:	60 91 eb 22 	lds	r22, 0x22EB
    3ce8:	70 91 ec 22 	lds	r23, 0x22EC
    3cec:	80 91 ed 22 	lds	r24, 0x22ED
    3cf0:	90 91 ee 22 	lds	r25, 0x22EE
    3cf4:	0e 94 ce 41 	call	0x839c	; 0x839c <__addsf3>
    3cf8:	f8 01       	movw	r30, r16
    3cfa:	65 87       	std	Z+13, r22	; 0x0d
    3cfc:	76 87       	std	Z+14, r23	; 0x0e
    3cfe:	87 87       	std	Z+15, r24	; 0x0f
    3d00:	90 8b       	std	Z+16, r25	; 0x10
		ma.dtarget[ma.axis_linear] += ma.linear_per_segment;
    3d02:	00 91 d5 22 	lds	r16, 0x22D5
    3d06:	10 91 d6 22 	lds	r17, 0x22D6
    3d0a:	00 0f       	add	r16, r16
    3d0c:	11 1f       	adc	r17, r17
    3d0e:	00 0f       	add	r16, r16
    3d10:	11 1f       	adc	r17, r17
    3d12:	06 53       	subi	r16, 0x36	; 54
    3d14:	1d 4d       	sbci	r17, 0xDD	; 221
    3d16:	f8 01       	movw	r30, r16
    3d18:	65 85       	ldd	r22, Z+13	; 0x0d
    3d1a:	76 85       	ldd	r23, Z+14	; 0x0e
    3d1c:	87 85       	ldd	r24, Z+15	; 0x0f
    3d1e:	90 89       	ldd	r25, Z+16	; 0x10
    3d20:	20 91 ff 22 	lds	r18, 0x22FF
    3d24:	30 91 00 23 	lds	r19, 0x2300
    3d28:	40 91 01 23 	lds	r20, 0x2301
    3d2c:	50 91 02 23 	lds	r21, 0x2302
    3d30:	0e 94 ce 41 	call	0x839c	; 0x839c <__addsf3>
    3d34:	f8 01       	movw	r30, r16
    3d36:	65 87       	std	Z+13, r22	; 0x0d
    3d38:	76 87       	std	Z+14, r23	; 0x0e
    3d3a:	87 87       	std	Z+15, r24	; 0x0f
    3d3c:	90 8b       	std	Z+16, r25	; 0x10
		mc_line(ma.dtarget[X], ma.dtarget[Y], ma.dtarget[Z], ma.feed_rate, ma.invert_feed_rate);
    3d3e:	60 91 d7 22 	lds	r22, 0x22D7
    3d42:	70 91 d8 22 	lds	r23, 0x22D8
    3d46:	80 91 d9 22 	lds	r24, 0x22D9
    3d4a:	90 91 da 22 	lds	r25, 0x22DA
    3d4e:	20 91 db 22 	lds	r18, 0x22DB
    3d52:	30 91 dc 22 	lds	r19, 0x22DC
    3d56:	40 91 dd 22 	lds	r20, 0x22DD
    3d5a:	50 91 de 22 	lds	r21, 0x22DE
    3d5e:	e0 90 df 22 	lds	r14, 0x22DF
    3d62:	f0 90 e0 22 	lds	r15, 0x22E0
    3d66:	00 91 e1 22 	lds	r16, 0x22E1
    3d6a:	10 91 e2 22 	lds	r17, 0x22E2
    3d6e:	a0 90 f7 22 	lds	r10, 0x22F7
    3d72:	b0 90 f8 22 	lds	r11, 0x22F8
    3d76:	c0 90 f9 22 	lds	r12, 0x22F9
    3d7a:	d0 90 fa 22 	lds	r13, 0x22FA
    3d7e:	80 90 cf 22 	lds	r8, 0x22CF
    3d82:	90 90 d0 22 	lds	r9, 0x22D0
    3d86:	0e 94 98 1c 	call	0x3930	; 0x3930 <mc_line>
		return (TG_NOOP);						// return NULL for non-started arc
	} else if (ma.arc_state == MC_STATE_NEW) {
		ma.segment_counter=0;
		ma.arc_state = MC_STATE_RUNNING;
	}
	while (ma.segment_counter <= ma.segments) {
    3d8a:	20 91 cd 22 	lds	r18, 0x22CD
    3d8e:	30 91 ce 22 	lds	r19, 0x22CE
    3d92:	80 91 cb 22 	lds	r24, 0x22CB
    3d96:	90 91 cc 22 	lds	r25, 0x22CC
    3d9a:	82 17       	cp	r24, r18
    3d9c:	93 07       	cpc	r25, r19
    3d9e:	0c f0       	brlt	.+2      	; 0x3da2 <mc_arc_continue+0x1d4>
    3da0:	32 cf       	rjmp	.-412    	; 0x3c06 <mc_arc_continue+0x38>
		ma.dtarget[ma.axis_1] = ma.center_x+sin(ma.theta)*ma.radius;
		ma.dtarget[ma.axis_2] = ma.center_y+cos(ma.theta)*ma.radius;
		ma.dtarget[ma.axis_linear] += ma.linear_per_segment;
		mc_line(ma.dtarget[X], ma.dtarget[Y], ma.dtarget[Z], ma.feed_rate, ma.invert_feed_rate);
  	}
	ma.arc_state = MC_STATE_OFF;		// arc is done. turn the generator off.
    3da2:	10 92 ca 22 	sts	0x22CA, r1
    3da6:	20 e0       	ldi	r18, 0x00	; 0
    3da8:	30 e0       	ldi	r19, 0x00	; 0
	return (TG_OK);
}
    3daa:	c9 01       	movw	r24, r18
    3dac:	1f 91       	pop	r17
    3dae:	0f 91       	pop	r16
    3db0:	ff 90       	pop	r15
    3db2:	ef 90       	pop	r14
    3db4:	df 90       	pop	r13
    3db6:	cf 90       	pop	r12
    3db8:	bf 90       	pop	r11
    3dba:	af 90       	pop	r10
    3dbc:	9f 90       	pop	r9
    3dbe:	8f 90       	pop	r8
    3dc0:	08 95       	ret

00003dc2 <mc_arc>:
 */

int mc_arc(double theta, double angular_travel, double radius, 
		   double linear_travel, int axis_1, int axis_2, int axis_linear, 
		   double feed_rate, int invert_feed_rate)
{
    3dc2:	2f 92       	push	r2
    3dc4:	3f 92       	push	r3
    3dc6:	4f 92       	push	r4
    3dc8:	5f 92       	push	r5
    3dca:	6f 92       	push	r6
    3dcc:	7f 92       	push	r7
    3dce:	8f 92       	push	r8
    3dd0:	9f 92       	push	r9
    3dd2:	af 92       	push	r10
    3dd4:	bf 92       	push	r11
    3dd6:	cf 92       	push	r12
    3dd8:	df 92       	push	r13
    3dda:	ef 92       	push	r14
    3ddc:	ff 92       	push	r15
    3dde:	0f 93       	push	r16
    3de0:	1f 93       	push	r17
    3de2:	df 93       	push	r29
    3de4:	cf 93       	push	r28
    3de6:	cd b7       	in	r28, 0x3d	; 61
    3de8:	de b7       	in	r29, 0x3e	; 62
    3dea:	28 97       	sbiw	r28, 0x08	; 8
    3dec:	cd bf       	out	0x3d, r28	; 61
    3dee:	de bf       	out	0x3e, r29	; 62
    3df0:	69 83       	std	Y+1, r22	; 0x01
    3df2:	7a 83       	std	Y+2, r23	; 0x02
    3df4:	8b 83       	std	Y+3, r24	; 0x03
    3df6:	9c 83       	std	Y+4, r25	; 0x04
    3df8:	29 01       	movw	r4, r18
    3dfa:	3a 01       	movw	r6, r20
    3dfc:	ed 82       	std	Y+5, r14	; 0x05
    3dfe:	fe 82       	std	Y+6, r15	; 0x06
    3e00:	0f 83       	std	Y+7, r16	; 0x07
    3e02:	18 87       	std	Y+8, r17	; 0x08
    3e04:	2e 8c       	ldd	r2, Y+30	; 0x1e
    3e06:	3f 8c       	ldd	r3, Y+31	; 0x1f
	// load the arc struct
	ma.theta = theta;
    3e08:	60 93 ef 22 	sts	0x22EF, r22
    3e0c:	70 93 f0 22 	sts	0x22F0, r23
    3e10:	80 93 f1 22 	sts	0x22F1, r24
    3e14:	90 93 f2 22 	sts	0x22F2, r25
	ma.radius = radius;
    3e18:	e0 92 f3 22 	sts	0x22F3, r14
    3e1c:	f0 92 f4 22 	sts	0x22F4, r15
    3e20:	00 93 f5 22 	sts	0x22F5, r16
    3e24:	10 93 f6 22 	sts	0x22F6, r17
	ma.angular_travel = angular_travel;
    3e28:	20 93 03 23 	sts	0x2303, r18
    3e2c:	30 93 04 23 	sts	0x2304, r19
    3e30:	40 93 05 23 	sts	0x2305, r20
    3e34:	50 93 06 23 	sts	0x2306, r21
	ma.linear_travel = linear_travel;
    3e38:	a0 92 07 23 	sts	0x2307, r10
    3e3c:	b0 92 08 23 	sts	0x2308, r11
    3e40:	c0 92 09 23 	sts	0x2309, r12
    3e44:	d0 92 0a 23 	sts	0x230A, r13
	ma.feed_rate = feed_rate;
    3e48:	8a a1       	ldd	r24, Y+34	; 0x22
    3e4a:	9b a1       	ldd	r25, Y+35	; 0x23
    3e4c:	ac a1       	ldd	r26, Y+36	; 0x24
    3e4e:	bd a1       	ldd	r27, Y+37	; 0x25
    3e50:	80 93 f7 22 	sts	0x22F7, r24
    3e54:	90 93 f8 22 	sts	0x22F8, r25
    3e58:	a0 93 f9 22 	sts	0x22F9, r26
    3e5c:	b0 93 fa 22 	sts	0x22FA, r27
	ma.invert_feed_rate = invert_feed_rate;
    3e60:	ae a1       	ldd	r26, Y+38	; 0x26
    3e62:	bf a1       	ldd	r27, Y+39	; 0x27
    3e64:	a0 93 cf 22 	sts	0x22CF, r26
    3e68:	b0 93 d0 22 	sts	0x22D0, r27
	ma.axis_1 = axis_1;
    3e6c:	80 92 d1 22 	sts	0x22D1, r8
    3e70:	90 92 d2 22 	sts	0x22D2, r9
	ma.axis_2 = axis_2;
    3e74:	20 92 d3 22 	sts	0x22D3, r2
    3e78:	30 92 d4 22 	sts	0x22D4, r3
	ma.axis_linear = axis_linear;
    3e7c:	e8 a1       	ldd	r30, Y+32	; 0x20
    3e7e:	f9 a1       	ldd	r31, Y+33	; 0x21
    3e80:	e0 93 d5 22 	sts	0x22D5, r30
    3e84:	f0 93 d6 22 	sts	0x22D6, r31
	ma.mm_of_travel = hypot(ma.angular_travel*ma.radius, labs(ma.linear_travel));
    3e88:	ca 01       	movw	r24, r20
    3e8a:	b9 01       	movw	r22, r18
    3e8c:	a8 01       	movw	r20, r16
    3e8e:	97 01       	movw	r18, r14
    3e90:	0e 94 2f 45 	call	0x8a5e	; 0x8a5e <__mulsf3>
    3e94:	7b 01       	movw	r14, r22
    3e96:	8c 01       	movw	r16, r24
    3e98:	c6 01       	movw	r24, r12
    3e9a:	b5 01       	movw	r22, r10
    3e9c:	0e 94 dc 42 	call	0x85b8	; 0x85b8 <__fixsfsi>
    3ea0:	97 ff       	sbrs	r25, 7
    3ea2:	07 c0       	rjmp	.+14     	; 0x3eb2 <mc_arc+0xf0>
    3ea4:	90 95       	com	r25
    3ea6:	80 95       	com	r24
    3ea8:	70 95       	com	r23
    3eaa:	61 95       	neg	r22
    3eac:	7f 4f       	sbci	r23, 0xFF	; 255
    3eae:	8f 4f       	sbci	r24, 0xFF	; 255
    3eb0:	9f 4f       	sbci	r25, 0xFF	; 255
    3eb2:	0e 94 0f 43 	call	0x861e	; 0x861e <__floatsisf>
    3eb6:	9b 01       	movw	r18, r22
    3eb8:	ac 01       	movw	r20, r24
    3eba:	c8 01       	movw	r24, r16
    3ebc:	b7 01       	movw	r22, r14
    3ebe:	0e 94 6a 44 	call	0x88d4	; 0x88d4 <hypot>
    3ec2:	7b 01       	movw	r14, r22
    3ec4:	8c 01       	movw	r16, r24
    3ec6:	60 93 e3 22 	sts	0x22E3, r22
    3eca:	70 93 e4 22 	sts	0x22E4, r23
    3ece:	80 93 e5 22 	sts	0x22E5, r24
    3ed2:	90 93 e6 22 	sts	0x22E6, r25
	
	if (ma.mm_of_travel < MM_PER_ARC_SEGMENT) { 	// too short to draw
    3ed6:	2d ec       	ldi	r18, 0xCD	; 205
    3ed8:	3c ec       	ldi	r19, 0xCC	; 204
    3eda:	4c e4       	ldi	r20, 0x4C	; 76
    3edc:	5d e3       	ldi	r21, 0x3D	; 61
    3ede:	0e 94 6d 42 	call	0x84da	; 0x84da <__cmpsf2>
    3ee2:	88 23       	and	r24, r24
    3ee4:	1c f4       	brge	.+6      	; 0x3eec <mc_arc+0x12a>
    3ee6:	23 e1       	ldi	r18, 0x13	; 19
    3ee8:	30 e0       	ldi	r19, 0x00	; 0
    3eea:	fb c0       	rjmp	.+502    	; 0x40e2 <mc_arc+0x320>
		return (TG_ARC_SPECIFICATION_ERROR);
	}
	ma.segments = ceil(ma.mm_of_travel/cfg.mm_per_arc_segment);
    3eec:	c8 01       	movw	r24, r16
    3eee:	b7 01       	movw	r22, r14
    3ef0:	20 91 5e 22 	lds	r18, 0x225E
    3ef4:	30 91 5f 22 	lds	r19, 0x225F
    3ef8:	40 91 60 22 	lds	r20, 0x2260
    3efc:	50 91 61 22 	lds	r21, 0x2261
    3f00:	0e 94 74 42 	call	0x84e8	; 0x84e8 <__divsf3>
    3f04:	0e 94 5a 42 	call	0x84b4	; 0x84b4 <ceil>
    3f08:	0e 94 dc 42 	call	0x85b8	; 0x85b8 <__fixsfsi>
    3f0c:	8b 01       	movw	r16, r22
    3f0e:	60 93 cb 22 	sts	0x22CB, r22
    3f12:	70 93 cc 22 	sts	0x22CC, r23
  
  	/*  Multiply inverse feed_rate to compensate for the fact that this movement 
	 *	is approximated by a number of discrete segments. 
	 *	The inverse feed_rate should be correct for the sum of all segments.*/

	if (ma.invert_feed_rate) { 
    3f16:	8e a1       	ldd	r24, Y+38	; 0x26
    3f18:	9f a1       	ldd	r25, Y+39	; 0x27
    3f1a:	89 2b       	or	r24, r25
    3f1c:	b9 f0       	breq	.+46     	; 0x3f4c <mc_arc+0x18a>
		ma.feed_rate *= ma.segments; 
    3f1e:	b8 01       	movw	r22, r16
    3f20:	88 27       	eor	r24, r24
    3f22:	77 fd       	sbrc	r23, 7
    3f24:	80 95       	com	r24
    3f26:	98 2f       	mov	r25, r24
    3f28:	0e 94 0f 43 	call	0x861e	; 0x861e <__floatsisf>
    3f2c:	9b 01       	movw	r18, r22
    3f2e:	ac 01       	movw	r20, r24
    3f30:	6a a1       	ldd	r22, Y+34	; 0x22
    3f32:	7b a1       	ldd	r23, Y+35	; 0x23
    3f34:	8c a1       	ldd	r24, Y+36	; 0x24
    3f36:	9d a1       	ldd	r25, Y+37	; 0x25
    3f38:	0e 94 2f 45 	call	0x8a5e	; 0x8a5e <__mulsf3>
    3f3c:	60 93 f7 22 	sts	0x22F7, r22
    3f40:	70 93 f8 22 	sts	0x22F8, r23
    3f44:	80 93 f9 22 	sts	0x22F9, r24
    3f48:	90 93 fa 22 	sts	0x22FA, r25
	}
	ma.theta_per_segment = ma.angular_travel/ma.segments;
    3f4c:	b8 01       	movw	r22, r16
    3f4e:	88 27       	eor	r24, r24
    3f50:	77 fd       	sbrc	r23, 7
    3f52:	80 95       	com	r24
    3f54:	98 2f       	mov	r25, r24
    3f56:	0e 94 0f 43 	call	0x861e	; 0x861e <__floatsisf>
    3f5a:	7b 01       	movw	r14, r22
    3f5c:	8c 01       	movw	r16, r24
    3f5e:	c3 01       	movw	r24, r6
    3f60:	b2 01       	movw	r22, r4
    3f62:	a8 01       	movw	r20, r16
    3f64:	97 01       	movw	r18, r14
    3f66:	0e 94 74 42 	call	0x84e8	; 0x84e8 <__divsf3>
    3f6a:	60 93 fb 22 	sts	0x22FB, r22
    3f6e:	70 93 fc 22 	sts	0x22FC, r23
    3f72:	80 93 fd 22 	sts	0x22FD, r24
    3f76:	90 93 fe 22 	sts	0x22FE, r25
	ma.linear_per_segment = ma.linear_travel/ma.segments;
    3f7a:	c6 01       	movw	r24, r12
    3f7c:	b5 01       	movw	r22, r10
    3f7e:	a8 01       	movw	r20, r16
    3f80:	97 01       	movw	r18, r14
    3f82:	0e 94 74 42 	call	0x84e8	; 0x84e8 <__divsf3>
    3f86:	60 93 ff 22 	sts	0x22FF, r22
    3f8a:	70 93 00 23 	sts	0x2300, r23
    3f8e:	80 93 01 23 	sts	0x2301, r24
    3f92:	90 93 02 23 	sts	0x2302, r25
	ma.center_x = (mc.position[ma.axis_1]/CFG(ma.axis_1).steps_per_mm)-sin(ma.theta)*ma.radius;
    3f96:	69 81       	ldd	r22, Y+1	; 0x01
    3f98:	7a 81       	ldd	r23, Y+2	; 0x02
    3f9a:	8b 81       	ldd	r24, Y+3	; 0x03
    3f9c:	9c 81       	ldd	r25, Y+4	; 0x04
    3f9e:	0e 94 92 45 	call	0x8b24	; 0x8b24 <sin>
    3fa2:	5b 01       	movw	r10, r22
    3fa4:	6c 01       	movw	r12, r24
    3fa6:	f4 01       	movw	r30, r8
    3fa8:	ee 0f       	add	r30, r30
    3faa:	ff 1f       	adc	r31, r31
    3fac:	ee 0f       	add	r30, r30
    3fae:	ff 1f       	adc	r31, r31
    3fb0:	ed 58       	subi	r30, 0x8D	; 141
    3fb2:	fe 4d       	sbci	r31, 0xDE	; 222
    3fb4:	61 81       	ldd	r22, Z+1	; 0x01
    3fb6:	72 81       	ldd	r23, Z+2	; 0x02
    3fb8:	83 81       	ldd	r24, Z+3	; 0x03
    3fba:	94 81       	ldd	r25, Z+4	; 0x04
    3fbc:	0e 94 0f 43 	call	0x861e	; 0x861e <__floatsisf>
    3fc0:	f4 01       	movw	r30, r8
    3fc2:	ee 0f       	add	r30, r30
    3fc4:	ff 1f       	adc	r31, r31
    3fc6:	e8 0d       	add	r30, r8
    3fc8:	f9 1d       	adc	r31, r9
    3fca:	03 e0       	ldi	r16, 0x03	; 3
    3fcc:	ee 0f       	add	r30, r30
    3fce:	ff 1f       	adc	r31, r31
    3fd0:	0a 95       	dec	r16
    3fd2:	e1 f7       	brne	.-8      	; 0x3fcc <mc_arc+0x20a>
    3fd4:	e4 5a       	subi	r30, 0xA4	; 164
    3fd6:	fd 4d       	sbci	r31, 0xDD	; 221
    3fd8:	21 a1       	ldd	r18, Z+33	; 0x21
    3fda:	32 a1       	ldd	r19, Z+34	; 0x22
    3fdc:	43 a1       	ldd	r20, Z+35	; 0x23
    3fde:	54 a1       	ldd	r21, Z+36	; 0x24
    3fe0:	0e 94 74 42 	call	0x84e8	; 0x84e8 <__divsf3>
    3fe4:	7b 01       	movw	r14, r22
    3fe6:	8c 01       	movw	r16, r24
    3fe8:	c6 01       	movw	r24, r12
    3fea:	b5 01       	movw	r22, r10
    3fec:	2d 81       	ldd	r18, Y+5	; 0x05
    3fee:	3e 81       	ldd	r19, Y+6	; 0x06
    3ff0:	4f 81       	ldd	r20, Y+7	; 0x07
    3ff2:	58 85       	ldd	r21, Y+8	; 0x08
    3ff4:	0e 94 2f 45 	call	0x8a5e	; 0x8a5e <__mulsf3>
    3ff8:	9b 01       	movw	r18, r22
    3ffa:	ac 01       	movw	r20, r24
    3ffc:	c8 01       	movw	r24, r16
    3ffe:	b7 01       	movw	r22, r14
    4000:	0e 94 cd 41 	call	0x839a	; 0x839a <__subsf3>
    4004:	60 93 e7 22 	sts	0x22E7, r22
    4008:	70 93 e8 22 	sts	0x22E8, r23
    400c:	80 93 e9 22 	sts	0x22E9, r24
    4010:	90 93 ea 22 	sts	0x22EA, r25
	ma.center_y = (mc.position[ma.axis_2]/CFG(ma.axis_2).steps_per_mm)-cos(ma.theta)*ma.radius;
    4014:	69 81       	ldd	r22, Y+1	; 0x01
    4016:	7a 81       	ldd	r23, Y+2	; 0x02
    4018:	8b 81       	ldd	r24, Y+3	; 0x03
    401a:	9c 81       	ldd	r25, Y+4	; 0x04
    401c:	0e 94 71 42 	call	0x84e2	; 0x84e2 <cos>
    4020:	5b 01       	movw	r10, r22
    4022:	6c 01       	movw	r12, r24
    4024:	f1 01       	movw	r30, r2
    4026:	ee 0f       	add	r30, r30
    4028:	ff 1f       	adc	r31, r31
    402a:	ee 0f       	add	r30, r30
    402c:	ff 1f       	adc	r31, r31
    402e:	ed 58       	subi	r30, 0x8D	; 141
    4030:	fe 4d       	sbci	r31, 0xDE	; 222
    4032:	61 81       	ldd	r22, Z+1	; 0x01
    4034:	72 81       	ldd	r23, Z+2	; 0x02
    4036:	83 81       	ldd	r24, Z+3	; 0x03
    4038:	94 81       	ldd	r25, Z+4	; 0x04
    403a:	0e 94 0f 43 	call	0x861e	; 0x861e <__floatsisf>
    403e:	f1 01       	movw	r30, r2
    4040:	ee 0f       	add	r30, r30
    4042:	ff 1f       	adc	r31, r31
    4044:	e2 0d       	add	r30, r2
    4046:	f3 1d       	adc	r31, r3
    4048:	a3 e0       	ldi	r26, 0x03	; 3
    404a:	ee 0f       	add	r30, r30
    404c:	ff 1f       	adc	r31, r31
    404e:	aa 95       	dec	r26
    4050:	e1 f7       	brne	.-8      	; 0x404a <mc_arc+0x288>
    4052:	e4 5a       	subi	r30, 0xA4	; 164
    4054:	fd 4d       	sbci	r31, 0xDD	; 221
    4056:	21 a1       	ldd	r18, Z+33	; 0x21
    4058:	32 a1       	ldd	r19, Z+34	; 0x22
    405a:	43 a1       	ldd	r20, Z+35	; 0x23
    405c:	54 a1       	ldd	r21, Z+36	; 0x24
    405e:	0e 94 74 42 	call	0x84e8	; 0x84e8 <__divsf3>
    4062:	7b 01       	movw	r14, r22
    4064:	8c 01       	movw	r16, r24
    4066:	c6 01       	movw	r24, r12
    4068:	b5 01       	movw	r22, r10
    406a:	2d 81       	ldd	r18, Y+5	; 0x05
    406c:	3e 81       	ldd	r19, Y+6	; 0x06
    406e:	4f 81       	ldd	r20, Y+7	; 0x07
    4070:	58 85       	ldd	r21, Y+8	; 0x08
    4072:	0e 94 2f 45 	call	0x8a5e	; 0x8a5e <__mulsf3>
    4076:	9b 01       	movw	r18, r22
    4078:	ac 01       	movw	r20, r24
    407a:	c8 01       	movw	r24, r16
    407c:	b7 01       	movw	r22, r14
    407e:	0e 94 cd 41 	call	0x839a	; 0x839a <__subsf3>
    4082:	60 93 eb 22 	sts	0x22EB, r22
    4086:	70 93 ec 22 	sts	0x22EC, r23
    408a:	80 93 ed 22 	sts	0x22ED, r24
    408e:	90 93 ee 22 	sts	0x22EE, r25

  	// 	A vector to track the end point of each segment. Initialize the linear axis
	ma.dtarget[ma.axis_linear] = mc.position[ma.axis_linear]/CFG(Z).steps_per_mm;
    4092:	e8 a1       	ldd	r30, Y+32	; 0x20
    4094:	f9 a1       	ldd	r31, Y+33	; 0x21
    4096:	ee 0f       	add	r30, r30
    4098:	ff 1f       	adc	r31, r31
    409a:	ee 0f       	add	r30, r30
    409c:	ff 1f       	adc	r31, r31
    409e:	8f 01       	movw	r16, r30
    40a0:	06 53       	subi	r16, 0x36	; 54
    40a2:	1d 4d       	sbci	r17, 0xDD	; 221
    40a4:	ed 58       	subi	r30, 0x8D	; 141
    40a6:	fe 4d       	sbci	r31, 0xDE	; 222
    40a8:	61 81       	ldd	r22, Z+1	; 0x01
    40aa:	72 81       	ldd	r23, Z+2	; 0x02
    40ac:	83 81       	ldd	r24, Z+3	; 0x03
    40ae:	94 81       	ldd	r25, Z+4	; 0x04
    40b0:	0e 94 0f 43 	call	0x861e	; 0x861e <__floatsisf>
    40b4:	20 91 ad 22 	lds	r18, 0x22AD
    40b8:	30 91 ae 22 	lds	r19, 0x22AE
    40bc:	40 91 af 22 	lds	r20, 0x22AF
    40c0:	50 91 b0 22 	lds	r21, 0x22B0
    40c4:	0e 94 74 42 	call	0x84e8	; 0x84e8 <__divsf3>
    40c8:	d8 01       	movw	r26, r16
    40ca:	1d 96       	adiw	r26, 0x0d	; 13
    40cc:	6d 93       	st	X+, r22
    40ce:	7d 93       	st	X+, r23
    40d0:	8d 93       	st	X+, r24
    40d2:	9c 93       	st	X, r25
    40d4:	50 97       	sbiw	r26, 0x10	; 16
	ma.arc_state = MC_STATE_NEW;	// new arc, NJ. (I'm here all week. Try the veal)
    40d6:	81 e0       	ldi	r24, 0x01	; 1
    40d8:	80 93 ca 22 	sts	0x22CA, r24
	return (mc_arc_continue());
    40dc:	0e 94 e7 1d 	call	0x3bce	; 0x3bce <mc_arc_continue>
    40e0:	9c 01       	movw	r18, r24
}
    40e2:	c9 01       	movw	r24, r18
    40e4:	28 96       	adiw	r28, 0x08	; 8
    40e6:	cd bf       	out	0x3d, r28	; 61
    40e8:	de bf       	out	0x3e, r29	; 62
    40ea:	cf 91       	pop	r28
    40ec:	df 91       	pop	r29
    40ee:	1f 91       	pop	r17
    40f0:	0f 91       	pop	r16
    40f2:	ff 90       	pop	r15
    40f4:	ef 90       	pop	r14
    40f6:	df 90       	pop	r13
    40f8:	cf 90       	pop	r12
    40fa:	bf 90       	pop	r11
    40fc:	af 90       	pop	r10
    40fe:	9f 90       	pop	r9
    4100:	8f 90       	pop	r8
    4102:	7f 90       	pop	r7
    4104:	6f 90       	pop	r6
    4106:	5f 90       	pop	r5
    4108:	4f 90       	pop	r4
    410a:	3f 90       	pop	r3
    410c:	2f 90       	pop	r2
    410e:	08 95       	ret

00004110 <mc_arc_blocking>:
 *	The length of each segment is configured in config.h by setting MM_PER_ARC_SEGMENT.  
 */

int mc_arc_blocking(double theta, double angular_travel, double radius, double linear_travel, 
	int axis_1, int axis_2, int axis_linear, double feed_rate, int invert_feed_rate)
{
    4110:	2f 92       	push	r2
    4112:	3f 92       	push	r3
    4114:	4f 92       	push	r4
    4116:	5f 92       	push	r5
    4118:	6f 92       	push	r6
    411a:	7f 92       	push	r7
    411c:	8f 92       	push	r8
    411e:	9f 92       	push	r9
    4120:	af 92       	push	r10
    4122:	bf 92       	push	r11
    4124:	cf 92       	push	r12
    4126:	df 92       	push	r13
    4128:	ef 92       	push	r14
    412a:	ff 92       	push	r15
    412c:	0f 93       	push	r16
    412e:	1f 93       	push	r17
    4130:	df 93       	push	r29
    4132:	cf 93       	push	r28
    4134:	cd b7       	in	r28, 0x3d	; 61
    4136:	de b7       	in	r29, 0x3e	; 62
    4138:	28 97       	sbiw	r28, 0x08	; 8
    413a:	cd bf       	out	0x3d, r28	; 61
    413c:	de bf       	out	0x3e, r29	; 62
    413e:	69 83       	std	Y+1, r22	; 0x01
    4140:	7a 83       	std	Y+2, r23	; 0x02
    4142:	8b 83       	std	Y+3, r24	; 0x03
    4144:	9c 83       	std	Y+4, r25	; 0x04
    4146:	29 01       	movw	r4, r18
    4148:	3a 01       	movw	r6, r20
    414a:	ed 82       	std	Y+5, r14	; 0x05
    414c:	fe 82       	std	Y+6, r15	; 0x06
    414e:	0f 83       	std	Y+7, r16	; 0x07
    4150:	18 87       	std	Y+8, r17	; 0x08
    4152:	2e 8c       	ldd	r2, Y+30	; 0x1e
    4154:	3f 8c       	ldd	r3, Y+31	; 0x1f
	// load the arc struct
	ma.theta = theta;
    4156:	60 93 ef 22 	sts	0x22EF, r22
    415a:	70 93 f0 22 	sts	0x22F0, r23
    415e:	80 93 f1 22 	sts	0x22F1, r24
    4162:	90 93 f2 22 	sts	0x22F2, r25
	ma.radius = radius;
    4166:	e0 92 f3 22 	sts	0x22F3, r14
    416a:	f0 92 f4 22 	sts	0x22F4, r15
    416e:	00 93 f5 22 	sts	0x22F5, r16
    4172:	10 93 f6 22 	sts	0x22F6, r17
	ma.angular_travel = angular_travel;
    4176:	20 93 03 23 	sts	0x2303, r18
    417a:	30 93 04 23 	sts	0x2304, r19
    417e:	40 93 05 23 	sts	0x2305, r20
    4182:	50 93 06 23 	sts	0x2306, r21
	ma.linear_travel = linear_travel;
    4186:	a0 92 07 23 	sts	0x2307, r10
    418a:	b0 92 08 23 	sts	0x2308, r11
    418e:	c0 92 09 23 	sts	0x2309, r12
    4192:	d0 92 0a 23 	sts	0x230A, r13
	ma.feed_rate = feed_rate;
    4196:	8a a1       	ldd	r24, Y+34	; 0x22
    4198:	9b a1       	ldd	r25, Y+35	; 0x23
    419a:	ac a1       	ldd	r26, Y+36	; 0x24
    419c:	bd a1       	ldd	r27, Y+37	; 0x25
    419e:	80 93 f7 22 	sts	0x22F7, r24
    41a2:	90 93 f8 22 	sts	0x22F8, r25
    41a6:	a0 93 f9 22 	sts	0x22F9, r26
    41aa:	b0 93 fa 22 	sts	0x22FA, r27
	ma.invert_feed_rate = invert_feed_rate;
    41ae:	ae a1       	ldd	r26, Y+38	; 0x26
    41b0:	bf a1       	ldd	r27, Y+39	; 0x27
    41b2:	a0 93 cf 22 	sts	0x22CF, r26
    41b6:	b0 93 d0 22 	sts	0x22D0, r27
	ma.axis_1 = axis_1;
    41ba:	80 92 d1 22 	sts	0x22D1, r8
    41be:	90 92 d2 22 	sts	0x22D2, r9
	ma.axis_2 = axis_2;
    41c2:	20 92 d3 22 	sts	0x22D3, r2
    41c6:	30 92 d4 22 	sts	0x22D4, r3
	ma.axis_linear = axis_linear;
    41ca:	e8 a1       	ldd	r30, Y+32	; 0x20
    41cc:	f9 a1       	ldd	r31, Y+33	; 0x21
    41ce:	e0 93 d5 22 	sts	0x22D5, r30
    41d2:	f0 93 d6 22 	sts	0x22D6, r31
	ma.mm_of_travel = hypot(ma.angular_travel*ma.radius, labs(ma.linear_travel));
    41d6:	ca 01       	movw	r24, r20
    41d8:	b9 01       	movw	r22, r18
    41da:	a8 01       	movw	r20, r16
    41dc:	97 01       	movw	r18, r14
    41de:	0e 94 2f 45 	call	0x8a5e	; 0x8a5e <__mulsf3>
    41e2:	7b 01       	movw	r14, r22
    41e4:	8c 01       	movw	r16, r24
    41e6:	c6 01       	movw	r24, r12
    41e8:	b5 01       	movw	r22, r10
    41ea:	0e 94 dc 42 	call	0x85b8	; 0x85b8 <__fixsfsi>
    41ee:	97 ff       	sbrs	r25, 7
    41f0:	07 c0       	rjmp	.+14     	; 0x4200 <mc_arc_blocking+0xf0>
    41f2:	90 95       	com	r25
    41f4:	80 95       	com	r24
    41f6:	70 95       	com	r23
    41f8:	61 95       	neg	r22
    41fa:	7f 4f       	sbci	r23, 0xFF	; 255
    41fc:	8f 4f       	sbci	r24, 0xFF	; 255
    41fe:	9f 4f       	sbci	r25, 0xFF	; 255
    4200:	0e 94 0f 43 	call	0x861e	; 0x861e <__floatsisf>
    4204:	9b 01       	movw	r18, r22
    4206:	ac 01       	movw	r20, r24
    4208:	c8 01       	movw	r24, r16
    420a:	b7 01       	movw	r22, r14
    420c:	0e 94 6a 44 	call	0x88d4	; 0x88d4 <hypot>
    4210:	7b 01       	movw	r14, r22
    4212:	8c 01       	movw	r16, r24
    4214:	60 93 e3 22 	sts	0x22E3, r22
    4218:	70 93 e4 22 	sts	0x22E4, r23
    421c:	80 93 e5 22 	sts	0x22E5, r24
    4220:	90 93 e6 22 	sts	0x22E6, r25
	
	if (ma.mm_of_travel < MM_PER_ARC_SEGMENT) { 	// too short to draw
    4224:	2d ec       	ldi	r18, 0xCD	; 205
    4226:	3c ec       	ldi	r19, 0xCC	; 204
    4228:	4c e4       	ldi	r20, 0x4C	; 76
    422a:	5d e3       	ldi	r21, 0x3D	; 61
    422c:	0e 94 6d 42 	call	0x84da	; 0x84da <__cmpsf2>
    4230:	88 23       	and	r24, r24
    4232:	1c f4       	brge	.+6      	; 0x423a <mc_arc_blocking+0x12a>
    4234:	23 e1       	ldi	r18, 0x13	; 19
    4236:	30 e0       	ldi	r19, 0x00	; 0
    4238:	c7 c1       	rjmp	.+910    	; 0x45c8 <mc_arc_blocking+0x4b8>
		return (TG_ARC_SPECIFICATION_ERROR);			
	}
	ma.segments = ceil(ma.mm_of_travel/cfg.mm_per_arc_segment);
    423a:	c8 01       	movw	r24, r16
    423c:	b7 01       	movw	r22, r14
    423e:	20 91 5e 22 	lds	r18, 0x225E
    4242:	30 91 5f 22 	lds	r19, 0x225F
    4246:	40 91 60 22 	lds	r20, 0x2260
    424a:	50 91 61 22 	lds	r21, 0x2261
    424e:	0e 94 74 42 	call	0x84e8	; 0x84e8 <__divsf3>
    4252:	0e 94 5a 42 	call	0x84b4	; 0x84b4 <ceil>
    4256:	0e 94 dc 42 	call	0x85b8	; 0x85b8 <__fixsfsi>
    425a:	8b 01       	movw	r16, r22
    425c:	60 93 cb 22 	sts	0x22CB, r22
    4260:	70 93 cc 22 	sts	0x22CC, r23
  
  	/*  Multiply inverse feed_rate to compensate for the fact that this movement
	 *	is approximated by a number of discrete segments. 
	 *	The inverse feed_rate should be correct for the sum of all segments.
	 */
	if (ma.invert_feed_rate) { 
    4264:	2e a1       	ldd	r18, Y+38	; 0x26
    4266:	3f a1       	ldd	r19, Y+39	; 0x27
    4268:	23 2b       	or	r18, r19
    426a:	b9 f0       	breq	.+46     	; 0x429a <mc_arc_blocking+0x18a>
		ma.feed_rate *= ma.segments; 
    426c:	b8 01       	movw	r22, r16
    426e:	88 27       	eor	r24, r24
    4270:	77 fd       	sbrc	r23, 7
    4272:	80 95       	com	r24
    4274:	98 2f       	mov	r25, r24
    4276:	0e 94 0f 43 	call	0x861e	; 0x861e <__floatsisf>
    427a:	9b 01       	movw	r18, r22
    427c:	ac 01       	movw	r20, r24
    427e:	6a a1       	ldd	r22, Y+34	; 0x22
    4280:	7b a1       	ldd	r23, Y+35	; 0x23
    4282:	8c a1       	ldd	r24, Y+36	; 0x24
    4284:	9d a1       	ldd	r25, Y+37	; 0x25
    4286:	0e 94 2f 45 	call	0x8a5e	; 0x8a5e <__mulsf3>
    428a:	60 93 f7 22 	sts	0x22F7, r22
    428e:	70 93 f8 22 	sts	0x22F8, r23
    4292:	80 93 f9 22 	sts	0x22F9, r24
    4296:	90 93 fa 22 	sts	0x22FA, r25
	}
	ma.theta_per_segment = ma.angular_travel/ma.segments;
    429a:	b8 01       	movw	r22, r16
    429c:	88 27       	eor	r24, r24
    429e:	77 fd       	sbrc	r23, 7
    42a0:	80 95       	com	r24
    42a2:	98 2f       	mov	r25, r24
    42a4:	0e 94 0f 43 	call	0x861e	; 0x861e <__floatsisf>
    42a8:	7b 01       	movw	r14, r22
    42aa:	8c 01       	movw	r16, r24
    42ac:	c3 01       	movw	r24, r6
    42ae:	b2 01       	movw	r22, r4
    42b0:	a8 01       	movw	r20, r16
    42b2:	97 01       	movw	r18, r14
    42b4:	0e 94 74 42 	call	0x84e8	; 0x84e8 <__divsf3>
    42b8:	60 93 fb 22 	sts	0x22FB, r22
    42bc:	70 93 fc 22 	sts	0x22FC, r23
    42c0:	80 93 fd 22 	sts	0x22FD, r24
    42c4:	90 93 fe 22 	sts	0x22FE, r25
	ma.linear_per_segment = ma.linear_travel/ma.segments;
    42c8:	c6 01       	movw	r24, r12
    42ca:	b5 01       	movw	r22, r10
    42cc:	a8 01       	movw	r20, r16
    42ce:	97 01       	movw	r18, r14
    42d0:	0e 94 74 42 	call	0x84e8	; 0x84e8 <__divsf3>
    42d4:	60 93 ff 22 	sts	0x22FF, r22
    42d8:	70 93 00 23 	sts	0x2300, r23
    42dc:	80 93 01 23 	sts	0x2301, r24
    42e0:	90 93 02 23 	sts	0x2302, r25
	ma.center_x = (mc.position[ma.axis_1]/CFG(ma.axis_1).steps_per_mm)-sin(ma.theta)*ma.radius;
    42e4:	69 81       	ldd	r22, Y+1	; 0x01
    42e6:	7a 81       	ldd	r23, Y+2	; 0x02
    42e8:	8b 81       	ldd	r24, Y+3	; 0x03
    42ea:	9c 81       	ldd	r25, Y+4	; 0x04
    42ec:	0e 94 92 45 	call	0x8b24	; 0x8b24 <sin>
    42f0:	5b 01       	movw	r10, r22
    42f2:	6c 01       	movw	r12, r24
    42f4:	f4 01       	movw	r30, r8
    42f6:	ee 0f       	add	r30, r30
    42f8:	ff 1f       	adc	r31, r31
    42fa:	ee 0f       	add	r30, r30
    42fc:	ff 1f       	adc	r31, r31
    42fe:	ed 58       	subi	r30, 0x8D	; 141
    4300:	fe 4d       	sbci	r31, 0xDE	; 222
    4302:	61 81       	ldd	r22, Z+1	; 0x01
    4304:	72 81       	ldd	r23, Z+2	; 0x02
    4306:	83 81       	ldd	r24, Z+3	; 0x03
    4308:	94 81       	ldd	r25, Z+4	; 0x04
    430a:	0e 94 0f 43 	call	0x861e	; 0x861e <__floatsisf>
    430e:	f4 01       	movw	r30, r8
    4310:	ee 0f       	add	r30, r30
    4312:	ff 1f       	adc	r31, r31
    4314:	e8 0d       	add	r30, r8
    4316:	f9 1d       	adc	r31, r9
    4318:	23 e0       	ldi	r18, 0x03	; 3
    431a:	ee 0f       	add	r30, r30
    431c:	ff 1f       	adc	r31, r31
    431e:	2a 95       	dec	r18
    4320:	e1 f7       	brne	.-8      	; 0x431a <mc_arc_blocking+0x20a>
    4322:	e4 5a       	subi	r30, 0xA4	; 164
    4324:	fd 4d       	sbci	r31, 0xDD	; 221
    4326:	21 a1       	ldd	r18, Z+33	; 0x21
    4328:	32 a1       	ldd	r19, Z+34	; 0x22
    432a:	43 a1       	ldd	r20, Z+35	; 0x23
    432c:	54 a1       	ldd	r21, Z+36	; 0x24
    432e:	0e 94 74 42 	call	0x84e8	; 0x84e8 <__divsf3>
    4332:	7b 01       	movw	r14, r22
    4334:	8c 01       	movw	r16, r24
    4336:	c6 01       	movw	r24, r12
    4338:	b5 01       	movw	r22, r10
    433a:	2d 81       	ldd	r18, Y+5	; 0x05
    433c:	3e 81       	ldd	r19, Y+6	; 0x06
    433e:	4f 81       	ldd	r20, Y+7	; 0x07
    4340:	58 85       	ldd	r21, Y+8	; 0x08
    4342:	0e 94 2f 45 	call	0x8a5e	; 0x8a5e <__mulsf3>
    4346:	9b 01       	movw	r18, r22
    4348:	ac 01       	movw	r20, r24
    434a:	c8 01       	movw	r24, r16
    434c:	b7 01       	movw	r22, r14
    434e:	0e 94 cd 41 	call	0x839a	; 0x839a <__subsf3>
    4352:	60 93 e7 22 	sts	0x22E7, r22
    4356:	70 93 e8 22 	sts	0x22E8, r23
    435a:	80 93 e9 22 	sts	0x22E9, r24
    435e:	90 93 ea 22 	sts	0x22EA, r25
	ma.center_y = (mc.position[ma.axis_2]/CFG(ma.axis_2).steps_per_mm)-cos(ma.theta)*ma.radius;
    4362:	69 81       	ldd	r22, Y+1	; 0x01
    4364:	7a 81       	ldd	r23, Y+2	; 0x02
    4366:	8b 81       	ldd	r24, Y+3	; 0x03
    4368:	9c 81       	ldd	r25, Y+4	; 0x04
    436a:	0e 94 71 42 	call	0x84e2	; 0x84e2 <cos>
    436e:	5b 01       	movw	r10, r22
    4370:	6c 01       	movw	r12, r24
    4372:	f1 01       	movw	r30, r2
    4374:	ee 0f       	add	r30, r30
    4376:	ff 1f       	adc	r31, r31
    4378:	ee 0f       	add	r30, r30
    437a:	ff 1f       	adc	r31, r31
    437c:	ed 58       	subi	r30, 0x8D	; 141
    437e:	fe 4d       	sbci	r31, 0xDE	; 222
    4380:	61 81       	ldd	r22, Z+1	; 0x01
    4382:	72 81       	ldd	r23, Z+2	; 0x02
    4384:	83 81       	ldd	r24, Z+3	; 0x03
    4386:	94 81       	ldd	r25, Z+4	; 0x04
    4388:	0e 94 0f 43 	call	0x861e	; 0x861e <__floatsisf>
    438c:	f1 01       	movw	r30, r2
    438e:	ee 0f       	add	r30, r30
    4390:	ff 1f       	adc	r31, r31
    4392:	e2 0d       	add	r30, r2
    4394:	f3 1d       	adc	r31, r3
    4396:	b3 e0       	ldi	r27, 0x03	; 3
    4398:	ee 0f       	add	r30, r30
    439a:	ff 1f       	adc	r31, r31
    439c:	ba 95       	dec	r27
    439e:	e1 f7       	brne	.-8      	; 0x4398 <mc_arc_blocking+0x288>
    43a0:	e4 5a       	subi	r30, 0xA4	; 164
    43a2:	fd 4d       	sbci	r31, 0xDD	; 221
    43a4:	21 a1       	ldd	r18, Z+33	; 0x21
    43a6:	32 a1       	ldd	r19, Z+34	; 0x22
    43a8:	43 a1       	ldd	r20, Z+35	; 0x23
    43aa:	54 a1       	ldd	r21, Z+36	; 0x24
    43ac:	0e 94 74 42 	call	0x84e8	; 0x84e8 <__divsf3>
    43b0:	7b 01       	movw	r14, r22
    43b2:	8c 01       	movw	r16, r24
    43b4:	c6 01       	movw	r24, r12
    43b6:	b5 01       	movw	r22, r10
    43b8:	2d 81       	ldd	r18, Y+5	; 0x05
    43ba:	3e 81       	ldd	r19, Y+6	; 0x06
    43bc:	4f 81       	ldd	r20, Y+7	; 0x07
    43be:	58 85       	ldd	r21, Y+8	; 0x08
    43c0:	0e 94 2f 45 	call	0x8a5e	; 0x8a5e <__mulsf3>
    43c4:	9b 01       	movw	r18, r22
    43c6:	ac 01       	movw	r20, r24
    43c8:	c8 01       	movw	r24, r16
    43ca:	b7 01       	movw	r22, r14
    43cc:	0e 94 cd 41 	call	0x839a	; 0x839a <__subsf3>
    43d0:	60 93 eb 22 	sts	0x22EB, r22
    43d4:	70 93 ec 22 	sts	0x22EC, r23
    43d8:	80 93 ed 22 	sts	0x22ED, r24
    43dc:	90 93 ee 22 	sts	0x22EE, r25

  	// 	A vector to track the end point of each segment. Initialize the linear axis
	ma.dtarget[ma.axis_linear] = mc.position[ma.axis_linear]/CFG(Z).steps_per_mm;
    43e0:	e8 a1       	ldd	r30, Y+32	; 0x20
    43e2:	f9 a1       	ldd	r31, Y+33	; 0x21
    43e4:	ee 0f       	add	r30, r30
    43e6:	ff 1f       	adc	r31, r31
    43e8:	ee 0f       	add	r30, r30
    43ea:	ff 1f       	adc	r31, r31
    43ec:	8f 01       	movw	r16, r30
    43ee:	06 53       	subi	r16, 0x36	; 54
    43f0:	1d 4d       	sbci	r17, 0xDD	; 221
    43f2:	ed 58       	subi	r30, 0x8D	; 141
    43f4:	fe 4d       	sbci	r31, 0xDE	; 222
    43f6:	61 81       	ldd	r22, Z+1	; 0x01
    43f8:	72 81       	ldd	r23, Z+2	; 0x02
    43fa:	83 81       	ldd	r24, Z+3	; 0x03
    43fc:	94 81       	ldd	r25, Z+4	; 0x04
    43fe:	0e 94 0f 43 	call	0x861e	; 0x861e <__floatsisf>
    4402:	20 91 ad 22 	lds	r18, 0x22AD
    4406:	30 91 ae 22 	lds	r19, 0x22AE
    440a:	40 91 af 22 	lds	r20, 0x22AF
    440e:	50 91 b0 22 	lds	r21, 0x22B0
    4412:	0e 94 74 42 	call	0x84e8	; 0x84e8 <__divsf3>
    4416:	d8 01       	movw	r26, r16
    4418:	1d 96       	adiw	r26, 0x0d	; 13
    441a:	6d 93       	st	X+, r22
    441c:	7d 93       	st	X+, r23
    441e:	8d 93       	st	X+, r24
    4420:	9c 93       	st	X, r25
    4422:	50 97       	sbiw	r26, 0x10	; 16
	
	//	Generate and queue the line segments along the arc
	for (ma.segment_counter=0; ma.segment_counter<=ma.segments; ma.segment_counter++) {
    4424:	10 92 cd 22 	sts	0x22CD, r1
    4428:	10 92 ce 22 	sts	0x22CE, r1
    442c:	bf c0       	rjmp	.+382    	; 0x45ac <mc_arc_blocking+0x49c>
		ma.theta += ma.theta_per_segment;
    442e:	60 91 ef 22 	lds	r22, 0x22EF
    4432:	70 91 f0 22 	lds	r23, 0x22F0
    4436:	80 91 f1 22 	lds	r24, 0x22F1
    443a:	90 91 f2 22 	lds	r25, 0x22F2
    443e:	20 91 fb 22 	lds	r18, 0x22FB
    4442:	30 91 fc 22 	lds	r19, 0x22FC
    4446:	40 91 fd 22 	lds	r20, 0x22FD
    444a:	50 91 fe 22 	lds	r21, 0x22FE
    444e:	0e 94 ce 41 	call	0x839c	; 0x839c <__addsf3>
    4452:	7b 01       	movw	r14, r22
    4454:	8c 01       	movw	r16, r24
    4456:	cb 01       	movw	r24, r22
    4458:	d8 01       	movw	r26, r16
    445a:	80 93 ef 22 	sts	0x22EF, r24
    445e:	90 93 f0 22 	sts	0x22F0, r25
    4462:	a0 93 f1 22 	sts	0x22F1, r26
    4466:	b0 93 f2 22 	sts	0x22F2, r27
		ma.dtarget[ma.axis_1] = ma.center_x+sin(ma.theta)*ma.radius;
    446a:	b7 01       	movw	r22, r14
    446c:	c8 01       	movw	r24, r16
    446e:	0e 94 92 45 	call	0x8b24	; 0x8b24 <sin>
    4472:	80 90 f3 22 	lds	r8, 0x22F3
    4476:	90 90 f4 22 	lds	r9, 0x22F4
    447a:	a0 90 f5 22 	lds	r10, 0x22F5
    447e:	b0 90 f6 22 	lds	r11, 0x22F6
    4482:	c0 90 d1 22 	lds	r12, 0x22D1
    4486:	d0 90 d2 22 	lds	r13, 0x22D2
    448a:	cc 0c       	add	r12, r12
    448c:	dd 1c       	adc	r13, r13
    448e:	cc 0c       	add	r12, r12
    4490:	dd 1c       	adc	r13, r13
    4492:	ea ec       	ldi	r30, 0xCA	; 202
    4494:	f2 e2       	ldi	r31, 0x22	; 34
    4496:	ce 0e       	add	r12, r30
    4498:	df 1e       	adc	r13, r31
    449a:	a5 01       	movw	r20, r10
    449c:	94 01       	movw	r18, r8
    449e:	0e 94 2f 45 	call	0x8a5e	; 0x8a5e <__mulsf3>
    44a2:	9b 01       	movw	r18, r22
    44a4:	ac 01       	movw	r20, r24
    44a6:	60 91 e7 22 	lds	r22, 0x22E7
    44aa:	70 91 e8 22 	lds	r23, 0x22E8
    44ae:	80 91 e9 22 	lds	r24, 0x22E9
    44b2:	90 91 ea 22 	lds	r25, 0x22EA
    44b6:	0e 94 ce 41 	call	0x839c	; 0x839c <__addsf3>
    44ba:	d6 01       	movw	r26, r12
    44bc:	1d 96       	adiw	r26, 0x0d	; 13
    44be:	6d 93       	st	X+, r22
    44c0:	7d 93       	st	X+, r23
    44c2:	8d 93       	st	X+, r24
    44c4:	9c 93       	st	X, r25
    44c6:	50 97       	sbiw	r26, 0x10	; 16
		ma.dtarget[ma.axis_2] = ma.center_y+cos(ma.theta)*ma.radius;
    44c8:	b7 01       	movw	r22, r14
    44ca:	c8 01       	movw	r24, r16
    44cc:	0e 94 71 42 	call	0x84e2	; 0x84e2 <cos>
    44d0:	00 91 d3 22 	lds	r16, 0x22D3
    44d4:	10 91 d4 22 	lds	r17, 0x22D4
    44d8:	00 0f       	add	r16, r16
    44da:	11 1f       	adc	r17, r17
    44dc:	00 0f       	add	r16, r16
    44de:	11 1f       	adc	r17, r17
    44e0:	06 53       	subi	r16, 0x36	; 54
    44e2:	1d 4d       	sbci	r17, 0xDD	; 221
    44e4:	a5 01       	movw	r20, r10
    44e6:	94 01       	movw	r18, r8
    44e8:	0e 94 2f 45 	call	0x8a5e	; 0x8a5e <__mulsf3>
    44ec:	9b 01       	movw	r18, r22
    44ee:	ac 01       	movw	r20, r24
    44f0:	60 91 eb 22 	lds	r22, 0x22EB
    44f4:	70 91 ec 22 	lds	r23, 0x22EC
    44f8:	80 91 ed 22 	lds	r24, 0x22ED
    44fc:	90 91 ee 22 	lds	r25, 0x22EE
    4500:	0e 94 ce 41 	call	0x839c	; 0x839c <__addsf3>
    4504:	f8 01       	movw	r30, r16
    4506:	65 87       	std	Z+13, r22	; 0x0d
    4508:	76 87       	std	Z+14, r23	; 0x0e
    450a:	87 87       	std	Z+15, r24	; 0x0f
    450c:	90 8b       	std	Z+16, r25	; 0x10
		ma.dtarget[ma.axis_linear] += ma.linear_per_segment;
    450e:	00 91 d5 22 	lds	r16, 0x22D5
    4512:	10 91 d6 22 	lds	r17, 0x22D6
    4516:	00 0f       	add	r16, r16
    4518:	11 1f       	adc	r17, r17
    451a:	00 0f       	add	r16, r16
    451c:	11 1f       	adc	r17, r17
    451e:	06 53       	subi	r16, 0x36	; 54
    4520:	1d 4d       	sbci	r17, 0xDD	; 221
    4522:	d8 01       	movw	r26, r16
    4524:	1d 96       	adiw	r26, 0x0d	; 13
    4526:	6d 91       	ld	r22, X+
    4528:	7d 91       	ld	r23, X+
    452a:	8d 91       	ld	r24, X+
    452c:	9c 91       	ld	r25, X
    452e:	50 97       	sbiw	r26, 0x10	; 16
    4530:	20 91 ff 22 	lds	r18, 0x22FF
    4534:	30 91 00 23 	lds	r19, 0x2300
    4538:	40 91 01 23 	lds	r20, 0x2301
    453c:	50 91 02 23 	lds	r21, 0x2302
    4540:	0e 94 ce 41 	call	0x839c	; 0x839c <__addsf3>
    4544:	f8 01       	movw	r30, r16
    4546:	65 87       	std	Z+13, r22	; 0x0d
    4548:	76 87       	std	Z+14, r23	; 0x0e
    454a:	87 87       	std	Z+15, r24	; 0x0f
    454c:	90 8b       	std	Z+16, r25	; 0x10
		mc_line(ma.dtarget[X], ma.dtarget[Y], ma.dtarget[Z], ma.feed_rate, ma.invert_feed_rate);
    454e:	60 91 d7 22 	lds	r22, 0x22D7
    4552:	70 91 d8 22 	lds	r23, 0x22D8
    4556:	80 91 d9 22 	lds	r24, 0x22D9
    455a:	90 91 da 22 	lds	r25, 0x22DA
    455e:	20 91 db 22 	lds	r18, 0x22DB
    4562:	30 91 dc 22 	lds	r19, 0x22DC
    4566:	40 91 dd 22 	lds	r20, 0x22DD
    456a:	50 91 de 22 	lds	r21, 0x22DE
    456e:	e0 90 df 22 	lds	r14, 0x22DF
    4572:	f0 90 e0 22 	lds	r15, 0x22E0
    4576:	00 91 e1 22 	lds	r16, 0x22E1
    457a:	10 91 e2 22 	lds	r17, 0x22E2
    457e:	a0 90 f7 22 	lds	r10, 0x22F7
    4582:	b0 90 f8 22 	lds	r11, 0x22F8
    4586:	c0 90 f9 22 	lds	r12, 0x22F9
    458a:	d0 90 fa 22 	lds	r13, 0x22FA
    458e:	80 90 cf 22 	lds	r8, 0x22CF
    4592:	90 90 d0 22 	lds	r9, 0x22D0
    4596:	0e 94 98 1c 	call	0x3930	; 0x3930 <mc_line>

  	// 	A vector to track the end point of each segment. Initialize the linear axis
	ma.dtarget[ma.axis_linear] = mc.position[ma.axis_linear]/CFG(Z).steps_per_mm;
	
	//	Generate and queue the line segments along the arc
	for (ma.segment_counter=0; ma.segment_counter<=ma.segments; ma.segment_counter++) {
    459a:	80 91 cd 22 	lds	r24, 0x22CD
    459e:	90 91 ce 22 	lds	r25, 0x22CE
    45a2:	01 96       	adiw	r24, 0x01	; 1
    45a4:	80 93 cd 22 	sts	0x22CD, r24
    45a8:	90 93 ce 22 	sts	0x22CE, r25
    45ac:	20 91 cd 22 	lds	r18, 0x22CD
    45b0:	30 91 ce 22 	lds	r19, 0x22CE
    45b4:	80 91 cb 22 	lds	r24, 0x22CB
    45b8:	90 91 cc 22 	lds	r25, 0x22CC
    45bc:	82 17       	cp	r24, r18
    45be:	93 07       	cpc	r25, r19
    45c0:	0c f0       	brlt	.+2      	; 0x45c4 <mc_arc_blocking+0x4b4>
    45c2:	35 cf       	rjmp	.-406    	; 0x442e <mc_arc_blocking+0x31e>
    45c4:	20 e0       	ldi	r18, 0x00	; 0
    45c6:	30 e0       	ldi	r19, 0x00	; 0
		ma.dtarget[ma.axis_2] = ma.center_y+cos(ma.theta)*ma.radius;
		ma.dtarget[ma.axis_linear] += ma.linear_per_segment;
		mc_line(ma.dtarget[X], ma.dtarget[Y], ma.dtarget[Z], ma.feed_rate, ma.invert_feed_rate);
  	}
	return (TG_OK);
}
    45c8:	c9 01       	movw	r24, r18
    45ca:	28 96       	adiw	r28, 0x08	; 8
    45cc:	cd bf       	out	0x3d, r28	; 61
    45ce:	de bf       	out	0x3e, r29	; 62
    45d0:	cf 91       	pop	r28
    45d2:	df 91       	pop	r29
    45d4:	1f 91       	pop	r17
    45d6:	0f 91       	pop	r16
    45d8:	ff 90       	pop	r15
    45da:	ef 90       	pop	r14
    45dc:	df 90       	pop	r13
    45de:	cf 90       	pop	r12
    45e0:	bf 90       	pop	r11
    45e2:	af 90       	pop	r10
    45e4:	9f 90       	pop	r9
    45e6:	8f 90       	pop	r8
    45e8:	7f 90       	pop	r7
    45ea:	6f 90       	pop	r6
    45ec:	5f 90       	pop	r5
    45ee:	4f 90       	pop	r4
    45f0:	3f 90       	pop	r3
    45f2:	2f 90       	pop	r2
    45f4:	08 95       	ret

000045f6 <mc_line_blocking>:
 *	Then the feed_rate means that the motion should be completed in 
 *	  1/feed_rate minutes
 */

int mc_line_blocking(double x, double y, double z, double feed_rate, int invert_feed_rate)
{
    45f6:	2f 92       	push	r2
    45f8:	3f 92       	push	r3
    45fa:	4f 92       	push	r4
    45fc:	5f 92       	push	r5
    45fe:	6f 92       	push	r6
    4600:	7f 92       	push	r7
    4602:	8f 92       	push	r8
    4604:	9f 92       	push	r9
    4606:	af 92       	push	r10
    4608:	bf 92       	push	r11
    460a:	cf 92       	push	r12
    460c:	df 92       	push	r13
    460e:	ef 92       	push	r14
    4610:	ff 92       	push	r15
    4612:	0f 93       	push	r16
    4614:	1f 93       	push	r17
    4616:	df 93       	push	r29
    4618:	cf 93       	push	r28
    461a:	cd b7       	in	r28, 0x3d	; 61
    461c:	de b7       	in	r29, 0x3e	; 62
    461e:	6a 97       	sbiw	r28, 0x1a	; 26
    4620:	cd bf       	out	0x3d, r28	; 61
    4622:	de bf       	out	0x3e, r29	; 62
    4624:	19 01       	movw	r2, r18
    4626:	2a 01       	movw	r4, r20
    4628:	ad 8a       	std	Y+21, r10	; 0x15
    462a:	be 8a       	std	Y+22, r11	; 0x16
    462c:	cf 8a       	std	Y+23, r12	; 0x17
    462e:	d8 8e       	std	Y+24, r13	; 0x18
    4630:	89 8e       	std	Y+25, r8	; 0x19
    4632:	9a 8e       	std	Y+26, r9	; 0x1a
	mc.target[X] = lround(x*CFG(X).steps_per_mm);
    4634:	20 91 7d 22 	lds	r18, 0x227D
    4638:	30 91 7e 22 	lds	r19, 0x227E
    463c:	40 91 7f 22 	lds	r20, 0x227F
    4640:	50 91 80 22 	lds	r21, 0x2280
    4644:	29 8b       	std	Y+17, r18	; 0x11
    4646:	3a 8b       	std	Y+18, r19	; 0x12
    4648:	4b 8b       	std	Y+19, r20	; 0x13
    464a:	5c 8b       	std	Y+20, r21	; 0x14
    464c:	0e 94 2f 45 	call	0x8a5e	; 0x8a5e <__mulsf3>
    4650:	0e 94 ff 44 	call	0x89fe	; 0x89fe <lround>
    4654:	3b 01       	movw	r6, r22
    4656:	4c 01       	movw	r8, r24
    4658:	60 92 80 21 	sts	0x2180, r6
    465c:	70 92 81 21 	sts	0x2181, r7
    4660:	80 92 82 21 	sts	0x2182, r8
    4664:	90 92 83 21 	sts	0x2183, r9
	mc.target[Y] = lround(y*CFG(Y).steps_per_mm);
    4668:	80 91 95 22 	lds	r24, 0x2295
    466c:	90 91 96 22 	lds	r25, 0x2296
    4670:	a0 91 97 22 	lds	r26, 0x2297
    4674:	b0 91 98 22 	lds	r27, 0x2298
    4678:	8d 87       	std	Y+13, r24	; 0x0d
    467a:	9e 87       	std	Y+14, r25	; 0x0e
    467c:	af 87       	std	Y+15, r26	; 0x0f
    467e:	b8 8b       	std	Y+16, r27	; 0x10
    4680:	c2 01       	movw	r24, r4
    4682:	b1 01       	movw	r22, r2
    4684:	2d 85       	ldd	r18, Y+13	; 0x0d
    4686:	3e 85       	ldd	r19, Y+14	; 0x0e
    4688:	4f 85       	ldd	r20, Y+15	; 0x0f
    468a:	58 89       	ldd	r21, Y+16	; 0x10
    468c:	0e 94 2f 45 	call	0x8a5e	; 0x8a5e <__mulsf3>
    4690:	0e 94 ff 44 	call	0x89fe	; 0x89fe <lround>
    4694:	5b 01       	movw	r10, r22
    4696:	6c 01       	movw	r12, r24
    4698:	a0 92 84 21 	sts	0x2184, r10
    469c:	b0 92 85 21 	sts	0x2185, r11
    46a0:	c0 92 86 21 	sts	0x2186, r12
    46a4:	d0 92 87 21 	sts	0x2187, r13
	mc.target[Z] = lround(z*CFG(Z).steps_per_mm); 
    46a8:	20 91 ad 22 	lds	r18, 0x22AD
    46ac:	30 91 ae 22 	lds	r19, 0x22AE
    46b0:	40 91 af 22 	lds	r20, 0x22AF
    46b4:	50 91 b0 22 	lds	r21, 0x22B0
    46b8:	29 87       	std	Y+9, r18	; 0x09
    46ba:	3a 87       	std	Y+10, r19	; 0x0a
    46bc:	4b 87       	std	Y+11, r20	; 0x0b
    46be:	5c 87       	std	Y+12, r21	; 0x0c
    46c0:	c8 01       	movw	r24, r16
    46c2:	b7 01       	movw	r22, r14
    46c4:	0e 94 2f 45 	call	0x8a5e	; 0x8a5e <__mulsf3>
    46c8:	0e 94 ff 44 	call	0x89fe	; 0x89fe <lround>
    46cc:	9b 01       	movw	r18, r22
    46ce:	ac 01       	movw	r20, r24
    46d0:	20 93 88 21 	sts	0x2188, r18
    46d4:	30 93 89 21 	sts	0x2189, r19
    46d8:	40 93 8a 21 	sts	0x218A, r20
    46dc:	50 93 8b 21 	sts	0x218B, r21

	mc.steps[X] = mc.target[X]-mc.position[X];
    46e0:	80 91 74 21 	lds	r24, 0x2174
    46e4:	90 91 75 21 	lds	r25, 0x2175
    46e8:	a0 91 76 21 	lds	r26, 0x2176
    46ec:	b0 91 77 21 	lds	r27, 0x2177
    46f0:	84 01       	movw	r16, r8
    46f2:	73 01       	movw	r14, r6
    46f4:	e8 1a       	sub	r14, r24
    46f6:	f9 0a       	sbc	r15, r25
    46f8:	0a 0b       	sbc	r16, r26
    46fa:	1b 0b       	sbc	r17, r27
    46fc:	ed 82       	std	Y+5, r14	; 0x05
    46fe:	fe 82       	std	Y+6, r15	; 0x06
    4700:	0f 83       	std	Y+7, r16	; 0x07
    4702:	18 87       	std	Y+8, r17	; 0x08
    4704:	e0 92 8c 21 	sts	0x218C, r14
    4708:	f0 92 8d 21 	sts	0x218D, r15
    470c:	00 93 8e 21 	sts	0x218E, r16
    4710:	10 93 8f 21 	sts	0x218F, r17
	mc.steps[Y] = mc.target[Y]-mc.position[Y];
    4714:	80 91 78 21 	lds	r24, 0x2178
    4718:	90 91 79 21 	lds	r25, 0x2179
    471c:	a0 91 7a 21 	lds	r26, 0x217A
    4720:	b0 91 7b 21 	lds	r27, 0x217B
    4724:	86 01       	movw	r16, r12
    4726:	75 01       	movw	r14, r10
    4728:	e8 1a       	sub	r14, r24
    472a:	f9 0a       	sbc	r15, r25
    472c:	0a 0b       	sbc	r16, r26
    472e:	1b 0b       	sbc	r17, r27
    4730:	e9 82       	std	Y+1, r14	; 0x01
    4732:	fa 82       	std	Y+2, r15	; 0x02
    4734:	0b 83       	std	Y+3, r16	; 0x03
    4736:	1c 83       	std	Y+4, r17	; 0x04
    4738:	e0 92 90 21 	sts	0x2190, r14
    473c:	f0 92 91 21 	sts	0x2191, r15
    4740:	00 93 92 21 	sts	0x2192, r16
    4744:	10 93 93 21 	sts	0x2193, r17
	mc.steps[Z] = mc.target[Z]-mc.position[Z];
    4748:	80 91 7c 21 	lds	r24, 0x217C
    474c:	90 91 7d 21 	lds	r25, 0x217D
    4750:	a0 91 7e 21 	lds	r26, 0x217E
    4754:	b0 91 7f 21 	lds	r27, 0x217F
    4758:	19 01       	movw	r2, r18
    475a:	2a 01       	movw	r4, r20
    475c:	28 1a       	sub	r2, r24
    475e:	39 0a       	sbc	r3, r25
    4760:	4a 0a       	sbc	r4, r26
    4762:	5b 0a       	sbc	r5, r27
    4764:	20 92 94 21 	sts	0x2194, r2
    4768:	30 92 95 21 	sts	0x2195, r3
    476c:	40 92 96 21 	sts	0x2196, r4
    4770:	50 92 97 21 	sts	0x2197, r5

	// skip zero length lines
	if ((mc.steps[X] + mc.steps[Y] + mc.steps[Z]) == 0) {
    4774:	d8 01       	movw	r26, r16
    4776:	c7 01       	movw	r24, r14
    4778:	0d 81       	ldd	r16, Y+5	; 0x05
    477a:	1e 81       	ldd	r17, Y+6	; 0x06
    477c:	2f 81       	ldd	r18, Y+7	; 0x07
    477e:	38 85       	ldd	r19, Y+8	; 0x08
    4780:	80 0f       	add	r24, r16
    4782:	91 1f       	adc	r25, r17
    4784:	a2 1f       	adc	r26, r18
    4786:	b3 1f       	adc	r27, r19
    4788:	82 0d       	add	r24, r2
    478a:	93 1d       	adc	r25, r3
    478c:	a4 1d       	adc	r26, r4
    478e:	b5 1d       	adc	r27, r5
    4790:	00 97       	sbiw	r24, 0x00	; 0
    4792:	a1 05       	cpc	r26, r1
    4794:	b1 05       	cpc	r27, r1
    4796:	19 f4       	brne	.+6      	; 0x479e <mc_line_blocking+0x1a8>
    4798:	24 e1       	ldi	r18, 0x14	; 20
    479a:	30 e0       	ldi	r19, 0x00	; 0
    479c:	86 c0       	rjmp	.+268    	; 0x48aa <mc_line_blocking+0x2b4>
		return (TG_ZERO_LENGTH_LINE);
	}

	if (invert_feed_rate) {
    479e:	29 8d       	ldd	r18, Y+25	; 0x19
    47a0:	3a 8d       	ldd	r19, Y+26	; 0x1a
    47a2:	23 2b       	or	r18, r19
    47a4:	59 f0       	breq	.+22     	; 0x47bc <mc_line_blocking+0x1c6>
		mc.microseconds = lround(ONE_MINUTE_OF_MICROSECONDS/feed_rate);
    47a6:	60 ec       	ldi	r22, 0xC0	; 192
    47a8:	71 ee       	ldi	r23, 0xE1	; 225
    47aa:	84 e6       	ldi	r24, 0x64	; 100
    47ac:	9c e4       	ldi	r25, 0x4C	; 76
    47ae:	2d 89       	ldd	r18, Y+21	; 0x15
    47b0:	3e 89       	ldd	r19, Y+22	; 0x16
    47b2:	4f 89       	ldd	r20, Y+23	; 0x17
    47b4:	58 8d       	ldd	r21, Y+24	; 0x18
    47b6:	0e 94 74 42 	call	0x84e8	; 0x84e8 <__divsf3>
    47ba:	4e c0       	rjmp	.+156    	; 0x4858 <mc_line_blocking+0x262>
	} else {  // Ask Phythagoras to estimate how many mm next move is going to take
 		mc.mm_of_travel = sqrt(square(mc.steps[X]/CFG(X).steps_per_mm) + 
    47bc:	6d 81       	ldd	r22, Y+5	; 0x05
    47be:	7e 81       	ldd	r23, Y+6	; 0x06
    47c0:	8f 81       	ldd	r24, Y+7	; 0x07
    47c2:	98 85       	ldd	r25, Y+8	; 0x08
    47c4:	0e 94 0f 43 	call	0x861e	; 0x861e <__floatsisf>
    47c8:	29 89       	ldd	r18, Y+17	; 0x11
    47ca:	3a 89       	ldd	r19, Y+18	; 0x12
    47cc:	4b 89       	ldd	r20, Y+19	; 0x13
    47ce:	5c 89       	ldd	r21, Y+20	; 0x14
    47d0:	0e 94 74 42 	call	0x84e8	; 0x84e8 <__divsf3>
    47d4:	0e 94 da 45 	call	0x8bb4	; 0x8bb4 <square>
    47d8:	3b 01       	movw	r6, r22
    47da:	4c 01       	movw	r8, r24
    47dc:	69 81       	ldd	r22, Y+1	; 0x01
    47de:	7a 81       	ldd	r23, Y+2	; 0x02
    47e0:	8b 81       	ldd	r24, Y+3	; 0x03
    47e2:	9c 81       	ldd	r25, Y+4	; 0x04
    47e4:	0e 94 0f 43 	call	0x861e	; 0x861e <__floatsisf>
    47e8:	2d 85       	ldd	r18, Y+13	; 0x0d
    47ea:	3e 85       	ldd	r19, Y+14	; 0x0e
    47ec:	4f 85       	ldd	r20, Y+15	; 0x0f
    47ee:	58 89       	ldd	r21, Y+16	; 0x10
    47f0:	0e 94 74 42 	call	0x84e8	; 0x84e8 <__divsf3>
    47f4:	0e 94 da 45 	call	0x8bb4	; 0x8bb4 <square>
    47f8:	5b 01       	movw	r10, r22
    47fa:	6c 01       	movw	r12, r24
    47fc:	c2 01       	movw	r24, r4
    47fe:	b1 01       	movw	r22, r2
    4800:	0e 94 0f 43 	call	0x861e	; 0x861e <__floatsisf>
    4804:	29 85       	ldd	r18, Y+9	; 0x09
    4806:	3a 85       	ldd	r19, Y+10	; 0x0a
    4808:	4b 85       	ldd	r20, Y+11	; 0x0b
    480a:	5c 85       	ldd	r21, Y+12	; 0x0c
    480c:	0e 94 74 42 	call	0x84e8	; 0x84e8 <__divsf3>
    4810:	0e 94 da 45 	call	0x8bb4	; 0x8bb4 <square>
    4814:	7b 01       	movw	r14, r22
    4816:	8c 01       	movw	r16, r24
    4818:	c4 01       	movw	r24, r8
    481a:	b3 01       	movw	r22, r6
    481c:	a6 01       	movw	r20, r12
    481e:	95 01       	movw	r18, r10
    4820:	0e 94 ce 41 	call	0x839c	; 0x839c <__addsf3>
    4824:	a8 01       	movw	r20, r16
    4826:	97 01       	movw	r18, r14
    4828:	0e 94 ce 41 	call	0x839c	; 0x839c <__addsf3>
    482c:	0e 94 9c 45 	call	0x8b38	; 0x8b38 <sqrt>
    4830:	60 93 9c 21 	sts	0x219C, r22
    4834:	70 93 9d 21 	sts	0x219D, r23
    4838:	80 93 9e 21 	sts	0x219E, r24
    483c:	90 93 9f 21 	sts	0x219F, r25
							   square(mc.steps[Y]/CFG(Y).steps_per_mm) + 
							   square(mc.steps[Z]/CFG(Z).steps_per_mm));
		mc.microseconds = lround((mc.mm_of_travel/feed_rate)*1000000);
    4840:	2d 89       	ldd	r18, Y+21	; 0x15
    4842:	3e 89       	ldd	r19, Y+22	; 0x16
    4844:	4f 89       	ldd	r20, Y+23	; 0x17
    4846:	58 8d       	ldd	r21, Y+24	; 0x18
    4848:	0e 94 74 42 	call	0x84e8	; 0x84e8 <__divsf3>
    484c:	20 e0       	ldi	r18, 0x00	; 0
    484e:	34 e2       	ldi	r19, 0x24	; 36
    4850:	44 e7       	ldi	r20, 0x74	; 116
    4852:	59 e4       	ldi	r21, 0x49	; 73
    4854:	0e 94 2f 45 	call	0x8a5e	; 0x8a5e <__mulsf3>
    4858:	0e 94 ff 44 	call	0x89fe	; 0x89fe <lround>
    485c:	60 93 98 21 	sts	0x2198, r22
    4860:	70 93 99 21 	sts	0x2199, r23
    4864:	80 93 9a 21 	sts	0x219A, r24
    4868:	90 93 9b 21 	sts	0x219B, r25
	}
    mv_queue_move_buffer(mc.steps[X], mc.steps[Y], mc.steps[Z], mc.microseconds); 
    486c:	a0 90 98 21 	lds	r10, 0x2198
    4870:	b0 90 99 21 	lds	r11, 0x2199
    4874:	c0 90 9a 21 	lds	r12, 0x219A
    4878:	d0 90 9b 21 	lds	r13, 0x219B
    487c:	6d 81       	ldd	r22, Y+5	; 0x05
    487e:	7e 81       	ldd	r23, Y+6	; 0x06
    4880:	8f 81       	ldd	r24, Y+7	; 0x07
    4882:	98 85       	ldd	r25, Y+8	; 0x08
    4884:	29 81       	ldd	r18, Y+1	; 0x01
    4886:	3a 81       	ldd	r19, Y+2	; 0x02
    4888:	4b 81       	ldd	r20, Y+3	; 0x03
    488a:	5c 81       	ldd	r21, Y+4	; 0x04
    488c:	82 01       	movw	r16, r4
    488e:	71 01       	movw	r14, r2
    4890:	0e 94 4b 2d 	call	0x5a96	; 0x5a96 <mv_queue_move_buffer>

	memcpy(mc.position, mc.target, sizeof(mc.target)); 	// record new robot position
    4894:	e4 e7       	ldi	r30, 0x74	; 116
    4896:	f1 e2       	ldi	r31, 0x21	; 33
    4898:	df 01       	movw	r26, r30
    489a:	1c 96       	adiw	r26, 0x0c	; 12
    489c:	8c e0       	ldi	r24, 0x0C	; 12
    489e:	0d 90       	ld	r0, X+
    48a0:	01 92       	st	Z+, r0
    48a2:	81 50       	subi	r24, 0x01	; 1
    48a4:	e1 f7       	brne	.-8      	; 0x489e <mc_line_blocking+0x2a8>
    48a6:	20 e0       	ldi	r18, 0x00	; 0
    48a8:	30 e0       	ldi	r19, 0x00	; 0
	return (TG_OK);
}
    48aa:	c9 01       	movw	r24, r18
    48ac:	6a 96       	adiw	r28, 0x1a	; 26
    48ae:	cd bf       	out	0x3d, r28	; 61
    48b0:	de bf       	out	0x3e, r29	; 62
    48b2:	cf 91       	pop	r28
    48b4:	df 91       	pop	r29
    48b6:	1f 91       	pop	r17
    48b8:	0f 91       	pop	r16
    48ba:	ff 90       	pop	r15
    48bc:	ef 90       	pop	r14
    48be:	df 90       	pop	r13
    48c0:	cf 90       	pop	r12
    48c2:	bf 90       	pop	r11
    48c4:	af 90       	pop	r10
    48c6:	9f 90       	pop	r9
    48c8:	8f 90       	pop	r8
    48ca:	7f 90       	pop	r7
    48cc:	6f 90       	pop	r6
    48ce:	5f 90       	pop	r5
    48d0:	4f 90       	pop	r4
    48d2:	3f 90       	pop	r3
    48d4:	2f 90       	pop	r2
    48d6:	08 95       	ret

000048d8 <mc_motion_stop>:
 * mc_motion_stop() - stop current motion immediately
 */

int mc_motion_stop()
{
	mc.line_state = MC_STATE_OFF;	// turn off the generators
    48d8:	10 92 73 21 	sts	0x2173, r1
	ma.arc_state = MC_STATE_OFF;
    48dc:	10 92 ca 22 	sts	0x22CA, r1
	mv_flush();						// empty and reset the move queue
    48e0:	0e 94 40 2d 	call	0x5a80	; 0x5a80 <mv_flush>
	st_stop_steppers();				// stop the steppers
    48e4:	0e 94 6f 25 	call	0x4ade	; 0x4ade <st_stop_steppers>
    48e8:	f7 cf       	rjmp	.-18     	; 0x48d8 <mc_motion_stop>

000048ea <spindle_init>:
 *	See config.h for settings
 */

void spindle_init()
{
	SPINDLE_ENABLE_PORT.DIRSET = SPINDLE_ENABLE_BIT_bm;
    48ea:	e0 e6       	ldi	r30, 0x60	; 96
    48ec:	f6 e0       	ldi	r31, 0x06	; 6
    48ee:	80 e4       	ldi	r24, 0x40	; 64
    48f0:	81 83       	std	Z+1, r24	; 0x01
	SPINDLE_DIRECTION_PORT.DIRSET = SPINDLE_DIRECTION_BIT_bm;
    48f2:	80 e8       	ldi	r24, 0x80	; 128
    48f4:	81 83       	std	Z+1, r24	; 0x01
}
    48f6:	08 95       	ret

000048f8 <spindle_run>:

void spindle_run(int direction, uint32_t rpm) 
{
	if(direction >= 0) {
    48f8:	97 fd       	sbrc	r25, 7
    48fa:	05 c0       	rjmp	.+10     	; 0x4906 <spindle_run+0xe>
    	SPINDLE_DIRECTION_PORT.OUTSET = SPINDLE_DIRECTION_BIT_bm;
    48fc:	80 e8       	ldi	r24, 0x80	; 128
    48fe:	e0 e6       	ldi	r30, 0x60	; 96
    4900:	f6 e0       	ldi	r31, 0x06	; 6
    4902:	85 83       	std	Z+5, r24	; 0x05
    4904:	04 c0       	rjmp	.+8      	; 0x490e <spindle_run+0x16>
	} else {
    	SPINDLE_DIRECTION_PORT.OUTCLR = SPINDLE_DIRECTION_BIT_bm;
    4906:	80 e8       	ldi	r24, 0x80	; 128
    4908:	e0 e6       	ldi	r30, 0x60	; 96
    490a:	f6 e0       	ldi	r31, 0x06	; 6
    490c:	86 83       	std	Z+6, r24	; 0x06
	}
	SPINDLE_ENABLE_PORT.OUTSET = SPINDLE_ENABLE_BIT_bm;
    490e:	80 e4       	ldi	r24, 0x40	; 64
    4910:	e0 e6       	ldi	r30, 0x60	; 96
    4912:	f6 e0       	ldi	r31, 0x06	; 6
    4914:	85 83       	std	Z+5, r24	; 0x05
}
    4916:	08 95       	ret

00004918 <spindle_stop>:

void spindle_stop()
{
	SPINDLE_ENABLE_PORT.OUTCLR = SPINDLE_ENABLE_BIT_bm;
    4918:	80 e4       	ldi	r24, 0x40	; 64
    491a:	e0 e6       	ldi	r30, 0x60	; 96
    491c:	f6 e0       	ldi	r31, 0x06	; 6
    491e:	86 83       	std	Z+6, r24	; 0x06
}
    4920:	08 95       	ret

00004922 <st_init>:
 *	Note: high level interrupts must be enabled in main()
 *	Note: limit switches and other use of the ports may extend this init.
 */

void st_init()
{
    4922:	cf 93       	push	r28
    4924:	df 93       	push	r29
	ax.active_axes = 0;								// clear all active bits
    4926:	10 92 19 22 	sts	0x2219, r1
	ax.mutex = FALSE;
    492a:	10 92 17 22 	sts	0x2217, r1
	ax.stopped = FALSE;
    492e:	10 92 18 22 	sts	0x2218, r1

	ax.a[X].port = &X_MOTOR_PORT;					// bind PORTs to structs
    4932:	80 e0       	ldi	r24, 0x00	; 0
    4934:	96 e0       	ldi	r25, 0x06	; 6
    4936:	80 93 28 22 	sts	0x2228, r24
    493a:	90 93 29 22 	sts	0x2229, r25
	ax.a[Y].port = &Y_MOTOR_PORT;
    493e:	80 ea       	ldi	r24, 0xA0	; 160
    4940:	96 e0       	ldi	r25, 0x06	; 6
    4942:	80 93 38 22 	sts	0x2238, r24
    4946:	90 93 39 22 	sts	0x2239, r25
	ax.a[Z].port = &Z_MOTOR_PORT;
    494a:	80 e8       	ldi	r24, 0x80	; 128
    494c:	96 e0       	ldi	r25, 0x06	; 6
    494e:	80 93 48 22 	sts	0x2248, r24
    4952:	90 93 49 22 	sts	0x2249, r25
	ax.a[A].port = &A_MOTOR_PORT;
    4956:	80 e6       	ldi	r24, 0x60	; 96
    4958:	96 e0       	ldi	r25, 0x06	; 6
    495a:	80 93 58 22 	sts	0x2258, r24
    495e:	90 93 59 22 	sts	0x2259, r25

	ax.a[X].timer = &X_TIMER;						// bind TIMERs to structs
    4962:	80 e0       	ldi	r24, 0x00	; 0
    4964:	98 e0       	ldi	r25, 0x08	; 8
    4966:	80 93 2a 22 	sts	0x222A, r24
    496a:	90 93 2b 22 	sts	0x222B, r25
	ax.a[Y].timer = &Y_TIMER;
    496e:	80 e0       	ldi	r24, 0x00	; 0
    4970:	99 e0       	ldi	r25, 0x09	; 9
    4972:	80 93 3a 22 	sts	0x223A, r24
    4976:	90 93 3b 22 	sts	0x223B, r25
	ax.a[Z].timer = &Z_TIMER;
    497a:	80 e0       	ldi	r24, 0x00	; 0
    497c:	9a e0       	ldi	r25, 0x0A	; 10
    497e:	80 93 4a 22 	sts	0x224A, r24
    4982:	90 93 4b 22 	sts	0x224B, r25
	ax.a[A].timer = &A_TIMER;
    4986:	80 e0       	ldi	r24, 0x00	; 0
    4988:	9b e0       	ldi	r25, 0x0B	; 11
    498a:	80 93 5a 22 	sts	0x225A, r24
    498e:	90 93 5b 22 	sts	0x225B, r25
    4992:	cc e6       	ldi	r28, 0x6C	; 108
    4994:	d2 e2       	ldi	r29, 0x22	; 34
    4996:	a6 e2       	ldi	r26, 0x26	; 38
    4998:	b2 e2       	ldi	r27, 0x22	; 34

	for (uint8_t i=X; i<=A; i++) {
		ax.a[i].polarity = cfg.a[i].polarity;

		ax.a[i].port->DIR = MOTOR_PORT_DIR_gm;		// set inputs and outputs
    499a:	3f e3       	ldi	r19, 0x3F	; 63
		ax.a[i].port->OUT = 0x00;					// set port bits to zero
		ax.a[i].port->OUT |= MICROSTEP_BITS_bm;		// set microstep bits
		ax.a[i].port->OUTSET = MOTOR_ENABLE_BIT_bm; // disable the motor
    499c:	24 e0       	ldi	r18, 0x04	; 4
		// limit switch setup in ls_init()

		ax.a[i].timer->CTRLA = TC_CLK_OFF;			// turn motor off
		ax.a[i].timer->CTRLB = TC_WGMODE;			// waveform generation mode
		ax.a[i].timer->INTCTRLA = TC_OVFINTLVL;		// interrupt mode
    499e:	93 e0       	ldi	r25, 0x03	; 3
	ax.a[Y].timer = &Y_TIMER;
	ax.a[Z].timer = &Z_TIMER;
	ax.a[A].timer = &A_TIMER;

	for (uint8_t i=X; i<=A; i++) {
		ax.a[i].polarity = cfg.a[i].polarity;
    49a0:	88 81       	ld	r24, Y
    49a2:	8c 93       	st	X, r24

		ax.a[i].port->DIR = MOTOR_PORT_DIR_gm;		// set inputs and outputs
    49a4:	12 96       	adiw	r26, 0x02	; 2
    49a6:	ed 91       	ld	r30, X+
    49a8:	fc 91       	ld	r31, X
    49aa:	13 97       	sbiw	r26, 0x03	; 3
    49ac:	30 83       	st	Z, r19
		ax.a[i].port->OUT = 0x00;					// set port bits to zero
    49ae:	12 96       	adiw	r26, 0x02	; 2
    49b0:	ed 91       	ld	r30, X+
    49b2:	fc 91       	ld	r31, X
    49b4:	13 97       	sbiw	r26, 0x03	; 3
    49b6:	14 82       	std	Z+4, r1	; 0x04
		ax.a[i].port->OUT |= MICROSTEP_BITS_bm;		// set microstep bits
    49b8:	12 96       	adiw	r26, 0x02	; 2
    49ba:	ed 91       	ld	r30, X+
    49bc:	fc 91       	ld	r31, X
    49be:	13 97       	sbiw	r26, 0x03	; 3
    49c0:	84 81       	ldd	r24, Z+4	; 0x04
    49c2:	88 61       	ori	r24, 0x18	; 24
    49c4:	84 83       	std	Z+4, r24	; 0x04
		ax.a[i].port->OUTSET = MOTOR_ENABLE_BIT_bm; // disable the motor
    49c6:	12 96       	adiw	r26, 0x02	; 2
    49c8:	ed 91       	ld	r30, X+
    49ca:	fc 91       	ld	r31, X
    49cc:	13 97       	sbiw	r26, 0x03	; 3
    49ce:	25 83       	std	Z+5, r18	; 0x05
		// limit switch setup in ls_init()

		ax.a[i].timer->CTRLA = TC_CLK_OFF;			// turn motor off
    49d0:	14 96       	adiw	r26, 0x04	; 4
    49d2:	ed 91       	ld	r30, X+
    49d4:	fc 91       	ld	r31, X
    49d6:	15 97       	sbiw	r26, 0x05	; 5
    49d8:	10 82       	st	Z, r1
		ax.a[i].timer->CTRLB = TC_WGMODE;			// waveform generation mode
    49da:	14 96       	adiw	r26, 0x04	; 4
    49dc:	ed 91       	ld	r30, X+
    49de:	fc 91       	ld	r31, X
    49e0:	15 97       	sbiw	r26, 0x05	; 5
    49e2:	11 82       	std	Z+1, r1	; 0x01
		ax.a[i].timer->INTCTRLA = TC_OVFINTLVL;		// interrupt mode
    49e4:	14 96       	adiw	r26, 0x04	; 4
    49e6:	ed 91       	ld	r30, X+
    49e8:	fc 91       	ld	r31, X
    49ea:	15 97       	sbiw	r26, 0x05	; 5
    49ec:	96 83       	std	Z+6, r25	; 0x06
    49ee:	68 96       	adiw	r28, 0x18	; 24
    49f0:	50 96       	adiw	r26, 0x10	; 16
	ax.a[X].timer = &X_TIMER;						// bind TIMERs to structs
	ax.a[Y].timer = &Y_TIMER;
	ax.a[Z].timer = &Z_TIMER;
	ax.a[A].timer = &A_TIMER;

	for (uint8_t i=X; i<=A; i++) {
    49f2:	82 e2       	ldi	r24, 0x22	; 34
    49f4:	cc 3c       	cpi	r28, 0xCC	; 204
    49f6:	d8 07       	cpc	r29, r24
    49f8:	99 f6       	brne	.-90     	; 0x49a0 <st_init+0x7e>
		ax.a[i].timer->INTCTRLA = TC_OVFINTLVL;		// interrupt mode
	}
	// if you need to anything special for A_AXIS (e.g. spindle), do it here

//	st_motor_test();							// run the startup motor test
}
    49fa:	df 91       	pop	r29
    49fc:	cf 91       	pop	r28
    49fe:	08 95       	ret

00004a00 <st_set_polarity>:
 * st_set_polarity() - setter needed by the config system
 */

void st_set_polarity(uint8_t axis, uint8_t polarity)
{
	ax.a[axis].polarity = polarity;
    4a00:	e8 2f       	mov	r30, r24
    4a02:	f0 e0       	ldi	r31, 0x00	; 0
    4a04:	84 e0       	ldi	r24, 0x04	; 4
    4a06:	ee 0f       	add	r30, r30
    4a08:	ff 1f       	adc	r31, r31
    4a0a:	8a 95       	dec	r24
    4a0c:	e1 f7       	brne	.-8      	; 0x4a06 <st_set_polarity+0x6>
    4a0e:	e9 5e       	subi	r30, 0xE9	; 233
    4a10:	fd 4d       	sbci	r31, 0xDD	; 221
    4a12:	67 87       	std	Z+15, r22	; 0x0f
}
    4a14:	08 95       	ret

00004a16 <st_motor_test>:
/* 
 * st_motor_test() - test motor subsystem 
 */

void st_motor_test() {
	ax.a[X].step_counter = 0x00001000;
    4a16:	2c e1       	ldi	r18, 0x1C	; 28
    4a18:	32 e2       	ldi	r19, 0x22	; 34
    4a1a:	80 e0       	ldi	r24, 0x00	; 0
    4a1c:	90 e1       	ldi	r25, 0x10	; 16
    4a1e:	a0 e0       	ldi	r26, 0x00	; 0
    4a20:	b0 e0       	ldi	r27, 0x00	; 0
    4a22:	80 93 1c 22 	sts	0x221C, r24
    4a26:	90 93 1d 22 	sts	0x221D, r25
    4a2a:	a0 93 1e 22 	sts	0x221E, r26
    4a2e:	b0 93 1f 22 	sts	0x221F, r27
	ax.a[X].timer->PER = 0x1000;			// step rate (period)
    4a32:	e0 91 2a 22 	lds	r30, 0x222A
    4a36:	f0 91 2b 22 	lds	r31, 0x222B
    4a3a:	80 e0       	ldi	r24, 0x00	; 0
    4a3c:	90 e1       	ldi	r25, 0x10	; 16
    4a3e:	86 a3       	std	Z+38, r24	; 0x26
    4a40:	97 a3       	std	Z+39, r25	; 0x27
	ax.a[X].timer->CTRLA = TC_CLK_ON;		// start clock
    4a42:	41 e0       	ldi	r20, 0x01	; 1
    4a44:	40 83       	st	Z, r20

	ax.a[Y].step_counter = 0x00000800;
    4a46:	80 e0       	ldi	r24, 0x00	; 0
    4a48:	98 e0       	ldi	r25, 0x08	; 8
    4a4a:	a0 e0       	ldi	r26, 0x00	; 0
    4a4c:	b0 e0       	ldi	r27, 0x00	; 0
    4a4e:	80 93 2c 22 	sts	0x222C, r24
    4a52:	90 93 2d 22 	sts	0x222D, r25
    4a56:	a0 93 2e 22 	sts	0x222E, r26
    4a5a:	b0 93 2f 22 	sts	0x222F, r27
	ax.a[Y].timer->PER = 0x2000;
    4a5e:	e0 91 3a 22 	lds	r30, 0x223A
    4a62:	f0 91 3b 22 	lds	r31, 0x223B
    4a66:	80 e0       	ldi	r24, 0x00	; 0
    4a68:	90 e2       	ldi	r25, 0x20	; 32
    4a6a:	86 a3       	std	Z+38, r24	; 0x26
    4a6c:	97 a3       	std	Z+39, r25	; 0x27
	ax.a[Y].timer->CTRLA = TC_CLK_ON;
    4a6e:	40 83       	st	Z, r20

	ax.a[Z].step_counter = 0x00000600;
    4a70:	80 e0       	ldi	r24, 0x00	; 0
    4a72:	96 e0       	ldi	r25, 0x06	; 6
    4a74:	a0 e0       	ldi	r26, 0x00	; 0
    4a76:	b0 e0       	ldi	r27, 0x00	; 0
    4a78:	80 93 3c 22 	sts	0x223C, r24
    4a7c:	90 93 3d 22 	sts	0x223D, r25
    4a80:	a0 93 3e 22 	sts	0x223E, r26
    4a84:	b0 93 3f 22 	sts	0x223F, r27
	ax.a[Z].timer->PER = 0x3000;
    4a88:	e0 91 4a 22 	lds	r30, 0x224A
    4a8c:	f0 91 4b 22 	lds	r31, 0x224B
    4a90:	80 e0       	ldi	r24, 0x00	; 0
    4a92:	90 e3       	ldi	r25, 0x30	; 48
    4a94:	86 a3       	std	Z+38, r24	; 0x26
    4a96:	97 a3       	std	Z+39, r25	; 0x27
	ax.a[Z].timer->CTRLA = TC_CLK_ON;
    4a98:	40 83       	st	Z, r20

	ax.a[A].step_counter = 0x00000400;
    4a9a:	80 e0       	ldi	r24, 0x00	; 0
    4a9c:	94 e0       	ldi	r25, 0x04	; 4
    4a9e:	a0 e0       	ldi	r26, 0x00	; 0
    4aa0:	b0 e0       	ldi	r27, 0x00	; 0
    4aa2:	80 93 4c 22 	sts	0x224C, r24
    4aa6:	90 93 4d 22 	sts	0x224D, r25
    4aaa:	a0 93 4e 22 	sts	0x224E, r26
    4aae:	b0 93 4f 22 	sts	0x224F, r27
	ax.a[A].timer->PER = 0x4000;
    4ab2:	d9 01       	movw	r26, r18
    4ab4:	de 96       	adiw	r26, 0x3e	; 62
    4ab6:	ed 91       	ld	r30, X+
    4ab8:	fc 91       	ld	r31, X
    4aba:	df 97       	sbiw	r26, 0x3f	; 63
    4abc:	80 e0       	ldi	r24, 0x00	; 0
    4abe:	90 e4       	ldi	r25, 0x40	; 64
    4ac0:	86 a3       	std	Z+38, r24	; 0x26
    4ac2:	97 a3       	std	Z+39, r25	; 0x27
	ax.a[A].timer->CTRLA = TC_CLK_ON;
    4ac4:	40 83       	st	Z, r20

	ax.active_axes |= (X_ACTIVE_BIT_bm | Y_ACTIVE_BIT_bm | Z_ACTIVE_BIT_bm | A_ACTIVE_BIT_bm);
    4ac6:	23 50       	subi	r18, 0x03	; 3
    4ac8:	30 40       	sbci	r19, 0x00	; 0
    4aca:	f9 01       	movw	r30, r18
    4acc:	80 81       	ld	r24, Z
    4ace:	8f 60       	ori	r24, 0x0F	; 15
    4ad0:	80 83       	st	Z, r24
}
    4ad2:	08 95       	ret

00004ad4 <st_terminate>:
 * st_terminate() - stop moves after the current move
 */

void st_terminate()
{
	cli();
    4ad4:	f8 94       	cli
	mv_flush();									// flush the move buffer
    4ad6:	0e 94 40 2d 	call	0x5a80	; 0x5a80 <mv_flush>
	sei();
    4ada:	78 94       	sei
}
    4adc:	08 95       	ret

00004ade <st_stop_steppers>:
 * st_kill() - STOP. NOW. UNCONDITIONALLY
 */

void st_stop_steppers()
{
	cli();										// stop interrupts
    4ade:	f8 94       	cli
	for (uint8_t i=X; i<=A; i++) {
		ax.a[i].timer->CTRLA = TC_CLK_OFF;		// stop the clocks
    4ae0:	e0 91 2a 22 	lds	r30, 0x222A
    4ae4:	f0 91 2b 22 	lds	r31, 0x222B
    4ae8:	10 82       	st	Z, r1
    4aea:	e0 91 3a 22 	lds	r30, 0x223A
    4aee:	f0 91 3b 22 	lds	r31, 0x223B
    4af2:	10 82       	st	Z, r1
    4af4:	e0 91 4a 22 	lds	r30, 0x224A
    4af8:	f0 91 4b 22 	lds	r31, 0x224B
    4afc:	10 82       	st	Z, r1
    4afe:	e0 91 5a 22 	lds	r30, 0x225A
    4b02:	f0 91 5b 22 	lds	r31, 0x225B
    4b06:	10 82       	st	Z, r1
	}	
	mv_flush();									// flush the move buffer
    4b08:	0e 94 40 2d 	call	0x5a80	; 0x5a80 <mv_flush>
	ax.active_axes = 0;							// clear all the active bits
    4b0c:	10 92 19 22 	sts	0x2219, r1
	sei();
    4b10:	78 94       	sei
}
    4b12:	08 95       	ret

00004b14 <st_execute_move>:
 *	reason they are not active - the ISR found nothing to load. So please don't 
 *	mess with the ordering of this code region.
 */

void st_execute_move()
{
    4b14:	cf 92       	push	r12
    4b16:	df 92       	push	r13
    4b18:	ef 92       	push	r14
    4b1a:	ff 92       	push	r15
    4b1c:	0f 93       	push	r16
    4b1e:	1f 93       	push	r17
    4b20:	cf 93       	push	r28
    4b22:	df 93       	push	r29
	uint8_t i;

	// ******** don't re-order this code region - from here... ********
	if (ax.mutex) { 			// prevents ISR from clobbering non-ISR invocation
    4b24:	80 91 17 22 	lds	r24, 0x2217
    4b28:	88 23       	and	r24, r24
    4b2a:	09 f0       	breq	.+2      	; 0x4b2e <st_execute_move+0x1a>
    4b2c:	32 c1       	rjmp	.+612    	; 0x4d92 <st_execute_move+0x27e>
		return;
	}
	ax.mutex = TRUE;
    4b2e:	81 e0       	ldi	r24, 0x01	; 1
    4b30:	80 93 17 22 	sts	0x2217, r24
	if (ax.active_axes != 0) {	// exit if any axis is still busy (any bit set)
    4b34:	80 91 19 22 	lds	r24, 0x2219
    4b38:	88 23       	and	r24, r24
    4b3a:	09 f0       	breq	.+2      	; 0x4b3e <st_execute_move+0x2a>
    4b3c:	28 c1       	rjmp	.+592    	; 0x4d8e <st_execute_move+0x27a>
		ax.mutex = FALSE;	
		return;
	}
	if ((ax.p = mv_dequeue_move_buffer()) == NULL) {// NULL is empty buffer condition
    4b3e:	0e 94 fd 2c 	call	0x59fa	; 0x59fa <mv_dequeue_move_buffer>
    4b42:	80 93 1a 22 	sts	0x221A, r24
    4b46:	90 93 1b 22 	sts	0x221B, r25
    4b4a:	89 2b       	or	r24, r25
    4b4c:	09 f4       	brne	.+2      	; 0x4b50 <st_execute_move+0x3c>
    4b4e:	1f c1       	rjmp	.+574    	; 0x4d8e <st_execute_move+0x27a>
		ax.mutex = FALSE;
		return;
    4b50:	6c e1       	ldi	r22, 0x1C	; 28
    4b52:	72 e2       	ldi	r23, 0x22	; 34
    4b54:	00 e0       	ldi	r16, 0x00	; 0
    4b56:	10 e0       	ldi	r17, 0x00	; 0
		ax.a[i].step_counter = ax.p->a[i].steps;
		ax.a[i].postscale_value = ax.p->a[i].postscale;
		ax.a[i].postscale_counter = ax.p->a[i].postscale;
		ax.a[i].timer_period = ax.p->a[i].period;		// not used for anything
		ax.a[i].timer->PER = ax.p->a[i].period;
		ax.a[i].port->OUTCLR = MOTOR_ENABLE_BIT_bm;		// enable motor
    4b58:	94 e0       	ldi	r25, 0x04	; 4
    4b5a:	c9 2e       	mov	r12, r25
		}

		ax.a[i].flags = ax.p->a[i].flags; 		// import flags from queued move

		// set direction bit and compensate for polarity
		(ax.p->a[i].direction ^ ax.a[i].polarity) ?
    4b5c:	82 e0       	ldi	r24, 0x02	; 2
    4b5e:	d8 2e       	mov	r13, r24
		ax.mutex = FALSE;	
		return;
	}
	if ((ax.p = mv_dequeue_move_buffer()) == NULL) {// NULL is empty buffer condition
		ax.mutex = FALSE;
		return;
    4b60:	f0 2e       	mov	r15, r16
    4b62:	e1 2e       	mov	r14, r17
	_st_fake_move();
	return;
#endif

	for (i=X; i<=Z; i++) {
		ax.a[i].timer->CTRLA = TC_CLK_OFF;		// turn clock off, to be sure
    4b64:	db 01       	movw	r26, r22
    4b66:	1e 96       	adiw	r26, 0x0e	; 14
    4b68:	ed 91       	ld	r30, X+
    4b6a:	fc 91       	ld	r31, X
    4b6c:	1f 97       	sbiw	r26, 0x0f	; 15
    4b6e:	10 82       	st	Z, r1
		if (ax.p->a[i].steps == 0) {			// skip axis if zero steps
    4b70:	c0 91 1a 22 	lds	r28, 0x221A
    4b74:	d0 91 1b 22 	lds	r29, 0x221B
    4b78:	c8 01       	movw	r24, r16
    4b7a:	fc 01       	movw	r30, r24
    4b7c:	b3 e0       	ldi	r27, 0x03	; 3
    4b7e:	ee 0f       	add	r30, r30
    4b80:	ff 1f       	adc	r31, r31
    4b82:	ba 95       	dec	r27
    4b84:	e1 f7       	brne	.-8      	; 0x4b7e <st_execute_move+0x6a>
    4b86:	88 0f       	add	r24, r24
    4b88:	99 1f       	adc	r25, r25
    4b8a:	e8 0f       	add	r30, r24
    4b8c:	f9 1f       	adc	r31, r25
    4b8e:	ec 0f       	add	r30, r28
    4b90:	fd 1f       	adc	r31, r29
    4b92:	80 81       	ld	r24, Z
    4b94:	91 81       	ldd	r25, Z+1	; 0x01
    4b96:	a2 81       	ldd	r26, Z+2	; 0x02
    4b98:	b3 81       	ldd	r27, Z+3	; 0x03
    4b9a:	00 97       	sbiw	r24, 0x00	; 0
    4b9c:	a1 05       	cpc	r26, r1
    4b9e:	b1 05       	cpc	r27, r1
    4ba0:	09 f4       	brne	.+2      	; 0x4ba4 <st_execute_move+0x90>
    4ba2:	a6 c0       	rjmp	.+332    	; 0x4cf0 <st_execute_move+0x1dc>
			continue;
		}

		ax.a[i].flags = ax.p->a[i].flags; 		// import flags from queued move
    4ba4:	c8 01       	movw	r24, r16
    4ba6:	9c 01       	movw	r18, r24
    4ba8:	f3 e0       	ldi	r31, 0x03	; 3
    4baa:	22 0f       	add	r18, r18
    4bac:	33 1f       	adc	r19, r19
    4bae:	fa 95       	dec	r31
    4bb0:	e1 f7       	brne	.-8      	; 0x4baa <st_execute_move+0x96>
    4bb2:	88 0f       	add	r24, r24
    4bb4:	99 1f       	adc	r25, r25
    4bb6:	28 0f       	add	r18, r24
    4bb8:	39 1f       	adc	r19, r25
    4bba:	c2 0f       	add	r28, r18
    4bbc:	d3 1f       	adc	r29, r19
    4bbe:	89 85       	ldd	r24, Y+9	; 0x09
    4bc0:	fb 01       	movw	r30, r22
    4bc2:	83 87       	std	Z+11, r24	; 0x0b

		// set direction bit and compensate for polarity
		(ax.p->a[i].direction ^ ax.a[i].polarity) ?
    4bc4:	e0 91 1a 22 	lds	r30, 0x221A
    4bc8:	f0 91 1b 22 	lds	r31, 0x221B
    4bcc:	c8 01       	movw	r24, r16
    4bce:	9c 01       	movw	r18, r24
    4bd0:	53 e0       	ldi	r21, 0x03	; 3
    4bd2:	22 0f       	add	r18, r18
    4bd4:	33 1f       	adc	r19, r19
    4bd6:	5a 95       	dec	r21
    4bd8:	e1 f7       	brne	.-8      	; 0x4bd2 <st_execute_move+0xbe>
    4bda:	88 0f       	add	r24, r24
    4bdc:	99 1f       	adc	r25, r25
    4bde:	28 0f       	add	r18, r24
    4be0:	39 1f       	adc	r19, r25
    4be2:	e2 0f       	add	r30, r18
    4be4:	f3 1f       	adc	r31, r19
    4be6:	90 85       	ldd	r25, Z+8	; 0x08
    4be8:	db 01       	movw	r26, r22
    4bea:	1a 96       	adiw	r26, 0x0a	; 10
    4bec:	8c 91       	ld	r24, X
    4bee:	1a 97       	sbiw	r26, 0x0a	; 10
    4bf0:	1c 96       	adiw	r26, 0x0c	; 12
    4bf2:	ed 91       	ld	r30, X+
    4bf4:	fc 91       	ld	r31, X
    4bf6:	1d 97       	sbiw	r26, 0x0d	; 13
    4bf8:	98 17       	cp	r25, r24
    4bfa:	11 f0       	breq	.+4      	; 0x4c00 <st_execute_move+0xec>
    4bfc:	d5 82       	std	Z+5, r13	; 0x05
    4bfe:	01 c0       	rjmp	.+2      	; 0x4c02 <st_execute_move+0xee>
    4c00:	d6 82       	std	Z+6, r13	; 0x06
		   (ax.a[i].port->OUTSET = DIRECTION_BIT_bm):	// CCW
		   (ax.a[i].port->OUTCLR = DIRECTION_BIT_bm);	// CW

		// load timers and other stepper ISR values
		ax.a[i].step_counter = ax.p->a[i].steps;
    4c02:	40 91 1a 22 	lds	r20, 0x221A
    4c06:	50 91 1b 22 	lds	r21, 0x221B
    4c0a:	8f 2d       	mov	r24, r15
    4c0c:	9e 2d       	mov	r25, r14
    4c0e:	fc 01       	movw	r30, r24
    4c10:	33 e0       	ldi	r19, 0x03	; 3
    4c12:	ee 0f       	add	r30, r30
    4c14:	ff 1f       	adc	r31, r31
    4c16:	3a 95       	dec	r19
    4c18:	e1 f7       	brne	.-8      	; 0x4c12 <st_execute_move+0xfe>
    4c1a:	88 0f       	add	r24, r24
    4c1c:	99 1f       	adc	r25, r25
    4c1e:	e8 0f       	add	r30, r24
    4c20:	f9 1f       	adc	r31, r25
    4c22:	e4 0f       	add	r30, r20
    4c24:	f5 1f       	adc	r31, r21
    4c26:	80 81       	ld	r24, Z
    4c28:	91 81       	ldd	r25, Z+1	; 0x01
    4c2a:	a2 81       	ldd	r26, Z+2	; 0x02
    4c2c:	b3 81       	ldd	r27, Z+3	; 0x03
    4c2e:	fb 01       	movw	r30, r22
    4c30:	80 83       	st	Z, r24
    4c32:	91 83       	std	Z+1, r25	; 0x01
    4c34:	a2 83       	std	Z+2, r26	; 0x02
    4c36:	b3 83       	std	Z+3, r27	; 0x03
		ax.a[i].postscale_value = ax.p->a[i].postscale;
    4c38:	8f 2d       	mov	r24, r15
    4c3a:	9e 2d       	mov	r25, r14
    4c3c:	fc 01       	movw	r30, r24
    4c3e:	b3 e0       	ldi	r27, 0x03	; 3
    4c40:	ee 0f       	add	r30, r30
    4c42:	ff 1f       	adc	r31, r31
    4c44:	ba 95       	dec	r27
    4c46:	e1 f7       	brne	.-8      	; 0x4c40 <st_execute_move+0x12c>
    4c48:	88 0f       	add	r24, r24
    4c4a:	99 1f       	adc	r25, r25
    4c4c:	e8 0f       	add	r30, r24
    4c4e:	f9 1f       	adc	r31, r25
    4c50:	e4 0f       	add	r30, r20
    4c52:	f5 1f       	adc	r31, r21
    4c54:	86 81       	ldd	r24, Z+6	; 0x06
    4c56:	97 81       	ldd	r25, Z+7	; 0x07
    4c58:	db 01       	movw	r26, r22
    4c5a:	16 96       	adiw	r26, 0x06	; 6
    4c5c:	8d 93       	st	X+, r24
    4c5e:	9c 93       	st	X, r25
    4c60:	17 97       	sbiw	r26, 0x07	; 7
		ax.a[i].postscale_counter = ax.p->a[i].postscale;
    4c62:	8f 2d       	mov	r24, r15
    4c64:	9e 2d       	mov	r25, r14
    4c66:	fc 01       	movw	r30, r24
    4c68:	33 e0       	ldi	r19, 0x03	; 3
    4c6a:	ee 0f       	add	r30, r30
    4c6c:	ff 1f       	adc	r31, r31
    4c6e:	3a 95       	dec	r19
    4c70:	e1 f7       	brne	.-8      	; 0x4c6a <st_execute_move+0x156>
    4c72:	88 0f       	add	r24, r24
    4c74:	99 1f       	adc	r25, r25
    4c76:	e8 0f       	add	r30, r24
    4c78:	f9 1f       	adc	r31, r25
    4c7a:	e4 0f       	add	r30, r20
    4c7c:	f5 1f       	adc	r31, r21
    4c7e:	86 81       	ldd	r24, Z+6	; 0x06
    4c80:	97 81       	ldd	r25, Z+7	; 0x07
    4c82:	18 96       	adiw	r26, 0x08	; 8
    4c84:	8d 93       	st	X+, r24
    4c86:	9c 93       	st	X, r25
    4c88:	19 97       	sbiw	r26, 0x09	; 9
		ax.a[i].timer_period = ax.p->a[i].period;		// not used for anything
    4c8a:	8f 2d       	mov	r24, r15
    4c8c:	9e 2d       	mov	r25, r14
    4c8e:	fc 01       	movw	r30, r24
    4c90:	33 e0       	ldi	r19, 0x03	; 3
    4c92:	ee 0f       	add	r30, r30
    4c94:	ff 1f       	adc	r31, r31
    4c96:	3a 95       	dec	r19
    4c98:	e1 f7       	brne	.-8      	; 0x4c92 <st_execute_move+0x17e>
    4c9a:	88 0f       	add	r24, r24
    4c9c:	99 1f       	adc	r25, r25
    4c9e:	e8 0f       	add	r30, r24
    4ca0:	f9 1f       	adc	r31, r25
    4ca2:	e4 0f       	add	r30, r20
    4ca4:	f5 1f       	adc	r31, r21
    4ca6:	84 81       	ldd	r24, Z+4	; 0x04
    4ca8:	95 81       	ldd	r25, Z+5	; 0x05
    4caa:	14 96       	adiw	r26, 0x04	; 4
    4cac:	8d 93       	st	X+, r24
    4cae:	9c 93       	st	X, r25
    4cb0:	15 97       	sbiw	r26, 0x05	; 5
		ax.a[i].timer->PER = ax.p->a[i].period;
    4cb2:	1e 96       	adiw	r26, 0x0e	; 14
    4cb4:	ed 91       	ld	r30, X+
    4cb6:	fc 91       	ld	r31, X
    4cb8:	1f 97       	sbiw	r26, 0x0f	; 15
    4cba:	8f 2d       	mov	r24, r15
    4cbc:	9e 2d       	mov	r25, r14
    4cbe:	9c 01       	movw	r18, r24
    4cc0:	b3 e0       	ldi	r27, 0x03	; 3
    4cc2:	22 0f       	add	r18, r18
    4cc4:	33 1f       	adc	r19, r19
    4cc6:	ba 95       	dec	r27
    4cc8:	e1 f7       	brne	.-8      	; 0x4cc2 <st_execute_move+0x1ae>
    4cca:	88 0f       	add	r24, r24
    4ccc:	99 1f       	adc	r25, r25
    4cce:	28 0f       	add	r18, r24
    4cd0:	39 1f       	adc	r19, r25
    4cd2:	42 0f       	add	r20, r18
    4cd4:	53 1f       	adc	r21, r19
    4cd6:	da 01       	movw	r26, r20
    4cd8:	14 96       	adiw	r26, 0x04	; 4
    4cda:	8d 91       	ld	r24, X+
    4cdc:	9c 91       	ld	r25, X
    4cde:	15 97       	sbiw	r26, 0x05	; 5
    4ce0:	86 a3       	std	Z+38, r24	; 0x26
    4ce2:	97 a3       	std	Z+39, r25	; 0x27
		ax.a[i].port->OUTCLR = MOTOR_ENABLE_BIT_bm;		// enable motor
    4ce4:	db 01       	movw	r26, r22
    4ce6:	1c 96       	adiw	r26, 0x0c	; 12
    4ce8:	ed 91       	ld	r30, X+
    4cea:	fc 91       	ld	r31, X
    4cec:	1d 97       	sbiw	r26, 0x0d	; 13
    4cee:	c6 82       	std	Z+6, r12	; 0x06
    4cf0:	0f 5f       	subi	r16, 0xFF	; 255
    4cf2:	1f 4f       	sbci	r17, 0xFF	; 255
    4cf4:	60 5f       	subi	r22, 0xF0	; 240
    4cf6:	7f 4f       	sbci	r23, 0xFF	; 255
#ifdef __FAKE_STEPPERS	// bypasses the ISR load for fast debugging in simulation
	_st_fake_move();
	return;
#endif

	for (i=X; i<=Z; i++) {
    4cf8:	03 30       	cpi	r16, 0x03	; 3
    4cfa:	11 05       	cpc	r17, r1
    4cfc:	09 f0       	breq	.+2      	; 0x4d00 <st_execute_move+0x1ec>
    4cfe:	30 cf       	rjmp	.-416    	; 0x4b60 <st_execute_move+0x4c>
		ax.a[i].timer->PER = ax.p->a[i].period;
		ax.a[i].port->OUTCLR = MOTOR_ENABLE_BIT_bm;		// enable motor
	}

	// enable all the axes at the same time (roughly). Better for motor sync.
	ax.active_axes = 0;
    4d00:	10 92 19 22 	sts	0x2219, r1
	if (ax.a[X].step_counter) { 
    4d04:	80 91 1c 22 	lds	r24, 0x221C
    4d08:	90 91 1d 22 	lds	r25, 0x221D
    4d0c:	a0 91 1e 22 	lds	r26, 0x221E
    4d10:	b0 91 1f 22 	lds	r27, 0x221F
    4d14:	00 97       	sbiw	r24, 0x00	; 0
    4d16:	a1 05       	cpc	r26, r1
    4d18:	b1 05       	cpc	r27, r1
    4d1a:	59 f0       	breq	.+22     	; 0x4d32 <st_execute_move+0x21e>
		ax.a[X].timer->CTRLA = TC_CLK_ON;
    4d1c:	e0 91 2a 22 	lds	r30, 0x222A
    4d20:	f0 91 2b 22 	lds	r31, 0x222B
    4d24:	81 e0       	ldi	r24, 0x01	; 1
    4d26:	80 83       	st	Z, r24
		ax.active_axes |= X_ACTIVE_BIT_bm;
    4d28:	80 91 19 22 	lds	r24, 0x2219
    4d2c:	88 60       	ori	r24, 0x08	; 8
    4d2e:	80 93 19 22 	sts	0x2219, r24
	}
	if (ax.a[Y].step_counter) {
    4d32:	80 91 2c 22 	lds	r24, 0x222C
    4d36:	90 91 2d 22 	lds	r25, 0x222D
    4d3a:	a0 91 2e 22 	lds	r26, 0x222E
    4d3e:	b0 91 2f 22 	lds	r27, 0x222F
    4d42:	00 97       	sbiw	r24, 0x00	; 0
    4d44:	a1 05       	cpc	r26, r1
    4d46:	b1 05       	cpc	r27, r1
    4d48:	59 f0       	breq	.+22     	; 0x4d60 <st_execute_move+0x24c>
		ax.a[Y].timer->CTRLA = TC_CLK_ON;
    4d4a:	e0 91 3a 22 	lds	r30, 0x223A
    4d4e:	f0 91 3b 22 	lds	r31, 0x223B
    4d52:	81 e0       	ldi	r24, 0x01	; 1
    4d54:	80 83       	st	Z, r24
		ax.active_axes |= Y_ACTIVE_BIT_bm;
    4d56:	80 91 19 22 	lds	r24, 0x2219
    4d5a:	84 60       	ori	r24, 0x04	; 4
    4d5c:	80 93 19 22 	sts	0x2219, r24
	}
	if (ax.a[Z].step_counter) {
    4d60:	80 91 3c 22 	lds	r24, 0x223C
    4d64:	90 91 3d 22 	lds	r25, 0x223D
    4d68:	a0 91 3e 22 	lds	r26, 0x223E
    4d6c:	b0 91 3f 22 	lds	r27, 0x223F
    4d70:	00 97       	sbiw	r24, 0x00	; 0
    4d72:	a1 05       	cpc	r26, r1
    4d74:	b1 05       	cpc	r27, r1
    4d76:	59 f0       	breq	.+22     	; 0x4d8e <st_execute_move+0x27a>
		ax.a[Z].timer->CTRLA = TC_CLK_ON;
    4d78:	e0 91 4a 22 	lds	r30, 0x224A
    4d7c:	f0 91 4b 22 	lds	r31, 0x224B
    4d80:	81 e0       	ldi	r24, 0x01	; 1
    4d82:	80 83       	st	Z, r24
		ax.active_axes |= Z_ACTIVE_BIT_bm;
    4d84:	80 91 19 22 	lds	r24, 0x2219
    4d88:	82 60       	ori	r24, 0x02	; 2
    4d8a:	80 93 19 22 	sts	0x2219, r24
#ifdef __DEBUG
//	_st_print_exec_line(ax.a[X_AXIS].step_counter,
//						ax.a[Y_AXIS].step_counter,
//						ax.a[Z_AXIS].step_counter, ax.active_axes);
#endif
	ax.mutex = FALSE;
    4d8e:	10 92 17 22 	sts	0x2217, r1
}
    4d92:	df 91       	pop	r29
    4d94:	cf 91       	pop	r28
    4d96:	1f 91       	pop	r17
    4d98:	0f 91       	pop	r16
    4d9a:	ff 90       	pop	r15
    4d9c:	ef 90       	pop	r14
    4d9e:	df 90       	pop	r13
    4da0:	cf 90       	pop	r12
    4da2:	08 95       	ret

00004da4 <_st_fake_move>:
 * _st_fake_move() - Debugging tool
 */

void _st_fake_move()
{
	ax.mutex = FALSE;
    4da4:	10 92 17 22 	sts	0x2217, r1
	st_execute_move();		// recursively empty the move queue
    4da8:	0e 94 8a 25 	call	0x4b14	; 0x4b14 <st_execute_move>
	return;
}
    4dac:	08 95       	ret

00004dae <__vector_108>:
	STEPPER_DELAY
	Z_MOTOR_PORT.OUTCLR = STEP_BIT_bm;
}

ISR(A_TIMER_ISR_vect)
{
    4dae:	1f 92       	push	r1
    4db0:	0f 92       	push	r0
    4db2:	0f b6       	in	r0, 0x3f	; 63
    4db4:	0f 92       	push	r0
    4db6:	0b b6       	in	r0, 0x3b	; 59
    4db8:	0f 92       	push	r0
    4dba:	11 24       	eor	r1, r1
    4dbc:	2f 93       	push	r18
    4dbe:	3f 93       	push	r19
    4dc0:	4f 93       	push	r20
    4dc2:	5f 93       	push	r21
    4dc4:	6f 93       	push	r22
    4dc6:	7f 93       	push	r23
    4dc8:	8f 93       	push	r24
    4dca:	9f 93       	push	r25
    4dcc:	af 93       	push	r26
    4dce:	bf 93       	push	r27
    4dd0:	ef 93       	push	r30
    4dd2:	ff 93       	push	r31
	if (--ax.a[A].postscale_counter != 0) {
    4dd4:	80 91 54 22 	lds	r24, 0x2254
    4dd8:	90 91 55 22 	lds	r25, 0x2255
    4ddc:	01 97       	sbiw	r24, 0x01	; 1
    4dde:	80 93 54 22 	sts	0x2254, r24
    4de2:	90 93 55 22 	sts	0x2255, r25
    4de6:	89 2b       	or	r24, r25
    4de8:	a1 f5       	brne	.+104    	; 0x4e52 <__vector_108+0xa4>
		return;
	}
	A_MOTOR_PORT.OUTSET = STEP_BIT_bm;
    4dea:	e0 e6       	ldi	r30, 0x60	; 96
    4dec:	f6 e0       	ldi	r31, 0x06	; 6
    4dee:	81 e0       	ldi	r24, 0x01	; 1
    4df0:	85 83       	std	Z+5, r24	; 0x05
	if (--ax.a[A].step_counter == 0) {
    4df2:	80 91 4c 22 	lds	r24, 0x224C
    4df6:	90 91 4d 22 	lds	r25, 0x224D
    4dfa:	a0 91 4e 22 	lds	r26, 0x224E
    4dfe:	b0 91 4f 22 	lds	r27, 0x224F
    4e02:	01 97       	sbiw	r24, 0x01	; 1
    4e04:	a1 09       	sbc	r26, r1
    4e06:	b1 09       	sbc	r27, r1
    4e08:	80 93 4c 22 	sts	0x224C, r24
    4e0c:	90 93 4d 22 	sts	0x224D, r25
    4e10:	a0 93 4e 22 	sts	0x224E, r26
    4e14:	b0 93 4f 22 	sts	0x224F, r27
    4e18:	00 97       	sbiw	r24, 0x00	; 0
    4e1a:	a1 05       	cpc	r26, r1
    4e1c:	b1 05       	cpc	r27, r1
    4e1e:	69 f4       	brne	.+26     	; 0x4e3a <__vector_108+0x8c>
		A_TIMER.CTRLA = TC_CLK_OFF;
    4e20:	10 92 00 0b 	sts	0x0B00, r1
		A_MOTOR_PORT.OUTSET = MOTOR_ENABLE_BIT_bm;
    4e24:	84 e0       	ldi	r24, 0x04	; 4
    4e26:	85 83       	std	Z+5, r24	; 0x05
		ax.active_axes &= ~A_ACTIVE_BIT_bm;
    4e28:	80 91 19 22 	lds	r24, 0x2219
    4e2c:	8e 7f       	andi	r24, 0xFE	; 254
    4e2e:	80 93 19 22 	sts	0x2219, r24
		if (ax.active_axes == 0) {
    4e32:	88 23       	and	r24, r24
    4e34:	11 f4       	brne	.+4      	; 0x4e3a <__vector_108+0x8c>
			st_execute_move();
    4e36:	0e 94 8a 25 	call	0x4b14	; 0x4b14 <st_execute_move>
		}
	}
	ax.a[A].postscale_counter = ax.a[A].postscale_value;
    4e3a:	80 91 52 22 	lds	r24, 0x2252
    4e3e:	90 91 53 22 	lds	r25, 0x2253
    4e42:	80 93 54 22 	sts	0x2254, r24
    4e46:	90 93 55 22 	sts	0x2255, r25
	STEPPER_DELAY
	A_MOTOR_PORT.OUTCLR = STEP_BIT_bm;
    4e4a:	81 e0       	ldi	r24, 0x01	; 1
    4e4c:	e0 e6       	ldi	r30, 0x60	; 96
    4e4e:	f6 e0       	ldi	r31, 0x06	; 6
    4e50:	86 83       	std	Z+6, r24	; 0x06
}
    4e52:	ff 91       	pop	r31
    4e54:	ef 91       	pop	r30
    4e56:	bf 91       	pop	r27
    4e58:	af 91       	pop	r26
    4e5a:	9f 91       	pop	r25
    4e5c:	8f 91       	pop	r24
    4e5e:	7f 91       	pop	r23
    4e60:	6f 91       	pop	r22
    4e62:	5f 91       	pop	r21
    4e64:	4f 91       	pop	r20
    4e66:	3f 91       	pop	r19
    4e68:	2f 91       	pop	r18
    4e6a:	0f 90       	pop	r0
    4e6c:	0b be       	out	0x3b, r0	; 59
    4e6e:	0f 90       	pop	r0
    4e70:	0f be       	out	0x3f, r0	; 63
    4e72:	0f 90       	pop	r0
    4e74:	1f 90       	pop	r1
    4e76:	18 95       	reti

00004e78 <__vector_47>:
	STEPPER_DELAY
	Y_MOTOR_PORT.OUTCLR = STEP_BIT_bm;
}

ISR(Z_TIMER_ISR_vect)
{
    4e78:	1f 92       	push	r1
    4e7a:	0f 92       	push	r0
    4e7c:	0f b6       	in	r0, 0x3f	; 63
    4e7e:	0f 92       	push	r0
    4e80:	0b b6       	in	r0, 0x3b	; 59
    4e82:	0f 92       	push	r0
    4e84:	11 24       	eor	r1, r1
    4e86:	2f 93       	push	r18
    4e88:	3f 93       	push	r19
    4e8a:	4f 93       	push	r20
    4e8c:	5f 93       	push	r21
    4e8e:	6f 93       	push	r22
    4e90:	7f 93       	push	r23
    4e92:	8f 93       	push	r24
    4e94:	9f 93       	push	r25
    4e96:	af 93       	push	r26
    4e98:	bf 93       	push	r27
    4e9a:	ef 93       	push	r30
    4e9c:	ff 93       	push	r31
	if (--ax.a[Z].postscale_counter != 0) {
    4e9e:	80 91 44 22 	lds	r24, 0x2244
    4ea2:	90 91 45 22 	lds	r25, 0x2245
    4ea6:	01 97       	sbiw	r24, 0x01	; 1
    4ea8:	80 93 44 22 	sts	0x2244, r24
    4eac:	90 93 45 22 	sts	0x2245, r25
    4eb0:	89 2b       	or	r24, r25
    4eb2:	a1 f5       	brne	.+104    	; 0x4f1c <__vector_47+0xa4>
		return;
	}
	Z_MOTOR_PORT.OUTSET = STEP_BIT_bm;
    4eb4:	e0 e8       	ldi	r30, 0x80	; 128
    4eb6:	f6 e0       	ldi	r31, 0x06	; 6
    4eb8:	81 e0       	ldi	r24, 0x01	; 1
    4eba:	85 83       	std	Z+5, r24	; 0x05
	if (--ax.a[Z].step_counter == 0) {
    4ebc:	80 91 3c 22 	lds	r24, 0x223C
    4ec0:	90 91 3d 22 	lds	r25, 0x223D
    4ec4:	a0 91 3e 22 	lds	r26, 0x223E
    4ec8:	b0 91 3f 22 	lds	r27, 0x223F
    4ecc:	01 97       	sbiw	r24, 0x01	; 1
    4ece:	a1 09       	sbc	r26, r1
    4ed0:	b1 09       	sbc	r27, r1
    4ed2:	80 93 3c 22 	sts	0x223C, r24
    4ed6:	90 93 3d 22 	sts	0x223D, r25
    4eda:	a0 93 3e 22 	sts	0x223E, r26
    4ede:	b0 93 3f 22 	sts	0x223F, r27
    4ee2:	00 97       	sbiw	r24, 0x00	; 0
    4ee4:	a1 05       	cpc	r26, r1
    4ee6:	b1 05       	cpc	r27, r1
    4ee8:	69 f4       	brne	.+26     	; 0x4f04 <__vector_47+0x8c>
		Z_TIMER.CTRLA = TC_CLK_OFF;	
    4eea:	10 92 00 0a 	sts	0x0A00, r1
		Z_MOTOR_PORT.OUTSET = MOTOR_ENABLE_BIT_bm;
    4eee:	84 e0       	ldi	r24, 0x04	; 4
    4ef0:	85 83       	std	Z+5, r24	; 0x05
		ax.active_axes &= ~Z_ACTIVE_BIT_bm;
    4ef2:	80 91 19 22 	lds	r24, 0x2219
    4ef6:	8d 7f       	andi	r24, 0xFD	; 253
    4ef8:	80 93 19 22 	sts	0x2219, r24
		if (ax.active_axes == 0) {
    4efc:	88 23       	and	r24, r24
    4efe:	11 f4       	brne	.+4      	; 0x4f04 <__vector_47+0x8c>
			st_execute_move();
    4f00:	0e 94 8a 25 	call	0x4b14	; 0x4b14 <st_execute_move>
		}
	}
	ax.a[Z].postscale_counter = ax.a[Z].postscale_value;
    4f04:	80 91 42 22 	lds	r24, 0x2242
    4f08:	90 91 43 22 	lds	r25, 0x2243
    4f0c:	80 93 44 22 	sts	0x2244, r24
    4f10:	90 93 45 22 	sts	0x2245, r25
	STEPPER_DELAY
	Z_MOTOR_PORT.OUTCLR = STEP_BIT_bm;
    4f14:	81 e0       	ldi	r24, 0x01	; 1
    4f16:	e0 e8       	ldi	r30, 0x80	; 128
    4f18:	f6 e0       	ldi	r31, 0x06	; 6
    4f1a:	86 83       	std	Z+6, r24	; 0x06
}
    4f1c:	ff 91       	pop	r31
    4f1e:	ef 91       	pop	r30
    4f20:	bf 91       	pop	r27
    4f22:	af 91       	pop	r26
    4f24:	9f 91       	pop	r25
    4f26:	8f 91       	pop	r24
    4f28:	7f 91       	pop	r23
    4f2a:	6f 91       	pop	r22
    4f2c:	5f 91       	pop	r21
    4f2e:	4f 91       	pop	r20
    4f30:	3f 91       	pop	r19
    4f32:	2f 91       	pop	r18
    4f34:	0f 90       	pop	r0
    4f36:	0b be       	out	0x3b, r0	; 59
    4f38:	0f 90       	pop	r0
    4f3a:	0f be       	out	0x3f, r0	; 63
    4f3c:	0f 90       	pop	r0
    4f3e:	1f 90       	pop	r1
    4f40:	18 95       	reti

00004f42 <__vector_77>:
	STEPPER_DELAY								// optional stepper pulse delay
	X_MOTOR_PORT.OUTCLR = STEP_BIT_bm;			// turn X step bit off
}

ISR(Y_TIMER_ISR_vect)
{
    4f42:	1f 92       	push	r1
    4f44:	0f 92       	push	r0
    4f46:	0f b6       	in	r0, 0x3f	; 63
    4f48:	0f 92       	push	r0
    4f4a:	0b b6       	in	r0, 0x3b	; 59
    4f4c:	0f 92       	push	r0
    4f4e:	11 24       	eor	r1, r1
    4f50:	2f 93       	push	r18
    4f52:	3f 93       	push	r19
    4f54:	4f 93       	push	r20
    4f56:	5f 93       	push	r21
    4f58:	6f 93       	push	r22
    4f5a:	7f 93       	push	r23
    4f5c:	8f 93       	push	r24
    4f5e:	9f 93       	push	r25
    4f60:	af 93       	push	r26
    4f62:	bf 93       	push	r27
    4f64:	ef 93       	push	r30
    4f66:	ff 93       	push	r31
	if (--ax.a[Y].postscale_counter != 0) {
    4f68:	80 91 34 22 	lds	r24, 0x2234
    4f6c:	90 91 35 22 	lds	r25, 0x2235
    4f70:	01 97       	sbiw	r24, 0x01	; 1
    4f72:	80 93 34 22 	sts	0x2234, r24
    4f76:	90 93 35 22 	sts	0x2235, r25
    4f7a:	89 2b       	or	r24, r25
    4f7c:	a1 f5       	brne	.+104    	; 0x4fe6 <__vector_77+0xa4>
		return;
	}
	Y_MOTOR_PORT.OUTSET = STEP_BIT_bm;
    4f7e:	e0 ea       	ldi	r30, 0xA0	; 160
    4f80:	f6 e0       	ldi	r31, 0x06	; 6
    4f82:	81 e0       	ldi	r24, 0x01	; 1
    4f84:	85 83       	std	Z+5, r24	; 0x05
	if (--ax.a[Y].step_counter == 0) {
    4f86:	80 91 2c 22 	lds	r24, 0x222C
    4f8a:	90 91 2d 22 	lds	r25, 0x222D
    4f8e:	a0 91 2e 22 	lds	r26, 0x222E
    4f92:	b0 91 2f 22 	lds	r27, 0x222F
    4f96:	01 97       	sbiw	r24, 0x01	; 1
    4f98:	a1 09       	sbc	r26, r1
    4f9a:	b1 09       	sbc	r27, r1
    4f9c:	80 93 2c 22 	sts	0x222C, r24
    4fa0:	90 93 2d 22 	sts	0x222D, r25
    4fa4:	a0 93 2e 22 	sts	0x222E, r26
    4fa8:	b0 93 2f 22 	sts	0x222F, r27
    4fac:	00 97       	sbiw	r24, 0x00	; 0
    4fae:	a1 05       	cpc	r26, r1
    4fb0:	b1 05       	cpc	r27, r1
    4fb2:	69 f4       	brne	.+26     	; 0x4fce <__vector_77+0x8c>
		Y_TIMER.CTRLA = TC_CLK_OFF;
    4fb4:	10 92 00 09 	sts	0x0900, r1
		Y_MOTOR_PORT.OUTSET = MOTOR_ENABLE_BIT_bm;
    4fb8:	84 e0       	ldi	r24, 0x04	; 4
    4fba:	85 83       	std	Z+5, r24	; 0x05
		ax.active_axes &= ~Y_ACTIVE_BIT_bm;
    4fbc:	80 91 19 22 	lds	r24, 0x2219
    4fc0:	8b 7f       	andi	r24, 0xFB	; 251
    4fc2:	80 93 19 22 	sts	0x2219, r24
		if (ax.active_axes == 0) {
    4fc6:	88 23       	and	r24, r24
    4fc8:	11 f4       	brne	.+4      	; 0x4fce <__vector_77+0x8c>
			st_execute_move();
    4fca:	0e 94 8a 25 	call	0x4b14	; 0x4b14 <st_execute_move>
		}
	}
	ax.a[Y].postscale_counter = ax.a[Y].postscale_value;
    4fce:	80 91 32 22 	lds	r24, 0x2232
    4fd2:	90 91 33 22 	lds	r25, 0x2233
    4fd6:	80 93 34 22 	sts	0x2234, r24
    4fda:	90 93 35 22 	sts	0x2235, r25
	STEPPER_DELAY
	Y_MOTOR_PORT.OUTCLR = STEP_BIT_bm;
    4fde:	81 e0       	ldi	r24, 0x01	; 1
    4fe0:	e0 ea       	ldi	r30, 0xA0	; 160
    4fe2:	f6 e0       	ldi	r31, 0x06	; 6
    4fe4:	86 83       	std	Z+6, r24	; 0x06
}
    4fe6:	ff 91       	pop	r31
    4fe8:	ef 91       	pop	r30
    4fea:	bf 91       	pop	r27
    4fec:	af 91       	pop	r26
    4fee:	9f 91       	pop	r25
    4ff0:	8f 91       	pop	r24
    4ff2:	7f 91       	pop	r23
    4ff4:	6f 91       	pop	r22
    4ff6:	5f 91       	pop	r21
    4ff8:	4f 91       	pop	r20
    4ffa:	3f 91       	pop	r19
    4ffc:	2f 91       	pop	r18
    4ffe:	0f 90       	pop	r0
    5000:	0b be       	out	0x3b, r0	; 59
    5002:	0f 90       	pop	r0
    5004:	0f be       	out	0x3f, r0	; 63
    5006:	0f 90       	pop	r0
    5008:	1f 90       	pop	r1
    500a:	18 95       	reti

0000500c <__vector_14>:
 *	Uses direct struct addresses and literal values for hardware devices because it's 
 *  faster than using the timer and port pointers in the axis structs
 */

ISR(X_TIMER_ISR_vect)
{
    500c:	1f 92       	push	r1
    500e:	0f 92       	push	r0
    5010:	0f b6       	in	r0, 0x3f	; 63
    5012:	0f 92       	push	r0
    5014:	0b b6       	in	r0, 0x3b	; 59
    5016:	0f 92       	push	r0
    5018:	11 24       	eor	r1, r1
    501a:	2f 93       	push	r18
    501c:	3f 93       	push	r19
    501e:	4f 93       	push	r20
    5020:	5f 93       	push	r21
    5022:	6f 93       	push	r22
    5024:	7f 93       	push	r23
    5026:	8f 93       	push	r24
    5028:	9f 93       	push	r25
    502a:	af 93       	push	r26
    502c:	bf 93       	push	r27
    502e:	ef 93       	push	r30
    5030:	ff 93       	push	r31
	if (--ax.a[X].postscale_counter != 0) {		// get out fast, if you need to
    5032:	80 91 24 22 	lds	r24, 0x2224
    5036:	90 91 25 22 	lds	r25, 0x2225
    503a:	01 97       	sbiw	r24, 0x01	; 1
    503c:	80 93 24 22 	sts	0x2224, r24
    5040:	90 93 25 22 	sts	0x2225, r25
    5044:	89 2b       	or	r24, r25
    5046:	d1 f5       	brne	.+116    	; 0x50bc <__vector_14+0xb0>
		return;
	}
	if (!(ax.a[X].flags && DWELL_FLAG_bm)) {	// issue a pulse if not a dwell
    5048:	80 91 27 22 	lds	r24, 0x2227
    504c:	88 23       	and	r24, r24
    504e:	21 f4       	brne	.+8      	; 0x5058 <__vector_14+0x4c>
		X_MOTOR_PORT.OUTSET = STEP_BIT_bm;		// turn X step bit on
    5050:	81 e0       	ldi	r24, 0x01	; 1
    5052:	e0 e0       	ldi	r30, 0x00	; 0
    5054:	f6 e0       	ldi	r31, 0x06	; 6
    5056:	85 83       	std	Z+5, r24	; 0x05
	}
	if (--ax.a[X].step_counter == 0) {			// end-of-move processing
    5058:	80 91 1c 22 	lds	r24, 0x221C
    505c:	90 91 1d 22 	lds	r25, 0x221D
    5060:	a0 91 1e 22 	lds	r26, 0x221E
    5064:	b0 91 1f 22 	lds	r27, 0x221F
    5068:	01 97       	sbiw	r24, 0x01	; 1
    506a:	a1 09       	sbc	r26, r1
    506c:	b1 09       	sbc	r27, r1
    506e:	80 93 1c 22 	sts	0x221C, r24
    5072:	90 93 1d 22 	sts	0x221D, r25
    5076:	a0 93 1e 22 	sts	0x221E, r26
    507a:	b0 93 1f 22 	sts	0x221F, r27
    507e:	00 97       	sbiw	r24, 0x00	; 0
    5080:	a1 05       	cpc	r26, r1
    5082:	b1 05       	cpc	r27, r1
    5084:	79 f4       	brne	.+30     	; 0x50a4 <__vector_14+0x98>
		X_TIMER.CTRLA = TC_CLK_OFF;				// stop the clock
    5086:	10 92 00 08 	sts	0x0800, r1
		X_MOTOR_PORT.OUTSET = MOTOR_ENABLE_BIT_bm; // disable the motor
    508a:	84 e0       	ldi	r24, 0x04	; 4
    508c:	e0 e0       	ldi	r30, 0x00	; 0
    508e:	f6 e0       	ldi	r31, 0x06	; 6
    5090:	85 83       	std	Z+5, r24	; 0x05
		ax.active_axes &= ~X_ACTIVE_BIT_bm;		// clear the X active bit
    5092:	80 91 19 22 	lds	r24, 0x2219
    5096:	87 7f       	andi	r24, 0xF7	; 247
    5098:	80 93 19 22 	sts	0x2219, r24
		if (ax.active_axes == 0) {				// if all axes are done
    509c:	88 23       	and	r24, r24
    509e:	11 f4       	brne	.+4      	; 0x50a4 <__vector_14+0x98>
			st_execute_move();					// ...run the next move
    50a0:	0e 94 8a 25 	call	0x4b14	; 0x4b14 <st_execute_move>
		}
	}
	ax.a[X].postscale_counter = ax.a[X].postscale_value;// reset post-scaler counter
    50a4:	80 91 22 22 	lds	r24, 0x2222
    50a8:	90 91 23 22 	lds	r25, 0x2223
    50ac:	80 93 24 22 	sts	0x2224, r24
    50b0:	90 93 25 22 	sts	0x2225, r25
	STEPPER_DELAY								// optional stepper pulse delay
	X_MOTOR_PORT.OUTCLR = STEP_BIT_bm;			// turn X step bit off
    50b4:	81 e0       	ldi	r24, 0x01	; 1
    50b6:	e0 e0       	ldi	r30, 0x00	; 0
    50b8:	f6 e0       	ldi	r31, 0x06	; 6
    50ba:	86 83       	std	Z+6, r24	; 0x06
}
    50bc:	ff 91       	pop	r31
    50be:	ef 91       	pop	r30
    50c0:	bf 91       	pop	r27
    50c2:	af 91       	pop	r26
    50c4:	9f 91       	pop	r25
    50c6:	8f 91       	pop	r24
    50c8:	7f 91       	pop	r23
    50ca:	6f 91       	pop	r22
    50cc:	5f 91       	pop	r21
    50ce:	4f 91       	pop	r20
    50d0:	3f 91       	pop	r19
    50d2:	2f 91       	pop	r18
    50d4:	0f 90       	pop	r0
    50d6:	0b be       	out	0x3b, r0	; 59
    50d8:	0f 90       	pop	r0
    50da:	0f be       	out	0x3f, r0	; 63
    50dc:	0f 90       	pop	r0
    50de:	1f 90       	pop	r1
    50e0:	18 95       	reti

000050e2 <PMIC_SetVectorLocationToBoot>:
 *  Change Protection register before writing the CTRL register. Interrupts are
 *  automatically ignored during the change enable period.
 */
void PMIC_SetVectorLocationToBoot( void )
{
	uint8_t temp = PMIC.CTRL | PMIC_IVSEL_bm;
    50e2:	e0 ea       	ldi	r30, 0xA0	; 160
    50e4:	f0 e0       	ldi	r31, 0x00	; 0
    50e6:	82 81       	ldd	r24, Z+2	; 0x02
    50e8:	80 64       	ori	r24, 0x40	; 64
	CCP = CCP_IOREG_gc;
    50ea:	98 ed       	ldi	r25, 0xD8	; 216
    50ec:	94 bf       	out	0x34, r25	; 52
	PMIC.CTRL = temp;
    50ee:	82 83       	std	Z+2, r24	; 0x02
}
    50f0:	08 95       	ret

000050f2 <PMIC_SetVectorLocationToApplication>:
 *  Change Protection register before writing the CTRL register. Interrupts are
 *  automatically ignored during the change enable period.
 */
void PMIC_SetVectorLocationToApplication( void )
{
	uint8_t temp = PMIC.CTRL & ~PMIC_IVSEL_bm;
    50f2:	e0 ea       	ldi	r30, 0xA0	; 160
    50f4:	f0 e0       	ldi	r31, 0x00	; 0
    50f6:	82 81       	ldd	r24, Z+2	; 0x02
    50f8:	8f 7b       	andi	r24, 0xBF	; 191
	CCP = CCP_IOREG_gc;
    50fa:	98 ed       	ldi	r25, 0xD8	; 216
    50fc:	94 bf       	out	0x34, r25	; 52
	PMIC.CTRL = temp;
    50fe:	82 83       	std	Z+2, r24	; 0x02
}
    5100:	08 95       	ret

00005102 <xio_setflags>:
 * xio_setflags()
 */

int xio_setflags(const uint8_t dev, const uint16_t control)
{
	struct xioDEVICE *d = &ds[dev];
    5102:	97 e1       	ldi	r25, 0x17	; 23
    5104:	89 9f       	mul	r24, r25
    5106:	f0 01       	movw	r30, r0
    5108:	11 24       	eor	r1, r1
    510a:	ec 53       	subi	r30, 0x3C	; 60
    510c:	fb 4d       	sbci	r31, 0xDB	; 219

	if (control & XIO_RD) {
    510e:	64 ff       	sbrs	r22, 4
    5110:	05 c0       	rjmp	.+10     	; 0x511c <xio_setflags+0x1a>
		d->flags |= XIO_FLAG_RD_bm;
    5112:	80 81       	ld	r24, Z
    5114:	91 81       	ldd	r25, Z+1	; 0x01
    5116:	81 60       	ori	r24, 0x01	; 1
    5118:	80 83       	st	Z, r24
    511a:	91 83       	std	Z+1, r25	; 0x01
	}
	if (control & XIO_WR) {
    511c:	65 ff       	sbrs	r22, 5
    511e:	05 c0       	rjmp	.+10     	; 0x512a <xio_setflags+0x28>
		d->flags |= XIO_FLAG_WR_bm;
    5120:	80 81       	ld	r24, Z
    5122:	91 81       	ldd	r25, Z+1	; 0x01
    5124:	82 60       	ori	r24, 0x02	; 2
    5126:	80 83       	st	Z, r24
    5128:	91 83       	std	Z+1, r25	; 0x01
	}
	if (control & XIO_BLOCK) {
    512a:	66 ff       	sbrs	r22, 6
    512c:	05 c0       	rjmp	.+10     	; 0x5138 <xio_setflags+0x36>
		d->flags |= XIO_FLAG_BLOCK_bm;
    512e:	80 81       	ld	r24, Z
    5130:	91 81       	ldd	r25, Z+1	; 0x01
    5132:	84 60       	ori	r24, 0x04	; 4
    5134:	80 83       	st	Z, r24
    5136:	91 83       	std	Z+1, r25	; 0x01
	}
	if (control & XIO_NOBLOCK) {
    5138:	67 ff       	sbrs	r22, 7
    513a:	05 c0       	rjmp	.+10     	; 0x5146 <xio_setflags+0x44>
		d->flags &= ~XIO_FLAG_BLOCK_bm;
    513c:	80 81       	ld	r24, Z
    513e:	91 81       	ldd	r25, Z+1	; 0x01
    5140:	8b 7f       	andi	r24, 0xFB	; 251
    5142:	80 83       	st	Z, r24
    5144:	91 83       	std	Z+1, r25	; 0x01
	}
	if (control & XIO_ECHO) {
    5146:	70 ff       	sbrs	r23, 0
    5148:	05 c0       	rjmp	.+10     	; 0x5154 <xio_setflags+0x52>
		d->flags |= XIO_FLAG_ECHO_bm;
    514a:	80 81       	ld	r24, Z
    514c:	91 81       	ldd	r25, Z+1	; 0x01
    514e:	80 61       	ori	r24, 0x10	; 16
    5150:	80 83       	st	Z, r24
    5152:	91 83       	std	Z+1, r25	; 0x01
	}
	if (control & XIO_NOECHO) {
    5154:	71 ff       	sbrs	r23, 1
    5156:	05 c0       	rjmp	.+10     	; 0x5162 <xio_setflags+0x60>
		d->flags &= ~XIO_FLAG_ECHO_bm;
    5158:	80 81       	ld	r24, Z
    515a:	91 81       	ldd	r25, Z+1	; 0x01
    515c:	8f 7e       	andi	r24, 0xEF	; 239
    515e:	80 83       	st	Z, r24
    5160:	91 83       	std	Z+1, r25	; 0x01
	}
	if (control & XIO_CRLF) {
    5162:	72 ff       	sbrs	r23, 2
    5164:	05 c0       	rjmp	.+10     	; 0x5170 <xio_setflags+0x6e>
		d->flags |= XIO_FLAG_CRLF_bm;
    5166:	80 81       	ld	r24, Z
    5168:	91 81       	ldd	r25, Z+1	; 0x01
    516a:	80 62       	ori	r24, 0x20	; 32
    516c:	80 83       	st	Z, r24
    516e:	91 83       	std	Z+1, r25	; 0x01
	}
	if (control & XIO_NOCRLF) {
    5170:	73 ff       	sbrs	r23, 3
    5172:	05 c0       	rjmp	.+10     	; 0x517e <xio_setflags+0x7c>
		d->flags &= ~XIO_FLAG_CRLF_bm;
    5174:	80 81       	ld	r24, Z
    5176:	91 81       	ldd	r25, Z+1	; 0x01
    5178:	8f 7d       	andi	r24, 0xDF	; 223
    517a:	80 83       	st	Z, r24
    517c:	91 83       	std	Z+1, r25	; 0x01
	}
	if (control & XIO_LINEMODE) {
    517e:	74 ff       	sbrs	r23, 4
    5180:	05 c0       	rjmp	.+10     	; 0x518c <xio_setflags+0x8a>
		d->flags |= XIO_FLAG_LINEMODE_bm;
    5182:	80 81       	ld	r24, Z
    5184:	91 81       	ldd	r25, Z+1	; 0x01
    5186:	80 64       	ori	r24, 0x40	; 64
    5188:	80 83       	st	Z, r24
    518a:	91 83       	std	Z+1, r25	; 0x01
	}
	if (control & XIO_NOLINEMODE) {
    518c:	75 ff       	sbrs	r23, 5
    518e:	05 c0       	rjmp	.+10     	; 0x519a <xio_setflags+0x98>
		d->flags &= ~XIO_FLAG_LINEMODE_bm;
    5190:	80 81       	ld	r24, Z
    5192:	91 81       	ldd	r25, Z+1	; 0x01
    5194:	8f 7b       	andi	r24, 0xBF	; 191
    5196:	80 83       	st	Z, r24
    5198:	91 83       	std	Z+1, r25	; 0x01
	}
	if (control & XIO_SEMICOLONS) {
    519a:	76 ff       	sbrs	r23, 6
    519c:	05 c0       	rjmp	.+10     	; 0x51a8 <xio_setflags+0xa6>
		d->flags |= XIO_FLAG_SEMICOLONS_bm;
    519e:	80 81       	ld	r24, Z
    51a0:	91 81       	ldd	r25, Z+1	; 0x01
    51a2:	80 68       	ori	r24, 0x80	; 128
    51a4:	80 83       	st	Z, r24
    51a6:	91 83       	std	Z+1, r25	; 0x01
	}
	if (control & XIO_NOSEMICOLONS) {
    51a8:	77 ff       	sbrs	r23, 7
    51aa:	05 c0       	rjmp	.+10     	; 0x51b6 <xio_setflags+0xb4>
		d->flags &= ~XIO_FLAG_SEMICOLONS_bm;
    51ac:	80 81       	ld	r24, Z
    51ae:	91 81       	ldd	r25, Z+1	; 0x01
    51b0:	8f 77       	andi	r24, 0x7F	; 127
    51b2:	80 83       	st	Z, r24
    51b4:	91 83       	std	Z+1, r25	; 0x01
	}
	return (XIO_OK);
}
    51b6:	80 e0       	ldi	r24, 0x00	; 0
    51b8:	90 e0       	ldi	r25, 0x00	; 0
    51ba:	08 95       	ret

000051bc <xio_set_stdin>:
 * xio_set_std___() - functions to set standard IO devices from device numbers
 */

void xio_set_stdin(const uint8_t dev)
{
	stdin = ds[dev].fdev;
    51bc:	90 e0       	ldi	r25, 0x00	; 0
    51be:	27 e1       	ldi	r18, 0x17	; 23
    51c0:	30 e0       	ldi	r19, 0x00	; 0
    51c2:	82 9f       	mul	r24, r18
    51c4:	f0 01       	movw	r30, r0
    51c6:	83 9f       	mul	r24, r19
    51c8:	f0 0d       	add	r31, r0
    51ca:	92 9f       	mul	r25, r18
    51cc:	f0 0d       	add	r31, r0
    51ce:	11 24       	eor	r1, r1
    51d0:	ec 53       	subi	r30, 0x3C	; 60
    51d2:	fb 4d       	sbci	r31, 0xDB	; 219
    51d4:	83 89       	ldd	r24, Z+19	; 0x13
    51d6:	94 89       	ldd	r25, Z+20	; 0x14
    51d8:	80 93 5a 26 	sts	0x265A, r24
    51dc:	90 93 5b 26 	sts	0x265B, r25
}
    51e0:	08 95       	ret

000051e2 <xio_set_stdout>:

void xio_set_stdout(const uint8_t dev)
{
	stdout = ds[dev].fdev;
    51e2:	90 e0       	ldi	r25, 0x00	; 0
    51e4:	27 e1       	ldi	r18, 0x17	; 23
    51e6:	30 e0       	ldi	r19, 0x00	; 0
    51e8:	82 9f       	mul	r24, r18
    51ea:	f0 01       	movw	r30, r0
    51ec:	83 9f       	mul	r24, r19
    51ee:	f0 0d       	add	r31, r0
    51f0:	92 9f       	mul	r25, r18
    51f2:	f0 0d       	add	r31, r0
    51f4:	11 24       	eor	r1, r1
    51f6:	ec 53       	subi	r30, 0x3C	; 60
    51f8:	fb 4d       	sbci	r31, 0xDB	; 219
    51fa:	83 89       	ldd	r24, Z+19	; 0x13
    51fc:	94 89       	ldd	r25, Z+20	; 0x14
    51fe:	80 93 5c 26 	sts	0x265C, r24
    5202:	90 93 5d 26 	sts	0x265D, r25
}
    5206:	08 95       	ret

00005208 <xio_set_stderr>:

void xio_set_stderr(const uint8_t dev)
{
	stderr = ds[dev].fdev;
    5208:	90 e0       	ldi	r25, 0x00	; 0
    520a:	27 e1       	ldi	r18, 0x17	; 23
    520c:	30 e0       	ldi	r19, 0x00	; 0
    520e:	82 9f       	mul	r24, r18
    5210:	f0 01       	movw	r30, r0
    5212:	83 9f       	mul	r24, r19
    5214:	f0 0d       	add	r31, r0
    5216:	92 9f       	mul	r25, r18
    5218:	f0 0d       	add	r31, r0
    521a:	11 24       	eor	r1, r1
    521c:	ec 53       	subi	r30, 0x3C	; 60
    521e:	fb 4d       	sbci	r31, 0xDB	; 219
    5220:	83 89       	ldd	r24, Z+19	; 0x13
    5222:	94 89       	ldd	r25, Z+20	; 0x14
    5224:	80 93 5e 26 	sts	0x265E, r24
    5228:	90 93 5f 26 	sts	0x265F, r25
}
    522c:	08 95       	ret

0000522e <xio_putc>:
/*
 * xio_putc() - common entry point for putc
 */

int xio_putc(const uint8_t dev, const char c)
{
    522e:	46 2f       	mov	r20, r22
	if (dev < XIO_DEV_COUNT) {
    5230:	88 30       	cpi	r24, 0x08	; 8
    5232:	18 f0       	brcs	.+6      	; 0x523a <xio_putc+0xc>
    5234:	27 e0       	ldi	r18, 0x07	; 7
    5236:	30 e0       	ldi	r19, 0x00	; 0
    5238:	15 c0       	rjmp	.+42     	; 0x5264 <xio_putc+0x36>
		return ds[dev].x_putc(c, ds[dev].fdev);
    523a:	28 2f       	mov	r18, r24
    523c:	30 e0       	ldi	r19, 0x00	; 0
    523e:	87 e1       	ldi	r24, 0x17	; 23
    5240:	90 e0       	ldi	r25, 0x00	; 0
    5242:	28 9f       	mul	r18, r24
    5244:	f0 01       	movw	r30, r0
    5246:	29 9f       	mul	r18, r25
    5248:	f0 0d       	add	r31, r0
    524a:	38 9f       	mul	r19, r24
    524c:	f0 0d       	add	r31, r0
    524e:	11 24       	eor	r1, r1
    5250:	ec 53       	subi	r30, 0x3C	; 60
    5252:	fb 4d       	sbci	r31, 0xDB	; 219
    5254:	63 89       	ldd	r22, Z+19	; 0x13
    5256:	74 89       	ldd	r23, Z+20	; 0x14
    5258:	03 84       	ldd	r0, Z+11	; 0x0b
    525a:	f4 85       	ldd	r31, Z+12	; 0x0c
    525c:	e0 2d       	mov	r30, r0
    525e:	84 2f       	mov	r24, r20
    5260:	19 95       	eicall
    5262:	9c 01       	movw	r18, r24
	} else {
		return (XIO_NO_SUCH_DEVICE);
	}
}
    5264:	c9 01       	movw	r24, r18
    5266:	08 95       	ret

00005268 <xio_getc>:
 * xio_getc() - common entry point for getc
 */

int xio_getc(const uint8_t dev)
{
	if (dev < XIO_DEV_COUNT) {
    5268:	88 30       	cpi	r24, 0x08	; 8
    526a:	18 f0       	brcs	.+6      	; 0x5272 <xio_getc+0xa>
    526c:	27 e0       	ldi	r18, 0x07	; 7
    526e:	30 e0       	ldi	r19, 0x00	; 0
    5270:	14 c0       	rjmp	.+40     	; 0x529a <xio_getc+0x32>
		return ds[dev].x_getc(ds[dev].fdev);
    5272:	28 2f       	mov	r18, r24
    5274:	30 e0       	ldi	r19, 0x00	; 0
    5276:	87 e1       	ldi	r24, 0x17	; 23
    5278:	90 e0       	ldi	r25, 0x00	; 0
    527a:	28 9f       	mul	r18, r24
    527c:	f0 01       	movw	r30, r0
    527e:	29 9f       	mul	r18, r25
    5280:	f0 0d       	add	r31, r0
    5282:	38 9f       	mul	r19, r24
    5284:	f0 0d       	add	r31, r0
    5286:	11 24       	eor	r1, r1
    5288:	ec 53       	subi	r30, 0x3C	; 60
    528a:	fb 4d       	sbci	r31, 0xDB	; 219
    528c:	25 85       	ldd	r18, Z+13	; 0x0d
    528e:	36 85       	ldd	r19, Z+14	; 0x0e
    5290:	83 89       	ldd	r24, Z+19	; 0x13
    5292:	94 89       	ldd	r25, Z+20	; 0x14
    5294:	f9 01       	movw	r30, r18
    5296:	19 95       	eicall
    5298:	9c 01       	movw	r18, r24
	} else {
		return (XIO_NO_SUCH_DEVICE);
	}		
}
    529a:	c9 01       	movw	r24, r18
    529c:	08 95       	ret

0000529e <xio_readln>:
 *	size	size of text buffer in 1 offset form: e.g. use 80 instead of 79
 */

int xio_readln(const uint8_t dev, char *buf, const uint8_t size)
{
	if (dev < XIO_DEV_COUNT) {
    529e:	88 30       	cpi	r24, 0x08	; 8
    52a0:	18 f0       	brcs	.+6      	; 0x52a8 <xio_readln+0xa>
    52a2:	27 e0       	ldi	r18, 0x07	; 7
    52a4:	30 e0       	ldi	r19, 0x00	; 0
    52a6:	14 c0       	rjmp	.+40     	; 0x52d0 <xio_readln+0x32>
		return ds[dev].x_readln(buf, size);
    52a8:	28 2f       	mov	r18, r24
    52aa:	30 e0       	ldi	r19, 0x00	; 0
    52ac:	87 e1       	ldi	r24, 0x17	; 23
    52ae:	90 e0       	ldi	r25, 0x00	; 0
    52b0:	28 9f       	mul	r18, r24
    52b2:	f0 01       	movw	r30, r0
    52b4:	29 9f       	mul	r18, r25
    52b6:	f0 0d       	add	r31, r0
    52b8:	38 9f       	mul	r19, r24
    52ba:	f0 0d       	add	r31, r0
    52bc:	11 24       	eor	r1, r1
    52be:	ec 53       	subi	r30, 0x3C	; 60
    52c0:	fb 4d       	sbci	r31, 0xDB	; 219
    52c2:	07 84       	ldd	r0, Z+15	; 0x0f
    52c4:	f0 89       	ldd	r31, Z+16	; 0x10
    52c6:	e0 2d       	mov	r30, r0
    52c8:	cb 01       	movw	r24, r22
    52ca:	64 2f       	mov	r22, r20
    52cc:	19 95       	eicall
    52ce:	9c 01       	movw	r18, r24
	} else {
		return (XIO_NO_SUCH_DEVICE);
	}		
}
    52d0:	c9 01       	movw	r24, r18
    52d2:	08 95       	ret

000052d4 <xio_init_dev>:
	int (*x_setflags)(const uint16_t control),// set device control flags
	int (*x_putc)(char, struct __file *),		// write char (stdio compatible)
	int (*x_getc)(struct __file *),			// read char (stdio compatible)
	int (*x_readln)(char *buf, uint8_t size)	// specialized line reader
	) 
{
    52d4:	df 92       	push	r13
    52d6:	ef 92       	push	r14
    52d8:	ff 92       	push	r15
    52da:	0f 93       	push	r16
    52dc:	1f 93       	push	r17
    52de:	cf 93       	push	r28
    52e0:	df 93       	push	r29
	// clear device struct
	memset (&ds[dev], 0, sizeof(struct xioDEVICE));	
    52e2:	90 e0       	ldi	r25, 0x00	; 0
    52e4:	e7 e1       	ldi	r30, 0x17	; 23
    52e6:	f0 e0       	ldi	r31, 0x00	; 0
    52e8:	8e 9f       	mul	r24, r30
    52ea:	d0 01       	movw	r26, r0
    52ec:	8f 9f       	mul	r24, r31
    52ee:	b0 0d       	add	r27, r0
    52f0:	9e 9f       	mul	r25, r30
    52f2:	b0 0d       	add	r27, r0
    52f4:	11 24       	eor	r1, r1
    52f6:	ac 53       	subi	r26, 0x3C	; 60
    52f8:	bb 4d       	sbci	r27, 0xDB	; 219
    52fa:	0f 2e       	mov	r0, r31
    52fc:	f7 e1       	ldi	r31, 0x17	; 23
    52fe:	df 2e       	mov	r13, r31
    5300:	f0 2d       	mov	r31, r0
    5302:	ed 01       	movw	r28, r26
    5304:	19 92       	st	Y+, r1
    5306:	da 94       	dec	r13
    5308:	e9 f7       	brne	.-6      	; 0x5304 <xio_init_dev+0x30>

	// bind functions
	ds[dev].x_open = x_open;	
    530a:	17 96       	adiw	r26, 0x07	; 7
    530c:	6d 93       	st	X+, r22
    530e:	7c 93       	st	X, r23
    5310:	18 97       	sbiw	r26, 0x08	; 8
	ds[dev].x_setflags = x_setflags;
    5312:	19 96       	adiw	r26, 0x09	; 9
    5314:	4d 93       	st	X+, r20
    5316:	5c 93       	st	X, r21
    5318:	1a 97       	sbiw	r26, 0x0a	; 10
	ds[dev].x_putc = x_putc;
    531a:	1b 96       	adiw	r26, 0x0b	; 11
    531c:	2d 93       	st	X+, r18
    531e:	3c 93       	st	X, r19
    5320:	1c 97       	sbiw	r26, 0x0c	; 12
	ds[dev].x_getc = x_getc;
    5322:	1d 96       	adiw	r26, 0x0d	; 13
    5324:	0d 93       	st	X+, r16
    5326:	1c 93       	st	X, r17
    5328:	1e 97       	sbiw	r26, 0x0e	; 14
	ds[dev].x_readln = x_readln;
    532a:	1f 96       	adiw	r26, 0x0f	; 15
    532c:	ed 92       	st	X+, r14
    532e:	fc 92       	st	X, r15
    5330:	50 97       	sbiw	r26, 0x10	; 16

	// bind and setup stdio struct
	ds[dev].fdev = &ss[dev];					
    5332:	88 0f       	add	r24, r24
    5334:	99 1f       	adc	r25, r25
    5336:	fc 01       	movw	r30, r24
    5338:	43 e0       	ldi	r20, 0x03	; 3
    533a:	ee 0f       	add	r30, r30
    533c:	ff 1f       	adc	r31, r31
    533e:	4a 95       	dec	r20
    5340:	e1 f7       	brne	.-8      	; 0x533a <xio_init_dev+0x66>
    5342:	e8 1b       	sub	r30, r24
    5344:	f9 0b       	sbc	r31, r25
    5346:	e4 58       	subi	r30, 0x84	; 132
    5348:	fa 4d       	sbci	r31, 0xDA	; 218
    534a:	53 96       	adiw	r26, 0x13	; 19
    534c:	ed 93       	st	X+, r30
    534e:	fc 93       	st	X, r31
    5350:	54 97       	sbiw	r26, 0x14	; 20
	fdev_setup_stream(ds[dev].fdev, x_putc, x_getc, _FDEV_SETUP_RW);
    5352:	20 87       	std	Z+8, r18	; 0x08
    5354:	31 87       	std	Z+9, r19	; 0x09
    5356:	02 87       	std	Z+10, r16	; 0x0a
    5358:	13 87       	std	Z+11, r17	; 0x0b
    535a:	83 e0       	ldi	r24, 0x03	; 3
    535c:	83 83       	std	Z+3, r24	; 0x03
    535e:	14 86       	std	Z+12, r1	; 0x0c
    5360:	15 86       	std	Z+13, r1	; 0x0d
}
    5362:	df 91       	pop	r29
    5364:	cf 91       	pop	r28
    5366:	1f 91       	pop	r17
    5368:	0f 91       	pop	r16
    536a:	ff 90       	pop	r15
    536c:	ef 90       	pop	r14
    536e:	df 90       	pop	r13
    5370:	08 95       	ret

00005372 <xio_init_stdio>:
 * xio_set_std___() - functions to set standard IO devices from device numbers
 */

void xio_set_stdin(const uint8_t dev)
{
	stdin = ds[dev].fdev;
    5372:	80 91 f1 25 	lds	r24, 0x25F1
    5376:	90 e0       	ldi	r25, 0x00	; 0
    5378:	27 e1       	ldi	r18, 0x17	; 23
    537a:	30 e0       	ldi	r19, 0x00	; 0
    537c:	82 9f       	mul	r24, r18
    537e:	f0 01       	movw	r30, r0
    5380:	83 9f       	mul	r24, r19
    5382:	f0 0d       	add	r31, r0
    5384:	92 9f       	mul	r25, r18
    5386:	f0 0d       	add	r31, r0
    5388:	11 24       	eor	r1, r1
    538a:	ec 53       	subi	r30, 0x3C	; 60
    538c:	fb 4d       	sbci	r31, 0xDB	; 219
    538e:	83 89       	ldd	r24, Z+19	; 0x13
    5390:	94 89       	ldd	r25, Z+20	; 0x14
    5392:	80 93 5a 26 	sts	0x265A, r24
    5396:	90 93 5b 26 	sts	0x265B, r25
}

void xio_set_stdout(const uint8_t dev)
{
	stdout = ds[dev].fdev;
    539a:	80 93 5c 26 	sts	0x265C, r24
    539e:	90 93 5d 26 	sts	0x265D, r25
}

void xio_set_stderr(const uint8_t dev)
{
	stderr = ds[dev].fdev;
    53a2:	80 93 5e 26 	sts	0x265E, r24
    53a6:	90 93 5f 26 	sts	0x265F, r25
#ifdef __SLAVE_MODE
	xio_set_stderr(XIO_DEV_USB);		// +++ debug
#endif

	// tell the world we are ready!
	printf_P(PSTR("\n\n**** Xmega IO subsystem initialized ****\n"));
    53aa:	0f 92       	push	r0
    53ac:	0f 92       	push	r0
    53ae:	8f e8       	ldi	r24, 0x8F	; 143
    53b0:	96 e0       	ldi	r25, 0x06	; 6
    53b2:	ed b7       	in	r30, 0x3d	; 61
    53b4:	fe b7       	in	r31, 0x3e	; 62
    53b6:	81 83       	std	Z+1, r24	; 0x01
    53b8:	92 83       	std	Z+2, r25	; 0x02
    53ba:	0e 94 9a 49 	call	0x9334	; 0x9334 <printf_P>
    53be:	0f 90       	pop	r0
    53c0:	0f 90       	pop	r0
}
    53c2:	08 95       	ret

000053c4 <xio_init>:
 */

void xio_init()
{	
	// call device inits
	xio_init_rs485();
    53c4:	0e 94 74 35 	call	0x6ae8	; 0x6ae8 <xio_init_rs485>
	xio_init_usb();
    53c8:	0e 94 62 34 	call	0x68c4	; 0x68c4 <xio_init_usb>
	xio_init_pgm();
    53cc:	0e 94 84 36 	call	0x6d08	; 0x6d08 <xio_init_pgm>
}
    53d0:	08 95       	ret

000053d2 <EEPROM_ReadByte>:
 *  \param  byteAddr  EEPROM Byte address, between 0 and EEPROM_PAGESIZE.
 *
 *  \return  Byte value read from EEPROM.
 */
uint8_t EEPROM_ReadByte( uint8_t pageAddr, uint8_t byteAddr )
{
    53d2:	98 2f       	mov	r25, r24
 */
void EEPROM_WaitForNVM( void )
{
	do {
		/* Block execution while waiting for the NVM to be ready. */
	} while ((NVM.STATUS & NVM_NVMBUSY_bm) == NVM_NVMBUSY_bm);
    53d4:	e0 ec       	ldi	r30, 0xC0	; 192
    53d6:	f1 e0       	ldi	r31, 0x01	; 1
    53d8:	80 91 cf 01 	lds	r24, 0x01CF
    53dc:	87 fd       	sbrc	r24, 7
    53de:	fa cf       	rjmp	.-12     	; 0x53d4 <EEPROM_ReadByte+0x2>
	/* Wait until NVM is not busy. */
	EEPROM_WaitForNVM();

	/* Calculate address */
	uint16_t address = (uint16_t)(pageAddr*EEPROM_PAGESIZE)
	                            |(byteAddr & (EEPROM_PAGESIZE-1));
    53e0:	26 2f       	mov	r18, r22
    53e2:	30 e0       	ldi	r19, 0x00	; 0
    53e4:	2f 71       	andi	r18, 0x1F	; 31
    53e6:	30 70       	andi	r19, 0x00	; 0
    53e8:	89 2f       	mov	r24, r25
    53ea:	90 e0       	ldi	r25, 0x00	; 0
    53ec:	45 e0       	ldi	r20, 0x05	; 5
    53ee:	88 0f       	add	r24, r24
    53f0:	99 1f       	adc	r25, r25
    53f2:	4a 95       	dec	r20
    53f4:	e1 f7       	brne	.-8      	; 0x53ee <EEPROM_ReadByte+0x1c>
    53f6:	28 2b       	or	r18, r24
    53f8:	39 2b       	or	r19, r25

	/* Set address to read from. */
	NVM.ADDR0 = address & 0xFF;
    53fa:	20 93 c0 01 	sts	0x01C0, r18
	NVM.ADDR1 = (address >> 8) & 0x1F;
    53fe:	83 2f       	mov	r24, r19
    5400:	8f 71       	andi	r24, 0x1F	; 31
    5402:	81 83       	std	Z+1, r24	; 0x01
	NVM.ADDR2 = 0x00;
    5404:	12 82       	std	Z+2, r1	; 0x02

	/* Issue EEPROM Read command. */
	NVM.CMD = NVM_CMD_READ_EEPROM_gc;
    5406:	86 e0       	ldi	r24, 0x06	; 6
    5408:	82 87       	std	Z+10, r24	; 0x0a
	NVM_EXEC();
    540a:	ef 93       	push	r30
    540c:	ff 93       	push	r31
    540e:	0f 93       	push	r16
    5410:	2f 93       	push	r18
    5412:	eb ec       	ldi	r30, 0xCB	; 203
    5414:	f1 e0       	ldi	r31, 0x01	; 1
    5416:	08 ed       	ldi	r16, 0xD8	; 216
    5418:	21 e0       	ldi	r18, 0x01	; 1
    541a:	04 bf       	out	0x34, r16	; 52
    541c:	20 83       	st	Z, r18
    541e:	2f 91       	pop	r18
    5420:	0f 91       	pop	r16
    5422:	ff 91       	pop	r31
    5424:	ef 91       	pop	r30

	return NVM.DATA0;
    5426:	80 91 c4 01 	lds	r24, 0x01C4
}
    542a:	08 95       	ret

0000542c <eeprom_get_char>:

char eeprom_get_char( unsigned int addr )
{
	uint8_t pageAddr = (uint8_t)(addr / EEPROM_PAGESIZE);
	uint8_t byteAddr = (uint8_t)(addr % EEPROM_PAGESIZE);
	return (EEPROM_ReadByte( pageAddr, byteAddr ));
    542c:	68 2f       	mov	r22, r24
    542e:	6f 71       	andi	r22, 0x1F	; 31
    5430:	55 e0       	ldi	r21, 0x05	; 5
    5432:	96 95       	lsr	r25
    5434:	87 95       	ror	r24
    5436:	5a 95       	dec	r21
    5438:	e1 f7       	brne	.-8      	; 0x5432 <eeprom_get_char+0x6>
    543a:	0e 94 e9 29 	call	0x53d2	; 0x53d2 <EEPROM_ReadByte>
}
    543e:	08 95       	ret

00005440 <memcpy_from_eeprom_with_checksum>:
    eeprom_put_char(destination++, *(source++)); 
  }
  eeprom_put_char(destination, checksum);
}

int memcpy_from_eeprom_with_checksum(char *destination, unsigned int source, unsigned int size) {
    5440:	8f 92       	push	r8
    5442:	9f 92       	push	r9
    5444:	af 92       	push	r10
    5446:	bf 92       	push	r11
    5448:	cf 92       	push	r12
    544a:	df 92       	push	r13
    544c:	ff 92       	push	r15
    544e:	0f 93       	push	r16
    5450:	1f 93       	push	r17
    5452:	cf 93       	push	r28
    5454:	df 93       	push	r29
    5456:	4c 01       	movw	r8, r24
    5458:	5b 01       	movw	r10, r22
    545a:	6a 01       	movw	r12, r20
    545c:	8b 01       	movw	r16, r22
    545e:	ea 01       	movw	r28, r20
    5460:	ff 24       	eor	r15, r15
    5462:	18 c0       	rjmp	.+48     	; 0x5494 <memcpy_from_eeprom_with_checksum+0x54>
  unsigned char data, checksum = 0;
  for(; size > 0; size--) { 
    data = eeprom_get_char(source++);
    5464:	c8 01       	movw	r24, r16
    5466:	0e 94 16 2a 	call	0x542c	; 0x542c <eeprom_get_char>
    checksum = (checksum << 1) || (checksum >> 7);
    546a:	ff 20       	and	r15, r15
    546c:	19 f0       	breq	.+6      	; 0x5474 <memcpy_from_eeprom_with_checksum+0x34>
    546e:	21 e0       	ldi	r18, 0x01	; 1
    5470:	30 e0       	ldi	r19, 0x00	; 0
    5472:	08 c0       	rjmp	.+16     	; 0x5484 <memcpy_from_eeprom_with_checksum+0x44>
    5474:	2f 2d       	mov	r18, r15
    5476:	33 27       	eor	r19, r19
    5478:	27 fd       	sbrc	r18, 7
    547a:	30 95       	com	r19
    547c:	22 27       	eor	r18, r18
    547e:	33 0f       	add	r19, r19
    5480:	22 1f       	adc	r18, r18
    5482:	33 27       	eor	r19, r19
}

int memcpy_from_eeprom_with_checksum(char *destination, unsigned int source, unsigned int size) {
  unsigned char data, checksum = 0;
  for(; size > 0; size--) { 
    data = eeprom_get_char(source++);
    5484:	0f 5f       	subi	r16, 0xFF	; 255
    5486:	1f 4f       	sbci	r17, 0xFF	; 255
    checksum = (checksum << 1) || (checksum >> 7);
    checksum += data;    
    5488:	f8 2e       	mov	r15, r24
    548a:	f2 0e       	add	r15, r18
    *(destination++) = data; 
    548c:	f4 01       	movw	r30, r8
    548e:	81 93       	st	Z+, r24
    5490:	4f 01       	movw	r8, r30
  eeprom_put_char(destination, checksum);
}

int memcpy_from_eeprom_with_checksum(char *destination, unsigned int source, unsigned int size) {
  unsigned char data, checksum = 0;
  for(; size > 0; size--) { 
    5492:	21 97       	sbiw	r28, 0x01	; 1
    5494:	20 97       	sbiw	r28, 0x00	; 0
    5496:	31 f7       	brne	.-52     	; 0x5464 <memcpy_from_eeprom_with_checksum+0x24>
    data = eeprom_get_char(source++);
    checksum = (checksum << 1) || (checksum >> 7);
    checksum += data;    
    *(destination++) = data; 
  }
  return(checksum == eeprom_get_char(source));
    5498:	c6 01       	movw	r24, r12
    549a:	8a 0d       	add	r24, r10
    549c:	9b 1d       	adc	r25, r11
    549e:	0e 94 16 2a 	call	0x542c	; 0x542c <eeprom_get_char>
    54a2:	20 e0       	ldi	r18, 0x00	; 0
    54a4:	30 e0       	ldi	r19, 0x00	; 0
    54a6:	f8 16       	cp	r15, r24
    54a8:	11 f4       	brne	.+4      	; 0x54ae <memcpy_from_eeprom_with_checksum+0x6e>
    54aa:	21 e0       	ldi	r18, 0x01	; 1
    54ac:	30 e0       	ldi	r19, 0x00	; 0
}
    54ae:	c9 01       	movw	r24, r18
    54b0:	df 91       	pop	r29
    54b2:	cf 91       	pop	r28
    54b4:	1f 91       	pop	r17
    54b6:	0f 91       	pop	r16
    54b8:	ff 90       	pop	r15
    54ba:	df 90       	pop	r13
    54bc:	cf 90       	pop	r12
    54be:	bf 90       	pop	r11
    54c0:	af 90       	pop	r10
    54c2:	9f 90       	pop	r9
    54c4:	8f 90       	pop	r8
    54c6:	08 95       	ret

000054c8 <EEPROM_WaitForNVM>:
 */
void EEPROM_WaitForNVM( void )
{
	do {
		/* Block execution while waiting for the NVM to be ready. */
	} while ((NVM.STATUS & NVM_NVMBUSY_bm) == NVM_NVMBUSY_bm);
    54c8:	80 91 cf 01 	lds	r24, 0x01CF
    54cc:	87 fd       	sbrc	r24, 7
    54ce:	fc cf       	rjmp	.-8      	; 0x54c8 <EEPROM_WaitForNVM>
}
    54d0:	08 95       	ret

000054d2 <EEPROM_FlushBuffer>:
 */
void EEPROM_WaitForNVM( void )
{
	do {
		/* Block execution while waiting for the NVM to be ready. */
	} while ((NVM.STATUS & NVM_NVMBUSY_bm) == NVM_NVMBUSY_bm);
    54d2:	80 91 cf 01 	lds	r24, 0x01CF
    54d6:	87 fd       	sbrc	r24, 7
    54d8:	fc cf       	rjmp	.-8      	; 0x54d2 <EEPROM_FlushBuffer>
{
	/* Wait until NVM is not busy. */
	EEPROM_WaitForNVM();

	/* Flush EEPROM page buffer if necessary. */
	if ((NVM.STATUS & NVM_EELOAD_bm) != 0) {
    54da:	80 91 cf 01 	lds	r24, 0x01CF
    54de:	81 ff       	sbrs	r24, 1
    54e0:	12 c0       	rjmp	.+36     	; 0x5506 <EEPROM_FlushBuffer+0x34>
		NVM.CMD = NVM_CMD_ERASE_EEPROM_BUFFER_gc;
    54e2:	86 e3       	ldi	r24, 0x36	; 54
    54e4:	e0 ec       	ldi	r30, 0xC0	; 192
    54e6:	f1 e0       	ldi	r31, 0x01	; 1
    54e8:	82 87       	std	Z+10, r24	; 0x0a
		NVM_EXEC();
    54ea:	ef 93       	push	r30
    54ec:	ff 93       	push	r31
    54ee:	0f 93       	push	r16
    54f0:	2f 93       	push	r18
    54f2:	eb ec       	ldi	r30, 0xCB	; 203
    54f4:	f1 e0       	ldi	r31, 0x01	; 1
    54f6:	08 ed       	ldi	r16, 0xD8	; 216
    54f8:	21 e0       	ldi	r18, 0x01	; 1
    54fa:	04 bf       	out	0x34, r16	; 52
    54fc:	20 83       	st	Z, r18
    54fe:	2f 91       	pop	r18
    5500:	0f 91       	pop	r16
    5502:	ff 91       	pop	r31
    5504:	ef 91       	pop	r30
    5506:	08 95       	ret

00005508 <EEPROM_WriteByte>:
 *  \param  pageAddr  EEPROM Page address, between 0 and EEPROM_SIZE/EEPROM_PAGESIZE
 *  \param  byteAddr  EEPROM Byte address, between 0 and EEPROM_PAGESIZE.
 *  \param  value     Byte value to write to EEPROM.
 */
void EEPROM_WriteByte( uint8_t pageAddr, uint8_t byteAddr, uint8_t value )
{
    5508:	df 92       	push	r13
    550a:	ef 92       	push	r14
    550c:	ff 92       	push	r15
    550e:	0f 93       	push	r16
    5510:	1f 93       	push	r17
    5512:	e8 2e       	mov	r14, r24
    5514:	06 2f       	mov	r16, r22
    5516:	d4 2e       	mov	r13, r20
	/*  Flush buffer to make sure no unintetional data is written and load
	 *  the "Page Load" command into the command register.
	 */
	EEPROM_FlushBuffer();
    5518:	0e 94 69 2a 	call	0x54d2	; 0x54d2 <EEPROM_FlushBuffer>
	NVM.CMD = NVM_CMD_LOAD_EEPROM_BUFFER_gc;
    551c:	e0 ec       	ldi	r30, 0xC0	; 192
    551e:	f1 e0       	ldi	r31, 0x01	; 1
    5520:	83 e3       	ldi	r24, 0x33	; 51
    5522:	82 87       	std	Z+10, r24	; 0x0a

	/* Calculate address */
	uint16_t address = (uint16_t)(pageAddr*EEPROM_PAGESIZE)|(byteAddr & (EEPROM_PAGESIZE-1));
    5524:	10 e0       	ldi	r17, 0x00	; 0
    5526:	0f 71       	andi	r16, 0x1F	; 31
    5528:	10 70       	andi	r17, 0x00	; 0
    552a:	ff 24       	eor	r15, r15
    552c:	75 e0       	ldi	r23, 0x05	; 5
    552e:	ee 0c       	add	r14, r14
    5530:	ff 1c       	adc	r15, r15
    5532:	7a 95       	dec	r23
    5534:	e1 f7       	brne	.-8      	; 0x552e <EEPROM_WriteByte+0x26>
    5536:	0e 29       	or	r16, r14
    5538:	1f 29       	or	r17, r15

	/* Set address to write to. */
	NVM.ADDR0 = address & 0xFF;
    553a:	00 83       	st	Z, r16
	NVM.ADDR1 = (address >> 8) & 0x1F;
    553c:	81 2f       	mov	r24, r17
    553e:	8f 71       	andi	r24, 0x1F	; 31
    5540:	81 83       	std	Z+1, r24	; 0x01
	NVM.ADDR2 = 0x00;
    5542:	12 82       	std	Z+2, r1	; 0x02

	/* Load data to write, which triggers the loading of EEPROM page buffer. */
	NVM.DATA0 = value;
    5544:	d4 82       	std	Z+4, r13	; 0x04

	/*  Issue EEPROM Atomic Write (Erase&Write) command. Load command, write
	 *  the protection signature and execute command.
	 */
	NVM.CMD = NVM_CMD_ERASE_WRITE_EEPROM_PAGE_gc;
    5546:	85 e3       	ldi	r24, 0x35	; 53
    5548:	82 87       	std	Z+10, r24	; 0x0a
	NVM_EXEC();
    554a:	ef 93       	push	r30
    554c:	ff 93       	push	r31
    554e:	0f 93       	push	r16
    5550:	2f 93       	push	r18
    5552:	eb ec       	ldi	r30, 0xCB	; 203
    5554:	f1 e0       	ldi	r31, 0x01	; 1
    5556:	08 ed       	ldi	r16, 0xD8	; 216
    5558:	21 e0       	ldi	r18, 0x01	; 1
    555a:	04 bf       	out	0x34, r16	; 52
    555c:	20 83       	st	Z, r18
    555e:	2f 91       	pop	r18
    5560:	0f 91       	pop	r16
    5562:	ff 91       	pop	r31
    5564:	ef 91       	pop	r30
}
    5566:	1f 91       	pop	r17
    5568:	0f 91       	pop	r16
    556a:	ff 90       	pop	r15
    556c:	ef 90       	pop	r14
    556e:	df 90       	pop	r13
    5570:	08 95       	ret

00005572 <eeprom_put_char>:
	uint8_t byteAddr = (uint8_t)(addr % EEPROM_PAGESIZE);
	return (EEPROM_ReadByte( pageAddr, byteAddr ));
}

void eeprom_put_char( unsigned int addr, char value )
{
    5572:	46 2f       	mov	r20, r22
	uint8_t pageAddr = (uint8_t)(addr / EEPROM_PAGESIZE);
	uint8_t byteAddr = (uint8_t)(addr % EEPROM_PAGESIZE);

	EEPROM_WriteByte(pageAddr, byteAddr, value );
    5574:	68 2f       	mov	r22, r24
    5576:	6f 71       	andi	r22, 0x1F	; 31
    5578:	e5 e0       	ldi	r30, 0x05	; 5
    557a:	96 95       	lsr	r25
    557c:	87 95       	ror	r24
    557e:	ea 95       	dec	r30
    5580:	e1 f7       	brne	.-8      	; 0x557a <eeprom_put_char+0x8>
    5582:	0e 94 84 2a 	call	0x5508	; 0x5508 <EEPROM_WriteByte>
}
    5586:	08 95       	ret

00005588 <memcpy_to_eeprom_with_checksum>:

void memcpy_to_eeprom_with_checksum(unsigned int destination, char *source, unsigned int size) {
    5588:	8f 92       	push	r8
    558a:	9f 92       	push	r9
    558c:	af 92       	push	r10
    558e:	bf 92       	push	r11
    5590:	cf 92       	push	r12
    5592:	df 92       	push	r13
    5594:	ef 92       	push	r14
    5596:	ff 92       	push	r15
    5598:	0f 93       	push	r16
    559a:	df 93       	push	r29
    559c:	cf 93       	push	r28
    559e:	0f 92       	push	r0
    55a0:	0f 92       	push	r0
    55a2:	cd b7       	in	r28, 0x3d	; 61
    55a4:	de b7       	in	r29, 0x3e	; 62
    55a6:	5c 01       	movw	r10, r24
    55a8:	6b 01       	movw	r12, r22
    55aa:	7a 01       	movw	r14, r20
    55ac:	4a 01       	movw	r8, r20
    55ae:	00 e0       	ldi	r16, 0x00	; 0
    55b0:	1e c0       	rjmp	.+60     	; 0x55ee <memcpy_to_eeprom_with_checksum+0x66>
  unsigned char checksum = 0;
  for(; size > 0; size--) { 
    checksum = (checksum << 1) || (checksum >> 7);
    55b2:	00 23       	and	r16, r16
    55b4:	19 f0       	breq	.+6      	; 0x55bc <memcpy_to_eeprom_with_checksum+0x34>
    55b6:	21 e0       	ldi	r18, 0x01	; 1
    55b8:	30 e0       	ldi	r19, 0x00	; 0
    55ba:	08 c0       	rjmp	.+16     	; 0x55cc <memcpy_to_eeprom_with_checksum+0x44>
    55bc:	20 2f       	mov	r18, r16
    55be:	33 27       	eor	r19, r19
    55c0:	27 fd       	sbrc	r18, 7
    55c2:	30 95       	com	r19
    55c4:	22 27       	eor	r18, r18
    55c6:	33 0f       	add	r19, r19
    55c8:	22 1f       	adc	r18, r18
    55ca:	33 27       	eor	r19, r19
    checksum += *source;
    55cc:	f6 01       	movw	r30, r12
    55ce:	61 91       	ld	r22, Z+
    55d0:	6f 01       	movw	r12, r30
    55d2:	06 2f       	mov	r16, r22
    55d4:	02 0f       	add	r16, r18
    eeprom_put_char(destination++, *(source++)); 
    55d6:	9c 01       	movw	r18, r24
    55d8:	2f 5f       	subi	r18, 0xFF	; 255
    55da:	3f 4f       	sbci	r19, 0xFF	; 255
    55dc:	29 83       	std	Y+1, r18	; 0x01
    55de:	3a 83       	std	Y+2, r19	; 0x02
    55e0:	0e 94 b9 2a 	call	0x5572	; 0x5572 <eeprom_put_char>
	EEPROM_WriteByte(pageAddr, byteAddr, value );
}

void memcpy_to_eeprom_with_checksum(unsigned int destination, char *source, unsigned int size) {
  unsigned char checksum = 0;
  for(; size > 0; size--) { 
    55e4:	08 94       	sec
    55e6:	81 08       	sbc	r8, r1
    55e8:	91 08       	sbc	r9, r1
    55ea:	89 81       	ldd	r24, Y+1	; 0x01
    55ec:	9a 81       	ldd	r25, Y+2	; 0x02
    55ee:	81 14       	cp	r8, r1
    55f0:	91 04       	cpc	r9, r1
    55f2:	f9 f6       	brne	.-66     	; 0x55b2 <memcpy_to_eeprom_with_checksum+0x2a>
    checksum = (checksum << 1) || (checksum >> 7);
    checksum += *source;
    eeprom_put_char(destination++, *(source++)); 
  }
  eeprom_put_char(destination, checksum);
    55f4:	c7 01       	movw	r24, r14
    55f6:	8a 0d       	add	r24, r10
    55f8:	9b 1d       	adc	r25, r11
    55fa:	60 2f       	mov	r22, r16
    55fc:	0e 94 b9 2a 	call	0x5572	; 0x5572 <eeprom_put_char>
}
    5600:	0f 90       	pop	r0
    5602:	0f 90       	pop	r0
    5604:	cf 91       	pop	r28
    5606:	df 91       	pop	r29
    5608:	0f 91       	pop	r16
    560a:	ff 90       	pop	r15
    560c:	ef 90       	pop	r14
    560e:	df 90       	pop	r13
    5610:	cf 90       	pop	r12
    5612:	bf 90       	pop	r11
    5614:	af 90       	pop	r10
    5616:	9f 90       	pop	r9
    5618:	8f 90       	pop	r8
    561a:	08 95       	ret

0000561c <EEPROM_LoadByte>:
 *
 *  \param  byteAddr  EEPROM Byte address, between 0 and EEPROM_PAGESIZE.
 *  \param  value     Byte value to write to buffer.
 */
void EEPROM_LoadByte( uint8_t byteAddr, uint8_t value )
{
    561c:	98 2f       	mov	r25, r24
 */
void EEPROM_WaitForNVM( void )
{
	do {
		/* Block execution while waiting for the NVM to be ready. */
	} while ((NVM.STATUS & NVM_NVMBUSY_bm) == NVM_NVMBUSY_bm);
    561e:	e0 ec       	ldi	r30, 0xC0	; 192
    5620:	f1 e0       	ldi	r31, 0x01	; 1
    5622:	80 91 cf 01 	lds	r24, 0x01CF
    5626:	87 fd       	sbrc	r24, 7
    5628:	fa cf       	rjmp	.-12     	; 0x561e <EEPROM_LoadByte+0x2>
 */
void EEPROM_LoadByte( uint8_t byteAddr, uint8_t value )
{
	/* Wait until NVM is not busy and prepare NVM command.*/
	EEPROM_WaitForNVM();
	NVM.CMD = NVM_CMD_LOAD_EEPROM_BUFFER_gc;
    562a:	83 e3       	ldi	r24, 0x33	; 51
    562c:	82 87       	std	Z+10, r24	; 0x0a

	/* Set address. */
	NVM.ADDR0 = byteAddr & 0xFF;
    562e:	90 93 c0 01 	sts	0x01C0, r25
	NVM.ADDR1 = 0x00;
    5632:	11 82       	std	Z+1, r1	; 0x01
	NVM.ADDR2 = 0x00;
    5634:	12 82       	std	Z+2, r1	; 0x02

	/* Set data, which triggers loading of EEPROM page buffer. */
	NVM.DATA0 = value;
    5636:	64 83       	std	Z+4, r22	; 0x04
}
    5638:	08 95       	ret

0000563a <EEPROM_LoadPage>:
 *        EEPROM write page operation.
 *
 *  \param  values   Pointer to SRAM buffer containing an entire page.
 */
void EEPROM_LoadPage( const uint8_t * values )
{
    563a:	dc 01       	movw	r26, r24
 */
void EEPROM_WaitForNVM( void )
{
	do {
		/* Block execution while waiting for the NVM to be ready. */
	} while ((NVM.STATUS & NVM_NVMBUSY_bm) == NVM_NVMBUSY_bm);
    563c:	e0 ec       	ldi	r30, 0xC0	; 192
    563e:	f1 e0       	ldi	r31, 0x01	; 1
    5640:	80 91 cf 01 	lds	r24, 0x01CF
    5644:	87 fd       	sbrc	r24, 7
    5646:	fa cf       	rjmp	.-12     	; 0x563c <EEPROM_LoadPage+0x2>
 */
void EEPROM_LoadPage( const uint8_t * values )
{
	/* Wait until NVM is not busy. */
	EEPROM_WaitForNVM();
	NVM.CMD = NVM_CMD_LOAD_EEPROM_BUFFER_gc;
    5648:	83 e3       	ldi	r24, 0x33	; 51
    564a:	82 87       	std	Z+10, r24	; 0x0a

	/*  Set address to zero, as only the lower bits matters. ADDR0 is
	 *  maintained inside the loop below.
	 */
	NVM.ADDR1 = 0x00;
    564c:	11 82       	std	Z+1, r1	; 0x01
	NVM.ADDR2 = 0x00;
    564e:	12 82       	std	Z+2, r1	; 0x02
    5650:	90 e0       	ldi	r25, 0x00	; 0

	/* Load multible bytes into page buffer. */
	for (uint8_t i = 0; i < EEPROM_PAGESIZE; ++i) {
		NVM.ADDR0 = i;
    5652:	90 93 c0 01 	sts	0x01C0, r25
		NVM.DATA0 = *values;
    5656:	8d 91       	ld	r24, X+
    5658:	84 83       	std	Z+4, r24	; 0x04
	 */
	NVM.ADDR1 = 0x00;
	NVM.ADDR2 = 0x00;

	/* Load multible bytes into page buffer. */
	for (uint8_t i = 0; i < EEPROM_PAGESIZE; ++i) {
    565a:	9f 5f       	subi	r25, 0xFF	; 255
    565c:	90 32       	cpi	r25, 0x20	; 32
    565e:	c9 f7       	brne	.-14     	; 0x5652 <EEPROM_LoadPage+0x18>
		NVM.ADDR0 = i;
		NVM.DATA0 = *values;
		++values;
	}
}
    5660:	08 95       	ret

00005662 <EEPROM_AtomicWritePage>:
 *  locations that have not been loaded will be left untouched in EEPROM.
 *
 *  \param  pageAddr  EEPROM Page address, between 0 and EEPROM_SIZE/EEPROM_PAGESIZE
 */
void EEPROM_AtomicWritePage( uint8_t pageAddr )
{
    5662:	98 2f       	mov	r25, r24
 */
void EEPROM_WaitForNVM( void )
{
	do {
		/* Block execution while waiting for the NVM to be ready. */
	} while ((NVM.STATUS & NVM_NVMBUSY_bm) == NVM_NVMBUSY_bm);
    5664:	e0 ec       	ldi	r30, 0xC0	; 192
    5666:	f1 e0       	ldi	r31, 0x01	; 1
    5668:	80 91 cf 01 	lds	r24, 0x01CF
    566c:	87 fd       	sbrc	r24, 7
    566e:	fa cf       	rjmp	.-12     	; 0x5664 <EEPROM_AtomicWritePage+0x2>
{
	/* Wait until NVM is not busy. */
	EEPROM_WaitForNVM();

	/* Calculate page address */
	uint16_t address = (uint16_t)(pageAddr*EEPROM_PAGESIZE);
    5670:	89 2f       	mov	r24, r25
    5672:	90 e0       	ldi	r25, 0x00	; 0
    5674:	a5 e0       	ldi	r26, 0x05	; 5
    5676:	88 0f       	add	r24, r24
    5678:	99 1f       	adc	r25, r25
    567a:	aa 95       	dec	r26
    567c:	e1 f7       	brne	.-8      	; 0x5676 <EEPROM_AtomicWritePage+0x14>

	/* Set address. */
	NVM.ADDR0 = address & 0xFF;
    567e:	80 93 c0 01 	sts	0x01C0, r24
	NVM.ADDR1 = (address >> 8) & 0x1F;
    5682:	89 2f       	mov	r24, r25
    5684:	8f 71       	andi	r24, 0x1F	; 31
    5686:	81 83       	std	Z+1, r24	; 0x01
	NVM.ADDR2 = 0x00;
    5688:	12 82       	std	Z+2, r1	; 0x02

	/* Issue EEPROM Atomic Write (Erase&Write) command. */
	NVM.CMD = NVM_CMD_ERASE_WRITE_EEPROM_PAGE_gc;
    568a:	85 e3       	ldi	r24, 0x35	; 53
    568c:	82 87       	std	Z+10, r24	; 0x0a
	NVM_EXEC();
    568e:	ef 93       	push	r30
    5690:	ff 93       	push	r31
    5692:	0f 93       	push	r16
    5694:	2f 93       	push	r18
    5696:	eb ec       	ldi	r30, 0xCB	; 203
    5698:	f1 e0       	ldi	r31, 0x01	; 1
    569a:	08 ed       	ldi	r16, 0xD8	; 216
    569c:	21 e0       	ldi	r18, 0x01	; 1
    569e:	04 bf       	out	0x34, r16	; 52
    56a0:	20 83       	st	Z, r18
    56a2:	2f 91       	pop	r18
    56a4:	0f 91       	pop	r16
    56a6:	ff 91       	pop	r31
    56a8:	ef 91       	pop	r30
}
    56aa:	08 95       	ret

000056ac <EEPROM_ErasePage>:
 *  This function erases one EEPROM page, so that every location reads 0xFF.
 *
 *  \param  pageAddr  EEPROM Page address, between 0 and EEPROM_SIZE/EEPROM_PAGESIZE
 */
void EEPROM_ErasePage( uint8_t pageAddr )
{
    56ac:	98 2f       	mov	r25, r24
 */
void EEPROM_WaitForNVM( void )
{
	do {
		/* Block execution while waiting for the NVM to be ready. */
	} while ((NVM.STATUS & NVM_NVMBUSY_bm) == NVM_NVMBUSY_bm);
    56ae:	e0 ec       	ldi	r30, 0xC0	; 192
    56b0:	f1 e0       	ldi	r31, 0x01	; 1
    56b2:	80 91 cf 01 	lds	r24, 0x01CF
    56b6:	87 fd       	sbrc	r24, 7
    56b8:	fa cf       	rjmp	.-12     	; 0x56ae <EEPROM_ErasePage+0x2>
{
	/* Wait until NVM is not busy. */
	EEPROM_WaitForNVM();

	/* Calculate page address */
	uint16_t address = (uint16_t)(pageAddr*EEPROM_PAGESIZE);
    56ba:	89 2f       	mov	r24, r25
    56bc:	90 e0       	ldi	r25, 0x00	; 0
    56be:	b5 e0       	ldi	r27, 0x05	; 5
    56c0:	88 0f       	add	r24, r24
    56c2:	99 1f       	adc	r25, r25
    56c4:	ba 95       	dec	r27
    56c6:	e1 f7       	brne	.-8      	; 0x56c0 <EEPROM_ErasePage+0x14>

	/* Set address. */
	NVM.ADDR0 = address & 0xFF;
    56c8:	80 93 c0 01 	sts	0x01C0, r24
	NVM.ADDR1 = (address >> 8) & 0x1F;
    56cc:	89 2f       	mov	r24, r25
    56ce:	8f 71       	andi	r24, 0x1F	; 31
    56d0:	81 83       	std	Z+1, r24	; 0x01
	NVM.ADDR2 = 0x00;
    56d2:	12 82       	std	Z+2, r1	; 0x02

	/* Issue EEPROM Erase command. */
	NVM.CMD = NVM_CMD_ERASE_EEPROM_PAGE_gc;
    56d4:	82 e3       	ldi	r24, 0x32	; 50
    56d6:	82 87       	std	Z+10, r24	; 0x0a
	NVM_EXEC();
    56d8:	ef 93       	push	r30
    56da:	ff 93       	push	r31
    56dc:	0f 93       	push	r16
    56de:	2f 93       	push	r18
    56e0:	eb ec       	ldi	r30, 0xCB	; 203
    56e2:	f1 e0       	ldi	r31, 0x01	; 1
    56e4:	08 ed       	ldi	r16, 0xD8	; 216
    56e6:	21 e0       	ldi	r18, 0x01	; 1
    56e8:	04 bf       	out	0x34, r16	; 52
    56ea:	20 83       	st	Z, r18
    56ec:	2f 91       	pop	r18
    56ee:	0f 91       	pop	r16
    56f0:	ff 91       	pop	r31
    56f2:	ef 91       	pop	r30
}
    56f4:	08 95       	ret

000056f6 <EEPROM_SplitWritePage>:
 *  before writing.
 *
 *  \param  pageAddr  EEPROM Page address, between 0 and EEPROM_SIZE/EEPROM_PAGESIZE
 */
void EEPROM_SplitWritePage( uint8_t pageAddr )
{
    56f6:	98 2f       	mov	r25, r24
 */
void EEPROM_WaitForNVM( void )
{
	do {
		/* Block execution while waiting for the NVM to be ready. */
	} while ((NVM.STATUS & NVM_NVMBUSY_bm) == NVM_NVMBUSY_bm);
    56f8:	e0 ec       	ldi	r30, 0xC0	; 192
    56fa:	f1 e0       	ldi	r31, 0x01	; 1
    56fc:	80 91 cf 01 	lds	r24, 0x01CF
    5700:	87 fd       	sbrc	r24, 7
    5702:	fa cf       	rjmp	.-12     	; 0x56f8 <EEPROM_SplitWritePage+0x2>
{
	/* Wait until NVM is not busy. */
	EEPROM_WaitForNVM();

	/* Calculate page address */
	uint16_t address = (uint16_t)(pageAddr*EEPROM_PAGESIZE);
    5704:	89 2f       	mov	r24, r25
    5706:	90 e0       	ldi	r25, 0x00	; 0
    5708:	25 e0       	ldi	r18, 0x05	; 5
    570a:	88 0f       	add	r24, r24
    570c:	99 1f       	adc	r25, r25
    570e:	2a 95       	dec	r18
    5710:	e1 f7       	brne	.-8      	; 0x570a <EEPROM_SplitWritePage+0x14>

	/* Set address. */
	NVM.ADDR0 = address & 0xFF;
    5712:	80 93 c0 01 	sts	0x01C0, r24
	NVM.ADDR1 = (address >> 8) & 0x1F;
    5716:	89 2f       	mov	r24, r25
    5718:	8f 71       	andi	r24, 0x1F	; 31
    571a:	81 83       	std	Z+1, r24	; 0x01
	NVM.ADDR2 = 0x00;
    571c:	12 82       	std	Z+2, r1	; 0x02

	/* Issue EEPROM Split Write command. */
	NVM.CMD = NVM_CMD_WRITE_EEPROM_PAGE_gc;
    571e:	84 e3       	ldi	r24, 0x34	; 52
    5720:	82 87       	std	Z+10, r24	; 0x0a
	NVM_EXEC();
    5722:	ef 93       	push	r30
    5724:	ff 93       	push	r31
    5726:	0f 93       	push	r16
    5728:	2f 93       	push	r18
    572a:	eb ec       	ldi	r30, 0xCB	; 203
    572c:	f1 e0       	ldi	r31, 0x01	; 1
    572e:	08 ed       	ldi	r16, 0xD8	; 216
    5730:	21 e0       	ldi	r18, 0x01	; 1
    5732:	04 bf       	out	0x34, r16	; 52
    5734:	20 83       	st	Z, r18
    5736:	2f 91       	pop	r18
    5738:	0f 91       	pop	r16
    573a:	ff 91       	pop	r31
    573c:	ef 91       	pop	r30
}
    573e:	08 95       	ret

00005740 <EEPROM_EraseAll>:
 */
void EEPROM_WaitForNVM( void )
{
	do {
		/* Block execution while waiting for the NVM to be ready. */
	} while ((NVM.STATUS & NVM_NVMBUSY_bm) == NVM_NVMBUSY_bm);
    5740:	80 91 cf 01 	lds	r24, 0x01CF
    5744:	87 fd       	sbrc	r24, 7
    5746:	fc cf       	rjmp	.-8      	; 0x5740 <EEPROM_EraseAll>
{
	/* Wait until NVM is not busy. */
	EEPROM_WaitForNVM();

	/* Issue EEPROM Erase All command. */
	NVM.CMD = NVM_CMD_ERASE_EEPROM_gc;
    5748:	80 e3       	ldi	r24, 0x30	; 48
    574a:	e0 ec       	ldi	r30, 0xC0	; 192
    574c:	f1 e0       	ldi	r31, 0x01	; 1
    574e:	82 87       	std	Z+10, r24	; 0x0a
	NVM_EXEC();
    5750:	ef 93       	push	r30
    5752:	ff 93       	push	r31
    5754:	0f 93       	push	r16
    5756:	2f 93       	push	r18
    5758:	eb ec       	ldi	r30, 0xCB	; 203
    575a:	f1 e0       	ldi	r31, 0x01	; 1
    575c:	08 ed       	ldi	r16, 0xD8	; 216
    575e:	21 e0       	ldi	r18, 0x01	; 1
    5760:	04 bf       	out	0x34, r16	; 52
    5762:	20 83       	st	Z, r18
    5764:	2f 91       	pop	r18
    5766:	0f 91       	pop	r16
    5768:	ff 91       	pop	r31
    576a:	ef 91       	pop	r30
}
    576c:	08 95       	ret

0000576e <tg_init>:
 */

void tg_init() 
{
	// set input source
	tg.default_src = DEFAULT_SOURCE; 		// set in tinyg.h
    576e:	81 e0       	ldi	r24, 0x01	; 1
    5770:	80 93 f1 25 	sts	0x25F1, r24
 *	other messages are sent to the active device.
 */

void _tg_set_source(uint8_t d)
{
	tg.src = d;									// d = XIO device #. See xio.h
    5774:	e1 ef       	ldi	r30, 0xF1	; 241
    5776:	f5 e2       	ldi	r31, 0x25	; 37
    5778:	80 93 f0 25 	sts	0x25F0, r24
	if (tg.src == XIO_DEV_PGM) {
		tg.flags &= ~TG_FLAG_PROMPTS_bm;
	} else {
		tg.flags |= TG_FLAG_PROMPTS_bm;
    577c:	34 97       	sbiw	r30, 0x04	; 4
    577e:	80 81       	ld	r24, Z
    5780:	81 60       	ori	r24, 0x01	; 1
    5782:	80 83       	st	Z, r24
 * _tg_set_mode() - Set current operating mode
 */

void _tg_set_mode(uint8_t mode)
{
	tg.mode = mode;
    5784:	10 92 ef 25 	sts	0x25EF, r1
{
	// set input source
	tg.default_src = DEFAULT_SOURCE; 		// set in tinyg.h
	_tg_set_source(tg.default_src);			// set initial active source
	_tg_set_mode(TG_CONTROL_MODE);			// set initial operating mode
	tg.state = TG_READY_UNPROMPTED;
    5788:	10 92 ec 25 	sts	0x25EC, r1
}
    578c:	08 95       	ret

0000578e <tg_reset_source>:
 * tg_reset_source()  Reset source to default input device
 */

void tg_reset_source()
{
	_tg_set_source(tg.default_src);
    578e:	80 91 f1 25 	lds	r24, 0x25F1
 *	other messages are sent to the active device.
 */

void _tg_set_source(uint8_t d)
{
	tg.src = d;									// d = XIO device #. See xio.h
    5792:	80 93 f0 25 	sts	0x25F0, r24
	if (tg.src == XIO_DEV_PGM) {
    5796:	83 30       	cpi	r24, 0x03	; 3
    5798:	21 f4       	brne	.+8      	; 0x57a2 <tg_reset_source+0x14>
		tg.flags &= ~TG_FLAG_PROMPTS_bm;
    579a:	80 91 ed 25 	lds	r24, 0x25ED
    579e:	8e 7f       	andi	r24, 0xFE	; 254
    57a0:	03 c0       	rjmp	.+6      	; 0x57a8 <tg_reset_source+0x1a>
	} else {
		tg.flags |= TG_FLAG_PROMPTS_bm;
    57a2:	80 91 ed 25 	lds	r24, 0x25ED
    57a6:	81 60       	ori	r24, 0x01	; 1
    57a8:	80 93 ed 25 	sts	0x25ED, r24
    57ac:	08 95       	ret

000057ae <tg_print_status>:
	tgStatusMsg20
};

void tg_print_status(const uint8_t status_code, const char *textbuf)
{
	switch (status_code) {		// don't send messages for these status codes
    57ae:	84 30       	cpi	r24, 0x04	; 4
    57b0:	28 f4       	brcc	.+10     	; 0x57bc <tg_print_status+0xe>
    57b2:	82 30       	cpi	r24, 0x02	; 2
    57b4:	28 f5       	brcc	.+74     	; 0x5800 <tg_print_status+0x52>
    57b6:	88 23       	and	r24, r24
    57b8:	19 f1       	breq	.+70     	; 0x5800 <tg_print_status+0x52>
    57ba:	02 c0       	rjmp	.+4      	; 0x57c0 <tg_print_status+0x12>
    57bc:	8b 30       	cpi	r24, 0x0B	; 11
    57be:	01 f1       	breq	.+64     	; 0x5800 <tg_print_status+0x52>
		case TG_OK: return;
		case TG_EAGAIN: return;
		case TG_NOOP: return;
		case TG_QUIT: return;
	}
	printf_P(PSTR("%S: %s\n"),(PGM_P)pgm_read_word(&tgStatusStrings[status_code]), textbuf);
    57c0:	e8 2f       	mov	r30, r24
    57c2:	f0 e0       	ldi	r31, 0x00	; 0
    57c4:	ee 0f       	add	r30, r30
    57c6:	ff 1f       	adc	r31, r31
    57c8:	ee 5a       	subi	r30, 0xAE	; 174
    57ca:	f5 4e       	sbci	r31, 0xE5	; 229
    57cc:	25 91       	lpm	r18, Z+
    57ce:	34 91       	lpm	r19, Z+
    57d0:	00 d0       	rcall	.+0      	; 0x57d2 <tg_print_status+0x24>
    57d2:	00 d0       	rcall	.+0      	; 0x57d4 <tg_print_status+0x26>
    57d4:	ed b7       	in	r30, 0x3d	; 61
    57d6:	fe b7       	in	r31, 0x3e	; 62
    57d8:	31 96       	adiw	r30, 0x01	; 1
    57da:	8c e7       	ldi	r24, 0x7C	; 124
    57dc:	9a e1       	ldi	r25, 0x1A	; 26
    57de:	ad b7       	in	r26, 0x3d	; 61
    57e0:	be b7       	in	r27, 0x3e	; 62
    57e2:	11 96       	adiw	r26, 0x01	; 1
    57e4:	8d 93       	st	X+, r24
    57e6:	9c 93       	st	X, r25
    57e8:	12 97       	sbiw	r26, 0x02	; 2
    57ea:	22 83       	std	Z+2, r18	; 0x02
    57ec:	33 83       	std	Z+3, r19	; 0x03
    57ee:	64 83       	std	Z+4, r22	; 0x04
    57f0:	75 83       	std	Z+5, r23	; 0x05
    57f2:	0e 94 9a 49 	call	0x9334	; 0x9334 <printf_P>
    57f6:	8d b7       	in	r24, 0x3d	; 61
    57f8:	9e b7       	in	r25, 0x3e	; 62
    57fa:	06 96       	adiw	r24, 0x06	; 6
    57fc:	8d bf       	out	0x3d, r24	; 61
    57fe:	9e bf       	out	0x3e, r25	; 62
    5800:	08 95       	ret

00005802 <_tg_prompt>:
	tgModeStringDirect
};

void _tg_prompt()
{
	if (tg.state == TG_READY_UNPROMPTED) {
    5802:	80 91 ec 25 	lds	r24, 0x25EC
    5806:	88 23       	and	r24, r24
    5808:	09 f5       	brne	.+66     	; 0x584c <_tg_prompt+0x4a>
		if (tg.flags && TG_FLAG_PROMPTS_bm) {
    580a:	80 91 ed 25 	lds	r24, 0x25ED
    580e:	88 23       	and	r24, r24
    5810:	d1 f0       	breq	.+52     	; 0x5846 <_tg_prompt+0x44>
			printf_P(PSTR("TinyG [%S]*> "),(PGM_P)pgm_read_word(&tgModeStrings[tg.mode]));
    5812:	80 91 ef 25 	lds	r24, 0x25EF
    5816:	e8 2f       	mov	r30, r24
    5818:	f0 e0       	ldi	r31, 0x00	; 0
    581a:	ee 0f       	add	r30, r30
    581c:	ff 1f       	adc	r31, r31
    581e:	eb 5f       	subi	r30, 0xFB	; 251
    5820:	f6 4e       	sbci	r31, 0xE6	; 230
    5822:	25 91       	lpm	r18, Z+
    5824:	34 91       	lpm	r19, Z+
    5826:	00 d0       	rcall	.+0      	; 0x5828 <_tg_prompt+0x26>
    5828:	0f 92       	push	r0
    582a:	89 e9       	ldi	r24, 0x99	; 153
    582c:	9a e1       	ldi	r25, 0x1A	; 26
    582e:	ed b7       	in	r30, 0x3d	; 61
    5830:	fe b7       	in	r31, 0x3e	; 62
    5832:	81 83       	std	Z+1, r24	; 0x01
    5834:	92 83       	std	Z+2, r25	; 0x02
    5836:	23 83       	std	Z+3, r18	; 0x03
    5838:	34 83       	std	Z+4, r19	; 0x04
    583a:	0e 94 9a 49 	call	0x9334	; 0x9334 <printf_P>
    583e:	0f 90       	pop	r0
    5840:	0f 90       	pop	r0
    5842:	0f 90       	pop	r0
    5844:	0f 90       	pop	r0
		}
		tg.state = TG_READY_PROMPTED;
    5846:	81 e0       	ldi	r24, 0x01	; 1
    5848:	80 93 ec 25 	sts	0x25EC, r24
    584c:	08 95       	ret

0000584e <tg_alive>:
 * tg_alive() - announce that TinyG is alive
 */

void tg_alive() 
{
	printf_P(PSTR("TinyG - Version %S\n"), (PSTR(TINYG_VERSION)));
    584e:	00 d0       	rcall	.+0      	; 0x5850 <tg_alive+0x2>
    5850:	0f 92       	push	r0
    5852:	81 eb       	ldi	r24, 0xB1	; 177
    5854:	9a e1       	ldi	r25, 0x1A	; 26
    5856:	ed b7       	in	r30, 0x3d	; 61
    5858:	fe b7       	in	r31, 0x3e	; 62
    585a:	81 83       	std	Z+1, r24	; 0x01
    585c:	92 83       	std	Z+2, r25	; 0x02
    585e:	87 ea       	ldi	r24, 0xA7	; 167
    5860:	9a e1       	ldi	r25, 0x1A	; 26
    5862:	83 83       	std	Z+3, r24	; 0x03
    5864:	94 83       	std	Z+4, r25	; 0x04
    5866:	0e 94 9a 49 	call	0x9334	; 0x9334 <printf_P>
	_tg_prompt();
    586a:	0f 90       	pop	r0
    586c:	0f 90       	pop	r0
    586e:	0f 90       	pop	r0
    5870:	0f 90       	pop	r0
    5872:	0e 94 01 2c 	call	0x5802	; 0x5802 <_tg_prompt>
}
    5876:	08 95       	ret

00005878 <tg_parser>:
 *	Quits from a parser are handled by the controller (not the individual parsers)
 *	Preserves and passes through return codes (status codes) from lower levels
 */

int tg_parser(char * buf)
{
    5878:	cf 93       	push	r28
    587a:	df 93       	push	r29
    587c:	ec 01       	movw	r28, r24
	// auto-detect mode if not already set 
	if (tg.mode == TG_CONTROL_MODE) {
    587e:	80 91 ef 25 	lds	r24, 0x25EF
    5882:	88 23       	and	r24, r24
    5884:	09 f0       	breq	.+2      	; 0x5888 <tg_parser+0x10>
    5886:	42 c0       	rjmp	.+132    	; 0x590c <tg_parser+0x94>
		switch (toupper(buf[0])) {
    5888:	88 81       	ld	r24, Y
    588a:	90 e0       	ldi	r25, 0x00	; 0
    588c:	0e 94 ed 48 	call	0x91da	; 0x91da <toupper>
    5890:	88 34       	cpi	r24, 0x48	; 72
    5892:	91 05       	cpc	r25, r1
    5894:	9c f4       	brge	.+38     	; 0x58bc <tg_parser+0x44>
    5896:	86 34       	cpi	r24, 0x46	; 70
    5898:	91 05       	cpc	r25, r1
    589a:	e4 f4       	brge	.+56     	; 0x58d4 <tg_parser+0x5c>
    589c:	83 34       	cpi	r24, 0x43	; 67
    589e:	91 05       	cpc	r25, r1
    58a0:	d9 f0       	breq	.+54     	; 0x58d8 <tg_parser+0x60>
    58a2:	84 34       	cpi	r24, 0x44	; 68
    58a4:	91 05       	cpc	r25, r1
    58a6:	34 f4       	brge	.+12     	; 0x58b4 <tg_parser+0x3c>
    58a8:	88 32       	cpi	r24, 0x28	; 40
    58aa:	91 05       	cpc	r25, r1
    58ac:	99 f0       	breq	.+38     	; 0x58d4 <tg_parser+0x5c>
    58ae:	cf 97       	sbiw	r24, 0x3f	; 63
    58b0:	59 f5       	brne	.+86     	; 0x5908 <tg_parser+0x90>
    58b2:	12 c0       	rjmp	.+36     	; 0x58d8 <tg_parser+0x60>
    58b4:	84 34       	cpi	r24, 0x44	; 68
    58b6:	91 05       	cpc	r25, r1
    58b8:	39 f5       	brne	.+78     	; 0x5908 <tg_parser+0x90>
    58ba:	12 c0       	rjmp	.+36     	; 0x58e0 <tg_parser+0x68>
    58bc:	8d 34       	cpi	r24, 0x4D	; 77
    58be:	91 05       	cpc	r25, r1
    58c0:	1c f1       	brlt	.+70     	; 0x5908 <tg_parser+0x90>
    58c2:	8f 34       	cpi	r24, 0x4F	; 79
    58c4:	91 05       	cpc	r25, r1
    58c6:	34 f0       	brlt	.+12     	; 0x58d4 <tg_parser+0x5c>
    58c8:	82 35       	cpi	r24, 0x52	; 82
    58ca:	91 05       	cpc	r25, r1
    58cc:	59 f0       	breq	.+22     	; 0x58e4 <tg_parser+0x6c>
    58ce:	8c 35       	cpi	r24, 0x5C	; 92
    58d0:	91 05       	cpc	r25, r1
    58d2:	d1 f4       	brne	.+52     	; 0x5908 <tg_parser+0x90>
 * _tg_set_mode() - Set current operating mode
 */

void _tg_set_mode(uint8_t mode)
{
	tg.mode = mode;
    58d4:	82 e0       	ldi	r24, 0x02	; 2
    58d6:	01 c0       	rjmp	.+2      	; 0x58da <tg_parser+0x62>
{
	// auto-detect mode if not already set 
	if (tg.mode == TG_CONTROL_MODE) {
		switch (toupper(buf[0])) {
			case 'G': case 'M': case 'N': case 'F': case '(': case '\\':
				 _tg_set_mode(TG_GCODE_MODE); break;
    58d8:	81 e0       	ldi	r24, 0x01	; 1
    58da:	80 93 ef 25 	sts	0x25EF, r24
    58de:	16 c0       	rjmp	.+44     	; 0x590c <tg_parser+0x94>
 * _tg_set_mode() - Set current operating mode
 */

void _tg_set_mode(uint8_t mode)
{
	tg.mode = mode;
    58e0:	83 e0       	ldi	r24, 0x03	; 3
    58e2:	fb cf       	rjmp	.-10     	; 0x58da <tg_parser+0x62>
//	xio_open_pgm(PGMFILE(&spiral_test50a));
//	xio_open_pgm(PGMFILE(&spiral_test5));
//	xio_open_pgm(PGMFILE(&dwell_test2));

//	xio_open_pgm(PGMFILE(&contraptor_circle)); 	// contraptor circle test
	xio_open_pgm(PGMFILE(&zoetrope));			// crazy noisy zoetrope file
    58e4:	88 e3       	ldi	r24, 0x38	; 56
    58e6:	9b e0       	ldi	r25, 0x0B	; 11
    58e8:	0e 94 c6 35 	call	0x6b8c	; 0x6b8c <xio_open_pgm>
 *	other messages are sent to the active device.
 */

void _tg_set_source(uint8_t d)
{
	tg.src = d;									// d = XIO device #. See xio.h
    58ec:	83 e0       	ldi	r24, 0x03	; 3
    58ee:	80 93 f0 25 	sts	0x25F0, r24
	if (tg.src == XIO_DEV_PGM) {
		tg.flags &= ~TG_FLAG_PROMPTS_bm;
    58f2:	80 91 ed 25 	lds	r24, 0x25ED
    58f6:	8e 7f       	andi	r24, 0xFE	; 254
    58f8:	80 93 ed 25 	sts	0x25ED, r24
 * _tg_set_mode() - Set current operating mode
 */

void _tg_set_mode(uint8_t mode)
{
	tg.mode = mode;
    58fc:	82 e0       	ldi	r24, 0x02	; 2
    58fe:	80 93 ef 25 	sts	0x25EF, r24
    5902:	20 e0       	ldi	r18, 0x00	; 0
    5904:	30 e0       	ldi	r19, 0x00	; 0
    5906:	1d c0       	rjmp	.+58     	; 0x5942 <tg_parser+0xca>
		switch (toupper(buf[0])) {
			case 'G': case 'M': case 'N': case 'F': case '(': case '\\':
				 _tg_set_mode(TG_GCODE_MODE); break;
			case 'C': case '?': _tg_set_mode(TG_CONFIG_MODE); break;
			case 'D': _tg_set_mode(TG_DIRECT_DRIVE_MODE); break;
			case 'R': return (_tg_test_file());
    5908:	10 92 ef 25 	sts	0x25EF, r1
			default:  _tg_set_mode(TG_CONTROL_MODE); break; //+++ put a help prompt here
		}
	}
	// dispatch based on mode
	tg.status = TG_OK;
    590c:	10 92 ee 25 	sts	0x25EE, r1
	switch (tg.mode) {
    5910:	80 91 ef 25 	lds	r24, 0x25EF
    5914:	82 30       	cpi	r24, 0x02	; 2
    5916:	41 f0       	breq	.+16     	; 0x5928 <tg_parser+0xb0>
    5918:	83 30       	cpi	r24, 0x03	; 3
    591a:	51 f0       	breq	.+20     	; 0x5930 <tg_parser+0xb8>
    591c:	81 30       	cpi	r24, 0x01	; 1
    591e:	69 f4       	brne	.+26     	; 0x593a <tg_parser+0xc2>
		case TG_CONFIG_MODE: tg.status = cfg_parse(buf); break;
    5920:	ce 01       	movw	r24, r28
    5922:	0e 94 3a 19 	call	0x3274	; 0x3274 <cfg_parse>
    5926:	07 c0       	rjmp	.+14     	; 0x5936 <tg_parser+0xbe>
		case TG_GCODE_MODE: tg.status = gc_gcode_parser(buf); break;
    5928:	ce 01       	movw	r24, r28
    592a:	0e 94 bf 15 	call	0x2b7e	; 0x2b7e <gc_gcode_parser>
    592e:	03 c0       	rjmp	.+6      	; 0x5936 <tg_parser+0xbe>
		case TG_DIRECT_DRIVE_MODE: tg.status = dd_parser(buf); break;
    5930:	ce 01       	movw	r24, r28
    5932:	0e 94 f5 2c 	call	0x59ea	; 0x59ea <dd_parser>
    5936:	80 93 ee 25 	sts	0x25EE, r24
	}
	return (tg.status);
    593a:	80 91 ee 25 	lds	r24, 0x25EE
    593e:	28 2f       	mov	r18, r24
    5940:	30 e0       	ldi	r19, 0x00	; 0
}
    5942:	c9 01       	movw	r24, r18
    5944:	df 91       	pop	r29
    5946:	cf 91       	pop	r28
    5948:	08 95       	ret

0000594a <tg_read_next_line>:
 */

int tg_read_next_line()
{
	// read input line or return if not a completed line
	if ((tg.status = xio_readln(tg.src, tg.buf, sizeof(tg.buf))) == TG_OK) {
    594a:	80 91 f0 25 	lds	r24, 0x25F0
    594e:	63 ef       	ldi	r22, 0xF3	; 243
    5950:	75 e2       	ldi	r23, 0x25	; 37
    5952:	40 e5       	ldi	r20, 0x50	; 80
    5954:	0e 94 4f 29 	call	0x529e	; 0x529e <xio_readln>
    5958:	80 93 ee 25 	sts	0x25EE, r24
    595c:	88 23       	and	r24, r24
    595e:	31 f4       	brne	.+12     	; 0x596c <tg_read_next_line+0x22>
		tg.status = tg_parser(tg.buf);				// dispatch to parser
    5960:	83 ef       	ldi	r24, 0xF3	; 243
    5962:	95 e2       	ldi	r25, 0x25	; 37
    5964:	0e 94 3c 2c 	call	0x5878	; 0x5878 <tg_parser>
    5968:	80 93 ee 25 	sts	0x25EE, r24
	}

	// Note: This switch statement could be reduced as most paths lead to
	//		 TG_READY_UNPROMPTED, but it's written for clarity instead.
	switch (tg.status) {
    596c:	80 91 ee 25 	lds	r24, 0x25EE
    5970:	84 30       	cpi	r24, 0x04	; 4
    5972:	18 f4       	brcc	.+6      	; 0x597a <tg_read_next_line+0x30>
    5974:	82 30       	cpi	r24, 0x02	; 2
    5976:	c0 f4       	brcc	.+48     	; 0x59a8 <tg_read_next_line+0x5e>
    5978:	15 c0       	rjmp	.+42     	; 0x59a4 <tg_read_next_line+0x5a>
    597a:	85 30       	cpi	r24, 0x05	; 5
    597c:	29 f0       	breq	.+10     	; 0x5988 <tg_read_next_line+0x3e>
    597e:	8b 30       	cpi	r24, 0x0B	; 11
    5980:	89 f4       	brne	.+34     	; 0x59a4 <tg_read_next_line+0x5a>
 * _tg_set_mode() - Set current operating mode
 */

void _tg_set_mode(uint8_t mode)
{
	tg.mode = mode;
    5982:	10 92 ef 25 	sts	0x25EF, r1
    5986:	0e c0       	rjmp	.+28     	; 0x59a4 <tg_read_next_line+0x5a>
			_tg_set_mode(TG_CONTROL_MODE);
			tg.state = TG_READY_UNPROMPTED;
			break;
		}
		case TG_EOF: {								// EOF comes from file devs only
			printf_P(PSTR("End of command file\n"));
    5988:	0f 92       	push	r0
    598a:	0f 92       	push	r0
    598c:	84 e8       	ldi	r24, 0x84	; 132
    598e:	9a e1       	ldi	r25, 0x1A	; 26
    5990:	ed b7       	in	r30, 0x3d	; 61
    5992:	fe b7       	in	r31, 0x3e	; 62
    5994:	81 83       	std	Z+1, r24	; 0x01
    5996:	92 83       	std	Z+2, r25	; 0x02
    5998:	0e 94 9a 49 	call	0x9334	; 0x9334 <printf_P>
			tg_reset_source();						// reset to default src
    599c:	0f 90       	pop	r0
    599e:	0f 90       	pop	r0
    59a0:	0e 94 c7 2b 	call	0x578e	; 0x578e <tg_reset_source>
			tg.state = TG_READY_UNPROMPTED;
			break;
		}
		default: {
			tg.state = TG_READY_UNPROMPTED;			// traps various error returns
    59a4:	10 92 ec 25 	sts	0x25EC, r1
		}
	}
	return (tg.status);
}
    59a8:	80 91 ee 25 	lds	r24, 0x25EE
    59ac:	90 e0       	ldi	r25, 0x00	; 0
    59ae:	08 95       	ret

000059b0 <tg_controller>:
	case (TG_EAGAIN): { return; } \
	case (TG_OK): { tg.state = TG_READY_UNPROMPTED; _tg_prompt(); return; } }

void tg_controller()
{
	st_execute_move();					// always start with this
    59b0:	0e 94 8a 25 	call	0x4b14	; 0x4b14 <st_execute_move>
	DISPATCH(mc_line_continue());
    59b4:	0e 94 b7 1b 	call	0x376e	; 0x376e <mc_line_continue>
    59b8:	00 97       	sbiw	r24, 0x00	; 0
    59ba:	89 f0       	breq	.+34     	; 0x59de <tg_controller+0x2e>
    59bc:	02 97       	sbiw	r24, 0x02	; 2
    59be:	09 f4       	brne	.+2      	; 0x59c2 <tg_controller+0x12>
    59c0:	08 95       	ret
	DISPATCH(mc_arc_continue());
    59c2:	0e 94 e7 1d 	call	0x3bce	; 0x3bce <mc_arc_continue>
    59c6:	00 97       	sbiw	r24, 0x00	; 0
    59c8:	51 f0       	breq	.+20     	; 0x59de <tg_controller+0x2e>
    59ca:	02 97       	sbiw	r24, 0x02	; 2
    59cc:	09 f4       	brne	.+2      	; 0x59d0 <tg_controller+0x20>
    59ce:	08 95       	ret
	DISPATCH(tg_read_next_line());
    59d0:	0e 94 a5 2c 	call	0x594a	; 0x594a <tg_read_next_line>
    59d4:	00 97       	sbiw	r24, 0x00	; 0
    59d6:	19 f0       	breq	.+6      	; 0x59de <tg_controller+0x2e>
    59d8:	02 97       	sbiw	r24, 0x02	; 2
    59da:	19 f4       	brne	.+6      	; 0x59e2 <tg_controller+0x32>
    59dc:	08 95       	ret
    59de:	10 92 ec 25 	sts	0x25EC, r1
	_tg_prompt();						// always end with this
    59e2:	0e 94 01 2c 	call	0x5802	; 0x5802 <_tg_prompt>
    59e6:	08 95       	ret

000059e8 <dd_init>:
 */

void dd_init() 
{
//	cfg_reset();
}
    59e8:	08 95       	ret

000059ea <dd_parser>:
			}
		default: return (1);	// error
	}
*/
	return (0);
}
    59ea:	80 e0       	ldi	r24, 0x00	; 0
    59ec:	90 e0       	ldi	r25, 0x00	; 0
    59ee:	08 95       	ret

000059f0 <mv_init>:
 * mv_init() - initialize move buffers
 */

void mv_init()
{
	mv.move_buffer_head = 0;
    59f0:	10 92 b8 21 	sts	0x21B8, r1
	mv.move_buffer_tail = 0;
    59f4:	10 92 b9 21 	sts	0x21B9, r1
}
    59f8:	08 95       	ret

000059fa <mv_dequeue_move_buffer>:
 * mv_dequeue_move_buffer() - Return next move from buffer & advance buffer tail
 */

struct mvMove *mv_dequeue_move_buffer()
{
	if (mv.move_buffer_head == mv.move_buffer_tail) {	// buffer empty
    59fa:	90 91 b8 21 	lds	r25, 0x21B8
    59fe:	80 91 b9 21 	lds	r24, 0x21B9
    5a02:	98 17       	cp	r25, r24
    5a04:	19 f4       	brne	.+6      	; 0x5a0c <mv_dequeue_move_buffer+0x12>
    5a06:	20 e0       	ldi	r18, 0x00	; 0
    5a08:	30 e0       	ldi	r19, 0x00	; 0
    5a0a:	17 c0       	rjmp	.+46     	; 0x5a3a <mv_dequeue_move_buffer+0x40>
		return (NULL);
	}
	mv.p = &mv.move_buffer[mv.move_buffer_tail];	// get and save current index
    5a0c:	90 91 b9 21 	lds	r25, 0x21B9
    5a10:	8e e1       	ldi	r24, 0x1E	; 30
    5a12:	98 9f       	mul	r25, r24
    5a14:	90 01       	movw	r18, r0
    5a16:	11 24       	eor	r1, r1
    5a18:	24 54       	subi	r18, 0x44	; 68
    5a1a:	3e 4d       	sbci	r19, 0xDE	; 222
    5a1c:	20 93 ba 21 	sts	0x21BA, r18
    5a20:	30 93 bb 21 	sts	0x21BB, r19
	if (++mv.move_buffer_tail >= MOVE_BUFFER_SIZE) { // increment and wrap (no OBOE)
    5a24:	80 91 b9 21 	lds	r24, 0x21B9
    5a28:	8f 5f       	subi	r24, 0xFF	; 255
    5a2a:	80 93 b9 21 	sts	0x21B9, r24
    5a2e:	80 91 b9 21 	lds	r24, 0x21B9
    5a32:	83 30       	cpi	r24, 0x03	; 3
    5a34:	10 f0       	brcs	.+4      	; 0x5a3a <mv_dequeue_move_buffer+0x40>
		mv.move_buffer_tail = 0;
    5a36:	10 92 b9 21 	sts	0x21B9, r1
	}
	return (mv.p); 
}
    5a3a:	c9 01       	movw	r24, r18
    5a3c:	08 95       	ret

00005a3e <mv_test_move_buffer_full>:

uint8_t mv_test_move_buffer_full() 
{
	uint8_t next_buffer_head;

	if ((next_buffer_head = mv.move_buffer_head + 1) >= MOVE_BUFFER_SIZE) {
    5a3e:	90 91 b8 21 	lds	r25, 0x21B8
    5a42:	9f 5f       	subi	r25, 0xFF	; 255
    5a44:	93 30       	cpi	r25, 0x03	; 3
    5a46:	08 f0       	brcs	.+2      	; 0x5a4a <mv_test_move_buffer_full+0xc>
    5a48:	90 e0       	ldi	r25, 0x00	; 0
		next_buffer_head = 0;					  // wrap condition
	}
	if (mv.move_buffer_tail == next_buffer_head) { 	// test if full
    5a4a:	80 91 b9 21 	lds	r24, 0x21B9
    5a4e:	20 e0       	ldi	r18, 0x00	; 0
    5a50:	89 17       	cp	r24, r25
    5a52:	09 f4       	brne	.+2      	; 0x5a56 <mv_test_move_buffer_full+0x18>
    5a54:	21 e0       	ldi	r18, 0x01	; 1
		return (TRUE);
	};
	return (FALSE);
}
    5a56:	82 2f       	mov	r24, r18
    5a58:	08 95       	ret

00005a5a <mv_synchronize>:
/* 
 * mv_synchronize() - block until all buffered steps are executed 
 */

void mv_synchronize()
{
    5a5a:	0b c0       	rjmp	.+22     	; 0x5a72 <mv_synchronize+0x18>
	while(mv.move_buffer_tail != mv.move_buffer_head) {
		sleep_mode();
    5a5c:	80 91 48 00 	lds	r24, 0x0048
    5a60:	81 60       	ori	r24, 0x01	; 1
    5a62:	80 93 48 00 	sts	0x0048, r24
    5a66:	88 95       	sleep
    5a68:	80 91 48 00 	lds	r24, 0x0048
    5a6c:	8e 7f       	andi	r24, 0xFE	; 254
    5a6e:	80 93 48 00 	sts	0x0048, r24
 * mv_synchronize() - block until all buffered steps are executed 
 */

void mv_synchronize()
{
	while(mv.move_buffer_tail != mv.move_buffer_head) {
    5a72:	90 91 b9 21 	lds	r25, 0x21B9
    5a76:	80 91 b8 21 	lds	r24, 0x21B8
    5a7a:	98 17       	cp	r25, r24
    5a7c:	79 f7       	brne	.-34     	; 0x5a5c <mv_synchronize+0x2>
		sleep_mode();
	}    
}
    5a7e:	08 95       	ret

00005a80 <mv_flush>:
 * mv_flush() - cancel all buffered steps 
 */

void mv_flush()
{
	cli();
    5a80:	f8 94       	cli
	mv.move_buffer_tail = mv.move_buffer_head;
    5a82:	80 91 b8 21 	lds	r24, 0x21B8
    5a86:	80 93 b9 21 	sts	0x21B9, r24
	mv.p = NULL;
    5a8a:	10 92 ba 21 	sts	0x21BA, r1
    5a8e:	10 92 bb 21 	sts	0x21BB, r1
	sei();
    5a92:	78 94       	sei
}
    5a94:	08 95       	ret

00005a96 <mv_queue_move_buffer>:

uint8_t mv_queue_move_buffer(int32_t steps_x, 
							 int32_t steps_y, 
							 int32_t steps_z, 
							 uint32_t microseconds)
{
    5a96:	2f 92       	push	r2
    5a98:	3f 92       	push	r3
    5a9a:	4f 92       	push	r4
    5a9c:	5f 92       	push	r5
    5a9e:	6f 92       	push	r6
    5aa0:	7f 92       	push	r7
    5aa2:	8f 92       	push	r8
    5aa4:	9f 92       	push	r9
    5aa6:	af 92       	push	r10
    5aa8:	bf 92       	push	r11
    5aaa:	cf 92       	push	r12
    5aac:	df 92       	push	r13
    5aae:	ef 92       	push	r14
    5ab0:	ff 92       	push	r15
    5ab2:	0f 93       	push	r16
    5ab4:	1f 93       	push	r17
    5ab6:	df 93       	push	r29
    5ab8:	cf 93       	push	r28
    5aba:	cd b7       	in	r28, 0x3d	; 61
    5abc:	de b7       	in	r29, 0x3e	; 62
    5abe:	2b 97       	sbiw	r28, 0x0b	; 11
    5ac0:	cd bf       	out	0x3d, r28	; 61
    5ac2:	de bf       	out	0x3e, r29	; 62
    5ac4:	1b 01       	movw	r2, r22
    5ac6:	2c 01       	movw	r4, r24
    5ac8:	2a 83       	std	Y+2, r18	; 0x02
    5aca:	3b 83       	std	Y+3, r19	; 0x03
    5acc:	4c 83       	std	Y+4, r20	; 0x04
    5ace:	5d 83       	std	Y+5, r21	; 0x05
    5ad0:	ee 82       	std	Y+6, r14	; 0x06
    5ad2:	ff 82       	std	Y+7, r15	; 0x07
    5ad4:	08 87       	std	Y+8, r16	; 0x08
    5ad6:	19 87       	std	Y+9, r17	; 0x09
	uint8_t next_buffer_head;
	uint8_t i;

	// Determine the buffer head index needed to store this line
	if ((next_buffer_head = mv.move_buffer_head + 1) >= MOVE_BUFFER_SIZE) {
    5ad8:	80 91 b8 21 	lds	r24, 0x21B8
    5adc:	8f 5f       	subi	r24, 0xFF	; 255
    5ade:	89 83       	std	Y+1, r24	; 0x01
    5ae0:	83 30       	cpi	r24, 0x03	; 3
    5ae2:	08 f0       	brcs	.+2      	; 0x5ae6 <mv_queue_move_buffer+0x50>
    5ae4:	19 82       	std	Y+1, r1	; 0x01
		next_buffer_head = 0;					 // wrap condition
	}

	// Return with error if the buffer is full 
	if (mv.move_buffer_tail == next_buffer_head) {
    5ae6:	80 91 b9 21 	lds	r24, 0x21B9
    5aea:	99 81       	ldd	r25, Y+1	; 0x01
    5aec:	89 17       	cp	r24, r25
    5aee:	11 f4       	brne	.+4      	; 0x5af4 <mv_queue_move_buffer+0x5e>
    5af0:	8a e0       	ldi	r24, 0x0A	; 10
    5af2:	20 c2       	rjmp	.+1088   	; 0x5f34 <mv_queue_move_buffer+0x49e>
		return (TG_BUFFER_FULL_NON_FATAL);
//		sleep_mode();	// USE INSTEAD OF THE RETURN IF YOU WANT BLOCKING BEHAVIOR
	}

	// setup the move struct and ticks value
	mv.p = &mv.move_buffer[mv.move_buffer_head];
    5af4:	e0 91 b8 21 	lds	r30, 0x21B8
    5af8:	8e e1       	ldi	r24, 0x1E	; 30
    5afa:	e8 9f       	mul	r30, r24
    5afc:	f0 01       	movw	r30, r0
    5afe:	11 24       	eor	r1, r1
    5b00:	e4 54       	subi	r30, 0x44	; 68
    5b02:	fe 4d       	sbci	r31, 0xDE	; 222
    5b04:	e0 93 ba 21 	sts	0x21BA, r30
    5b08:	f0 93 bb 21 	sts	0x21BB, r31
	memset(mv.p, 0, sizeof(struct mvMove));
    5b0c:	df 01       	movw	r26, r30
    5b0e:	1d 92       	st	X+, r1
    5b10:	8a 95       	dec	r24
    5b12:	e9 f7       	brne	.-6      	; 0x5b0e <mv_queue_move_buffer+0x78>
	mv.p->a[X].steps = steps_x;
    5b14:	80 90 ba 21 	lds	r8, 0x21BA
    5b18:	90 90 bb 21 	lds	r9, 0x21BB
    5b1c:	f4 01       	movw	r30, r8
    5b1e:	20 82       	st	Z, r2
    5b20:	31 82       	std	Z+1, r3	; 0x01
    5b22:	42 82       	std	Z+2, r4	; 0x02
    5b24:	53 82       	std	Z+3, r5	; 0x03
	mv.p->a[Y].steps = steps_y;
    5b26:	8a 81       	ldd	r24, Y+2	; 0x02
    5b28:	9b 81       	ldd	r25, Y+3	; 0x03
    5b2a:	ac 81       	ldd	r26, Y+4	; 0x04
    5b2c:	bd 81       	ldd	r27, Y+5	; 0x05
    5b2e:	82 87       	std	Z+10, r24	; 0x0a
    5b30:	93 87       	std	Z+11, r25	; 0x0b
    5b32:	a4 87       	std	Z+12, r26	; 0x0c
    5b34:	b5 87       	std	Z+13, r27	; 0x0d
	mv.p->a[Z].steps = steps_z;
    5b36:	8e 81       	ldd	r24, Y+6	; 0x06
    5b38:	9f 81       	ldd	r25, Y+7	; 0x07
    5b3a:	a8 85       	ldd	r26, Y+8	; 0x08
    5b3c:	b9 85       	ldd	r27, Y+9	; 0x09
    5b3e:	84 8b       	std	Z+20, r24	; 0x14
    5b40:	95 8b       	std	Z+21, r25	; 0x15
    5b42:	a6 8b       	std	Z+22, r26	; 0x16
    5b44:	b7 8b       	std	Z+23, r27	; 0x17
	mv.microseconds = (uint64_t)microseconds;			// cast to larger base
    5b46:	a0 92 b0 21 	sts	0x21B0, r10
    5b4a:	b0 92 b1 21 	sts	0x21B1, r11
    5b4e:	c0 92 b2 21 	sts	0x21B2, r12
    5b52:	d0 92 b3 21 	sts	0x21B3, r13
    5b56:	10 92 b4 21 	sts	0x21B4, r1
    5b5a:	10 92 b5 21 	sts	0x21B5, r1
    5b5e:	10 92 b6 21 	sts	0x21B6, r1
    5b62:	10 92 b7 21 	sts	0x21B7, r1
	mv.ticks = mv.microseconds * TICKS_PER_MICROSECOND;
    5b66:	95 01       	movw	r18, r10
    5b68:	a6 01       	movw	r20, r12
    5b6a:	60 e0       	ldi	r22, 0x00	; 0
    5b6c:	70 e0       	ldi	r23, 0x00	; 0
    5b6e:	80 e0       	ldi	r24, 0x00	; 0
    5b70:	90 e0       	ldi	r25, 0x00	; 0
    5b72:	05 e0       	ldi	r16, 0x05	; 5
    5b74:	0e 94 35 37 	call	0x6e6a	; 0x6e6a <__ashldi3>
    5b78:	fc 01       	movw	r30, r24
    5b7a:	90 ea       	ldi	r25, 0xA0	; 160
    5b7c:	69 2e       	mov	r6, r25
    5b7e:	91 e2       	ldi	r25, 0x21	; 33
    5b80:	79 2e       	mov	r7, r25
    5b82:	20 93 a0 21 	sts	0x21A0, r18
    5b86:	d3 01       	movw	r26, r6
    5b88:	11 96       	adiw	r26, 0x01	; 1
    5b8a:	3c 93       	st	X, r19
    5b8c:	11 97       	sbiw	r26, 0x01	; 1
    5b8e:	12 96       	adiw	r26, 0x02	; 2
    5b90:	4c 93       	st	X, r20
    5b92:	12 97       	sbiw	r26, 0x02	; 2
    5b94:	13 96       	adiw	r26, 0x03	; 3
    5b96:	5c 93       	st	X, r21
    5b98:	13 97       	sbiw	r26, 0x03	; 3
    5b9a:	14 96       	adiw	r26, 0x04	; 4
    5b9c:	6c 93       	st	X, r22
    5b9e:	14 97       	sbiw	r26, 0x04	; 4
    5ba0:	15 96       	adiw	r26, 0x05	; 5
    5ba2:	7c 93       	st	X, r23
    5ba4:	15 97       	sbiw	r26, 0x05	; 5
    5ba6:	16 96       	adiw	r26, 0x06	; 6
    5ba8:	ec 93       	st	X, r30
    5baa:	16 97       	sbiw	r26, 0x06	; 6
    5bac:	17 96       	adiw	r26, 0x07	; 7
    5bae:	fc 93       	st	X, r31

	// Zero length lines are DWELL commands. Load dwell timing into X axis.
	if ((steps_x == 0) && (steps_y == 0) && (steps_z) == 0) {
    5bb0:	21 14       	cp	r2, r1
    5bb2:	31 04       	cpc	r3, r1
    5bb4:	41 04       	cpc	r4, r1
    5bb6:	51 04       	cpc	r5, r1
    5bb8:	09 f0       	breq	.+2      	; 0x5bbc <mv_queue_move_buffer+0x126>
    5bba:	73 c0       	rjmp	.+230    	; 0x5ca2 <mv_queue_move_buffer+0x20c>
    5bbc:	8a 81       	ldd	r24, Y+2	; 0x02
    5bbe:	9b 81       	ldd	r25, Y+3	; 0x03
    5bc0:	ac 81       	ldd	r26, Y+4	; 0x04
    5bc2:	bd 81       	ldd	r27, Y+5	; 0x05
    5bc4:	00 97       	sbiw	r24, 0x00	; 0
    5bc6:	a1 05       	cpc	r26, r1
    5bc8:	b1 05       	cpc	r27, r1
    5bca:	09 f0       	breq	.+2      	; 0x5bce <mv_queue_move_buffer+0x138>
    5bcc:	6a c0       	rjmp	.+212    	; 0x5ca2 <mv_queue_move_buffer+0x20c>
    5bce:	8e 81       	ldd	r24, Y+6	; 0x06
    5bd0:	9f 81       	ldd	r25, Y+7	; 0x07
    5bd2:	a8 85       	ldd	r26, Y+8	; 0x08
    5bd4:	b9 85       	ldd	r27, Y+9	; 0x09
    5bd6:	00 97       	sbiw	r24, 0x00	; 0
    5bd8:	a1 05       	cpc	r26, r1
    5bda:	b1 05       	cpc	r27, r1
    5bdc:	09 f0       	breq	.+2      	; 0x5be0 <mv_queue_move_buffer+0x14a>
    5bde:	61 c0       	rjmp	.+194    	; 0x5ca2 <mv_queue_move_buffer+0x20c>
		mv.p->a[X].steps = (((mv.ticks & 0xFFFF0000)>>32)+1);	// compute # of steps
    5be0:	81 e0       	ldi	r24, 0x01	; 1
    5be2:	e8 2e       	mov	r14, r24
    5be4:	f1 2c       	mov	r15, r1
    5be6:	01 2d       	mov	r16, r1
    5be8:	11 2d       	mov	r17, r1
    5bea:	d4 01       	movw	r26, r8
    5bec:	ed 92       	st	X+, r14
    5bee:	fd 92       	st	X+, r15
    5bf0:	0d 93       	st	X+, r16
    5bf2:	1c 93       	st	X, r17
    5bf4:	13 97       	sbiw	r26, 0x03	; 3
		mv.p->a[X].postscale = 1;
    5bf6:	81 e0       	ldi	r24, 0x01	; 1
    5bf8:	90 e0       	ldi	r25, 0x00	; 0
    5bfa:	16 96       	adiw	r26, 0x06	; 6
    5bfc:	8d 93       	st	X+, r24
    5bfe:	9c 93       	st	X, r25
    5c00:	17 97       	sbiw	r26, 0x07	; 7
		mv.ticks_per_step = (uint64_t)(mv.ticks / mv.p->a[X].steps); // expensive!
    5c02:	cf 01       	movw	r24, r30
    5c04:	aa 24       	eor	r10, r10
    5c06:	a3 94       	inc	r10
    5c08:	bb 24       	eor	r11, r11
    5c0a:	cc 24       	eor	r12, r12
    5c0c:	dd 24       	eor	r13, r13
    5c0e:	ee 24       	eor	r14, r14
    5c10:	ff 24       	eor	r15, r15
    5c12:	00 e0       	ldi	r16, 0x00	; 0
    5c14:	10 e0       	ldi	r17, 0x00	; 0
    5c16:	0e 94 ae 37 	call	0x6f5c	; 0x6f5c <__udivdi3>
    5c1a:	f3 01       	movw	r30, r6
    5c1c:	38 96       	adiw	r30, 0x08	; 8
    5c1e:	20 93 a8 21 	sts	0x21A8, r18
    5c22:	31 83       	std	Z+1, r19	; 0x01
    5c24:	42 83       	std	Z+2, r20	; 0x02
    5c26:	53 83       	std	Z+3, r21	; 0x03
    5c28:	64 83       	std	Z+4, r22	; 0x04
    5c2a:	75 83       	std	Z+5, r23	; 0x05
    5c2c:	86 83       	std	Z+6, r24	; 0x06
    5c2e:	97 83       	std	Z+7, r25	; 0x07
		while (mv.ticks_per_step & 0xFFFFFFFFFFFF0000) {
    5c30:	7f 01       	movw	r14, r30
    5c32:	19 c0       	rjmp	.+50     	; 0x5c66 <mv_queue_move_buffer+0x1d0>
			mv.ticks_per_step >>= 1;
    5c34:	8e 2f       	mov	r24, r30
    5c36:	01 e0       	ldi	r16, 0x01	; 1
    5c38:	0e 94 bc 36 	call	0x6d78	; 0x6d78 <__lshrdi3>
    5c3c:	20 93 a8 21 	sts	0x21A8, r18
    5c40:	f7 01       	movw	r30, r14
    5c42:	31 83       	std	Z+1, r19	; 0x01
    5c44:	42 83       	std	Z+2, r20	; 0x02
    5c46:	53 83       	std	Z+3, r21	; 0x03
    5c48:	64 83       	std	Z+4, r22	; 0x04
    5c4a:	75 83       	std	Z+5, r23	; 0x05
    5c4c:	86 83       	std	Z+6, r24	; 0x06
    5c4e:	97 83       	std	Z+7, r25	; 0x07
			mv.p->a[X].postscale <<= 1;
    5c50:	d4 01       	movw	r26, r8
    5c52:	16 96       	adiw	r26, 0x06	; 6
    5c54:	8d 91       	ld	r24, X+
    5c56:	9c 91       	ld	r25, X
    5c58:	17 97       	sbiw	r26, 0x07	; 7
    5c5a:	88 0f       	add	r24, r24
    5c5c:	99 1f       	adc	r25, r25
    5c5e:	16 96       	adiw	r26, 0x06	; 6
    5c60:	8d 93       	st	X+, r24
    5c62:	9c 93       	st	X, r25
    5c64:	17 97       	sbiw	r26, 0x07	; 7
	// Zero length lines are DWELL commands. Load dwell timing into X axis.
	if ((steps_x == 0) && (steps_y == 0) && (steps_z) == 0) {
		mv.p->a[X].steps = (((mv.ticks & 0xFFFF0000)>>32)+1);	// compute # of steps
		mv.p->a[X].postscale = 1;
		mv.ticks_per_step = (uint64_t)(mv.ticks / mv.p->a[X].steps); // expensive!
		while (mv.ticks_per_step & 0xFFFFFFFFFFFF0000) {
    5c66:	20 91 a8 21 	lds	r18, 0x21A8
    5c6a:	30 91 a9 21 	lds	r19, 0x21A9
    5c6e:	40 91 aa 21 	lds	r20, 0x21AA
    5c72:	50 91 ab 21 	lds	r21, 0x21AB
    5c76:	60 91 ac 21 	lds	r22, 0x21AC
    5c7a:	70 91 ad 21 	lds	r23, 0x21AD
    5c7e:	e0 91 ae 21 	lds	r30, 0x21AE
    5c82:	90 91 af 21 	lds	r25, 0x21AF
    5c86:	84 2f       	mov	r24, r20
    5c88:	85 2b       	or	r24, r21
    5c8a:	86 2b       	or	r24, r22
    5c8c:	87 2b       	or	r24, r23
    5c8e:	8e 2b       	or	r24, r30
    5c90:	89 2b       	or	r24, r25
    5c92:	81 f6       	brne	.-96     	; 0x5c34 <mv_queue_move_buffer+0x19e>
			mv.ticks_per_step >>= 1;
			mv.p->a[X].postscale <<= 1;
		}
		mv.p->a[X].period = (uint16_t)(mv.ticks_per_step & 0x0000FFFF);
    5c94:	c9 01       	movw	r24, r18
    5c96:	f4 01       	movw	r30, r8
    5c98:	84 83       	std	Z+4, r24	; 0x04
    5c9a:	95 83       	std	Z+5, r25	; 0x05
		mv.p->a[X].flags = DWELL_FLAG_bm;
    5c9c:	81 e0       	ldi	r24, 0x01	; 1
    5c9e:	81 87       	std	Z+9, r24	; 0x09
    5ca0:	43 c1       	rjmp	.+646    	; 0x5f28 <mv_queue_move_buffer+0x492>
	mv.p->a[Z].steps = steps_z;
	mv.microseconds = (uint64_t)microseconds;			// cast to larger base
	mv.ticks = mv.microseconds * TICKS_PER_MICROSECOND;

	// Zero length lines are DWELL commands. Load dwell timing into X axis.
	if ((steps_x == 0) && (steps_y == 0) && (steps_z) == 0) {
    5ca2:	44 24       	eor	r4, r4
    5ca4:	55 24       	eor	r5, r5
				mv.p->a[i].steps = labs(mv.p->a[i].steps);

				// Normalize ticks_per_step by right shifting until the MSword = 0
				// Accumulate LSBs shifted out of ticks_per_step into postscale
				mv.p->a[i].postscale = 1;
				mv.ticks_per_step = (uint64_t)(mv.ticks / mv.p->a[i].steps);// expensive!
    5ca6:	18 ea       	ldi	r17, 0xA8	; 168
    5ca8:	21 2e       	mov	r2, r17
    5caa:	11 e2       	ldi	r17, 0x21	; 33
    5cac:	31 2e       	mov	r3, r17
		mv.p->a[X].period = (uint16_t)(mv.ticks_per_step & 0x0000FFFF);
		mv.p->a[X].flags = DWELL_FLAG_bm;

	} else {		// load axis values for line
		for (i = X; i <= Z; i++) {
			if (mv.p->a[i].steps) { 				// skip axes with zero steps
    5cae:	40 91 ba 21 	lds	r20, 0x21BA
    5cb2:	50 91 bb 21 	lds	r21, 0x21BB
    5cb6:	4a 86       	std	Y+10, r4	; 0x0a
    5cb8:	5b 86       	std	Y+11, r5	; 0x0b
    5cba:	c2 01       	movw	r24, r4
    5cbc:	f2 01       	movw	r30, r4
    5cbe:	b3 e0       	ldi	r27, 0x03	; 3
    5cc0:	ee 0f       	add	r30, r30
    5cc2:	ff 1f       	adc	r31, r31
    5cc4:	ba 95       	dec	r27
    5cc6:	e1 f7       	brne	.-8      	; 0x5cc0 <mv_queue_move_buffer+0x22a>
    5cc8:	88 0f       	add	r24, r24
    5cca:	99 1f       	adc	r25, r25
    5ccc:	e8 0f       	add	r30, r24
    5cce:	f9 1f       	adc	r31, r25
    5cd0:	e4 0f       	add	r30, r20
    5cd2:	f5 1f       	adc	r31, r21
    5cd4:	80 81       	ld	r24, Z
    5cd6:	91 81       	ldd	r25, Z+1	; 0x01
    5cd8:	a2 81       	ldd	r26, Z+2	; 0x02
    5cda:	b3 81       	ldd	r27, Z+3	; 0x03
    5cdc:	00 97       	sbiw	r24, 0x00	; 0
    5cde:	a1 05       	cpc	r26, r1
    5ce0:	b1 05       	cpc	r27, r1
    5ce2:	09 f4       	brne	.+2      	; 0x5ce6 <mv_queue_move_buffer+0x250>
    5ce4:	19 c1       	rjmp	.+562    	; 0x5f18 <mv_queue_move_buffer+0x482>

				// set direction: (polarity is corrected during execute move)
				(mv.p->a[i].steps < 0) ? 
    5ce6:	b7 ff       	sbrs	r27, 7
    5ce8:	12 c0       	rjmp	.+36     	; 0x5d0e <mv_queue_move_buffer+0x278>
    5cea:	c2 01       	movw	r24, r4
    5cec:	92 01       	movw	r18, r4
    5cee:	f3 e0       	ldi	r31, 0x03	; 3
    5cf0:	22 0f       	add	r18, r18
    5cf2:	33 1f       	adc	r19, r19
    5cf4:	fa 95       	dec	r31
    5cf6:	e1 f7       	brne	.-8      	; 0x5cf0 <mv_queue_move_buffer+0x25a>
    5cf8:	88 0f       	add	r24, r24
    5cfa:	99 1f       	adc	r25, r25
    5cfc:	28 0f       	add	r18, r24
    5cfe:	39 1f       	adc	r19, r25
    5d00:	42 0f       	add	r20, r18
    5d02:	53 1f       	adc	r21, r19
    5d04:	81 e0       	ldi	r24, 0x01	; 1
    5d06:	da 01       	movw	r26, r20
    5d08:	18 96       	adiw	r26, 0x08	; 8
    5d0a:	8c 93       	st	X, r24
    5d0c:	0f c0       	rjmp	.+30     	; 0x5d2c <mv_queue_move_buffer+0x296>
    5d0e:	c2 01       	movw	r24, r4
    5d10:	92 01       	movw	r18, r4
    5d12:	73 e0       	ldi	r23, 0x03	; 3
    5d14:	22 0f       	add	r18, r18
    5d16:	33 1f       	adc	r19, r19
    5d18:	7a 95       	dec	r23
    5d1a:	e1 f7       	brne	.-8      	; 0x5d14 <mv_queue_move_buffer+0x27e>
    5d1c:	88 0f       	add	r24, r24
    5d1e:	99 1f       	adc	r25, r25
    5d20:	28 0f       	add	r18, r24
    5d22:	39 1f       	adc	r19, r25
    5d24:	42 0f       	add	r20, r18
    5d26:	53 1f       	adc	r21, r19
    5d28:	fa 01       	movw	r30, r20
    5d2a:	10 86       	std	Z+8, r1	; 0x08
				(mv.p->a[i].direction = 1): 		// CCW = 1 
				(mv.p->a[i].direction = 0);			// CW = 0

				// set steps to absolute value
				mv.p->a[i].steps = labs(mv.p->a[i].steps);
    5d2c:	e0 91 ba 21 	lds	r30, 0x21BA
    5d30:	f0 91 bb 21 	lds	r31, 0x21BB
    5d34:	8a 85       	ldd	r24, Y+10	; 0x0a
    5d36:	9b 85       	ldd	r25, Y+11	; 0x0b
    5d38:	ac 01       	movw	r20, r24
    5d3a:	03 e0       	ldi	r16, 0x03	; 3
    5d3c:	44 0f       	add	r20, r20
    5d3e:	55 1f       	adc	r21, r21
    5d40:	0a 95       	dec	r16
    5d42:	e1 f7       	brne	.-8      	; 0x5d3c <mv_queue_move_buffer+0x2a6>
    5d44:	88 0f       	add	r24, r24
    5d46:	99 1f       	adc	r25, r25
    5d48:	48 0f       	add	r20, r24
    5d4a:	59 1f       	adc	r21, r25
    5d4c:	4e 0f       	add	r20, r30
    5d4e:	5f 1f       	adc	r21, r31
    5d50:	8a 85       	ldd	r24, Y+10	; 0x0a
    5d52:	9b 85       	ldd	r25, Y+11	; 0x0b
    5d54:	9c 01       	movw	r18, r24
    5d56:	b3 e0       	ldi	r27, 0x03	; 3
    5d58:	22 0f       	add	r18, r18
    5d5a:	33 1f       	adc	r19, r19
    5d5c:	ba 95       	dec	r27
    5d5e:	e1 f7       	brne	.-8      	; 0x5d58 <mv_queue_move_buffer+0x2c2>
    5d60:	88 0f       	add	r24, r24
    5d62:	99 1f       	adc	r25, r25
    5d64:	28 0f       	add	r18, r24
    5d66:	39 1f       	adc	r19, r25
    5d68:	e2 0f       	add	r30, r18
    5d6a:	f3 1f       	adc	r31, r19
    5d6c:	80 81       	ld	r24, Z
    5d6e:	91 81       	ldd	r25, Z+1	; 0x01
    5d70:	a2 81       	ldd	r26, Z+2	; 0x02
    5d72:	b3 81       	ldd	r27, Z+3	; 0x03
    5d74:	b7 ff       	sbrs	r27, 7
    5d76:	07 c0       	rjmp	.+14     	; 0x5d86 <mv_queue_move_buffer+0x2f0>
    5d78:	b0 95       	com	r27
    5d7a:	a0 95       	com	r26
    5d7c:	90 95       	com	r25
    5d7e:	81 95       	neg	r24
    5d80:	9f 4f       	sbci	r25, 0xFF	; 255
    5d82:	af 4f       	sbci	r26, 0xFF	; 255
    5d84:	bf 4f       	sbci	r27, 0xFF	; 255
    5d86:	fa 01       	movw	r30, r20
    5d88:	80 83       	st	Z, r24
    5d8a:	91 83       	std	Z+1, r25	; 0x01
    5d8c:	a2 83       	std	Z+2, r26	; 0x02
    5d8e:	b3 83       	std	Z+3, r27	; 0x03

				// Normalize ticks_per_step by right shifting until the MSword = 0
				// Accumulate LSBs shifted out of ticks_per_step into postscale
				mv.p->a[i].postscale = 1;
    5d90:	a0 91 ba 21 	lds	r26, 0x21BA
    5d94:	b0 91 bb 21 	lds	r27, 0x21BB
    5d98:	8a 85       	ldd	r24, Y+10	; 0x0a
    5d9a:	9b 85       	ldd	r25, Y+11	; 0x0b
    5d9c:	fc 01       	movw	r30, r24
    5d9e:	73 e0       	ldi	r23, 0x03	; 3
    5da0:	ee 0f       	add	r30, r30
    5da2:	ff 1f       	adc	r31, r31
    5da4:	7a 95       	dec	r23
    5da6:	e1 f7       	brne	.-8      	; 0x5da0 <mv_queue_move_buffer+0x30a>
    5da8:	88 0f       	add	r24, r24
    5daa:	99 1f       	adc	r25, r25
    5dac:	e8 0f       	add	r30, r24
    5dae:	f9 1f       	adc	r31, r25
    5db0:	ea 0f       	add	r30, r26
    5db2:	fb 1f       	adc	r31, r27
    5db4:	81 e0       	ldi	r24, 0x01	; 1
    5db6:	90 e0       	ldi	r25, 0x00	; 0
    5db8:	86 83       	std	Z+6, r24	; 0x06
    5dba:	97 83       	std	Z+7, r25	; 0x07
				mv.ticks_per_step = (uint64_t)(mv.ticks / mv.p->a[i].steps);// expensive!
    5dbc:	8a 85       	ldd	r24, Y+10	; 0x0a
    5dbe:	9b 85       	ldd	r25, Y+11	; 0x0b
    5dc0:	9c 01       	movw	r18, r24
    5dc2:	53 e0       	ldi	r21, 0x03	; 3
    5dc4:	22 0f       	add	r18, r18
    5dc6:	33 1f       	adc	r19, r19
    5dc8:	5a 95       	dec	r21
    5dca:	e1 f7       	brne	.-8      	; 0x5dc4 <mv_queue_move_buffer+0x32e>
    5dcc:	88 0f       	add	r24, r24
    5dce:	99 1f       	adc	r25, r25
    5dd0:	28 0f       	add	r18, r24
    5dd2:	39 1f       	adc	r19, r25
    5dd4:	a2 0f       	add	r26, r18
    5dd6:	b3 1f       	adc	r27, r19
    5dd8:	ed 90       	ld	r14, X+
    5dda:	fd 90       	ld	r15, X+
    5ddc:	0d 91       	ld	r16, X+
    5dde:	1c 91       	ld	r17, X
    5de0:	37 01       	movw	r6, r14
    5de2:	48 01       	movw	r8, r16
    5de4:	99 0c       	add	r9, r9
    5de6:	66 08       	sbc	r6, r6
    5de8:	76 2c       	mov	r7, r6
    5dea:	43 01       	movw	r8, r6
    5dec:	20 91 a0 21 	lds	r18, 0x21A0
    5df0:	30 91 a1 21 	lds	r19, 0x21A1
    5df4:	40 91 a2 21 	lds	r20, 0x21A2
    5df8:	50 91 a3 21 	lds	r21, 0x21A3
    5dfc:	60 91 a4 21 	lds	r22, 0x21A4
    5e00:	70 91 a5 21 	lds	r23, 0x21A5
    5e04:	80 91 a6 21 	lds	r24, 0x21A6
    5e08:	90 91 a7 21 	lds	r25, 0x21A7
    5e0c:	57 01       	movw	r10, r14
    5e0e:	68 01       	movw	r12, r16
    5e10:	e6 2c       	mov	r14, r6
    5e12:	f6 2c       	mov	r15, r6
    5e14:	06 2d       	mov	r16, r6
    5e16:	16 2d       	mov	r17, r6
    5e18:	0e 94 ae 37 	call	0x6f5c	; 0x6f5c <__udivdi3>
    5e1c:	20 93 a8 21 	sts	0x21A8, r18
    5e20:	d1 01       	movw	r26, r2
    5e22:	11 96       	adiw	r26, 0x01	; 1
    5e24:	3c 93       	st	X, r19
    5e26:	11 97       	sbiw	r26, 0x01	; 1
    5e28:	12 96       	adiw	r26, 0x02	; 2
    5e2a:	4c 93       	st	X, r20
    5e2c:	12 97       	sbiw	r26, 0x02	; 2
    5e2e:	13 96       	adiw	r26, 0x03	; 3
    5e30:	5c 93       	st	X, r21
    5e32:	13 97       	sbiw	r26, 0x03	; 3
    5e34:	14 96       	adiw	r26, 0x04	; 4
    5e36:	6c 93       	st	X, r22
    5e38:	14 97       	sbiw	r26, 0x04	; 4
    5e3a:	15 96       	adiw	r26, 0x05	; 5
    5e3c:	7c 93       	st	X, r23
    5e3e:	15 97       	sbiw	r26, 0x05	; 5
    5e40:	16 96       	adiw	r26, 0x06	; 6
    5e42:	8c 93       	st	X, r24
    5e44:	16 97       	sbiw	r26, 0x06	; 6
    5e46:	17 96       	adiw	r26, 0x07	; 7
    5e48:	9c 93       	st	X, r25
    5e4a:	38 c0       	rjmp	.+112    	; 0x5ebc <mv_queue_move_buffer+0x426>
				while (mv.ticks_per_step & 0xFFFFFFFFFFFF0000) {
					mv.ticks_per_step >>= 1;
    5e4c:	9d 01       	movw	r18, r26
    5e4e:	8e 2f       	mov	r24, r30
    5e50:	01 e0       	ldi	r16, 0x01	; 1
    5e52:	0e 94 bc 36 	call	0x6d78	; 0x6d78 <__lshrdi3>
    5e56:	20 93 a8 21 	sts	0x21A8, r18
    5e5a:	f1 01       	movw	r30, r2
    5e5c:	31 83       	std	Z+1, r19	; 0x01
    5e5e:	42 83       	std	Z+2, r20	; 0x02
    5e60:	53 83       	std	Z+3, r21	; 0x03
    5e62:	64 83       	std	Z+4, r22	; 0x04
    5e64:	75 83       	std	Z+5, r23	; 0x05
    5e66:	86 83       	std	Z+6, r24	; 0x06
    5e68:	97 83       	std	Z+7, r25	; 0x07
					mv.p->a[i].postscale <<= 1;
    5e6a:	40 91 ba 21 	lds	r20, 0x21BA
    5e6e:	50 91 bb 21 	lds	r21, 0x21BB
    5e72:	8a 85       	ldd	r24, Y+10	; 0x0a
    5e74:	9b 85       	ldd	r25, Y+11	; 0x0b
    5e76:	fc 01       	movw	r30, r24
    5e78:	23 e0       	ldi	r18, 0x03	; 3
    5e7a:	ee 0f       	add	r30, r30
    5e7c:	ff 1f       	adc	r31, r31
    5e7e:	2a 95       	dec	r18
    5e80:	e1 f7       	brne	.-8      	; 0x5e7a <mv_queue_move_buffer+0x3e4>
    5e82:	88 0f       	add	r24, r24
    5e84:	99 1f       	adc	r25, r25
    5e86:	e8 0f       	add	r30, r24
    5e88:	f9 1f       	adc	r31, r25
    5e8a:	e4 0f       	add	r30, r20
    5e8c:	f5 1f       	adc	r31, r21
    5e8e:	8a 85       	ldd	r24, Y+10	; 0x0a
    5e90:	9b 85       	ldd	r25, Y+11	; 0x0b
    5e92:	9c 01       	movw	r18, r24
    5e94:	13 e0       	ldi	r17, 0x03	; 3
    5e96:	22 0f       	add	r18, r18
    5e98:	33 1f       	adc	r19, r19
    5e9a:	1a 95       	dec	r17
    5e9c:	e1 f7       	brne	.-8      	; 0x5e96 <mv_queue_move_buffer+0x400>
    5e9e:	88 0f       	add	r24, r24
    5ea0:	99 1f       	adc	r25, r25
    5ea2:	28 0f       	add	r18, r24
    5ea4:	39 1f       	adc	r19, r25
    5ea6:	42 0f       	add	r20, r18
    5ea8:	53 1f       	adc	r21, r19
    5eaa:	da 01       	movw	r26, r20
    5eac:	16 96       	adiw	r26, 0x06	; 6
    5eae:	8d 91       	ld	r24, X+
    5eb0:	9c 91       	ld	r25, X
    5eb2:	17 97       	sbiw	r26, 0x07	; 7
    5eb4:	88 0f       	add	r24, r24
    5eb6:	99 1f       	adc	r25, r25
    5eb8:	86 83       	std	Z+6, r24	; 0x06
    5eba:	97 83       	std	Z+7, r25	; 0x07

				// Normalize ticks_per_step by right shifting until the MSword = 0
				// Accumulate LSBs shifted out of ticks_per_step into postscale
				mv.p->a[i].postscale = 1;
				mv.ticks_per_step = (uint64_t)(mv.ticks / mv.p->a[i].steps);// expensive!
				while (mv.ticks_per_step & 0xFFFFFFFFFFFF0000) {
    5ebc:	a0 91 a8 21 	lds	r26, 0x21A8
    5ec0:	b0 91 a9 21 	lds	r27, 0x21A9
    5ec4:	40 91 aa 21 	lds	r20, 0x21AA
    5ec8:	50 91 ab 21 	lds	r21, 0x21AB
    5ecc:	60 91 ac 21 	lds	r22, 0x21AC
    5ed0:	70 91 ad 21 	lds	r23, 0x21AD
    5ed4:	e0 91 ae 21 	lds	r30, 0x21AE
    5ed8:	90 91 af 21 	lds	r25, 0x21AF
    5edc:	84 2f       	mov	r24, r20
    5ede:	85 2b       	or	r24, r21
    5ee0:	86 2b       	or	r24, r22
    5ee2:	87 2b       	or	r24, r23
    5ee4:	8e 2b       	or	r24, r30
    5ee6:	89 2b       	or	r24, r25
    5ee8:	09 f0       	breq	.+2      	; 0x5eec <mv_queue_move_buffer+0x456>
    5eea:	b0 cf       	rjmp	.-160    	; 0x5e4c <mv_queue_move_buffer+0x3b6>
					mv.ticks_per_step >>= 1;
					mv.p->a[i].postscale <<= 1;
				}
				mv.p->a[i].period = (uint16_t)(mv.ticks_per_step & 0x0000FFFF);
    5eec:	40 91 ba 21 	lds	r20, 0x21BA
    5ef0:	50 91 bb 21 	lds	r21, 0x21BB
    5ef4:	8a 85       	ldd	r24, Y+10	; 0x0a
    5ef6:	9b 85       	ldd	r25, Y+11	; 0x0b
    5ef8:	9c 01       	movw	r18, r24
    5efa:	73 e0       	ldi	r23, 0x03	; 3
    5efc:	22 0f       	add	r18, r18
    5efe:	33 1f       	adc	r19, r19
    5f00:	7a 95       	dec	r23
    5f02:	e1 f7       	brne	.-8      	; 0x5efc <mv_queue_move_buffer+0x466>
    5f04:	88 0f       	add	r24, r24
    5f06:	99 1f       	adc	r25, r25
    5f08:	28 0f       	add	r18, r24
    5f0a:	39 1f       	adc	r19, r25
    5f0c:	42 0f       	add	r20, r18
    5f0e:	53 1f       	adc	r21, r19
    5f10:	cd 01       	movw	r24, r26
    5f12:	fa 01       	movw	r30, r20
    5f14:	84 83       	std	Z+4, r24	; 0x04
    5f16:	95 83       	std	Z+5, r25	; 0x05
    5f18:	08 94       	sec
    5f1a:	41 1c       	adc	r4, r1
    5f1c:	51 1c       	adc	r5, r1
		}
		mv.p->a[X].period = (uint16_t)(mv.ticks_per_step & 0x0000FFFF);
		mv.p->a[X].flags = DWELL_FLAG_bm;

	} else {		// load axis values for line
		for (i = X; i <= Z; i++) {
    5f1e:	f3 e0       	ldi	r31, 0x03	; 3
    5f20:	4f 16       	cp	r4, r31
    5f22:	51 04       	cpc	r5, r1
    5f24:	09 f0       	breq	.+2      	; 0x5f28 <mv_queue_move_buffer+0x492>
    5f26:	c3 ce       	rjmp	.-634    	; 0x5cae <mv_queue_move_buffer+0x218>
				}
				mv.p->a[i].period = (uint16_t)(mv.ticks_per_step & 0x0000FFFF);
			}
		}
	}
	mv.move_buffer_head = next_buffer_head;
    5f28:	89 81       	ldd	r24, Y+1	; 0x01
    5f2a:	80 93 b8 21 	sts	0x21B8, r24
	st_execute_move();
    5f2e:	0e 94 8a 25 	call	0x4b14	; 0x4b14 <st_execute_move>
    5f32:	80 e0       	ldi	r24, 0x00	; 0
	return (TG_OK);
}
    5f34:	2b 96       	adiw	r28, 0x0b	; 11
    5f36:	cd bf       	out	0x3d, r28	; 61
    5f38:	de bf       	out	0x3e, r29	; 62
    5f3a:	cf 91       	pop	r28
    5f3c:	df 91       	pop	r29
    5f3e:	1f 91       	pop	r17
    5f40:	0f 91       	pop	r16
    5f42:	ff 90       	pop	r15
    5f44:	ef 90       	pop	r14
    5f46:	df 90       	pop	r13
    5f48:	cf 90       	pop	r12
    5f4a:	bf 90       	pop	r11
    5f4c:	af 90       	pop	r10
    5f4e:	9f 90       	pop	r9
    5f50:	8f 90       	pop	r8
    5f52:	7f 90       	pop	r7
    5f54:	6f 90       	pop	r6
    5f56:	5f 90       	pop	r5
    5f58:	4f 90       	pop	r4
    5f5a:	3f 90       	pop	r3
    5f5c:	2f 90       	pop	r2
    5f5e:	08 95       	ret

00005f60 <ls_init>:

#define	LS_OPC_gc PORT_OPC_PULLUP_gc				// totem poll pullup mode
#define LS_ISC_gc PORT_ISC_RISING_gc				// ISRs on rising edge

void ls_init(void) 
{
    5f60:	a8 e2       	ldi	r26, 0x28	; 40
    5f62:	b2 e2       	ldi	r27, 0x22	; 34
	for (uint8_t i=X; i<=A; i++) {
		AXIS(i).port->DIRCLR = (1<<MIN_LIMIT_BIT_bp);		// min - set as input
    5f64:	20 e4       	ldi	r18, 0x40	; 64
		AXIS(i).port->DIRCLR = (1<<MAX_LIMIT_BIT_bp);		// max - set as input
    5f66:	90 e8       	ldi	r25, 0x80	; 128
		AXIS(i).port->PIN6CTRL = (LS_OPC_gc | LS_ISC_gc);	// min - pin modes
    5f68:	89 e1       	ldi	r24, 0x19	; 25
		AXIS(i).port->PIN7CTRL = (LS_OPC_gc | LS_ISC_gc);	// max - pin modes
		AXIS(i).port->INT0MASK = (1<<MIN_LIMIT_BIT_bp);		// min - INT0
		AXIS(i).port->INT1MASK = (1<<MAX_LIMIT_BIT_bp);		// max - INT1
		// set interrupt levels. Interrupts must be enabled in main()
		AXIS(i).port->INTCTRL = (PORT_INT0LVL_MED_gc | PORT_INT1LVL_MED_gc);
    5f6a:	3a e0       	ldi	r19, 0x0A	; 10
#define LS_ISC_gc PORT_ISC_RISING_gc				// ISRs on rising edge

void ls_init(void) 
{
	for (uint8_t i=X; i<=A; i++) {
		AXIS(i).port->DIRCLR = (1<<MIN_LIMIT_BIT_bp);		// min - set as input
    5f6c:	ed 91       	ld	r30, X+
    5f6e:	fc 91       	ld	r31, X
    5f70:	11 97       	sbiw	r26, 0x01	; 1
    5f72:	22 83       	std	Z+2, r18	; 0x02
		AXIS(i).port->DIRCLR = (1<<MAX_LIMIT_BIT_bp);		// max - set as input
    5f74:	ed 91       	ld	r30, X+
    5f76:	fc 91       	ld	r31, X
    5f78:	11 97       	sbiw	r26, 0x01	; 1
    5f7a:	92 83       	std	Z+2, r25	; 0x02
		AXIS(i).port->PIN6CTRL = (LS_OPC_gc | LS_ISC_gc);	// min - pin modes
    5f7c:	ed 91       	ld	r30, X+
    5f7e:	fc 91       	ld	r31, X
    5f80:	11 97       	sbiw	r26, 0x01	; 1
    5f82:	86 8b       	std	Z+22, r24	; 0x16
		AXIS(i).port->PIN7CTRL = (LS_OPC_gc | LS_ISC_gc);	// max - pin modes
    5f84:	ed 91       	ld	r30, X+
    5f86:	fc 91       	ld	r31, X
    5f88:	11 97       	sbiw	r26, 0x01	; 1
    5f8a:	87 8b       	std	Z+23, r24	; 0x17
		AXIS(i).port->INT0MASK = (1<<MIN_LIMIT_BIT_bp);		// min - INT0
    5f8c:	ed 91       	ld	r30, X+
    5f8e:	fc 91       	ld	r31, X
    5f90:	11 97       	sbiw	r26, 0x01	; 1
    5f92:	22 87       	std	Z+10, r18	; 0x0a
		AXIS(i).port->INT1MASK = (1<<MAX_LIMIT_BIT_bp);		// max - INT1
    5f94:	ed 91       	ld	r30, X+
    5f96:	fc 91       	ld	r31, X
    5f98:	11 97       	sbiw	r26, 0x01	; 1
    5f9a:	93 87       	std	Z+11, r25	; 0x0b
		// set interrupt levels. Interrupts must be enabled in main()
		AXIS(i).port->INTCTRL = (PORT_INT0LVL_MED_gc | PORT_INT1LVL_MED_gc);
    5f9c:	ed 91       	ld	r30, X+
    5f9e:	fc 91       	ld	r31, X
    5fa0:	11 97       	sbiw	r26, 0x01	; 1
    5fa2:	31 87       	std	Z+9, r19	; 0x09
    5fa4:	50 96       	adiw	r26, 0x10	; 16
#define	LS_OPC_gc PORT_OPC_PULLUP_gc				// totem poll pullup mode
#define LS_ISC_gc PORT_ISC_RISING_gc				// ISRs on rising edge

void ls_init(void) 
{
	for (uint8_t i=X; i<=A; i++) {
    5fa6:	42 e2       	ldi	r20, 0x22	; 34
    5fa8:	a8 36       	cpi	r26, 0x68	; 104
    5faa:	b4 07       	cpc	r27, r20
    5fac:	f9 f6       	brne	.-66     	; 0x5f6c <ls_init+0xc>
		AXIS(i).port->INT0MASK = (1<<MIN_LIMIT_BIT_bp);		// min - INT0
		AXIS(i).port->INT1MASK = (1<<MAX_LIMIT_BIT_bp);		// max - INT1
		// set interrupt levels. Interrupts must be enabled in main()
		AXIS(i).port->INTCTRL = (PORT_INT0LVL_MED_gc | PORT_INT1LVL_MED_gc);
	}
}
    5fae:	08 95       	ret

00005fb0 <__vector_66>:

/*
 * ISRs - Limit switch interrupt handler routine and vectors
 */

ISR(X_MIN_ISR_vect)	{ _ls_handler(); }
    5fb0:	1f 92       	push	r1
    5fb2:	0f 92       	push	r0
    5fb4:	0f b6       	in	r0, 0x3f	; 63
    5fb6:	0f 92       	push	r0
    5fb8:	11 24       	eor	r1, r1
    5fba:	0f 90       	pop	r0
    5fbc:	0f be       	out	0x3f, r0	; 63
    5fbe:	0f 90       	pop	r0
    5fc0:	1f 90       	pop	r1
    5fc2:	18 95       	reti

00005fc4 <__vector_67>:
ISR(X_MAX_ISR_vect)	{ _ls_handler(); }
    5fc4:	1f 92       	push	r1
    5fc6:	0f 92       	push	r0
    5fc8:	0f b6       	in	r0, 0x3f	; 63
    5fca:	0f 92       	push	r0
    5fcc:	11 24       	eor	r1, r1
    5fce:	0f 90       	pop	r0
    5fd0:	0f be       	out	0x3f, r0	; 63
    5fd2:	0f 90       	pop	r0
    5fd4:	1f 90       	pop	r1
    5fd6:	18 95       	reti

00005fd8 <__vector_104>:
ISR(Y_MIN_ISR_vect)	{ _ls_handler(); }
    5fd8:	1f 92       	push	r1
    5fda:	0f 92       	push	r0
    5fdc:	0f b6       	in	r0, 0x3f	; 63
    5fde:	0f 92       	push	r0
    5fe0:	11 24       	eor	r1, r1
    5fe2:	0f 90       	pop	r0
    5fe4:	0f be       	out	0x3f, r0	; 63
    5fe6:	0f 90       	pop	r0
    5fe8:	1f 90       	pop	r1
    5fea:	18 95       	reti

00005fec <__vector_105>:
ISR(Y_MAX_ISR_vect)	{ _ls_handler(); }
    5fec:	1f 92       	push	r1
    5fee:	0f 92       	push	r0
    5ff0:	0f b6       	in	r0, 0x3f	; 63
    5ff2:	0f 92       	push	r0
    5ff4:	11 24       	eor	r1, r1
    5ff6:	0f 90       	pop	r0
    5ff8:	0f be       	out	0x3f, r0	; 63
    5ffa:	0f 90       	pop	r0
    5ffc:	1f 90       	pop	r1
    5ffe:	18 95       	reti

00006000 <__vector_43>:
ISR(Z_MIN_ISR_vect)	{ _ls_handler(); }
    6000:	1f 92       	push	r1
    6002:	0f 92       	push	r0
    6004:	0f b6       	in	r0, 0x3f	; 63
    6006:	0f 92       	push	r0
    6008:	11 24       	eor	r1, r1
    600a:	0f 90       	pop	r0
    600c:	0f be       	out	0x3f, r0	; 63
    600e:	0f 90       	pop	r0
    6010:	1f 90       	pop	r1
    6012:	18 95       	reti

00006014 <__vector_44>:
ISR(Z_MAX_ISR_vect)	{ _ls_handler(); }
    6014:	1f 92       	push	r1
    6016:	0f 92       	push	r0
    6018:	0f b6       	in	r0, 0x3f	; 63
    601a:	0f 92       	push	r0
    601c:	11 24       	eor	r1, r1
    601e:	0f 90       	pop	r0
    6020:	0f be       	out	0x3f, r0	; 63
    6022:	0f 90       	pop	r0
    6024:	1f 90       	pop	r1
    6026:	18 95       	reti

00006028 <__vector_64>:
ISR(A_MIN_ISR_vect)	{ _ls_handler(); }
    6028:	1f 92       	push	r1
    602a:	0f 92       	push	r0
    602c:	0f b6       	in	r0, 0x3f	; 63
    602e:	0f 92       	push	r0
    6030:	11 24       	eor	r1, r1
    6032:	0f 90       	pop	r0
    6034:	0f be       	out	0x3f, r0	; 63
    6036:	0f 90       	pop	r0
    6038:	1f 90       	pop	r1
    603a:	18 95       	reti

0000603c <__vector_65>:
ISR(A_MAX_ISR_vect)	{ _ls_handler(); }
    603c:	1f 92       	push	r1
    603e:	0f 92       	push	r0
    6040:	0f b6       	in	r0, 0x3f	; 63
    6042:	0f 92       	push	r0
    6044:	11 24       	eor	r1, r1
    6046:	0f 90       	pop	r0
    6048:	0f be       	out	0x3f, r0	; 63
    604a:	0f 90       	pop	r0
    604c:	1f 90       	pop	r1
    604e:	18 95       	reti

00006050 <tg_terminate>:

void tg_terminate()
{
//	tg_kill();
	return;
}
    6050:	08 95       	ret

00006052 <tg_pause>:

void tg_pause()
{
	return;
}
    6052:	08 95       	ret

00006054 <tg_resume>:

void tg_resume()
{
	return;
}
    6054:	08 95       	ret

00006056 <signal_etx>:
 * signal_etx() - trap and dispatch ^c
 */

void signal_etx()				// ^c
{
	tg_reset_source();			// return control to standard device
    6056:	0e 94 c7 2b 	call	0x578e	; 0x578e <tg_reset_source>
	mc_motion_stop();			// stop computing and generating motions
    605a:	0e 94 6c 24 	call	0x48d8	; 0x48d8 <mc_motion_stop>
	return;
}
    605e:	08 95       	ret

00006060 <xio_set_baud_usart>:
	dx->port->OUTCLR = outclr;
	dx->port->OUTSET = outset;
}

void xio_set_baud_usart(const uint8_t dev, const uint8_t baud)
{
    6060:	cf 93       	push	r28
    6062:	df 93       	push	r29
	((struct xioUSART *)(ds[dev].x))->usart->BAUDCTRLA = (uint8_t)pgm_read_byte(&bsel[baud]);
    6064:	90 e0       	ldi	r25, 0x00	; 0
    6066:	27 e1       	ldi	r18, 0x17	; 23
    6068:	30 e0       	ldi	r19, 0x00	; 0
    606a:	82 9f       	mul	r24, r18
    606c:	d0 01       	movw	r26, r0
    606e:	83 9f       	mul	r24, r19
    6070:	b0 0d       	add	r27, r0
    6072:	92 9f       	mul	r25, r18
    6074:	b0 0d       	add	r27, r0
    6076:	11 24       	eor	r1, r1
    6078:	ac 53       	subi	r26, 0x3C	; 60
    607a:	bb 4d       	sbci	r27, 0xDB	; 219
    607c:	51 96       	adiw	r26, 0x11	; 17
    607e:	ed 91       	ld	r30, X+
    6080:	fc 91       	ld	r31, X
    6082:	52 97       	sbiw	r26, 0x12	; 18
    6084:	87 81       	ldd	r24, Z+7	; 0x07
    6086:	90 85       	ldd	r25, Z+8	; 0x08
    6088:	26 2f       	mov	r18, r22
    608a:	30 e0       	ldi	r19, 0x00	; 0
    608c:	f9 01       	movw	r30, r18
    608e:	eb 53       	subi	r30, 0x3B	; 59
    6090:	f5 4e       	sbci	r31, 0xE5	; 229
    6092:	e4 91       	lpm	r30, Z+
    6094:	ec 01       	movw	r28, r24
    6096:	ee 83       	std	Y+6, r30	; 0x06
	((struct xioUSART *)(ds[dev].x))->usart->BAUDCTRLB = (uint8_t)pgm_read_byte(&bscale[baud]);
    6098:	51 96       	adiw	r26, 0x11	; 17
    609a:	ed 91       	ld	r30, X+
    609c:	fc 91       	ld	r31, X
    609e:	52 97       	sbiw	r26, 0x12	; 18
    60a0:	a7 81       	ldd	r26, Z+7	; 0x07
    60a2:	b0 85       	ldd	r27, Z+8	; 0x08
    60a4:	20 53       	subi	r18, 0x30	; 48
    60a6:	35 4e       	sbci	r19, 0xE5	; 229
    60a8:	f9 01       	movw	r30, r18
    60aa:	64 91       	lpm	r22, Z+
    60ac:	17 96       	adiw	r26, 0x07	; 7
    60ae:	6c 93       	st	X, r22
}
    60b0:	df 91       	pop	r29
    60b2:	cf 91       	pop	r28
    60b4:	08 95       	ret

000060b6 <xio_putc_usart>:
 *		  detection in the dequeue routine - causing the dequeing ISR to lock up
 *		  when the buffer was full. Using a local next_tx_buffer_head prevents this
 */

int xio_putc_usart(const uint8_t dev, const char c, FILE *stream)
{
    60b6:	cf 93       	push	r28
    60b8:	df 93       	push	r29
    60ba:	78 2f       	mov	r23, r24
    60bc:	da 01       	movw	r26, r20
	struct xioDEVICE *d = &ds[dev];					// init device struct pointer
    60be:	87 e1       	ldi	r24, 0x17	; 23
    60c0:	78 9f       	mul	r23, r24
    60c2:	a0 01       	movw	r20, r0
    60c4:	11 24       	eor	r1, r1
    60c6:	4c 53       	subi	r20, 0x3C	; 60
    60c8:	5b 4d       	sbci	r21, 0xDB	; 219
	struct xioUSART *dx = ((struct xioUSART *)(ds[dev].x));	// init USART pointer
    60ca:	27 2f       	mov	r18, r23
    60cc:	30 e0       	ldi	r19, 0x00	; 0
    60ce:	87 e1       	ldi	r24, 0x17	; 23
    60d0:	90 e0       	ldi	r25, 0x00	; 0
    60d2:	28 9f       	mul	r18, r24
    60d4:	f0 01       	movw	r30, r0
    60d6:	29 9f       	mul	r18, r25
    60d8:	f0 0d       	add	r31, r0
    60da:	38 9f       	mul	r19, r24
    60dc:	f0 0d       	add	r31, r0
    60de:	11 24       	eor	r1, r1
    60e0:	ec 53       	subi	r30, 0x3C	; 60
    60e2:	fb 4d       	sbci	r31, 0xDB	; 219
    60e4:	c1 89       	ldd	r28, Z+17	; 0x11
    60e6:	d2 89       	ldd	r29, Z+18	; 0x12

	if ((dx->next_tx_buf_head = (dx->tx_buf_head)-1) == 0) { // adv. head & wrap
    60e8:	8d 81       	ldd	r24, Y+5	; 0x05
    60ea:	81 50       	subi	r24, 0x01	; 1
    60ec:	8e 83       	std	Y+6, r24	; 0x06
    60ee:	88 23       	and	r24, r24
    60f0:	11 f4       	brne	.+4      	; 0x60f6 <xio_putc_usart+0x40>
		dx->next_tx_buf_head = TX_BUFFER_SIZE-1;	 // -1 avoids the off-by-one
    60f2:	8f e3       	ldi	r24, 0x3F	; 63
    60f4:	8e 83       	std	Y+6, r24	; 0x06
	}
	while(dx->next_tx_buf_head == dx->tx_buf_tail) { // buf full. sleep or ret
    60f6:	9e 81       	ldd	r25, Y+6	; 0x06
    60f8:	16 c0       	rjmp	.+44     	; 0x6126 <xio_putc_usart+0x70>
		if (BLOCKING(d->flags)) {
    60fa:	fa 01       	movw	r30, r20
    60fc:	80 81       	ld	r24, Z
    60fe:	82 ff       	sbrs	r24, 2
    6100:	0c c0       	rjmp	.+24     	; 0x611a <xio_putc_usart+0x64>
			sleep_mode();
    6102:	80 91 48 00 	lds	r24, 0x0048
    6106:	81 60       	ori	r24, 0x01	; 1
    6108:	80 93 48 00 	sts	0x0048, r24
    610c:	88 95       	sleep
    610e:	80 91 48 00 	lds	r24, 0x0048
    6112:	8e 7f       	andi	r24, 0xFE	; 254
    6114:	80 93 48 00 	sts	0x0048, r24
    6118:	06 c0       	rjmp	.+12     	; 0x6126 <xio_putc_usart+0x70>
		} else {
			d->sig = XIO_SIG_EAGAIN;
    611a:	81 e0       	ldi	r24, 0x01	; 1
    611c:	ea 01       	movw	r28, r20
    611e:	8b 83       	std	Y+3, r24	; 0x03
    6120:	2f ef       	ldi	r18, 0xFF	; 255
    6122:	3f ef       	ldi	r19, 0xFF	; 255
    6124:	56 c0       	rjmp	.+172    	; 0x61d2 <xio_putc_usart+0x11c>
	struct xioUSART *dx = ((struct xioUSART *)(ds[dev].x));	// init USART pointer

	if ((dx->next_tx_buf_head = (dx->tx_buf_head)-1) == 0) { // adv. head & wrap
		dx->next_tx_buf_head = TX_BUFFER_SIZE-1;	 // -1 avoids the off-by-one
	}
	while(dx->next_tx_buf_head == dx->tx_buf_tail) { // buf full. sleep or ret
    6126:	8c 81       	ldd	r24, Y+4	; 0x04
    6128:	98 17       	cp	r25, r24
    612a:	39 f3       	breq	.-50     	; 0x60fa <xio_putc_usart+0x44>
			d->sig = XIO_SIG_EAGAIN;
			return(_FDEV_ERR);
		}
	};
	// write to data register
	dx->tx_buf_head = dx->next_tx_buf_head;			// accept next buffer head
    612c:	9d 83       	std	Y+5, r25	; 0x05
	dx->tx_buf[dx->tx_buf_head] = c;				// ...write char to buffer
    612e:	8d 81       	ldd	r24, Y+5	; 0x05
    6130:	fe 01       	movw	r30, r28
    6132:	e8 0f       	add	r30, r24
    6134:	f1 1d       	adc	r31, r1
    6136:	e5 5b       	subi	r30, 0xB5	; 181
    6138:	ff 4f       	sbci	r31, 0xFF	; 255
    613a:	60 83       	st	Z, r22

	if (CRLF(d->flags) && (c == '\n')) {			// detect LF & add CR
    613c:	fa 01       	movw	r30, r20
    613e:	20 81       	ld	r18, Z
    6140:	31 81       	ldd	r19, Z+1	; 0x01
    6142:	25 ff       	sbrs	r18, 5
    6144:	0a c0       	rjmp	.+20     	; 0x615a <xio_putc_usart+0xa4>
    6146:	6a 30       	cpi	r22, 0x0A	; 10
    6148:	41 f4       	brne	.+16     	; 0x615a <xio_putc_usart+0xa4>
		return d->x_putc('\r', stream);				// recurse
    614a:	03 84       	ldd	r0, Z+11	; 0x0b
    614c:	f4 85       	ldd	r31, Z+12	; 0x0c
    614e:	e0 2d       	mov	r30, r0
    6150:	8d e0       	ldi	r24, 0x0D	; 13
    6152:	bd 01       	movw	r22, r26
    6154:	19 95       	eicall
    6156:	9c 01       	movw	r18, r24
    6158:	3c c0       	rjmp	.+120    	; 0x61d2 <xio_putc_usart+0x11c>
	}

	// dequeue the buffer if DATA register is ready
	if (dx->usart->STATUS & 0x20) {
    615a:	ef 81       	ldd	r30, Y+7	; 0x07
    615c:	f8 85       	ldd	r31, Y+8	; 0x08
    615e:	81 81       	ldd	r24, Z+1	; 0x01
    6160:	85 ff       	sbrs	r24, 5
    6162:	26 c0       	rjmp	.+76     	; 0x61b0 <xio_putc_usart+0xfa>
		if (dx->tx_buf_head == dx->tx_buf_tail) {// buf might be empty if IRQ got it
    6164:	9d 81       	ldd	r25, Y+5	; 0x05
    6166:	8c 81       	ldd	r24, Y+4	; 0x04
    6168:	98 17       	cp	r25, r24
    616a:	89 f1       	breq	.+98     	; 0x61ce <xio_putc_usart+0x118>
			return (XIO_OK);
		}
		d->flags |= XIO_FLAG_TX_MUTEX_bm;			// mutual exclusion from ISR
    616c:	38 60       	ori	r19, 0x08	; 8
    616e:	fa 01       	movw	r30, r20
    6170:	20 83       	st	Z, r18
    6172:	31 83       	std	Z+1, r19	; 0x01
		if (--(dx->tx_buf_tail) == 0) {				// advance tail & wrap if needed
    6174:	8c 81       	ldd	r24, Y+4	; 0x04
    6176:	81 50       	subi	r24, 0x01	; 1
    6178:	8c 83       	std	Y+4, r24	; 0x04
    617a:	8c 81       	ldd	r24, Y+4	; 0x04
    617c:	88 23       	and	r24, r24
    617e:	11 f4       	brne	.+4      	; 0x6184 <xio_putc_usart+0xce>
			dx->tx_buf_tail = TX_BUFFER_SIZE-1;		// -1 avoid off-by-one err (OBOE)
    6180:	8f e3       	ldi	r24, 0x3F	; 63
    6182:	8c 83       	std	Y+4, r24	; 0x04
		}
		if (dev == XIO_DEV_RS485) {					// ++++ HACK ++++
    6184:	77 23       	and	r23, r23
    6186:	21 f4       	brne	.+8      	; 0x6190 <xio_putc_usart+0xda>
//			_delay_us(100);
			dx->port->OUTSET = (RS485_DE_bm | RS485_RE_bm);	// enable DE, disable RE
    6188:	e9 85       	ldd	r30, Y+9	; 0x09
    618a:	fa 85       	ldd	r31, Y+10	; 0x0a
    618c:	80 e3       	ldi	r24, 0x30	; 48
    618e:	85 83       	std	Z+5, r24	; 0x05
//			en_toggle(2);							// ++++ DEBUG
		}
		dx->usart->DATA = dx->tx_buf[dx->tx_buf_tail];// write to TX DATA reg
    6190:	af 81       	ldd	r26, Y+7	; 0x07
    6192:	b8 85       	ldd	r27, Y+8	; 0x08
    6194:	8c 81       	ldd	r24, Y+4	; 0x04
    6196:	fe 01       	movw	r30, r28
    6198:	e8 0f       	add	r30, r24
    619a:	f1 1d       	adc	r31, r1
    619c:	e5 5b       	subi	r30, 0xB5	; 181
    619e:	ff 4f       	sbci	r31, 0xFF	; 255
    61a0:	80 81       	ld	r24, Z
    61a2:	8c 93       	st	X, r24
		d->flags &= ~XIO_FLAG_TX_MUTEX_bm;			// release mutual exclusion lock
    61a4:	fa 01       	movw	r30, r20
    61a6:	80 81       	ld	r24, Z
    61a8:	91 81       	ldd	r25, Z+1	; 0x01
    61aa:	97 7f       	andi	r25, 0xF7	; 247
    61ac:	80 83       	st	Z, r24
    61ae:	91 83       	std	Z+1, r25	; 0x01
    61b0:	ef 81       	ldd	r30, Y+7	; 0x07
    61b2:	f8 85       	ldd	r31, Y+8	; 0x08
	}
	// enable interrupts regardless
	if (dev == XIO_DEV_RS485) {						// ++++ HACK ++++
    61b4:	77 23       	and	r23, r23
    61b6:	11 f4       	brne	.+4      	; 0x61bc <xio_putc_usart+0x106>
		dx->usart->CTRLA = CTRLA_RXON_TXON_TXCON;	// doesn't work if you just |= it
    61b8:	85 e2       	ldi	r24, 0x25	; 37
    61ba:	01 c0       	rjmp	.+2      	; 0x61be <xio_putc_usart+0x108>
	} else {
		dx->usart->CTRLA = CTRLA_RXON_TXON;			// doesn't work if you just |= it
    61bc:	81 e2       	ldi	r24, 0x21	; 33
    61be:	83 83       	std	Z+3, r24	; 0x03
	}
	PMIC_EnableLowLevel(); 							// enable USART TX interrupts
    61c0:	80 91 a2 00 	lds	r24, 0x00A2
    61c4:	81 60       	ori	r24, 0x01	; 1
    61c6:	e0 ea       	ldi	r30, 0xA0	; 160
    61c8:	f0 e0       	ldi	r31, 0x00	; 0
    61ca:	82 83       	std	Z+2, r24	; 0x02
	sei();											// enable global interrupts
    61cc:	78 94       	sei
    61ce:	20 e0       	ldi	r18, 0x00	; 0
    61d0:	30 e0       	ldi	r19, 0x00	; 0
	return (XIO_OK);
}
    61d2:	c9 01       	movw	r24, r18
    61d4:	df 91       	pop	r29
    61d6:	cf 91       	pop	r28
    61d8:	08 95       	ret

000061da <xio_getc_usart>:
 *		  character helper routines. See them for behaviors
 */

int xio_getc_usart(const uint8_t dev, FILE *stream)
{
	struct xioDEVICE *d = &ds[dev];					// init device struct pointer
    61da:	97 e1       	ldi	r25, 0x17	; 23
    61dc:	89 9f       	mul	r24, r25
    61de:	d0 01       	movw	r26, r0
    61e0:	11 24       	eor	r1, r1
    61e2:	ac 53       	subi	r26, 0x3C	; 60
    61e4:	bb 4d       	sbci	r27, 0xDB	; 219
	struct xioUSART *dx = ((struct xioUSART *)(ds[dev].x));	// init USART pointer
    61e6:	48 2f       	mov	r20, r24
    61e8:	50 e0       	ldi	r21, 0x00	; 0
    61ea:	27 e1       	ldi	r18, 0x17	; 23
    61ec:	30 e0       	ldi	r19, 0x00	; 0
    61ee:	42 9f       	mul	r20, r18
    61f0:	f0 01       	movw	r30, r0
    61f2:	43 9f       	mul	r20, r19
    61f4:	f0 0d       	add	r31, r0
    61f6:	52 9f       	mul	r21, r18
    61f8:	f0 0d       	add	r31, r0
    61fa:	11 24       	eor	r1, r1
    61fc:	ec 53       	subi	r30, 0x3C	; 60
    61fe:	fb 4d       	sbci	r31, 0xDB	; 219
    6200:	01 88       	ldd	r0, Z+17	; 0x11
    6202:	f2 89       	ldd	r31, Z+18	; 0x12
    6204:	e0 2d       	mov	r30, r0

	gdev = dev;										// set dev number global var
    6206:	80 93 16 22 	sts	0x2216, r24
    620a:	15 c0       	rjmp	.+42     	; 0x6236 <xio_getc_usart+0x5c>

	while (dx->rx_buf_head == dx->rx_buf_tail) {	// RX ISR buffer empty
		if (BLOCKING(d->flags)) {
    620c:	8c 91       	ld	r24, X
    620e:	82 ff       	sbrs	r24, 2
    6210:	0c c0       	rjmp	.+24     	; 0x622a <xio_getc_usart+0x50>
			sleep_mode();
    6212:	80 91 48 00 	lds	r24, 0x0048
    6216:	81 60       	ori	r24, 0x01	; 1
    6218:	80 93 48 00 	sts	0x0048, r24
    621c:	88 95       	sleep
    621e:	80 91 48 00 	lds	r24, 0x0048
    6222:	8e 7f       	andi	r24, 0xFE	; 254
    6224:	80 93 48 00 	sts	0x0048, r24
    6228:	06 c0       	rjmp	.+12     	; 0x6236 <xio_getc_usart+0x5c>
		} else {
			d->sig = XIO_SIG_EAGAIN;
    622a:	81 e0       	ldi	r24, 0x01	; 1
    622c:	13 96       	adiw	r26, 0x03	; 3
    622e:	8c 93       	st	X, r24
    6230:	2f ef       	ldi	r18, 0xFF	; 255
    6232:	3f ef       	ldi	r19, 0xFF	; 255
    6234:	1e c0       	rjmp	.+60     	; 0x6272 <xio_getc_usart+0x98>
	struct xioDEVICE *d = &ds[dev];					// init device struct pointer
	struct xioUSART *dx = ((struct xioUSART *)(ds[dev].x));	// init USART pointer

	gdev = dev;										// set dev number global var

	while (dx->rx_buf_head == dx->rx_buf_tail) {	// RX ISR buffer empty
    6236:	93 81       	ldd	r25, Z+3	; 0x03
    6238:	82 81       	ldd	r24, Z+2	; 0x02
    623a:	98 17       	cp	r25, r24
    623c:	39 f3       	breq	.-50     	; 0x620c <xio_getc_usart+0x32>
		} else {
			d->sig = XIO_SIG_EAGAIN;
			return(_FDEV_ERR);
		}
	}
	if (--(dx->rx_buf_tail) == 0) {				// advance RX tail (RXQ read ptr)
    623e:	82 81       	ldd	r24, Z+2	; 0x02
    6240:	81 50       	subi	r24, 0x01	; 1
    6242:	82 83       	std	Z+2, r24	; 0x02
    6244:	82 81       	ldd	r24, Z+2	; 0x02
    6246:	88 23       	and	r24, r24
    6248:	11 f4       	brne	.+4      	; 0x624e <xio_getc_usart+0x74>
		dx->rx_buf_tail = RX_BUFFER_SIZE-1;		// -1 avoids off-by-one error (OBOE)
    624a:	8f e3       	ldi	r24, 0x3F	; 63
    624c:	82 83       	std	Z+2, r24	; 0x02
	}
//	en_toggle(1);								// ++++ DEBUG
	d->c = (dx->rx_buf[dx->rx_buf_tail] & 0x007F);// get char from RX buf & mask MSB
    624e:	82 81       	ldd	r24, Z+2	; 0x02
    6250:	e8 0f       	add	r30, r24
    6252:	f1 1d       	adc	r31, r1
    6254:	83 85       	ldd	r24, Z+11	; 0x0b
    6256:	8f 77       	andi	r24, 0x7F	; 127
    6258:	14 96       	adiw	r26, 0x04	; 4
    625a:	8c 93       	st	X, r24
	// 	call action procedure from dispatch table in FLASH (see xio.h for typedef)
	return (((fptr_int_void)(pgm_read_word(&getcFuncs[d->c])))());
    625c:	90 e0       	ldi	r25, 0x00	; 0
    625e:	88 0f       	add	r24, r24
    6260:	99 1f       	adc	r25, r25
    6262:	85 52       	subi	r24, 0x25	; 37
    6264:	94 4e       	sbci	r25, 0xE4	; 228
    6266:	fc 01       	movw	r30, r24
    6268:	25 91       	lpm	r18, Z+
    626a:	34 91       	lpm	r19, Z+
    626c:	f9 01       	movw	r30, r18
    626e:	19 95       	eicall
    6270:	9c 01       	movw	r18, r24
	//return (getcFuncs[c]()); // call action procedure from dispatch table in RAM
}
    6272:	c9 01       	movw	r24, r18
    6274:	08 95       	ret

00006276 <_getc_char>:

// xio_getc_usart helper routines

static int _getc_char(void)
{
	if (ECHO(ds[gdev].flags)) ds[gdev].x_putc(ds[gdev].c, stdout);
    6276:	80 91 16 22 	lds	r24, 0x2216
    627a:	90 e0       	ldi	r25, 0x00	; 0
    627c:	27 e1       	ldi	r18, 0x17	; 23
    627e:	30 e0       	ldi	r19, 0x00	; 0
    6280:	82 9f       	mul	r24, r18
    6282:	d0 01       	movw	r26, r0
    6284:	83 9f       	mul	r24, r19
    6286:	b0 0d       	add	r27, r0
    6288:	92 9f       	mul	r25, r18
    628a:	b0 0d       	add	r27, r0
    628c:	11 24       	eor	r1, r1
    628e:	ac 53       	subi	r26, 0x3C	; 60
    6290:	bb 4d       	sbci	r27, 0xDB	; 219
    6292:	8c 91       	ld	r24, X
    6294:	84 ff       	sbrs	r24, 4
    6296:	0b c0       	rjmp	.+22     	; 0x62ae <_getc_char+0x38>
    6298:	60 91 5c 26 	lds	r22, 0x265C
    629c:	70 91 5d 26 	lds	r23, 0x265D
    62a0:	1b 96       	adiw	r26, 0x0b	; 11
    62a2:	ed 91       	ld	r30, X+
    62a4:	fc 91       	ld	r31, X
    62a6:	1c 97       	sbiw	r26, 0x0c	; 12
    62a8:	14 96       	adiw	r26, 0x04	; 4
    62aa:	8c 91       	ld	r24, X
    62ac:	19 95       	eicall
    62ae:	80 91 16 22 	lds	r24, 0x2216
    62b2:	90 e0       	ldi	r25, 0x00	; 0
    62b4:	27 e1       	ldi	r18, 0x17	; 23
    62b6:	30 e0       	ldi	r19, 0x00	; 0
    62b8:	82 9f       	mul	r24, r18
    62ba:	f0 01       	movw	r30, r0
    62bc:	83 9f       	mul	r24, r19
    62be:	f0 0d       	add	r31, r0
    62c0:	92 9f       	mul	r25, r18
    62c2:	f0 0d       	add	r31, r0
    62c4:	11 24       	eor	r1, r1
    62c6:	ec 53       	subi	r30, 0x3C	; 60
    62c8:	fb 4d       	sbci	r31, 0xDB	; 219
	return(ds[gdev].c);
}
    62ca:	84 81       	ldd	r24, Z+4	; 0x04
    62cc:	90 e0       	ldi	r25, 0x00	; 0
    62ce:	08 95       	ret

000062d0 <_getc_NEWLINE>:

static int _getc_NEWLINE(void)		// convert CRs and LFs to newlines if line mode
{
	if (LINEMODE(ds[gdev].flags)) ds[gdev].c = '\n';
    62d0:	80 91 16 22 	lds	r24, 0x2216
    62d4:	28 2f       	mov	r18, r24
    62d6:	30 e0       	ldi	r19, 0x00	; 0
    62d8:	87 e1       	ldi	r24, 0x17	; 23
    62da:	90 e0       	ldi	r25, 0x00	; 0
    62dc:	28 9f       	mul	r18, r24
    62de:	f0 01       	movw	r30, r0
    62e0:	29 9f       	mul	r18, r25
    62e2:	f0 0d       	add	r31, r0
    62e4:	38 9f       	mul	r19, r24
    62e6:	f0 0d       	add	r31, r0
    62e8:	11 24       	eor	r1, r1
    62ea:	ec 53       	subi	r30, 0x3C	; 60
    62ec:	fb 4d       	sbci	r31, 0xDB	; 219
    62ee:	80 81       	ld	r24, Z
    62f0:	86 ff       	sbrs	r24, 6
    62f2:	02 c0       	rjmp	.+4      	; 0x62f8 <_getc_NEWLINE+0x28>
    62f4:	8a e0       	ldi	r24, 0x0A	; 10
    62f6:	84 83       	std	Z+4, r24	; 0x04
	if (ECHO(ds[gdev].flags)) ds[gdev].x_putc(ds[gdev].c, stdout);
    62f8:	87 e1       	ldi	r24, 0x17	; 23
    62fa:	90 e0       	ldi	r25, 0x00	; 0
    62fc:	28 9f       	mul	r18, r24
    62fe:	d0 01       	movw	r26, r0
    6300:	29 9f       	mul	r18, r25
    6302:	b0 0d       	add	r27, r0
    6304:	38 9f       	mul	r19, r24
    6306:	b0 0d       	add	r27, r0
    6308:	11 24       	eor	r1, r1
    630a:	ac 53       	subi	r26, 0x3C	; 60
    630c:	bb 4d       	sbci	r27, 0xDB	; 219
    630e:	8c 91       	ld	r24, X
    6310:	84 ff       	sbrs	r24, 4
    6312:	0b c0       	rjmp	.+22     	; 0x632a <_getc_NEWLINE+0x5a>
    6314:	60 91 5c 26 	lds	r22, 0x265C
    6318:	70 91 5d 26 	lds	r23, 0x265D
    631c:	1b 96       	adiw	r26, 0x0b	; 11
    631e:	ed 91       	ld	r30, X+
    6320:	fc 91       	ld	r31, X
    6322:	1c 97       	sbiw	r26, 0x0c	; 12
    6324:	14 96       	adiw	r26, 0x04	; 4
    6326:	8c 91       	ld	r24, X
    6328:	19 95       	eicall
    632a:	80 91 16 22 	lds	r24, 0x2216
    632e:	90 e0       	ldi	r25, 0x00	; 0
    6330:	27 e1       	ldi	r18, 0x17	; 23
    6332:	30 e0       	ldi	r19, 0x00	; 0
    6334:	82 9f       	mul	r24, r18
    6336:	f0 01       	movw	r30, r0
    6338:	83 9f       	mul	r24, r19
    633a:	f0 0d       	add	r31, r0
    633c:	92 9f       	mul	r25, r18
    633e:	f0 0d       	add	r31, r0
    6340:	11 24       	eor	r1, r1
    6342:	ec 53       	subi	r30, 0x3C	; 60
    6344:	fb 4d       	sbci	r31, 0xDB	; 219
	return(ds[gdev].c);
}
    6346:	84 81       	ldd	r24, Z+4	; 0x04
    6348:	90 e0       	ldi	r25, 0x00	; 0
    634a:	08 95       	ret

0000634c <_getc_SEMICOLON>:

static int _getc_SEMICOLON(void)
{
	if (SEMICOLONS(ds[gdev].flags)) {
    634c:	80 91 16 22 	lds	r24, 0x2216
    6350:	90 e0       	ldi	r25, 0x00	; 0
    6352:	27 e1       	ldi	r18, 0x17	; 23
    6354:	30 e0       	ldi	r19, 0x00	; 0
    6356:	82 9f       	mul	r24, r18
    6358:	f0 01       	movw	r30, r0
    635a:	83 9f       	mul	r24, r19
    635c:	f0 0d       	add	r31, r0
    635e:	92 9f       	mul	r25, r18
    6360:	f0 0d       	add	r31, r0
    6362:	11 24       	eor	r1, r1
    6364:	ec 53       	subi	r30, 0x3C	; 60
    6366:	fb 4d       	sbci	r31, 0xDB	; 219
    6368:	80 81       	ld	r24, Z
    636a:	87 ff       	sbrs	r24, 7
    636c:	03 c0       	rjmp	.+6      	; 0x6374 <_getc_SEMICOLON+0x28>
		return (_getc_NEWLINE());			// if semi mode treat as an EOL
    636e:	0e 94 68 31 	call	0x62d0	; 0x62d0 <_getc_NEWLINE>
    6372:	08 95       	ret
	} 
	return (_getc_char());					// else treat as any other character
    6374:	0e 94 3b 31 	call	0x6276	; 0x6276 <_getc_char>
}
    6378:	08 95       	ret

0000637a <_getc_DELETE>:

static int _getc_DELETE(void)				// can't handle a delete very well
{
	ds[gdev].sig = XIO_SIG_DELETE;
    637a:	80 91 16 22 	lds	r24, 0x2216
    637e:	90 e0       	ldi	r25, 0x00	; 0
    6380:	27 e1       	ldi	r18, 0x17	; 23
    6382:	30 e0       	ldi	r19, 0x00	; 0
    6384:	82 9f       	mul	r24, r18
    6386:	f0 01       	movw	r30, r0
    6388:	83 9f       	mul	r24, r19
    638a:	f0 0d       	add	r31, r0
    638c:	92 9f       	mul	r25, r18
    638e:	f0 0d       	add	r31, r0
    6390:	11 24       	eor	r1, r1
    6392:	ec 53       	subi	r30, 0x3C	; 60
    6394:	fb 4d       	sbci	r31, 0xDB	; 219
    6396:	89 e0       	ldi	r24, 0x09	; 9
    6398:	83 83       	std	Z+3, r24	; 0x03
	return(_FDEV_ERR);
}
    639a:	8f ef       	ldi	r24, 0xFF	; 255
    639c:	9f ef       	ldi	r25, 0xFF	; 255
    639e:	08 95       	ret

000063a0 <xio_readln_usart>:
 *
 *	Note: LINEMODE flag in device struct is ignored. It's ALWAYS LINEMODE here.
 */

int xio_readln_usart(const uint8_t dev, char *buf, const uint8_t size)
{
    63a0:	ff 92       	push	r15
    63a2:	0f 93       	push	r16
    63a4:	1f 93       	push	r17
    63a6:	cf 93       	push	r28
    63a8:	df 93       	push	r29
    63aa:	28 2f       	mov	r18, r24
	struct xioDEVICE *d = &ds[dev];				// init device struct pointer
    63ac:	87 e1       	ldi	r24, 0x17	; 23
    63ae:	28 9f       	mul	r18, r24
    63b0:	e0 01       	movw	r28, r0
    63b2:	11 24       	eor	r1, r1
    63b4:	cc 53       	subi	r28, 0x3C	; 60
    63b6:	db 4d       	sbci	r29, 0xDB	; 219
	
	gdev = dev;									// set the global device number
    63b8:	20 93 16 22 	sts	0x2216, r18

	if (!IN_LINE(d->flags)) {					// first time thru initializations
    63bc:	88 81       	ld	r24, Y
    63be:	99 81       	ldd	r25, Y+1	; 0x01
    63c0:	96 fd       	sbrc	r25, 6
    63c2:	09 c0       	rjmp	.+18     	; 0x63d6 <xio_readln_usart+0x36>
		d->len = 0;								// zero buffer
    63c4:	1d 82       	std	Y+5, r1	; 0x05
		d->status = 0;
    63c6:	1a 82       	std	Y+2, r1	; 0x02
		d->size = size;
    63c8:	4e 83       	std	Y+6, r20	; 0x06
		d->buf = buf;
    63ca:	6d 8b       	std	Y+21, r22	; 0x15
    63cc:	7e 8b       	std	Y+22, r23	; 0x16
		d->sig = XIO_SIG_OK;					// reset signal register
    63ce:	1b 82       	std	Y+3, r1	; 0x03
		d->flags |= XIO_FLAG_IN_LINE_bm;		// yes, we are busy getting a line
    63d0:	90 64       	ori	r25, 0x40	; 64
    63d2:	88 83       	st	Y, r24
    63d4:	99 83       	std	Y+1, r25	; 0x01
 */

static int _xio_readc_usart(const uint8_t dev, const char *buf)
{
	struct xioDEVICE *d = &ds[dev];					// init device struct pointer
	struct xioUSART *dx = ((struct xioUSART *)(ds[dev].x));	// init USART pointer
    63d6:	30 e0       	ldi	r19, 0x00	; 0
    63d8:	87 e1       	ldi	r24, 0x17	; 23
    63da:	90 e0       	ldi	r25, 0x00	; 0
    63dc:	28 9f       	mul	r18, r24
    63de:	80 01       	movw	r16, r0
    63e0:	29 9f       	mul	r18, r25
    63e2:	10 0d       	add	r17, r0
    63e4:	38 9f       	mul	r19, r24
    63e6:	10 0d       	add	r17, r0
    63e8:	11 24       	eor	r1, r1
    63ea:	0b 52       	subi	r16, 0x2B	; 43
    63ec:	1b 4d       	sbci	r17, 0xDB	; 219

	if (dx->rx_buf_head == dx->rx_buf_tail) {		// RX ISR buffer empty
		return(XIO_BUFFER_EMPTY);
	}
	if (--(dx->rx_buf_tail) == 0) {			// advance RX tail (RX q read ptr)
		dx->rx_buf_tail = RX_BUFFER_SIZE-1;	// -1 avoids off-by-one error (OBOE)
    63ee:	4f e3       	ldi	r20, 0x3F	; 63
    63f0:	f4 2e       	mov	r15, r20
 */

static int _xio_readc_usart(const uint8_t dev, const char *buf)
{
	struct xioDEVICE *d = &ds[dev];					// init device struct pointer
	struct xioUSART *dx = ((struct xioUSART *)(ds[dev].x));	// init USART pointer
    63f2:	d8 01       	movw	r26, r16
    63f4:	ed 91       	ld	r30, X+
    63f6:	fc 91       	ld	r31, X

	if (dx->rx_buf_head == dx->rx_buf_tail) {		// RX ISR buffer empty
    63f8:	93 81       	ldd	r25, Z+3	; 0x03
    63fa:	82 81       	ldd	r24, Z+2	; 0x02
    63fc:	98 17       	cp	r25, r24
    63fe:	19 f4       	brne	.+6      	; 0x6406 <xio_readln_usart+0x66>
    6400:	88 e0       	ldi	r24, 0x08	; 8
    6402:	90 e0       	ldi	r25, 0x00	; 0
    6404:	17 c0       	rjmp	.+46     	; 0x6434 <xio_readln_usart+0x94>
		return(XIO_BUFFER_EMPTY);
	}
	if (--(dx->rx_buf_tail) == 0) {			// advance RX tail (RX q read ptr)
    6406:	82 81       	ldd	r24, Z+2	; 0x02
    6408:	81 50       	subi	r24, 0x01	; 1
    640a:	82 83       	std	Z+2, r24	; 0x02
    640c:	82 81       	ldd	r24, Z+2	; 0x02
    640e:	88 23       	and	r24, r24
    6410:	09 f4       	brne	.+2      	; 0x6414 <xio_readln_usart+0x74>
		dx->rx_buf_tail = RX_BUFFER_SIZE-1;	// -1 avoids off-by-one error (OBOE)
    6412:	f2 82       	std	Z+2, r15	; 0x02
	}
	d->c = (dx->rx_buf[dx->rx_buf_tail] & 0x007F);	// get char from RX Q & mask MSB
    6414:	82 81       	ldd	r24, Z+2	; 0x02
    6416:	e8 0f       	add	r30, r24
    6418:	f1 1d       	adc	r31, r1
    641a:	83 85       	ldd	r24, Z+11	; 0x0b
    641c:	8f 77       	andi	r24, 0x7F	; 127
    641e:	8c 83       	std	Y+4, r24	; 0x04
	return (((fptr_int_void)(pgm_read_word(&readlnFuncs[d->c])))()); // dispatch char
    6420:	90 e0       	ldi	r25, 0x00	; 0
    6422:	88 0f       	add	r24, r24
    6424:	99 1f       	adc	r25, r25
    6426:	85 52       	subi	r24, 0x25	; 37
    6428:	95 4e       	sbci	r25, 0xE5	; 229
    642a:	fc 01       	movw	r30, r24
    642c:	25 91       	lpm	r18, Z+
    642e:	34 91       	lpm	r19, Z+
    6430:	f9 01       	movw	r30, r18
    6432:	19 95       	eicall
		d->buf = buf;
		d->sig = XIO_SIG_OK;					// reset signal register
		d->flags |= XIO_FLAG_IN_LINE_bm;		// yes, we are busy getting a line
	}
	while (TRUE) { 
		switch (d->status = _xio_readc_usart(dev, d->buf)) {
    6434:	8a 83       	std	Y+2, r24	; 0x02
    6436:	88 30       	cpi	r24, 0x08	; 8
    6438:	41 f0       	breq	.+16     	; 0x644a <xio_readln_usart+0xaa>
    643a:	8a 30       	cpi	r24, 0x0A	; 10
    643c:	19 f0       	breq	.+6      	; 0x6444 <xio_readln_usart+0xa4>
    643e:	84 30       	cpi	r24, 0x04	; 4
    6440:	c1 f6       	brne	.-80     	; 0x63f2 <xio_readln_usart+0x52>
    6442:	06 c0       	rjmp	.+12     	; 0x6450 <xio_readln_usart+0xb0>
    6444:	2a e0       	ldi	r18, 0x0A	; 10
    6446:	30 e0       	ldi	r19, 0x00	; 0
    6448:	05 c0       	rjmp	.+10     	; 0x6454 <xio_readln_usart+0xb4>
    644a:	22 e0       	ldi	r18, 0x02	; 2
    644c:	30 e0       	ldi	r19, 0x00	; 0
    644e:	02 c0       	rjmp	.+4      	; 0x6454 <xio_readln_usart+0xb4>
    6450:	20 e0       	ldi	r18, 0x00	; 0
    6452:	30 e0       	ldi	r19, 0x00	; 0
			case (XIO_EAGAIN): break;							// loop
		}
		// +++ put a size check here of buffers can overrun.
	}
	return (XIO_OK);
}
    6454:	c9 01       	movw	r24, r18
    6456:	df 91       	pop	r29
    6458:	cf 91       	pop	r28
    645a:	1f 91       	pop	r17
    645c:	0f 91       	pop	r16
    645e:	ff 90       	pop	r15
    6460:	08 95       	ret

00006462 <_readln_char>:

/* xio_usb_readln helper routines */

static int _readln_char(void)
{
	if (ds[gdev].len > ds[gdev].size) {			// trap buffer overflow
    6462:	80 91 16 22 	lds	r24, 0x2216
    6466:	90 e0       	ldi	r25, 0x00	; 0
    6468:	27 e1       	ldi	r18, 0x17	; 23
    646a:	30 e0       	ldi	r19, 0x00	; 0
    646c:	82 9f       	mul	r24, r18
    646e:	d0 01       	movw	r26, r0
    6470:	83 9f       	mul	r24, r19
    6472:	b0 0d       	add	r27, r0
    6474:	92 9f       	mul	r25, r18
    6476:	b0 0d       	add	r27, r0
    6478:	11 24       	eor	r1, r1
    647a:	ac 53       	subi	r26, 0x3C	; 60
    647c:	bb 4d       	sbci	r27, 0xDB	; 219
    647e:	15 96       	adiw	r26, 0x05	; 5
    6480:	9c 91       	ld	r25, X
    6482:	15 97       	sbiw	r26, 0x05	; 5
    6484:	16 96       	adiw	r26, 0x06	; 6
    6486:	2c 91       	ld	r18, X
    6488:	16 97       	sbiw	r26, 0x06	; 6
    648a:	29 17       	cp	r18, r25
    648c:	70 f4       	brcc	.+28     	; 0x64aa <_readln_char+0x48>
		ds[gdev].sig = XIO_SIG_EOL;
    648e:	82 e0       	ldi	r24, 0x02	; 2
    6490:	13 96       	adiw	r26, 0x03	; 3
    6492:	8c 93       	st	X, r24
    6494:	13 97       	sbiw	r26, 0x03	; 3
		ds[gdev].buf[ds[gdev].size] = NUL;		// size is zero based
    6496:	55 96       	adiw	r26, 0x15	; 21
    6498:	ed 91       	ld	r30, X+
    649a:	fc 91       	ld	r31, X
    649c:	56 97       	sbiw	r26, 0x16	; 22
    649e:	e2 0f       	add	r30, r18
    64a0:	f1 1d       	adc	r31, r1
    64a2:	10 82       	st	Z, r1
    64a4:	2a e0       	ldi	r18, 0x0A	; 10
    64a6:	30 e0       	ldi	r19, 0x00	; 0
    64a8:	1e c0       	rjmp	.+60     	; 0x64e6 <_readln_char+0x84>
		return (XIO_BUFFER_FULL_NON_FATAL);
	}
	ds[gdev].buf[ds[gdev].len++] = ds[gdev].c;
    64aa:	55 96       	adiw	r26, 0x15	; 21
    64ac:	ed 91       	ld	r30, X+
    64ae:	fc 91       	ld	r31, X
    64b0:	56 97       	sbiw	r26, 0x16	; 22
    64b2:	e9 0f       	add	r30, r25
    64b4:	f1 1d       	adc	r31, r1
    64b6:	14 96       	adiw	r26, 0x04	; 4
    64b8:	8c 91       	ld	r24, X
    64ba:	14 97       	sbiw	r26, 0x04	; 4
    64bc:	80 83       	st	Z, r24
    64be:	9f 5f       	subi	r25, 0xFF	; 255
    64c0:	15 96       	adiw	r26, 0x05	; 5
    64c2:	9c 93       	st	X, r25
    64c4:	15 97       	sbiw	r26, 0x05	; 5
	if (ECHO(ds[gdev].flags)) ds[gdev].x_putc(ds[gdev].c, stdout);// conditional echo
    64c6:	8c 91       	ld	r24, X
    64c8:	84 ff       	sbrs	r24, 4
    64ca:	0b c0       	rjmp	.+22     	; 0x64e2 <_readln_char+0x80>
    64cc:	60 91 5c 26 	lds	r22, 0x265C
    64d0:	70 91 5d 26 	lds	r23, 0x265D
    64d4:	1b 96       	adiw	r26, 0x0b	; 11
    64d6:	ed 91       	ld	r30, X+
    64d8:	fc 91       	ld	r31, X
    64da:	1c 97       	sbiw	r26, 0x0c	; 12
    64dc:	14 96       	adiw	r26, 0x04	; 4
    64de:	8c 91       	ld	r24, X
    64e0:	19 95       	eicall
    64e2:	22 e0       	ldi	r18, 0x02	; 2
    64e4:	30 e0       	ldi	r19, 0x00	; 0
	return (XIO_EAGAIN);						// line is still in process
}
    64e6:	c9 01       	movw	r24, r18
    64e8:	08 95       	ret

000064ea <_readln_NEWLINE>:

static int _readln_NEWLINE(void)				// handles any valid newline char
{
	ds[gdev].sig = XIO_SIG_EOL;
    64ea:	80 91 16 22 	lds	r24, 0x2216
    64ee:	90 e0       	ldi	r25, 0x00	; 0
    64f0:	27 e1       	ldi	r18, 0x17	; 23
    64f2:	30 e0       	ldi	r19, 0x00	; 0
    64f4:	82 9f       	mul	r24, r18
    64f6:	d0 01       	movw	r26, r0
    64f8:	83 9f       	mul	r24, r19
    64fa:	b0 0d       	add	r27, r0
    64fc:	92 9f       	mul	r25, r18
    64fe:	b0 0d       	add	r27, r0
    6500:	11 24       	eor	r1, r1
    6502:	ac 53       	subi	r26, 0x3C	; 60
    6504:	bb 4d       	sbci	r27, 0xDB	; 219
    6506:	82 e0       	ldi	r24, 0x02	; 2
    6508:	13 96       	adiw	r26, 0x03	; 3
    650a:	8c 93       	st	X, r24
    650c:	13 97       	sbiw	r26, 0x03	; 3
	ds[gdev].buf[ds[gdev].len] = NUL;
    650e:	15 96       	adiw	r26, 0x05	; 5
    6510:	8c 91       	ld	r24, X
    6512:	15 97       	sbiw	r26, 0x05	; 5
    6514:	55 96       	adiw	r26, 0x15	; 21
    6516:	ed 91       	ld	r30, X+
    6518:	fc 91       	ld	r31, X
    651a:	56 97       	sbiw	r26, 0x16	; 22
    651c:	e8 0f       	add	r30, r24
    651e:	f1 1d       	adc	r31, r1
    6520:	10 82       	st	Z, r1
	ds[gdev].flags &= ~XIO_FLAG_IN_LINE_bm;			// clear in-line state (reset)
    6522:	2d 91       	ld	r18, X+
    6524:	3c 91       	ld	r19, X
    6526:	11 97       	sbiw	r26, 0x01	; 1
    6528:	c9 01       	movw	r24, r18
    652a:	9f 7b       	andi	r25, 0xBF	; 191
    652c:	8d 93       	st	X+, r24
    652e:	9c 93       	st	X, r25
    6530:	11 97       	sbiw	r26, 0x01	; 1
	if (ECHO(ds[gdev].flags)) ds[gdev].x_putc('\n',stdout);// echo a newline
    6532:	24 ff       	sbrs	r18, 4
    6534:	0a c0       	rjmp	.+20     	; 0x654a <_readln_NEWLINE+0x60>
    6536:	60 91 5c 26 	lds	r22, 0x265C
    653a:	70 91 5d 26 	lds	r23, 0x265D
    653e:	1b 96       	adiw	r26, 0x0b	; 11
    6540:	ed 91       	ld	r30, X+
    6542:	fc 91       	ld	r31, X
    6544:	1c 97       	sbiw	r26, 0x0c	; 12
    6546:	8a e0       	ldi	r24, 0x0A	; 10
    6548:	19 95       	eicall
	return (XIO_EOL);							// return for end-of-line
}
    654a:	84 e0       	ldi	r24, 0x04	; 4
    654c:	90 e0       	ldi	r25, 0x00	; 0
    654e:	08 95       	ret

00006550 <_readln_SEMICOLON>:

static int _readln_SEMICOLON(void)				// semicolon is a conditional newln
{
	if (SEMICOLONS(ds[gdev].flags)) {
    6550:	80 91 16 22 	lds	r24, 0x2216
    6554:	90 e0       	ldi	r25, 0x00	; 0
    6556:	27 e1       	ldi	r18, 0x17	; 23
    6558:	30 e0       	ldi	r19, 0x00	; 0
    655a:	82 9f       	mul	r24, r18
    655c:	f0 01       	movw	r30, r0
    655e:	83 9f       	mul	r24, r19
    6560:	f0 0d       	add	r31, r0
    6562:	92 9f       	mul	r25, r18
    6564:	f0 0d       	add	r31, r0
    6566:	11 24       	eor	r1, r1
    6568:	ec 53       	subi	r30, 0x3C	; 60
    656a:	fb 4d       	sbci	r31, 0xDB	; 219
    656c:	80 81       	ld	r24, Z
    656e:	87 ff       	sbrs	r24, 7
    6570:	03 c0       	rjmp	.+6      	; 0x6578 <_readln_SEMICOLON+0x28>
		return (_readln_NEWLINE());				// if semi mode treat as an EOL
    6572:	0e 94 75 32 	call	0x64ea	; 0x64ea <_readln_NEWLINE>
    6576:	08 95       	ret
	} else {
		return (_readln_char());				// else treat as any other character
    6578:	0e 94 31 32 	call	0x6462	; 0x6462 <_readln_char>
	}
}
    657c:	08 95       	ret

0000657e <_readln_DELETE>:

static int _readln_DELETE(void)
{
	if (--ds[gdev].len >= 0) {
    657e:	80 91 16 22 	lds	r24, 0x2216
    6582:	90 e0       	ldi	r25, 0x00	; 0
    6584:	27 e1       	ldi	r18, 0x17	; 23
    6586:	30 e0       	ldi	r19, 0x00	; 0
    6588:	82 9f       	mul	r24, r18
    658a:	d0 01       	movw	r26, r0
    658c:	83 9f       	mul	r24, r19
    658e:	b0 0d       	add	r27, r0
    6590:	92 9f       	mul	r25, r18
    6592:	b0 0d       	add	r27, r0
    6594:	11 24       	eor	r1, r1
    6596:	ac 53       	subi	r26, 0x3C	; 60
    6598:	bb 4d       	sbci	r27, 0xDB	; 219
    659a:	15 96       	adiw	r26, 0x05	; 5
    659c:	8c 91       	ld	r24, X
    659e:	15 97       	sbiw	r26, 0x05	; 5
    65a0:	81 50       	subi	r24, 0x01	; 1
    65a2:	15 96       	adiw	r26, 0x05	; 5
    65a4:	8c 93       	st	X, r24
    65a6:	15 97       	sbiw	r26, 0x05	; 5
		if (ECHO(ds[gdev].flags)) ds[gdev].x_putc(ds[gdev].c, stdout);
    65a8:	8c 91       	ld	r24, X
    65aa:	84 ff       	sbrs	r24, 4
    65ac:	0b c0       	rjmp	.+22     	; 0x65c4 <_readln_DELETE+0x46>
    65ae:	60 91 5c 26 	lds	r22, 0x265C
    65b2:	70 91 5d 26 	lds	r23, 0x265D
    65b6:	1b 96       	adiw	r26, 0x0b	; 11
    65b8:	ed 91       	ld	r30, X+
    65ba:	fc 91       	ld	r31, X
    65bc:	1c 97       	sbiw	r26, 0x0c	; 12
    65be:	14 96       	adiw	r26, 0x04	; 4
    65c0:	8c 91       	ld	r24, X
    65c2:	19 95       	eicall
	} else {
		ds[gdev].len = 0;
	}
	return (XIO_EAGAIN);						// line is still in process
}
    65c4:	82 e0       	ldi	r24, 0x02	; 2
    65c6:	90 e0       	ldi	r25, 0x00	; 0
    65c8:	08 95       	ret

000065ca <xio_queue_RX_char_usart>:
 */

void xio_queue_RX_char_usart(const uint8_t dev, const char c)
{
	struct xioDEVICE *d = &ds[dev];				// init device struct pointer
	struct xioUSART *dx = ((struct xioUSART *)(ds[dev].x));// init USART pointer
    65ca:	90 e0       	ldi	r25, 0x00	; 0
    65cc:	27 e1       	ldi	r18, 0x17	; 23
    65ce:	30 e0       	ldi	r19, 0x00	; 0
    65d0:	82 9f       	mul	r24, r18
    65d2:	f0 01       	movw	r30, r0
    65d4:	83 9f       	mul	r24, r19
    65d6:	f0 0d       	add	r31, r0
    65d8:	92 9f       	mul	r25, r18
    65da:	f0 0d       	add	r31, r0
    65dc:	11 24       	eor	r1, r1
    65de:	ec 53       	subi	r30, 0x3C	; 60
    65e0:	fb 4d       	sbci	r31, 0xDB	; 219
    65e2:	81 89       	ldd	r24, Z+17	; 0x11
    65e4:	92 89       	ldd	r25, Z+18	; 0x12

	// trap signals - do not insert into RX queue
	if (c == ETX) {								// trap ^c signal
    65e6:	63 30       	cpi	r22, 0x03	; 3
    65e8:	29 f4       	brne	.+10     	; 0x65f4 <xio_queue_RX_char_usart+0x2a>
		d->sig = XIO_SIG_KILL;					// set signal value
    65ea:	84 e0       	ldi	r24, 0x04	; 4
    65ec:	83 83       	std	Z+3, r24	; 0x03
		signal_etx();							// call app-specific sig handler
    65ee:	0e 94 2b 30 	call	0x6056	; 0x6056 <signal_etx>
    65f2:	08 95       	ret
 */

void xio_queue_RX_char_usart(const uint8_t dev, const char c)
{
	struct xioDEVICE *d = &ds[dev];				// init device struct pointer
	struct xioUSART *dx = ((struct xioUSART *)(ds[dev].x));// init USART pointer
    65f4:	fc 01       	movw	r30, r24
		signal_etx();							// call app-specific sig handler
		return;
	}

	// normal path
	if ((--dx->rx_buf_head) == 0) { 			// wrap condition
    65f6:	83 81       	ldd	r24, Z+3	; 0x03
    65f8:	81 50       	subi	r24, 0x01	; 1
    65fa:	83 83       	std	Z+3, r24	; 0x03
    65fc:	83 81       	ldd	r24, Z+3	; 0x03
    65fe:	88 23       	and	r24, r24
    6600:	11 f4       	brne	.+4      	; 0x6606 <xio_queue_RX_char_usart+0x3c>
		dx->rx_buf_head = RX_BUFFER_SIZE-1;		// -1 avoids the off-by-one error
    6602:	8f e3       	ldi	r24, 0x3F	; 63
    6604:	83 83       	std	Z+3, r24	; 0x03
	}
	if (dx->rx_buf_head != dx->rx_buf_tail) {	// write char unless buffer full
    6606:	93 81       	ldd	r25, Z+3	; 0x03
    6608:	82 81       	ldd	r24, Z+2	; 0x02
    660a:	98 17       	cp	r25, r24
    660c:	29 f0       	breq	.+10     	; 0x6618 <xio_queue_RX_char_usart+0x4e>
		dx->rx_buf[dx->rx_buf_head] = c;		// FAKE INPUT DATA
    660e:	83 81       	ldd	r24, Z+3	; 0x03
    6610:	e8 0f       	add	r30, r24
    6612:	f1 1d       	adc	r31, r1
    6614:	63 87       	std	Z+11, r22	; 0x0b
    6616:	08 95       	ret
		return;
	}
	// buffer-full handling
	if ((++dx->rx_buf_head) > RX_BUFFER_SIZE-1) { // reset the head
    6618:	83 81       	ldd	r24, Z+3	; 0x03
    661a:	8f 5f       	subi	r24, 0xFF	; 255
    661c:	83 83       	std	Z+3, r24	; 0x03
    661e:	83 81       	ldd	r24, Z+3	; 0x03
    6620:	80 34       	cpi	r24, 0x40	; 64
    6622:	10 f0       	brcs	.+4      	; 0x6628 <xio_queue_RX_char_usart+0x5e>
		dx->rx_buf_head = 1;
    6624:	81 e0       	ldi	r24, 0x01	; 1
    6626:	83 83       	std	Z+3, r24	; 0x03
    6628:	08 95       	ret

0000662a <xio_queue_RX_string_usart>:
/*
 * xio_queue_RX_string_usart() - fake ISR to put a string in the RX buffer
 */

void xio_queue_RX_string_usart(const uint8_t dev, const char *buf)
{
    662a:	0f 93       	push	r16
    662c:	1f 93       	push	r17
    662e:	cf 93       	push	r28
    6630:	df 93       	push	r29
    6632:	08 2f       	mov	r16, r24
    6634:	eb 01       	movw	r28, r22
    6636:	10 e0       	ldi	r17, 0x00	; 0
    6638:	03 c0       	rjmp	.+6      	; 0x6640 <xio_queue_RX_string_usart+0x16>
	char c;
	uint8_t i=0;

	while ((c = buf[i++]) != NUL) {
		xio_queue_RX_char_usart(dev, c);
    663a:	80 2f       	mov	r24, r16
    663c:	0e 94 e5 32 	call	0x65ca	; 0x65ca <xio_queue_RX_char_usart>
void xio_queue_RX_string_usart(const uint8_t dev, const char *buf)
{
	char c;
	uint8_t i=0;

	while ((c = buf[i++]) != NUL) {
    6640:	fe 01       	movw	r30, r28
    6642:	e1 0f       	add	r30, r17
    6644:	f1 1d       	adc	r31, r1
    6646:	60 81       	ld	r22, Z
    6648:	1f 5f       	subi	r17, 0xFF	; 255
    664a:	66 23       	and	r22, r22
    664c:	b1 f7       	brne	.-20     	; 0x663a <xio_queue_RX_string_usart+0x10>
		xio_queue_RX_char_usart(dev, c);
	}
}
    664e:	df 91       	pop	r29
    6650:	cf 91       	pop	r28
    6652:	1f 91       	pop	r17
    6654:	0f 91       	pop	r16
    6656:	08 95       	ret

00006658 <xio_init_usart>:
					const struct PORT_struct *port_addr,
					const uint8_t dirclr, 
					const uint8_t dirset, 
					const uint8_t outclr, 
					const uint8_t outset) 
{
    6658:	8f 92       	push	r8
    665a:	9f 92       	push	r9
    665c:	af 92       	push	r10
    665e:	bf 92       	push	r11
    6660:	cf 92       	push	r12
    6662:	df 92       	push	r13
    6664:	ef 92       	push	r14
    6666:	ff 92       	push	r15
    6668:	0f 93       	push	r16
    666a:	1f 93       	push	r17
    666c:	df 93       	push	r29
    666e:	cf 93       	push	r28
    6670:	cd b7       	in	r28, 0x3d	; 61
    6672:	de b7       	in	r29, 0x3e	; 62
    6674:	b8 2e       	mov	r11, r24
    6676:	f4 2e       	mov	r15, r20
    6678:	9c 2c       	mov	r9, r12
	// do all the bindings first (and in this order)
	struct xioDEVICE *d = &ds[dev];					// setup device struct pointer
	d->x = &us[offset];								// bind USART struct to device
    667a:	8b e8       	ldi	r24, 0x8B	; 139
    667c:	68 9f       	mul	r22, r24
    667e:	60 01       	movw	r12, r0
    6680:	11 24       	eor	r1, r1
    6682:	8b e0       	ldi	r24, 0x0B	; 11
    6684:	93 e2       	ldi	r25, 0x23	; 35
    6686:	c8 0e       	add	r12, r24
    6688:	d9 1e       	adc	r13, r25
    668a:	6b 2d       	mov	r22, r11
    668c:	70 e0       	ldi	r23, 0x00	; 0
    668e:	87 e1       	ldi	r24, 0x17	; 23
    6690:	90 e0       	ldi	r25, 0x00	; 0
    6692:	68 9f       	mul	r22, r24
    6694:	f0 01       	movw	r30, r0
    6696:	69 9f       	mul	r22, r25
    6698:	f0 0d       	add	r31, r0
    669a:	78 9f       	mul	r23, r24
    669c:	f0 0d       	add	r31, r0
    669e:	11 24       	eor	r1, r1
    66a0:	ec 53       	subi	r30, 0x3C	; 60
    66a2:	fb 4d       	sbci	r31, 0xDB	; 219
    66a4:	c1 8a       	std	Z+17, r12	; 0x11
    66a6:	d2 8a       	std	Z+18, r13	; 0x12
	struct xioUSART *dx = (struct xioUSART *)d->x;	// setup USART struct pointer
	dx->usart = (struct USART_struct *)usart_addr;	// bind USART 
    66a8:	d6 01       	movw	r26, r12
    66aa:	17 96       	adiw	r26, 0x07	; 7
    66ac:	2d 93       	st	X+, r18
    66ae:	3c 93       	st	X, r19
    66b0:	18 97       	sbiw	r26, 0x08	; 8
	dx->port = (struct PORT_struct *)port_addr;		// bind PORT
    66b2:	19 96       	adiw	r26, 0x09	; 9
    66b4:	0d 93       	st	X+, r16
    66b6:	1c 93       	st	X, r17
    66b8:	1a 97       	sbiw	r26, 0x0a	; 10

	// set flags
	xio_setflags(dev, control);		// generic setflags - doesn't validate flags
    66ba:	8b 2d       	mov	r24, r11
    66bc:	64 2f       	mov	r22, r20
    66be:	75 2f       	mov	r23, r21
    66c0:	0e 94 81 28 	call	0x5102	; 0x5102 <xio_setflags>

	// setup internal RX/TX buffers
	dx->rx_buf_head = 1;			// can't use location 0 in circular buffer
    66c4:	81 e0       	ldi	r24, 0x01	; 1
    66c6:	f6 01       	movw	r30, r12
    66c8:	83 83       	std	Z+3, r24	; 0x03
	dx->rx_buf_tail = 1;
    66ca:	82 83       	std	Z+2, r24	; 0x02
	dx->tx_buf_head = 1;
    66cc:	85 83       	std	Z+5, r24	; 0x05
	dx->tx_buf_tail = 1;
    66ce:	84 83       	std	Z+4, r24	; 0x04

	// baud rate and USART setup
	uint8_t baud = (uint8_t)(control & XIO_BAUD_gm);
    66d0:	4f 2d       	mov	r20, r15
    66d2:	4f 70       	andi	r20, 0x0F	; 15
	if (baud == XIO_BAUD_UNSPECIFIED) { baud = XIO_BAUD_DEFAULT; }
    66d4:	09 f4       	brne	.+2      	; 0x66d8 <xio_init_usart+0x80>
    66d6:	45 e0       	ldi	r20, 0x05	; 5
	dx->port->OUTSET = outset;
}

void xio_set_baud_usart(const uint8_t dev, const uint8_t baud)
{
	((struct xioUSART *)(ds[dev].x))->usart->BAUDCTRLA = (uint8_t)pgm_read_byte(&bsel[baud]);
    66d8:	2b 2d       	mov	r18, r11
    66da:	30 e0       	ldi	r19, 0x00	; 0
    66dc:	87 e1       	ldi	r24, 0x17	; 23
    66de:	90 e0       	ldi	r25, 0x00	; 0
    66e0:	28 9f       	mul	r18, r24
    66e2:	d0 01       	movw	r26, r0
    66e4:	29 9f       	mul	r18, r25
    66e6:	b0 0d       	add	r27, r0
    66e8:	38 9f       	mul	r19, r24
    66ea:	b0 0d       	add	r27, r0
    66ec:	11 24       	eor	r1, r1
    66ee:	ac 53       	subi	r26, 0x3C	; 60
    66f0:	bb 4d       	sbci	r27, 0xDB	; 219
    66f2:	51 96       	adiw	r26, 0x11	; 17
    66f4:	ed 91       	ld	r30, X+
    66f6:	fc 91       	ld	r31, X
    66f8:	52 97       	sbiw	r26, 0x12	; 18
    66fa:	87 81       	ldd	r24, Z+7	; 0x07
    66fc:	90 85       	ldd	r25, Z+8	; 0x08
    66fe:	24 2f       	mov	r18, r20
    6700:	30 e0       	ldi	r19, 0x00	; 0
    6702:	f9 01       	movw	r30, r18
    6704:	eb 53       	subi	r30, 0x3B	; 59
    6706:	f5 4e       	sbci	r31, 0xE5	; 229
    6708:	44 91       	lpm	r20, Z+
    670a:	fc 01       	movw	r30, r24
    670c:	46 83       	std	Z+6, r20	; 0x06
	((struct xioUSART *)(ds[dev].x))->usart->BAUDCTRLB = (uint8_t)pgm_read_byte(&bscale[baud]);
    670e:	51 96       	adiw	r26, 0x11	; 17
    6710:	ed 91       	ld	r30, X+
    6712:	fc 91       	ld	r31, X
    6714:	52 97       	sbiw	r26, 0x12	; 18
    6716:	a7 81       	ldd	r26, Z+7	; 0x07
    6718:	b0 85       	ldd	r27, Z+8	; 0x08
    671a:	20 53       	subi	r18, 0x30	; 48
    671c:	35 4e       	sbci	r19, 0xE5	; 229
    671e:	f9 01       	movw	r30, r18
    6720:	f4 90       	lpm	r15, Z+
    6722:	17 96       	adiw	r26, 0x07	; 7
    6724:	fc 92       	st	X, r15
	// baud rate and USART setup
	uint8_t baud = (uint8_t)(control & XIO_BAUD_gm);
	if (baud == XIO_BAUD_UNSPECIFIED) { baud = XIO_BAUD_DEFAULT; }
	xio_set_baud_usart(dev, baud);					// usart must be bound first

	dx->usart->CTRLB = USART_TXEN_bm | USART_RXEN_bm;// enable tx and rx
    6726:	d6 01       	movw	r26, r12
    6728:	17 96       	adiw	r26, 0x07	; 7
    672a:	ed 91       	ld	r30, X+
    672c:	fc 91       	ld	r31, X
    672e:	18 97       	sbiw	r26, 0x08	; 8
    6730:	88 e1       	ldi	r24, 0x18	; 24
    6732:	84 83       	std	Z+4, r24	; 0x04
	dx->usart->CTRLA = CTRLA_RXON_TXON;			   // enable tx and rx IRQs
    6734:	17 96       	adiw	r26, 0x07	; 7
    6736:	ed 91       	ld	r30, X+
    6738:	fc 91       	ld	r31, X
    673a:	18 97       	sbiw	r26, 0x08	; 8
    673c:	81 e2       	ldi	r24, 0x21	; 33
    673e:	83 83       	std	Z+3, r24	; 0x03

	dx->port->DIRCLR = dirclr;
    6740:	19 96       	adiw	r26, 0x09	; 9
    6742:	ed 91       	ld	r30, X+
    6744:	fc 91       	ld	r31, X
    6746:	1a 97       	sbiw	r26, 0x0a	; 10
    6748:	e2 82       	std	Z+2, r14	; 0x02
	dx->port->DIRSET = dirset;
    674a:	19 96       	adiw	r26, 0x09	; 9
    674c:	ed 91       	ld	r30, X+
    674e:	fc 91       	ld	r31, X
    6750:	1a 97       	sbiw	r26, 0x0a	; 10
    6752:	91 82       	std	Z+1, r9	; 0x01
	dx->port->OUTCLR = outclr;
    6754:	19 96       	adiw	r26, 0x09	; 9
    6756:	ed 91       	ld	r30, X+
    6758:	fc 91       	ld	r31, X
    675a:	1a 97       	sbiw	r26, 0x0a	; 10
    675c:	a6 82       	std	Z+6, r10	; 0x06
	dx->port->OUTSET = outset;
    675e:	19 96       	adiw	r26, 0x09	; 9
    6760:	ed 91       	ld	r30, X+
    6762:	fc 91       	ld	r31, X
    6764:	1a 97       	sbiw	r26, 0x0a	; 10
    6766:	85 82       	std	Z+5, r8	; 0x05
}
    6768:	cf 91       	pop	r28
    676a:	df 91       	pop	r29
    676c:	1f 91       	pop	r17
    676e:	0f 91       	pop	r16
    6770:	ff 90       	pop	r15
    6772:	ef 90       	pop	r14
    6774:	df 90       	pop	r13
    6776:	cf 90       	pop	r12
    6778:	bf 90       	pop	r11
    677a:	af 90       	pop	r10
    677c:	9f 90       	pop	r9
    677e:	8f 90       	pop	r8
    6780:	08 95       	ret

00006782 <xio_open_usb>:

#define USB ds[XIO_DEV_USB]			// device struct accessoor
#define USBu us[XIO_DEV_USB_OFFSET]	// usart extended struct accessor

/* USB Device specific entry points to USART routines */
FILE * xio_open_usb() {return(USB.fdev);}
    6782:	80 91 ee 24 	lds	r24, 0x24EE
    6786:	90 91 ef 24 	lds	r25, 0x24EF
    678a:	08 95       	ret

0000678c <__vector_26>:
 * these two callers don't collide (like only enabling interrupts in putc() AFTER
 * the dequeue has occurred).
 */

ISR(USB_TX_ISR_vect)	//ISR(USARTC0_DRE_vect)	// USARTC0 data register empty
{
    678c:	1f 92       	push	r1
    678e:	0f 92       	push	r0
    6790:	0f b6       	in	r0, 0x3f	; 63
    6792:	0f 92       	push	r0
    6794:	0b b6       	in	r0, 0x3b	; 59
    6796:	0f 92       	push	r0
    6798:	11 24       	eor	r1, r1
    679a:	8f 93       	push	r24
    679c:	9f 93       	push	r25
    679e:	af 93       	push	r26
    67a0:	bf 93       	push	r27
    67a2:	ef 93       	push	r30
    67a4:	ff 93       	push	r31
	if (USBu.tx_buf_head == USBu.tx_buf_tail) {	// buffer empty - disable ints
    67a6:	90 91 9b 23 	lds	r25, 0x239B
    67aa:	80 91 9a 23 	lds	r24, 0x239A
    67ae:	98 17       	cp	r25, r24
    67b0:	39 f4       	brne	.+14     	; 0x67c0 <__vector_26+0x34>
		USBu.usart->CTRLA = CTRLA_RXON_TXOFF;	// won't work if you just &= it
    67b2:	e0 91 9d 23 	lds	r30, 0x239D
    67b6:	f0 91 9e 23 	lds	r31, 0x239E
    67ba:	80 e2       	ldi	r24, 0x20	; 32
    67bc:	83 83       	std	Z+3, r24	; 0x03
    67be:	1d c0       	rjmp	.+58     	; 0x67fa <__vector_26+0x6e>
//		PMIC_DisableLowLevel(); 				// disable USART TX interrupts
		return;
	}
	if (!TX_MUTEX(USB.flags)) {
    67c0:	80 91 db 24 	lds	r24, 0x24DB
    67c4:	90 91 dc 24 	lds	r25, 0x24DC
    67c8:	93 fd       	sbrc	r25, 3
    67ca:	17 c0       	rjmp	.+46     	; 0x67fa <__vector_26+0x6e>
		if (--(USBu.tx_buf_tail) == 0) {		// advance tail and wrap 
    67cc:	80 91 9a 23 	lds	r24, 0x239A
    67d0:	81 50       	subi	r24, 0x01	; 1
    67d2:	80 93 9a 23 	sts	0x239A, r24
    67d6:	80 91 9a 23 	lds	r24, 0x239A
    67da:	88 23       	and	r24, r24
    67dc:	19 f4       	brne	.+6      	; 0x67e4 <__vector_26+0x58>
			USBu.tx_buf_tail = TX_BUFFER_SIZE-1;// -1 avoids off-by-one err (OBOE)
    67de:	8f e3       	ldi	r24, 0x3F	; 63
    67e0:	80 93 9a 23 	sts	0x239A, r24
		}
		USBu.usart->DATA = USBu.tx_buf[USBu.tx_buf_tail]; // write to TX DATA reg
    67e4:	e0 91 9d 23 	lds	r30, 0x239D
    67e8:	f0 91 9e 23 	lds	r31, 0x239E
    67ec:	a0 91 9a 23 	lds	r26, 0x239A
    67f0:	b0 e0       	ldi	r27, 0x00	; 0
    67f2:	af 51       	subi	r26, 0x1F	; 31
    67f4:	bc 4d       	sbci	r27, 0xDC	; 220
    67f6:	8c 91       	ld	r24, X
    67f8:	80 83       	st	Z, r24
	}
}
    67fa:	ff 91       	pop	r31
    67fc:	ef 91       	pop	r30
    67fe:	bf 91       	pop	r27
    6800:	af 91       	pop	r26
    6802:	9f 91       	pop	r25
    6804:	8f 91       	pop	r24
    6806:	0f 90       	pop	r0
    6808:	0b be       	out	0x3b, r0	; 59
    680a:	0f 90       	pop	r0
    680c:	0f be       	out	0x3f, r0	; 63
    680e:	0f 90       	pop	r0
    6810:	1f 90       	pop	r1
    6812:	18 95       	reti

00006814 <__vector_25>:
 *
 * 	See end notes in xio.h for a discussion of how the circular buffers work
 */

ISR(USB_RX_ISR_vect)	//ISR(USARTC0_RXC_vect)	// serial port C0 RX interrupt 
{
    6814:	1f 92       	push	r1
    6816:	0f 92       	push	r0
    6818:	0f b6       	in	r0, 0x3f	; 63
    681a:	0f 92       	push	r0
    681c:	0b b6       	in	r0, 0x3b	; 59
    681e:	0f 92       	push	r0
    6820:	11 24       	eor	r1, r1
    6822:	2f 93       	push	r18
    6824:	3f 93       	push	r19
    6826:	4f 93       	push	r20
    6828:	5f 93       	push	r21
    682a:	6f 93       	push	r22
    682c:	7f 93       	push	r23
    682e:	8f 93       	push	r24
    6830:	9f 93       	push	r25
    6832:	af 93       	push	r26
    6834:	bf 93       	push	r27
    6836:	ef 93       	push	r30
    6838:	ff 93       	push	r31
	uint8_t c = USBu.usart->DATA;				// can only read DATA once
    683a:	e0 91 9d 23 	lds	r30, 0x239D
    683e:	f0 91 9e 23 	lds	r31, 0x239E
    6842:	20 81       	ld	r18, Z

	// trap signals - do not insert character into RX queue
	if (c == ETX) {								// trap ^c signal
    6844:	23 30       	cpi	r18, 0x03	; 3
    6846:	31 f4       	brne	.+12     	; 0x6854 <__vector_25+0x40>
		USB.sig = XIO_SIG_KILL;					// set signal value
    6848:	84 e0       	ldi	r24, 0x04	; 4
    684a:	80 93 de 24 	sts	0x24DE, r24
		signal_etx();							// call app-specific signal handler
    684e:	0e 94 2b 30 	call	0x6056	; 0x6056 <signal_etx>
    6852:	25 c0       	rjmp	.+74     	; 0x689e <__vector_25+0x8a>
		return;
	}

	// normal character path
	if ((--USBu.rx_buf_head) == 0) { 			// advance buffer head with wrap
    6854:	80 91 99 23 	lds	r24, 0x2399
    6858:	81 50       	subi	r24, 0x01	; 1
    685a:	80 93 99 23 	sts	0x2399, r24
    685e:	80 91 99 23 	lds	r24, 0x2399
    6862:	88 23       	and	r24, r24
    6864:	19 f4       	brne	.+6      	; 0x686c <__vector_25+0x58>
		USBu.rx_buf_head = RX_BUFFER_SIZE-1;	// -1 avoids the off-by-one error
    6866:	8f e3       	ldi	r24, 0x3F	; 63
    6868:	80 93 99 23 	sts	0x2399, r24
	}
	if (USBu.rx_buf_head != USBu.rx_buf_tail) {	// write char unless buffer full
    686c:	90 91 99 23 	lds	r25, 0x2399
    6870:	80 91 98 23 	lds	r24, 0x2398
    6874:	98 17       	cp	r25, r24
    6876:	39 f0       	breq	.+14     	; 0x6886 <__vector_25+0x72>
		USBu.rx_buf[USBu.rx_buf_head] = c;
    6878:	e0 91 99 23 	lds	r30, 0x2399
    687c:	f0 e0       	ldi	r31, 0x00	; 0
    687e:	ef 55       	subi	r30, 0x5F	; 95
    6880:	fc 4d       	sbci	r31, 0xDC	; 220
    6882:	20 83       	st	Z, r18
    6884:	0c c0       	rjmp	.+24     	; 0x689e <__vector_25+0x8a>
		return;
	}
	// buffer-full handling
	if ((++USBu.rx_buf_head) > RX_BUFFER_SIZE-1) { // reset the head
    6886:	80 91 99 23 	lds	r24, 0x2399
    688a:	8f 5f       	subi	r24, 0xFF	; 255
    688c:	80 93 99 23 	sts	0x2399, r24
    6890:	80 91 99 23 	lds	r24, 0x2399
    6894:	80 34       	cpi	r24, 0x40	; 64
    6896:	18 f0       	brcs	.+6      	; 0x689e <__vector_25+0x8a>
		USBu.rx_buf_head = 1;
    6898:	81 e0       	ldi	r24, 0x01	; 1
    689a:	80 93 99 23 	sts	0x2399, r24
	}
	// activate flow control here or before it gets to this level
}
    689e:	ff 91       	pop	r31
    68a0:	ef 91       	pop	r30
    68a2:	bf 91       	pop	r27
    68a4:	af 91       	pop	r26
    68a6:	9f 91       	pop	r25
    68a8:	8f 91       	pop	r24
    68aa:	7f 91       	pop	r23
    68ac:	6f 91       	pop	r22
    68ae:	5f 91       	pop	r21
    68b0:	4f 91       	pop	r20
    68b2:	3f 91       	pop	r19
    68b4:	2f 91       	pop	r18
    68b6:	0f 90       	pop	r0
    68b8:	0b be       	out	0x3b, r0	; 59
    68ba:	0f 90       	pop	r0
    68bc:	0f be       	out	0x3f, r0	; 63
    68be:	0f 90       	pop	r0
    68c0:	1f 90       	pop	r1
    68c2:	18 95       	reti

000068c4 <xio_init_usb>:
int xio_readln_usb(char *buf, const uint8_t size) {return xio_readln_usart(XIO_DEV_USB, buf, size);}
void xio_queue_RX_char_usb(const char c) {xio_queue_RX_char_usart(XIO_DEV_USB, c);}
void xio_queue_RX_string_usb(const char *buf) {xio_queue_RX_string_usart(XIO_DEV_USB, buf);}

void xio_init_usb()	// USB inits
{
    68c4:	8f 92       	push	r8
    68c6:	af 92       	push	r10
    68c8:	cf 92       	push	r12
    68ca:	ef 92       	push	r14
    68cc:	ff 92       	push	r15
    68ce:	0f 93       	push	r16
    68d0:	1f 93       	push	r17
	xio_init_dev(XIO_DEV_USB, xio_open_usb, xio_setflags_usb, xio_putc_usb, xio_getc_usb, xio_readln_usb);
    68d2:	81 e0       	ldi	r24, 0x01	; 1
    68d4:	61 ec       	ldi	r22, 0xC1	; 193
    68d6:	73 e3       	ldi	r23, 0x33	; 51
    68d8:	4e ea       	ldi	r20, 0xAE	; 174
    68da:	54 e3       	ldi	r21, 0x34	; 52
    68dc:	27 ea       	ldi	r18, 0xA7	; 167
    68de:	34 e3       	ldi	r19, 0x34	; 52
    68e0:	02 ea       	ldi	r16, 0xA2	; 162
    68e2:	14 e3       	ldi	r17, 0x34	; 52
    68e4:	fb e9       	ldi	r31, 0x9B	; 155
    68e6:	ef 2e       	mov	r14, r31
    68e8:	f4 e3       	ldi	r31, 0x34	; 52
    68ea:	ff 2e       	mov	r15, r31
    68ec:	0e 94 6a 29 	call	0x52d4	; 0x52d4 <xio_init_dev>
	xio_init_usart(XIO_DEV_USB, XIO_DEV_USB_OFFSET, USB_INIT_bm, &USB_USART, &USB_PORT, USB_DIRCLR_bm, USB_DIRSET_bm, USB_OUTCLR_bm, USB_OUTSET_bm);
    68f0:	81 e0       	ldi	r24, 0x01	; 1
    68f2:	61 e0       	ldi	r22, 0x01	; 1
    68f4:	45 e7       	ldi	r20, 0x75	; 117
    68f6:	55 e5       	ldi	r21, 0x55	; 85
    68f8:	20 ea       	ldi	r18, 0xA0	; 160
    68fa:	38 e0       	ldi	r19, 0x08	; 8
    68fc:	00 e4       	ldi	r16, 0x40	; 64
    68fe:	16 e0       	ldi	r17, 0x06	; 6
    6900:	e5 e0       	ldi	r30, 0x05	; 5
    6902:	ee 2e       	mov	r14, r30
    6904:	7a e0       	ldi	r23, 0x0A	; 10
    6906:	c7 2e       	mov	r12, r23
    6908:	aa 24       	eor	r10, r10
    690a:	9a e0       	ldi	r25, 0x0A	; 10
    690c:	89 2e       	mov	r8, r25
    690e:	0e 94 2c 33 	call	0x6658	; 0x6658 <xio_init_usart>
}
    6912:	1f 91       	pop	r17
    6914:	0f 91       	pop	r16
    6916:	ff 90       	pop	r15
    6918:	ef 90       	pop	r14
    691a:	cf 90       	pop	r12
    691c:	af 90       	pop	r10
    691e:	8f 90       	pop	r8
    6920:	08 95       	ret

00006922 <xio_queue_RX_string_usb>:
int xio_setflags_usb(const uint16_t control) {return xio_setflags(XIO_DEV_USB, control);} // SEE NOTE
int xio_putc_usb(const char c, FILE *stream) {return xio_putc_usart(XIO_DEV_USB, c, stream);}
int xio_getc_usb(FILE *stream) {return xio_getc_usart(XIO_DEV_USB, stream);}
int xio_readln_usb(char *buf, const uint8_t size) {return xio_readln_usart(XIO_DEV_USB, buf, size);}
void xio_queue_RX_char_usb(const char c) {xio_queue_RX_char_usart(XIO_DEV_USB, c);}
void xio_queue_RX_string_usb(const char *buf) {xio_queue_RX_string_usart(XIO_DEV_USB, buf);}
    6922:	bc 01       	movw	r22, r24
    6924:	81 e0       	ldi	r24, 0x01	; 1
    6926:	0e 94 15 33 	call	0x662a	; 0x662a <xio_queue_RX_string_usart>
    692a:	08 95       	ret

0000692c <xio_queue_RX_char_usb>:
FILE * xio_open_usb() {return(USB.fdev);}
int xio_setflags_usb(const uint16_t control) {return xio_setflags(XIO_DEV_USB, control);} // SEE NOTE
int xio_putc_usb(const char c, FILE *stream) {return xio_putc_usart(XIO_DEV_USB, c, stream);}
int xio_getc_usb(FILE *stream) {return xio_getc_usart(XIO_DEV_USB, stream);}
int xio_readln_usb(char *buf, const uint8_t size) {return xio_readln_usart(XIO_DEV_USB, buf, size);}
void xio_queue_RX_char_usb(const char c) {xio_queue_RX_char_usart(XIO_DEV_USB, c);}
    692c:	68 2f       	mov	r22, r24
    692e:	81 e0       	ldi	r24, 0x01	; 1
    6930:	0e 94 e5 32 	call	0x65ca	; 0x65ca <xio_queue_RX_char_usart>
    6934:	08 95       	ret

00006936 <xio_readln_usb>:
/* USB Device specific entry points to USART routines */
FILE * xio_open_usb() {return(USB.fdev);}
int xio_setflags_usb(const uint16_t control) {return xio_setflags(XIO_DEV_USB, control);} // SEE NOTE
int xio_putc_usb(const char c, FILE *stream) {return xio_putc_usart(XIO_DEV_USB, c, stream);}
int xio_getc_usb(FILE *stream) {return xio_getc_usart(XIO_DEV_USB, stream);}
int xio_readln_usb(char *buf, const uint8_t size) {return xio_readln_usart(XIO_DEV_USB, buf, size);}
    6936:	9c 01       	movw	r18, r24
    6938:	46 2f       	mov	r20, r22
    693a:	81 e0       	ldi	r24, 0x01	; 1
    693c:	b9 01       	movw	r22, r18
    693e:	0e 94 d0 31 	call	0x63a0	; 0x63a0 <xio_readln_usart>
    6942:	08 95       	ret

00006944 <xio_getc_usb>:

/* USB Device specific entry points to USART routines */
FILE * xio_open_usb() {return(USB.fdev);}
int xio_setflags_usb(const uint16_t control) {return xio_setflags(XIO_DEV_USB, control);} // SEE NOTE
int xio_putc_usb(const char c, FILE *stream) {return xio_putc_usart(XIO_DEV_USB, c, stream);}
int xio_getc_usb(FILE *stream) {return xio_getc_usart(XIO_DEV_USB, stream);}
    6944:	bc 01       	movw	r22, r24
    6946:	81 e0       	ldi	r24, 0x01	; 1
    6948:	0e 94 ed 30 	call	0x61da	; 0x61da <xio_getc_usart>
    694c:	08 95       	ret

0000694e <xio_putc_usb>:
#define USBu us[XIO_DEV_USB_OFFSET]	// usart extended struct accessor

/* USB Device specific entry points to USART routines */
FILE * xio_open_usb() {return(USB.fdev);}
int xio_setflags_usb(const uint16_t control) {return xio_setflags(XIO_DEV_USB, control);} // SEE NOTE
int xio_putc_usb(const char c, FILE *stream) {return xio_putc_usart(XIO_DEV_USB, c, stream);}
    694e:	98 2f       	mov	r25, r24
    6950:	ab 01       	movw	r20, r22
    6952:	81 e0       	ldi	r24, 0x01	; 1
    6954:	69 2f       	mov	r22, r25
    6956:	0e 94 5b 30 	call	0x60b6	; 0x60b6 <xio_putc_usart>
    695a:	08 95       	ret

0000695c <xio_setflags_usb>:
#define USB ds[XIO_DEV_USB]			// device struct accessoor
#define USBu us[XIO_DEV_USB_OFFSET]	// usart extended struct accessor

/* USB Device specific entry points to USART routines */
FILE * xio_open_usb() {return(USB.fdev);}
int xio_setflags_usb(const uint16_t control) {return xio_setflags(XIO_DEV_USB, control);} // SEE NOTE
    695c:	bc 01       	movw	r22, r24
    695e:	81 e0       	ldi	r24, 0x01	; 1
    6960:	0e 94 81 28 	call	0x5102	; 0x5102 <xio_setflags>
    6964:	08 95       	ret

00006966 <xio_open_rs485>:

#define RS ds[XIO_DEV_RS485]			// device struct accessoor
#define RSu us[XIO_DEV_RS485_OFFSET]	// usart extended struct accessor

/* RS485 device specific entry points to USART routines */
struct __file * xio_open_rs485() { return(RS.fdev); }
    6966:	80 91 d7 24 	lds	r24, 0x24D7
    696a:	90 91 d8 24 	lds	r25, 0x24D8
    696e:	08 95       	ret

00006970 <__vector_29>:
 * these two callers don't collide (like only enabling interrupts in putc() AFTER
 * the dequeue has occurred).
 */

ISR(RS485_TX_ISR_vect)		//ISR(USARTC1_DRE_vect)	// USARTC1 data register empty
{
    6970:	1f 92       	push	r1
    6972:	0f 92       	push	r0
    6974:	0f b6       	in	r0, 0x3f	; 63
    6976:	0f 92       	push	r0
    6978:	0b b6       	in	r0, 0x3b	; 59
    697a:	0f 92       	push	r0
    697c:	11 24       	eor	r1, r1
    697e:	8f 93       	push	r24
    6980:	9f 93       	push	r25
    6982:	af 93       	push	r26
    6984:	bf 93       	push	r27
    6986:	ef 93       	push	r30
    6988:	ff 93       	push	r31
	if (RSu.tx_buf_head == RSu.tx_buf_tail) {	// buffer empty - disable ints (Note)
    698a:	90 91 10 23 	lds	r25, 0x2310
    698e:	80 91 0f 23 	lds	r24, 0x230F
    6992:	98 17       	cp	r25, r24
    6994:	39 f4       	brne	.+14     	; 0x69a4 <__vector_29+0x34>
		RSu.usart->CTRLA = CTRLA_RXON_TXOFF_TXCON;	// doesn't work if you just &= it
    6996:	e0 91 12 23 	lds	r30, 0x2312
    699a:	f0 91 13 23 	lds	r31, 0x2313
    699e:	84 e2       	ldi	r24, 0x24	; 36
    69a0:	83 83       	std	Z+3, r24	; 0x03
    69a2:	23 c0       	rjmp	.+70     	; 0x69ea <__vector_29+0x7a>
//		PMIC_DisableLowLevel(); 				// disable USART TX interrupts
		return;
	}
	if (!TX_MUTEX(RS.flags)) {
    69a4:	80 91 c4 24 	lds	r24, 0x24C4
    69a8:	90 91 c5 24 	lds	r25, 0x24C5
    69ac:	93 fd       	sbrc	r25, 3
    69ae:	1d c0       	rjmp	.+58     	; 0x69ea <__vector_29+0x7a>
		if (--(RSu.tx_buf_tail) == 0) {			// advance tail and wrap if needed
    69b0:	80 91 0f 23 	lds	r24, 0x230F
    69b4:	81 50       	subi	r24, 0x01	; 1
    69b6:	80 93 0f 23 	sts	0x230F, r24
    69ba:	80 91 0f 23 	lds	r24, 0x230F
    69be:	88 23       	and	r24, r24
    69c0:	19 f4       	brne	.+6      	; 0x69c8 <__vector_29+0x58>
			RSu.tx_buf_tail = TX_BUFFER_SIZE-1;	// -1 avoids off-by-one error (OBOE)
    69c2:	8f e3       	ldi	r24, 0x3F	; 63
    69c4:	80 93 0f 23 	sts	0x230F, r24
		}
		RSu.port->OUTSET = (RS485_DE_bm | RS485_RE_bm);	// enable DE (TX, active hi)
    69c8:	e0 91 14 23 	lds	r30, 0x2314
    69cc:	f0 91 15 23 	lds	r31, 0x2315
    69d0:	80 e3       	ldi	r24, 0x30	; 48
    69d2:	85 83       	std	Z+5, r24	; 0x05
														// disable RE (RX, active lo)
		RSu.usart->DATA = RSu.tx_buf[RSu.tx_buf_tail];	// write char to TX DATA reg
    69d4:	a0 91 12 23 	lds	r26, 0x2312
    69d8:	b0 91 13 23 	lds	r27, 0x2313
    69dc:	e0 91 0f 23 	lds	r30, 0x230F
    69e0:	f0 e0       	ldi	r31, 0x00	; 0
    69e2:	ea 5a       	subi	r30, 0xAA	; 170
    69e4:	fc 4d       	sbci	r31, 0xDC	; 220
    69e6:	80 81       	ld	r24, Z
    69e8:	8c 93       	st	X, r24
	}
}
    69ea:	ff 91       	pop	r31
    69ec:	ef 91       	pop	r30
    69ee:	bf 91       	pop	r27
    69f0:	af 91       	pop	r26
    69f2:	9f 91       	pop	r25
    69f4:	8f 91       	pop	r24
    69f6:	0f 90       	pop	r0
    69f8:	0b be       	out	0x3b, r0	; 59
    69fa:	0f 90       	pop	r0
    69fc:	0f be       	out	0x3f, r0	; 63
    69fe:	0f 90       	pop	r0
    6a00:	1f 90       	pop	r1
    6a02:	18 95       	reti

00006a04 <__vector_30>:

/* Note: Finding a buffer empty condition on the first byte of a string is common 
 * as the TX byte is often written by the task itself */

ISR(RS485_TXC_ISR_vect)		// ISR(USARTC1_TXC_vect) // USARTC1 transmission complete
{
    6a04:	1f 92       	push	r1
    6a06:	0f 92       	push	r0
    6a08:	0f b6       	in	r0, 0x3f	; 63
    6a0a:	0f 92       	push	r0
    6a0c:	0b b6       	in	r0, 0x3b	; 59
    6a0e:	0f 92       	push	r0
    6a10:	11 24       	eor	r1, r1
    6a12:	8f 93       	push	r24
    6a14:	ef 93       	push	r30
    6a16:	ff 93       	push	r31
//	_delay_us(10);
	RSu.port->OUTCLR = (RS485_DE_bm | RS485_RE_bm);	// disable DE (TX), enable RE (RX)
    6a18:	e0 91 14 23 	lds	r30, 0x2314
    6a1c:	f0 91 15 23 	lds	r31, 0x2315
    6a20:	80 e3       	ldi	r24, 0x30	; 48
    6a22:	86 83       	std	Z+6, r24	; 0x06
}
    6a24:	ff 91       	pop	r31
    6a26:	ef 91       	pop	r30
    6a28:	8f 91       	pop	r24
    6a2a:	0f 90       	pop	r0
    6a2c:	0b be       	out	0x3b, r0	; 59
    6a2e:	0f 90       	pop	r0
    6a30:	0f be       	out	0x3f, r0	; 63
    6a32:	0f 90       	pop	r0
    6a34:	1f 90       	pop	r1
    6a36:	18 95       	reti

00006a38 <__vector_28>:
/* 
 * RS485_RX_ISR - RS485 receiver interrupt (RX)
 */

ISR(RS485_RX_ISR_vect)	//ISR(USARTC1_RXC_vect)	// serial port C0 RX interrupt 
{
    6a38:	1f 92       	push	r1
    6a3a:	0f 92       	push	r0
    6a3c:	0f b6       	in	r0, 0x3f	; 63
    6a3e:	0f 92       	push	r0
    6a40:	0b b6       	in	r0, 0x3b	; 59
    6a42:	0f 92       	push	r0
    6a44:	11 24       	eor	r1, r1
    6a46:	2f 93       	push	r18
    6a48:	3f 93       	push	r19
    6a4a:	4f 93       	push	r20
    6a4c:	5f 93       	push	r21
    6a4e:	6f 93       	push	r22
    6a50:	7f 93       	push	r23
    6a52:	8f 93       	push	r24
    6a54:	9f 93       	push	r25
    6a56:	af 93       	push	r26
    6a58:	bf 93       	push	r27
    6a5a:	ef 93       	push	r30
    6a5c:	ff 93       	push	r31
	uint8_t c = RSu.usart->DATA;				// can only read DATA once
    6a5e:	e0 91 12 23 	lds	r30, 0x2312
    6a62:	f0 91 13 23 	lds	r31, 0x2313
    6a66:	20 81       	ld	r18, Z

	// trap signals - do not insert into RX queue
	if (c == ETX) {								// trap ^c signal
    6a68:	23 30       	cpi	r18, 0x03	; 3
    6a6a:	31 f4       	brne	.+12     	; 0x6a78 <__vector_28+0x40>
		RS.sig = XIO_SIG_KILL;					// set signal value
    6a6c:	84 e0       	ldi	r24, 0x04	; 4
    6a6e:	80 93 c7 24 	sts	0x24C7, r24
		signal_etx();							// call app-specific signal handler
    6a72:	0e 94 2b 30 	call	0x6056	; 0x6056 <signal_etx>
    6a76:	25 c0       	rjmp	.+74     	; 0x6ac2 <__vector_28+0x8a>
		return;
	}

	// normal path
	if ((--RSu.rx_buf_head) == 0) { 			// advance buffer head with wrap
    6a78:	80 91 0e 23 	lds	r24, 0x230E
    6a7c:	81 50       	subi	r24, 0x01	; 1
    6a7e:	80 93 0e 23 	sts	0x230E, r24
    6a82:	80 91 0e 23 	lds	r24, 0x230E
    6a86:	88 23       	and	r24, r24
    6a88:	19 f4       	brne	.+6      	; 0x6a90 <__vector_28+0x58>
		RSu.rx_buf_head = RX_BUFFER_SIZE-1;		// -1 avoids the off-by-one error
    6a8a:	8f e3       	ldi	r24, 0x3F	; 63
    6a8c:	80 93 0e 23 	sts	0x230E, r24
	}
	if (RSu.rx_buf_head != RSu.rx_buf_tail) {	// write char unless buffer full
    6a90:	90 91 0e 23 	lds	r25, 0x230E
    6a94:	80 91 0d 23 	lds	r24, 0x230D
    6a98:	98 17       	cp	r25, r24
    6a9a:	39 f0       	breq	.+14     	; 0x6aaa <__vector_28+0x72>
		RSu.rx_buf[RSu.rx_buf_head] = c;		// (= USARTC1.DATA;)
    6a9c:	e0 91 0e 23 	lds	r30, 0x230E
    6aa0:	f0 e0       	ldi	r31, 0x00	; 0
    6aa2:	e5 5f       	subi	r30, 0xF5	; 245
    6aa4:	fc 4d       	sbci	r31, 0xDC	; 220
    6aa6:	23 87       	std	Z+11, r18	; 0x0b
    6aa8:	0c c0       	rjmp	.+24     	; 0x6ac2 <__vector_28+0x8a>
		return;
	}
	// buffer-full handling
	if ((++RSu.rx_buf_head) > RX_BUFFER_SIZE-1) { // reset the head
    6aaa:	80 91 0e 23 	lds	r24, 0x230E
    6aae:	8f 5f       	subi	r24, 0xFF	; 255
    6ab0:	80 93 0e 23 	sts	0x230E, r24
    6ab4:	80 91 0e 23 	lds	r24, 0x230E
    6ab8:	80 34       	cpi	r24, 0x40	; 64
    6aba:	18 f0       	brcs	.+6      	; 0x6ac2 <__vector_28+0x8a>
		RSu.rx_buf_head = 1;
    6abc:	81 e0       	ldi	r24, 0x01	; 1
    6abe:	80 93 0e 23 	sts	0x230E, r24
	}
	// activate flow control here or before it gets to this level
}
    6ac2:	ff 91       	pop	r31
    6ac4:	ef 91       	pop	r30
    6ac6:	bf 91       	pop	r27
    6ac8:	af 91       	pop	r26
    6aca:	9f 91       	pop	r25
    6acc:	8f 91       	pop	r24
    6ace:	7f 91       	pop	r23
    6ad0:	6f 91       	pop	r22
    6ad2:	5f 91       	pop	r21
    6ad4:	4f 91       	pop	r20
    6ad6:	3f 91       	pop	r19
    6ad8:	2f 91       	pop	r18
    6ada:	0f 90       	pop	r0
    6adc:	0b be       	out	0x3b, r0	; 59
    6ade:	0f 90       	pop	r0
    6ae0:	0f be       	out	0x3f, r0	; 63
    6ae2:	0f 90       	pop	r0
    6ae4:	1f 90       	pop	r1
    6ae6:	18 95       	reti

00006ae8 <xio_init_rs485>:
int xio_readln_rs485(char *buf, const uint8_t size) {return xio_readln_usart(XIO_DEV_RS485, buf, size);}
void xio_queue_RX_char_rs485(const char c) {xio_queue_RX_char_usart(XIO_DEV_RS485, c);}
void xio_queue_RX_string_rs485(const char *buf) {xio_queue_RX_string_usart(XIO_DEV_RS485, buf);}

void xio_init_rs485()	// RS485 init
{
    6ae8:	8f 92       	push	r8
    6aea:	af 92       	push	r10
    6aec:	cf 92       	push	r12
    6aee:	ef 92       	push	r14
    6af0:	ff 92       	push	r15
    6af2:	0f 93       	push	r16
    6af4:	1f 93       	push	r17
	xio_init_dev(XIO_DEV_RS485, xio_open_rs485, xio_setflags_rs485, xio_putc_rs485, xio_getc_rs485, xio_readln_rs485);
    6af6:	80 e0       	ldi	r24, 0x00	; 0
    6af8:	63 eb       	ldi	r22, 0xB3	; 179
    6afa:	74 e3       	ldi	r23, 0x34	; 52
    6afc:	41 ec       	ldi	r20, 0xC1	; 193
    6afe:	55 e3       	ldi	r21, 0x35	; 53
    6b00:	2a eb       	ldi	r18, 0xBA	; 186
    6b02:	35 e3       	ldi	r19, 0x35	; 53
    6b04:	05 eb       	ldi	r16, 0xB5	; 181
    6b06:	15 e3       	ldi	r17, 0x35	; 53
    6b08:	ae ea       	ldi	r26, 0xAE	; 174
    6b0a:	ea 2e       	mov	r14, r26
    6b0c:	a5 e3       	ldi	r26, 0x35	; 53
    6b0e:	fa 2e       	mov	r15, r26
    6b10:	0e 94 6a 29 	call	0x52d4	; 0x52d4 <xio_init_dev>
	xio_init_usart(XIO_DEV_RS485, XIO_DEV_RS485_OFFSET, RS485_INIT_bm, &RS485_USART, &RS485_PORT, RS485_DIRCLR_bm, RS485_DIRSET_bm, RS485_OUTCLR_bm, RS485_OUTSET_bm);
    6b14:	80 e0       	ldi	r24, 0x00	; 0
    6b16:	60 e0       	ldi	r22, 0x00	; 0
    6b18:	45 e7       	ldi	r20, 0x75	; 117
    6b1a:	50 e1       	ldi	r21, 0x10	; 16
    6b1c:	20 eb       	ldi	r18, 0xB0	; 176
    6b1e:	38 e0       	ldi	r19, 0x08	; 8
    6b20:	00 e4       	ldi	r16, 0x40	; 64
    6b22:	16 e0       	ldi	r17, 0x06	; 6
    6b24:	f0 e4       	ldi	r31, 0x40	; 64
    6b26:	ef 2e       	mov	r14, r31
    6b28:	e0 eb       	ldi	r30, 0xB0	; 176
    6b2a:	ce 2e       	mov	r12, r30
    6b2c:	70 e3       	ldi	r23, 0x30	; 48
    6b2e:	a7 2e       	mov	r10, r23
    6b30:	90 e8       	ldi	r25, 0x80	; 128
    6b32:	89 2e       	mov	r8, r25
    6b34:	0e 94 2c 33 	call	0x6658	; 0x6658 <xio_init_usart>
}
    6b38:	1f 91       	pop	r17
    6b3a:	0f 91       	pop	r16
    6b3c:	ff 90       	pop	r15
    6b3e:	ef 90       	pop	r14
    6b40:	cf 90       	pop	r12
    6b42:	af 90       	pop	r10
    6b44:	8f 90       	pop	r8
    6b46:	08 95       	ret

00006b48 <xio_queue_RX_string_rs485>:
int xio_setflags_rs485(const uint16_t control) {return xio_setflags(XIO_DEV_RS485, control);} // See NOTE
int xio_putc_rs485(const char c, FILE *stream) {return xio_putc_usart(XIO_DEV_RS485, c, stream);}
int xio_getc_rs485(FILE *stream) {return xio_getc_usart(XIO_DEV_RS485, stream);}
int xio_readln_rs485(char *buf, const uint8_t size) {return xio_readln_usart(XIO_DEV_RS485, buf, size);}
void xio_queue_RX_char_rs485(const char c) {xio_queue_RX_char_usart(XIO_DEV_RS485, c);}
void xio_queue_RX_string_rs485(const char *buf) {xio_queue_RX_string_usart(XIO_DEV_RS485, buf);}
    6b48:	bc 01       	movw	r22, r24
    6b4a:	80 e0       	ldi	r24, 0x00	; 0
    6b4c:	0e 94 15 33 	call	0x662a	; 0x662a <xio_queue_RX_string_usart>
    6b50:	08 95       	ret

00006b52 <xio_queue_RX_char_rs485>:
struct __file * xio_open_rs485() { return(RS.fdev); }
int xio_setflags_rs485(const uint16_t control) {return xio_setflags(XIO_DEV_RS485, control);} // See NOTE
int xio_putc_rs485(const char c, FILE *stream) {return xio_putc_usart(XIO_DEV_RS485, c, stream);}
int xio_getc_rs485(FILE *stream) {return xio_getc_usart(XIO_DEV_RS485, stream);}
int xio_readln_rs485(char *buf, const uint8_t size) {return xio_readln_usart(XIO_DEV_RS485, buf, size);}
void xio_queue_RX_char_rs485(const char c) {xio_queue_RX_char_usart(XIO_DEV_RS485, c);}
    6b52:	68 2f       	mov	r22, r24
    6b54:	80 e0       	ldi	r24, 0x00	; 0
    6b56:	0e 94 e5 32 	call	0x65ca	; 0x65ca <xio_queue_RX_char_usart>
    6b5a:	08 95       	ret

00006b5c <xio_readln_rs485>:
/* RS485 device specific entry points to USART routines */
struct __file * xio_open_rs485() { return(RS.fdev); }
int xio_setflags_rs485(const uint16_t control) {return xio_setflags(XIO_DEV_RS485, control);} // See NOTE
int xio_putc_rs485(const char c, FILE *stream) {return xio_putc_usart(XIO_DEV_RS485, c, stream);}
int xio_getc_rs485(FILE *stream) {return xio_getc_usart(XIO_DEV_RS485, stream);}
int xio_readln_rs485(char *buf, const uint8_t size) {return xio_readln_usart(XIO_DEV_RS485, buf, size);}
    6b5c:	9c 01       	movw	r18, r24
    6b5e:	46 2f       	mov	r20, r22
    6b60:	80 e0       	ldi	r24, 0x00	; 0
    6b62:	b9 01       	movw	r22, r18
    6b64:	0e 94 d0 31 	call	0x63a0	; 0x63a0 <xio_readln_usart>
    6b68:	08 95       	ret

00006b6a <xio_getc_rs485>:

/* RS485 device specific entry points to USART routines */
struct __file * xio_open_rs485() { return(RS.fdev); }
int xio_setflags_rs485(const uint16_t control) {return xio_setflags(XIO_DEV_RS485, control);} // See NOTE
int xio_putc_rs485(const char c, FILE *stream) {return xio_putc_usart(XIO_DEV_RS485, c, stream);}
int xio_getc_rs485(FILE *stream) {return xio_getc_usart(XIO_DEV_RS485, stream);}
    6b6a:	bc 01       	movw	r22, r24
    6b6c:	80 e0       	ldi	r24, 0x00	; 0
    6b6e:	0e 94 ed 30 	call	0x61da	; 0x61da <xio_getc_usart>
    6b72:	08 95       	ret

00006b74 <xio_putc_rs485>:
#define RSu us[XIO_DEV_RS485_OFFSET]	// usart extended struct accessor

/* RS485 device specific entry points to USART routines */
struct __file * xio_open_rs485() { return(RS.fdev); }
int xio_setflags_rs485(const uint16_t control) {return xio_setflags(XIO_DEV_RS485, control);} // See NOTE
int xio_putc_rs485(const char c, FILE *stream) {return xio_putc_usart(XIO_DEV_RS485, c, stream);}
    6b74:	98 2f       	mov	r25, r24
    6b76:	ab 01       	movw	r20, r22
    6b78:	80 e0       	ldi	r24, 0x00	; 0
    6b7a:	69 2f       	mov	r22, r25
    6b7c:	0e 94 5b 30 	call	0x60b6	; 0x60b6 <xio_putc_usart>
    6b80:	08 95       	ret

00006b82 <xio_setflags_rs485>:
#define RS ds[XIO_DEV_RS485]			// device struct accessoor
#define RSu us[XIO_DEV_RS485_OFFSET]	// usart extended struct accessor

/* RS485 device specific entry points to USART routines */
struct __file * xio_open_rs485() { return(RS.fdev); }
int xio_setflags_rs485(const uint16_t control) {return xio_setflags(XIO_DEV_RS485, control);} // See NOTE
    6b82:	bc 01       	movw	r22, r24
    6b84:	80 e0       	ldi	r24, 0x00	; 0
    6b86:	0e 94 81 28 	call	0x5102	; 0x5102 <xio_setflags>
    6b8a:	08 95       	ret

00006b8c <xio_open_pgm>:
 *  Returns a pointer to the stdio FILE struct or -1 on error
 */

struct __file * xio_open_pgm(const prog_char *addr)
{
	PGM.flags &= XIO_FLAG_RESET_gm;			// reset flag signaling bits
    6b8c:	20 91 09 25 	lds	r18, 0x2509
    6b90:	30 91 0a 25 	lds	r19, 0x250A
    6b94:	3f 70       	andi	r19, 0x0F	; 15
    6b96:	20 93 09 25 	sts	0x2509, r18
    6b9a:	30 93 0a 25 	sts	0x250A, r19
	PGM.sig = 0;							// reset signal
    6b9e:	10 92 0c 25 	sts	0x250C, r1
	PGMf.pgmbase_P = (PROGMEM char *)addr;	// might want to range check this
    6ba2:	80 93 b2 24 	sts	0x24B2, r24
    6ba6:	90 93 b3 24 	sts	0x24B3, r25
	PGMf.len = 0;							// initialize buffer pointer
    6baa:	10 92 ae 24 	sts	0x24AE, r1
    6bae:	10 92 af 24 	sts	0x24AF, r1
    6bb2:	10 92 b0 24 	sts	0x24B0, r1
    6bb6:	10 92 b1 24 	sts	0x24B1, r1
	return(PGM.fdev);							// return pointer to the fdev stream
}
    6bba:	80 91 1c 25 	lds	r24, 0x251C
    6bbe:	90 91 1d 25 	lds	r25, 0x251D
    6bc2:	08 95       	ret

00006bc4 <xio_putc_pgm>:
 */

int xio_putc_pgm(const char c, struct __file *stream)
{
	return -1;			// always returns an error. Big surprise.
}
    6bc4:	8f ef       	ldi	r24, 0xFF	; 255
    6bc6:	9f ef       	ldi	r25, 0xFF	; 255
    6bc8:	08 95       	ret

00006bca <xio_readln_pgm>:
 *	Non-blocking, run-to-completion return a line from memory
 *	Note: LINEMODE flag is ignored. It's ALWAYS LINEMODE here.
 */

int xio_readln_pgm(char *buf, const uint8_t size)
{
    6bca:	9c 01       	movw	r18, r24
	if (!(PGMf.pgmbase_P)) {					// return error if no file is open
    6bcc:	80 91 b2 24 	lds	r24, 0x24B2
    6bd0:	90 91 b3 24 	lds	r25, 0x24B3
    6bd4:	89 2b       	or	r24, r25
    6bd6:	19 f4       	brne	.+6      	; 0x6bde <xio_readln_pgm+0x14>
    6bd8:	26 e0       	ldi	r18, 0x06	; 6
    6bda:	30 e0       	ldi	r19, 0x00	; 0
    6bdc:	1b c0       	rjmp	.+54     	; 0x6c14 <xio_readln_pgm+0x4a>
		return (XIO_FILE_NOT_OPEN);
	}
	PGM.sig = XIO_SIG_OK;						// initialize signal
    6bde:	10 92 0c 25 	sts	0x250C, r1
	if (fgets(buf, size, PGM.fdev) == NULL) {
    6be2:	40 91 1c 25 	lds	r20, 0x251C
    6be6:	50 91 1d 25 	lds	r21, 0x251D
    6bea:	c9 01       	movw	r24, r18
    6bec:	70 e0       	ldi	r23, 0x00	; 0
    6bee:	0e 94 3b 49 	call	0x9276	; 0x9276 <fgets>
    6bf2:	89 2b       	or	r24, r25
    6bf4:	19 f0       	breq	.+6      	; 0x6bfc <xio_readln_pgm+0x32>
    6bf6:	20 e0       	ldi	r18, 0x00	; 0
    6bf8:	30 e0       	ldi	r19, 0x00	; 0
    6bfa:	0c c0       	rjmp	.+24     	; 0x6c14 <xio_readln_pgm+0x4a>
		PGMf.pgmbase_P = NULL;
    6bfc:	10 92 b2 24 	sts	0x24B2, r1
    6c00:	10 92 b3 24 	sts	0x24B3, r1
		clearerr(PGM.fdev);
    6c04:	80 91 1c 25 	lds	r24, 0x251C
    6c08:	90 91 1d 25 	lds	r25, 0x251D
    6c0c:	0e 94 36 49 	call	0x926c	; 0x926c <clearerr>
    6c10:	25 e0       	ldi	r18, 0x05	; 5
    6c12:	30 e0       	ldi	r19, 0x00	; 0
		return (XIO_EOF);
	}
	return (XIO_OK);
}
    6c14:	c9 01       	movw	r24, r18
    6c16:	08 95       	ret

00006c18 <xio_getc_pgm>:
 */

int xio_getc_pgm(struct __file *stream)
{

	if (PGM.flags & XIO_FLAG_EOF_bm) {
    6c18:	20 91 09 25 	lds	r18, 0x2509
    6c1c:	30 91 0a 25 	lds	r19, 0x250A
    6c20:	35 ff       	sbrs	r19, 5
    6c22:	06 c0       	rjmp	.+12     	; 0x6c30 <xio_getc_pgm+0x18>
		PGM.sig = XIO_SIG_EOF;
    6c24:	83 e0       	ldi	r24, 0x03	; 3
    6c26:	80 93 0c 25 	sts	0x250C, r24
    6c2a:	2e ef       	ldi	r18, 0xFE	; 254
    6c2c:	3f ef       	ldi	r19, 0xFF	; 255
    6c2e:	48 c0       	rjmp	.+144    	; 0x6cc0 <xio_getc_pgm+0xa8>
		return (_FDEV_EOF);
	}
	if ((PGM.c = pgm_read_byte(&PGMf.pgmbase_P[PGMf.len])) == NUL) {
    6c30:	80 91 ae 24 	lds	r24, 0x24AE
    6c34:	90 91 af 24 	lds	r25, 0x24AF
    6c38:	a0 91 b0 24 	lds	r26, 0x24B0
    6c3c:	b0 91 b1 24 	lds	r27, 0x24B1
    6c40:	e0 91 b2 24 	lds	r30, 0x24B2
    6c44:	f0 91 b3 24 	lds	r31, 0x24B3
    6c48:	e8 0f       	add	r30, r24
    6c4a:	f9 1f       	adc	r31, r25
    6c4c:	e4 91       	lpm	r30, Z+
    6c4e:	e0 93 0d 25 	sts	0x250D, r30
    6c52:	ee 23       	and	r30, r30
    6c54:	29 f4       	brne	.+10     	; 0x6c60 <xio_getc_pgm+0x48>
		PGM.flags |= XIO_FLAG_EOF_bm;
    6c56:	30 62       	ori	r19, 0x20	; 32
    6c58:	20 93 09 25 	sts	0x2509, r18
    6c5c:	30 93 0a 25 	sts	0x250A, r19
	}
	++PGMf.len;
    6c60:	01 96       	adiw	r24, 0x01	; 1
    6c62:	a1 1d       	adc	r26, r1
    6c64:	b1 1d       	adc	r27, r1
    6c66:	80 93 ae 24 	sts	0x24AE, r24
    6c6a:	90 93 af 24 	sts	0x24AF, r25
    6c6e:	a0 93 b0 24 	sts	0x24B0, r26
    6c72:	b0 93 b1 24 	sts	0x24B1, r27
	if (!LINEMODE(PGM.flags)) {			// processing is simple if not LINEMODE
    6c76:	90 91 09 25 	lds	r25, 0x2509
    6c7a:	96 fd       	sbrc	r25, 6
    6c7c:	03 c0       	rjmp	.+6      	; 0x6c84 <xio_getc_pgm+0x6c>
		if (ECHO(PGM.flags)) {
    6c7e:	94 ff       	sbrs	r25, 4
    6c80:	1b c0       	rjmp	.+54     	; 0x6cb8 <xio_getc_pgm+0xa0>
    6c82:	11 c0       	rjmp	.+34     	; 0x6ca6 <xio_getc_pgm+0x8e>
			putchar(PGM.c);
		}
		return (PGM.c);
	}
	// now do the LINEMODE stuff
	if (PGM.c == NUL) {					// perform newline substitutions
    6c84:	80 91 0d 25 	lds	r24, 0x250D
    6c88:	88 23       	and	r24, r24
    6c8a:	31 f0       	breq	.+12     	; 0x6c98 <xio_getc_pgm+0x80>
		PGM.c = '\n';
	} else if (PGM.c == '\r') {
    6c8c:	8d 30       	cpi	r24, 0x0D	; 13
    6c8e:	21 f0       	breq	.+8      	; 0x6c98 <xio_getc_pgm+0x80>
		PGM.c = '\n';
	} else if ((SEMICOLONS(PGM.flags)) && (PGM.c == ';')) {
    6c90:	97 ff       	sbrs	r25, 7
    6c92:	05 c0       	rjmp	.+10     	; 0x6c9e <xio_getc_pgm+0x86>
    6c94:	8b 33       	cpi	r24, 0x3B	; 59
    6c96:	19 f4       	brne	.+6      	; 0x6c9e <xio_getc_pgm+0x86>
		PGM.c = '\n';
    6c98:	8a e0       	ldi	r24, 0x0A	; 10
    6c9a:	80 93 0d 25 	sts	0x250D, r24
	}
	if (ECHO(PGM.flags)) {
    6c9e:	80 91 09 25 	lds	r24, 0x2509
    6ca2:	84 ff       	sbrs	r24, 4
    6ca4:	09 c0       	rjmp	.+18     	; 0x6cb8 <xio_getc_pgm+0xa0>
		putchar(PGM.c);
    6ca6:	60 91 5c 26 	lds	r22, 0x265C
    6caa:	70 91 5d 26 	lds	r23, 0x265D
    6cae:	80 91 0d 25 	lds	r24, 0x250D
    6cb2:	90 e0       	ldi	r25, 0x00	; 0
    6cb4:	0e 94 6e 49 	call	0x92dc	; 0x92dc <fputc>
	}
	return (PGM.c);
    6cb8:	80 91 0d 25 	lds	r24, 0x250D
    6cbc:	28 2f       	mov	r18, r24
    6cbe:	30 e0       	ldi	r19, 0x00	; 0
}
    6cc0:	c9 01       	movw	r24, r18
    6cc2:	08 95       	ret

00006cc4 <xio_setflags_pgm>:
/*
 *	xio_setflags_pgm() - check and set control flags for device
 */

int xio_setflags_pgm(const uint16_t control)
{
    6cc4:	bc 01       	movw	r22, r24
	xio_setflags(XIO_DEV_PGM, control);
    6cc6:	83 e0       	ldi	r24, 0x03	; 3
    6cc8:	0e 94 81 28 	call	0x5102	; 0x5102 <xio_setflags>
	return (XIO_OK);									// for now it's always OK
}
    6ccc:	80 e0       	ldi	r24, 0x00	; 0
    6cce:	90 e0       	ldi	r25, 0x00	; 0
    6cd0:	08 95       	ret

00006cd2 <xio_init_file>:
 *	xio_init_file() - generic init for file devices
 */
void xio_init_file(const uint8_t dev, const uint8_t offset, const uint16_t control)
{
	// bind file struct to extended device parameters
	ds[dev].x = &fs[offset];		// bind pgm FILE struct
    6cd2:	90 e0       	ldi	r25, 0x00	; 0
    6cd4:	27 e1       	ldi	r18, 0x17	; 23
    6cd6:	30 e0       	ldi	r19, 0x00	; 0
    6cd8:	82 9f       	mul	r24, r18
    6cda:	f0 01       	movw	r30, r0
    6cdc:	83 9f       	mul	r24, r19
    6cde:	f0 0d       	add	r31, r0
    6ce0:	92 9f       	mul	r25, r18
    6ce2:	f0 0d       	add	r31, r0
    6ce4:	11 24       	eor	r1, r1
    6ce6:	ec 53       	subi	r30, 0x3C	; 60
    6ce8:	fb 4d       	sbci	r31, 0xDB	; 219
    6cea:	70 e0       	ldi	r23, 0x00	; 0
    6cec:	83 e0       	ldi	r24, 0x03	; 3
    6cee:	66 0f       	add	r22, r22
    6cf0:	77 1f       	adc	r23, r23
    6cf2:	8a 95       	dec	r24
    6cf4:	e1 f7       	brne	.-8      	; 0x6cee <xio_init_file+0x1c>
    6cf6:	64 55       	subi	r22, 0x54	; 84
    6cf8:	7b 4d       	sbci	r23, 0xDB	; 219
    6cfa:	61 8b       	std	Z+17, r22	; 0x11
    6cfc:	72 8b       	std	Z+18, r23	; 0x12
 *	xio_setflags_pgm() - check and set control flags for device
 */

int xio_setflags_pgm(const uint16_t control)
{
	xio_setflags(XIO_DEV_PGM, control);
    6cfe:	83 e0       	ldi	r24, 0x03	; 3
    6d00:	ba 01       	movw	r22, r20
    6d02:	0e 94 81 28 	call	0x5102	; 0x5102 <xio_setflags>
	ds[dev].x = &fs[offset];		// bind pgm FILE struct
	// might be useful to sanity check the control bits before calling set flags
	//	- RD and BLOCK are mandatory
	// 	- WR and NOBLOCK are restricted
	xio_setflags_pgm(control);
}
    6d06:	08 95       	ret

00006d08 <xio_init_pgm>:

/* 
 *	xio_init_pgm() - initialize and set controls for program memory device 
 */
void xio_init_pgm()
{
    6d08:	ef 92       	push	r14
    6d0a:	ff 92       	push	r15
    6d0c:	0f 93       	push	r16
    6d0e:	1f 93       	push	r17
	// Program memory file device setup
	xio_init_dev(XIO_DEV_PGM, xio_open_pgm, xio_setflags_pgm, xio_putc_pgm, xio_getc_pgm, xio_readln_pgm);
    6d10:	83 e0       	ldi	r24, 0x03	; 3
    6d12:	66 ec       	ldi	r22, 0xC6	; 198
    6d14:	75 e3       	ldi	r23, 0x35	; 53
    6d16:	42 e6       	ldi	r20, 0x62	; 98
    6d18:	56 e3       	ldi	r21, 0x36	; 54
    6d1a:	22 ee       	ldi	r18, 0xE2	; 226
    6d1c:	35 e3       	ldi	r19, 0x35	; 53
    6d1e:	0c e0       	ldi	r16, 0x0C	; 12
    6d20:	16 e3       	ldi	r17, 0x36	; 54
    6d22:	95 ee       	ldi	r25, 0xE5	; 229
    6d24:	e9 2e       	mov	r14, r25
    6d26:	95 e3       	ldi	r25, 0x35	; 53
    6d28:	f9 2e       	mov	r15, r25
    6d2a:	0e 94 6a 29 	call	0x52d4	; 0x52d4 <xio_init_dev>
 *	xio_init_file() - generic init for file devices
 */
void xio_init_file(const uint8_t dev, const uint8_t offset, const uint16_t control)
{
	// bind file struct to extended device parameters
	ds[dev].x = &fs[offset];		// bind pgm FILE struct
    6d2e:	8c ea       	ldi	r24, 0xAC	; 172
    6d30:	94 e2       	ldi	r25, 0x24	; 36
    6d32:	80 93 1a 25 	sts	0x251A, r24
    6d36:	90 93 1b 25 	sts	0x251B, r25
 *	xio_setflags_pgm() - check and set control flags for device
 */

int xio_setflags_pgm(const uint16_t control)
{
	xio_setflags(XIO_DEV_PGM, control);
    6d3a:	83 e0       	ldi	r24, 0x03	; 3
    6d3c:	60 e5       	ldi	r22, 0x50	; 80
    6d3e:	75 e1       	ldi	r23, 0x15	; 21
    6d40:	0e 94 81 28 	call	0x5102	; 0x5102 <xio_setflags>
void xio_init_pgm()
{
	// Program memory file device setup
	xio_init_dev(XIO_DEV_PGM, xio_open_pgm, xio_setflags_pgm, xio_putc_pgm, xio_getc_pgm, xio_readln_pgm);
	xio_init_file(XIO_DEV_PGM, XIO_DEV_PGM_OFFSET, PGM_INIT_bm);
}
    6d44:	1f 91       	pop	r17
    6d46:	0f 91       	pop	r16
    6d48:	ff 90       	pop	r15
    6d4a:	ef 90       	pop	r14
    6d4c:	08 95       	ret

00006d4e <net_init>:
 */

void net_init() 
{
	
}
    6d4e:	08 95       	ret

00006d50 <tg_receiver>:
 * tg_receiver()
 */

void tg_receiver()
{
	tg_controller();	// this node executes gcode blocks received via RS485
    6d50:	0e 94 d8 2c 	call	0x59b0	; 0x59b0 <tg_controller>
		if (c != CR) {
			en_toggle(1);
		}
	}
*/
}
    6d54:	08 95       	ret

00006d56 <tg_repeater>:
		_delay_ms(50);
	}
*/	
	char c;

	en_write(4);
    6d56:	84 e0       	ldi	r24, 0x04	; 4
    6d58:	0e 94 04 1b 	call	0x3608	; 0x3608 <en_write>
	while (TRUE) {
		c = xio_getc(XIO_DEV_USB);		// blocking read
    6d5c:	81 e0       	ldi	r24, 0x01	; 1
    6d5e:	0e 94 34 29 	call	0x5268	; 0x5268 <xio_getc>
    6d62:	68 2f       	mov	r22, r24
		xio_putc(XIO_DEV_RS485, c);		// transfer to RS485 port
    6d64:	80 e0       	ldi	r24, 0x00	; 0
    6d66:	0e 94 17 29 	call	0x522e	; 0x522e <xio_putc>
		en_toggle(1);
    6d6a:	81 e0       	ldi	r24, 0x01	; 1
    6d6c:	0e 94 44 1b 	call	0x3688	; 0x3688 <en_toggle>
    6d70:	f5 cf       	rjmp	.-22     	; 0x6d5c <tg_repeater+0x6>

00006d72 <hw_init>:
 * hw_init() - lowest level hardware init
 */

void hw_init() 
{
	xmega_init();
    6d72:	0e 94 80 1b 	call	0x3700	; 0x3700 <xmega_init>
}
    6d76:	08 95       	ret

00006d78 <__lshrdi3>:
    6d78:	ef 92       	push	r14
    6d7a:	ff 92       	push	r15
    6d7c:	0f 93       	push	r16
    6d7e:	df 93       	push	r29
    6d80:	cf 93       	push	r28
    6d82:	cd b7       	in	r28, 0x3d	; 61
    6d84:	de b7       	in	r29, 0x3e	; 62
    6d86:	60 97       	sbiw	r28, 0x10	; 16
    6d88:	cd bf       	out	0x3d, r28	; 61
    6d8a:	de bf       	out	0x3e, r29	; 62
    6d8c:	a8 2f       	mov	r26, r24
    6d8e:	00 23       	and	r16, r16
    6d90:	09 f4       	brne	.+2      	; 0x6d94 <__lshrdi3+0x1c>
    6d92:	61 c0       	rjmp	.+194    	; 0x6e56 <__lshrdi3+0xde>
    6d94:	7e 01       	movw	r14, r28
    6d96:	08 94       	sec
    6d98:	e1 1c       	adc	r14, r1
    6d9a:	f1 1c       	adc	r15, r1
    6d9c:	88 e0       	ldi	r24, 0x08	; 8
    6d9e:	f7 01       	movw	r30, r14
    6da0:	11 92       	st	Z+, r1
    6da2:	8a 95       	dec	r24
    6da4:	e9 f7       	brne	.-6      	; 0x6da0 <__lshrdi3+0x28>
    6da6:	29 83       	std	Y+1, r18	; 0x01
    6da8:	3a 83       	std	Y+2, r19	; 0x02
    6daa:	4b 83       	std	Y+3, r20	; 0x03
    6dac:	5c 83       	std	Y+4, r21	; 0x04
    6dae:	6d 83       	std	Y+5, r22	; 0x05
    6db0:	7e 83       	std	Y+6, r23	; 0x06
    6db2:	af 83       	std	Y+7, r26	; 0x07
    6db4:	98 87       	std	Y+8, r25	; 0x08
    6db6:	80 e2       	ldi	r24, 0x20	; 32
    6db8:	80 1b       	sub	r24, r16
    6dba:	e8 2f       	mov	r30, r24
    6dbc:	ff 27       	eor	r31, r31
    6dbe:	e7 fd       	sbrc	r30, 7
    6dc0:	f0 95       	com	r31
    6dc2:	4d 81       	ldd	r20, Y+5	; 0x05
    6dc4:	5e 81       	ldd	r21, Y+6	; 0x06
    6dc6:	6f 81       	ldd	r22, Y+7	; 0x07
    6dc8:	78 85       	ldd	r23, Y+8	; 0x08
    6dca:	18 16       	cp	r1, r24
    6dcc:	84 f0       	brlt	.+32     	; 0x6dee <__lshrdi3+0x76>
    6dce:	1d 86       	std	Y+13, r1	; 0x0d
    6dd0:	1e 86       	std	Y+14, r1	; 0x0e
    6dd2:	1f 86       	std	Y+15, r1	; 0x0f
    6dd4:	18 8a       	std	Y+16, r1	; 0x10
    6dd6:	88 27       	eor	r24, r24
    6dd8:	99 27       	eor	r25, r25
    6dda:	8e 1b       	sub	r24, r30
    6ddc:	9f 0b       	sbc	r25, r31
    6dde:	04 c0       	rjmp	.+8      	; 0x6de8 <__lshrdi3+0x70>
    6de0:	76 95       	lsr	r23
    6de2:	67 95       	ror	r22
    6de4:	57 95       	ror	r21
    6de6:	47 95       	ror	r20
    6de8:	8a 95       	dec	r24
    6dea:	d2 f7       	brpl	.-12     	; 0x6de0 <__lshrdi3+0x68>
    6dec:	28 c0       	rjmp	.+80     	; 0x6e3e <__lshrdi3+0xc6>
    6dee:	20 2f       	mov	r18, r16
    6df0:	33 27       	eor	r19, r19
    6df2:	27 fd       	sbrc	r18, 7
    6df4:	30 95       	com	r19
    6df6:	db 01       	movw	r26, r22
    6df8:	ca 01       	movw	r24, r20
    6dfa:	02 2e       	mov	r0, r18
    6dfc:	04 c0       	rjmp	.+8      	; 0x6e06 <__lshrdi3+0x8e>
    6dfe:	b6 95       	lsr	r27
    6e00:	a7 95       	ror	r26
    6e02:	97 95       	ror	r25
    6e04:	87 95       	ror	r24
    6e06:	0a 94       	dec	r0
    6e08:	d2 f7       	brpl	.-12     	; 0x6dfe <__lshrdi3+0x86>
    6e0a:	8d 87       	std	Y+13, r24	; 0x0d
    6e0c:	9e 87       	std	Y+14, r25	; 0x0e
    6e0e:	af 87       	std	Y+15, r26	; 0x0f
    6e10:	b8 8b       	std	Y+16, r27	; 0x10
    6e12:	04 c0       	rjmp	.+8      	; 0x6e1c <__lshrdi3+0xa4>
    6e14:	44 0f       	add	r20, r20
    6e16:	55 1f       	adc	r21, r21
    6e18:	66 1f       	adc	r22, r22
    6e1a:	77 1f       	adc	r23, r23
    6e1c:	ea 95       	dec	r30
    6e1e:	d2 f7       	brpl	.-12     	; 0x6e14 <__lshrdi3+0x9c>
    6e20:	89 81       	ldd	r24, Y+1	; 0x01
    6e22:	9a 81       	ldd	r25, Y+2	; 0x02
    6e24:	ab 81       	ldd	r26, Y+3	; 0x03
    6e26:	bc 81       	ldd	r27, Y+4	; 0x04
    6e28:	04 c0       	rjmp	.+8      	; 0x6e32 <__lshrdi3+0xba>
    6e2a:	b6 95       	lsr	r27
    6e2c:	a7 95       	ror	r26
    6e2e:	97 95       	ror	r25
    6e30:	87 95       	ror	r24
    6e32:	2a 95       	dec	r18
    6e34:	d2 f7       	brpl	.-12     	; 0x6e2a <__lshrdi3+0xb2>
    6e36:	48 2b       	or	r20, r24
    6e38:	59 2b       	or	r21, r25
    6e3a:	6a 2b       	or	r22, r26
    6e3c:	7b 2b       	or	r23, r27
    6e3e:	49 87       	std	Y+9, r20	; 0x09
    6e40:	5a 87       	std	Y+10, r21	; 0x0a
    6e42:	6b 87       	std	Y+11, r22	; 0x0b
    6e44:	7c 87       	std	Y+12, r23	; 0x0c
    6e46:	29 85       	ldd	r18, Y+9	; 0x09
    6e48:	3a 85       	ldd	r19, Y+10	; 0x0a
    6e4a:	4b 85       	ldd	r20, Y+11	; 0x0b
    6e4c:	5c 85       	ldd	r21, Y+12	; 0x0c
    6e4e:	6d 85       	ldd	r22, Y+13	; 0x0d
    6e50:	7e 85       	ldd	r23, Y+14	; 0x0e
    6e52:	af 85       	ldd	r26, Y+15	; 0x0f
    6e54:	98 89       	ldd	r25, Y+16	; 0x10
    6e56:	8a 2f       	mov	r24, r26
    6e58:	60 96       	adiw	r28, 0x10	; 16
    6e5a:	cd bf       	out	0x3d, r28	; 61
    6e5c:	de bf       	out	0x3e, r29	; 62
    6e5e:	cf 91       	pop	r28
    6e60:	df 91       	pop	r29
    6e62:	0f 91       	pop	r16
    6e64:	ff 90       	pop	r15
    6e66:	ef 90       	pop	r14
    6e68:	08 95       	ret

00006e6a <__ashldi3>:
    6e6a:	ef 92       	push	r14
    6e6c:	ff 92       	push	r15
    6e6e:	0f 93       	push	r16
    6e70:	df 93       	push	r29
    6e72:	cf 93       	push	r28
    6e74:	cd b7       	in	r28, 0x3d	; 61
    6e76:	de b7       	in	r29, 0x3e	; 62
    6e78:	60 97       	sbiw	r28, 0x10	; 16
    6e7a:	cd bf       	out	0x3d, r28	; 61
    6e7c:	de bf       	out	0x3e, r29	; 62
    6e7e:	a8 2f       	mov	r26, r24
    6e80:	00 23       	and	r16, r16
    6e82:	09 f4       	brne	.+2      	; 0x6e86 <__ashldi3+0x1c>
    6e84:	61 c0       	rjmp	.+194    	; 0x6f48 <__ashldi3+0xde>
    6e86:	7e 01       	movw	r14, r28
    6e88:	08 94       	sec
    6e8a:	e1 1c       	adc	r14, r1
    6e8c:	f1 1c       	adc	r15, r1
    6e8e:	88 e0       	ldi	r24, 0x08	; 8
    6e90:	f7 01       	movw	r30, r14
    6e92:	11 92       	st	Z+, r1
    6e94:	8a 95       	dec	r24
    6e96:	e9 f7       	brne	.-6      	; 0x6e92 <__ashldi3+0x28>
    6e98:	29 83       	std	Y+1, r18	; 0x01
    6e9a:	3a 83       	std	Y+2, r19	; 0x02
    6e9c:	4b 83       	std	Y+3, r20	; 0x03
    6e9e:	5c 83       	std	Y+4, r21	; 0x04
    6ea0:	6d 83       	std	Y+5, r22	; 0x05
    6ea2:	7e 83       	std	Y+6, r23	; 0x06
    6ea4:	af 83       	std	Y+7, r26	; 0x07
    6ea6:	98 87       	std	Y+8, r25	; 0x08
    6ea8:	80 e2       	ldi	r24, 0x20	; 32
    6eaa:	80 1b       	sub	r24, r16
    6eac:	e8 2f       	mov	r30, r24
    6eae:	ff 27       	eor	r31, r31
    6eb0:	e7 fd       	sbrc	r30, 7
    6eb2:	f0 95       	com	r31
    6eb4:	49 81       	ldd	r20, Y+1	; 0x01
    6eb6:	5a 81       	ldd	r21, Y+2	; 0x02
    6eb8:	6b 81       	ldd	r22, Y+3	; 0x03
    6eba:	7c 81       	ldd	r23, Y+4	; 0x04
    6ebc:	18 16       	cp	r1, r24
    6ebe:	84 f0       	brlt	.+32     	; 0x6ee0 <__ashldi3+0x76>
    6ec0:	19 86       	std	Y+9, r1	; 0x09
    6ec2:	1a 86       	std	Y+10, r1	; 0x0a
    6ec4:	1b 86       	std	Y+11, r1	; 0x0b
    6ec6:	1c 86       	std	Y+12, r1	; 0x0c
    6ec8:	88 27       	eor	r24, r24
    6eca:	99 27       	eor	r25, r25
    6ecc:	8e 1b       	sub	r24, r30
    6ece:	9f 0b       	sbc	r25, r31
    6ed0:	04 c0       	rjmp	.+8      	; 0x6eda <__ashldi3+0x70>
    6ed2:	44 0f       	add	r20, r20
    6ed4:	55 1f       	adc	r21, r21
    6ed6:	66 1f       	adc	r22, r22
    6ed8:	77 1f       	adc	r23, r23
    6eda:	8a 95       	dec	r24
    6edc:	d2 f7       	brpl	.-12     	; 0x6ed2 <__ashldi3+0x68>
    6ede:	28 c0       	rjmp	.+80     	; 0x6f30 <__ashldi3+0xc6>
    6ee0:	20 2f       	mov	r18, r16
    6ee2:	33 27       	eor	r19, r19
    6ee4:	27 fd       	sbrc	r18, 7
    6ee6:	30 95       	com	r19
    6ee8:	db 01       	movw	r26, r22
    6eea:	ca 01       	movw	r24, r20
    6eec:	02 2e       	mov	r0, r18
    6eee:	04 c0       	rjmp	.+8      	; 0x6ef8 <__ashldi3+0x8e>
    6ef0:	88 0f       	add	r24, r24
    6ef2:	99 1f       	adc	r25, r25
    6ef4:	aa 1f       	adc	r26, r26
    6ef6:	bb 1f       	adc	r27, r27
    6ef8:	0a 94       	dec	r0
    6efa:	d2 f7       	brpl	.-12     	; 0x6ef0 <__ashldi3+0x86>
    6efc:	89 87       	std	Y+9, r24	; 0x09
    6efe:	9a 87       	std	Y+10, r25	; 0x0a
    6f00:	ab 87       	std	Y+11, r26	; 0x0b
    6f02:	bc 87       	std	Y+12, r27	; 0x0c
    6f04:	04 c0       	rjmp	.+8      	; 0x6f0e <__ashldi3+0xa4>
    6f06:	76 95       	lsr	r23
    6f08:	67 95       	ror	r22
    6f0a:	57 95       	ror	r21
    6f0c:	47 95       	ror	r20
    6f0e:	ea 95       	dec	r30
    6f10:	d2 f7       	brpl	.-12     	; 0x6f06 <__ashldi3+0x9c>
    6f12:	8d 81       	ldd	r24, Y+5	; 0x05
    6f14:	9e 81       	ldd	r25, Y+6	; 0x06
    6f16:	af 81       	ldd	r26, Y+7	; 0x07
    6f18:	b8 85       	ldd	r27, Y+8	; 0x08
    6f1a:	04 c0       	rjmp	.+8      	; 0x6f24 <__ashldi3+0xba>
    6f1c:	88 0f       	add	r24, r24
    6f1e:	99 1f       	adc	r25, r25
    6f20:	aa 1f       	adc	r26, r26
    6f22:	bb 1f       	adc	r27, r27
    6f24:	2a 95       	dec	r18
    6f26:	d2 f7       	brpl	.-12     	; 0x6f1c <__ashldi3+0xb2>
    6f28:	48 2b       	or	r20, r24
    6f2a:	59 2b       	or	r21, r25
    6f2c:	6a 2b       	or	r22, r26
    6f2e:	7b 2b       	or	r23, r27
    6f30:	4d 87       	std	Y+13, r20	; 0x0d
    6f32:	5e 87       	std	Y+14, r21	; 0x0e
    6f34:	6f 87       	std	Y+15, r22	; 0x0f
    6f36:	78 8b       	std	Y+16, r23	; 0x10
    6f38:	29 85       	ldd	r18, Y+9	; 0x09
    6f3a:	3a 85       	ldd	r19, Y+10	; 0x0a
    6f3c:	4b 85       	ldd	r20, Y+11	; 0x0b
    6f3e:	5c 85       	ldd	r21, Y+12	; 0x0c
    6f40:	6d 85       	ldd	r22, Y+13	; 0x0d
    6f42:	7e 85       	ldd	r23, Y+14	; 0x0e
    6f44:	af 85       	ldd	r26, Y+15	; 0x0f
    6f46:	98 89       	ldd	r25, Y+16	; 0x10
    6f48:	8a 2f       	mov	r24, r26
    6f4a:	60 96       	adiw	r28, 0x10	; 16
    6f4c:	cd bf       	out	0x3d, r28	; 61
    6f4e:	de bf       	out	0x3e, r29	; 62
    6f50:	cf 91       	pop	r28
    6f52:	df 91       	pop	r29
    6f54:	0f 91       	pop	r16
    6f56:	ff 90       	pop	r15
    6f58:	ef 90       	pop	r14
    6f5a:	08 95       	ret

00006f5c <__udivdi3>:
    6f5c:	ae e5       	ldi	r26, 0x5E	; 94
    6f5e:	b0 e0       	ldi	r27, 0x00	; 0
    6f60:	e4 eb       	ldi	r30, 0xB4	; 180
    6f62:	f7 e3       	ldi	r31, 0x37	; 55
    6f64:	0c 94 41 46 	jmp	0x8c82	; 0x8c82 <__prologue_saves__>
    6f68:	a8 e0       	ldi	r26, 0x08	; 8
    6f6a:	4e 01       	movw	r8, r28
    6f6c:	08 94       	sec
    6f6e:	81 1c       	adc	r8, r1
    6f70:	91 1c       	adc	r9, r1
    6f72:	f4 01       	movw	r30, r8
    6f74:	6a 2e       	mov	r6, r26
    6f76:	11 92       	st	Z+, r1
    6f78:	6a 94       	dec	r6
    6f7a:	e9 f7       	brne	.-6      	; 0x6f76 <__udivdi3+0x1a>
    6f7c:	29 83       	std	Y+1, r18	; 0x01
    6f7e:	3a 83       	std	Y+2, r19	; 0x02
    6f80:	4b 83       	std	Y+3, r20	; 0x03
    6f82:	5c 83       	std	Y+4, r21	; 0x04
    6f84:	6d 83       	std	Y+5, r22	; 0x05
    6f86:	7e 83       	std	Y+6, r23	; 0x06
    6f88:	8f 83       	std	Y+7, r24	; 0x07
    6f8a:	98 87       	std	Y+8, r25	; 0x08
    6f8c:	ce 01       	movw	r24, r28
    6f8e:	09 96       	adiw	r24, 0x09	; 9
    6f90:	fc 01       	movw	r30, r24
    6f92:	11 92       	st	Z+, r1
    6f94:	aa 95       	dec	r26
    6f96:	e9 f7       	brne	.-6      	; 0x6f92 <__udivdi3+0x36>
    6f98:	a9 86       	std	Y+9, r10	; 0x09
    6f9a:	ba 86       	std	Y+10, r11	; 0x0a
    6f9c:	cb 86       	std	Y+11, r12	; 0x0b
    6f9e:	dc 86       	std	Y+12, r13	; 0x0c
    6fa0:	ed 86       	std	Y+13, r14	; 0x0d
    6fa2:	fe 86       	std	Y+14, r15	; 0x0e
    6fa4:	0f 87       	std	Y+15, r16	; 0x0f
    6fa6:	18 8b       	std	Y+16, r17	; 0x10
    6fa8:	29 84       	ldd	r2, Y+9	; 0x09
    6faa:	3a 84       	ldd	r3, Y+10	; 0x0a
    6fac:	4b 84       	ldd	r4, Y+11	; 0x0b
    6fae:	5c 84       	ldd	r5, Y+12	; 0x0c
    6fb0:	ed 84       	ldd	r14, Y+13	; 0x0d
    6fb2:	fe 84       	ldd	r15, Y+14	; 0x0e
    6fb4:	0f 85       	ldd	r16, Y+15	; 0x0f
    6fb6:	18 89       	ldd	r17, Y+16	; 0x10
    6fb8:	69 80       	ldd	r6, Y+1	; 0x01
    6fba:	7a 80       	ldd	r7, Y+2	; 0x02
    6fbc:	8b 80       	ldd	r8, Y+3	; 0x03
    6fbe:	9c 80       	ldd	r9, Y+4	; 0x04
    6fc0:	6d a6       	std	Y+45, r6	; 0x2d
    6fc2:	7e a6       	std	Y+46, r7	; 0x2e
    6fc4:	8f a6       	std	Y+47, r8	; 0x2f
    6fc6:	98 aa       	std	Y+48, r9	; 0x30
    6fc8:	6d 80       	ldd	r6, Y+5	; 0x05
    6fca:	7e 80       	ldd	r7, Y+6	; 0x06
    6fcc:	8f 80       	ldd	r8, Y+7	; 0x07
    6fce:	98 84       	ldd	r9, Y+8	; 0x08
    6fd0:	e1 14       	cp	r14, r1
    6fd2:	f1 04       	cpc	r15, r1
    6fd4:	01 05       	cpc	r16, r1
    6fd6:	11 05       	cpc	r17, r1
    6fd8:	09 f0       	breq	.+2      	; 0x6fdc <__udivdi3+0x80>
    6fda:	b3 c3       	rjmp	.+1894   	; 0x7742 <__udivdi3+0x7e6>
    6fdc:	62 14       	cp	r6, r2
    6fde:	73 04       	cpc	r7, r3
    6fe0:	84 04       	cpc	r8, r4
    6fe2:	95 04       	cpc	r9, r5
    6fe4:	08 f0       	brcs	.+2      	; 0x6fe8 <__udivdi3+0x8c>
    6fe6:	3d c1       	rjmp	.+634    	; 0x7262 <__udivdi3+0x306>
    6fe8:	00 e0       	ldi	r16, 0x00	; 0
    6fea:	20 16       	cp	r2, r16
    6fec:	00 e0       	ldi	r16, 0x00	; 0
    6fee:	30 06       	cpc	r3, r16
    6ff0:	01 e0       	ldi	r16, 0x01	; 1
    6ff2:	40 06       	cpc	r4, r16
    6ff4:	00 e0       	ldi	r16, 0x00	; 0
    6ff6:	50 06       	cpc	r5, r16
    6ff8:	88 f4       	brcc	.+34     	; 0x701c <__udivdi3+0xc0>
    6ffa:	1f ef       	ldi	r17, 0xFF	; 255
    6ffc:	21 16       	cp	r2, r17
    6ffe:	31 04       	cpc	r3, r1
    7000:	41 04       	cpc	r4, r1
    7002:	51 04       	cpc	r5, r1
    7004:	39 f0       	breq	.+14     	; 0x7014 <__udivdi3+0xb8>
    7006:	30 f0       	brcs	.+12     	; 0x7014 <__udivdi3+0xb8>
    7008:	48 e0       	ldi	r20, 0x08	; 8
    700a:	e4 2e       	mov	r14, r20
    700c:	f1 2c       	mov	r15, r1
    700e:	01 2d       	mov	r16, r1
    7010:	11 2d       	mov	r17, r1
    7012:	18 c0       	rjmp	.+48     	; 0x7044 <__udivdi3+0xe8>
    7014:	ee 24       	eor	r14, r14
    7016:	ff 24       	eor	r15, r15
    7018:	87 01       	movw	r16, r14
    701a:	14 c0       	rjmp	.+40     	; 0x7044 <__udivdi3+0xe8>
    701c:	20 e0       	ldi	r18, 0x00	; 0
    701e:	22 16       	cp	r2, r18
    7020:	20 e0       	ldi	r18, 0x00	; 0
    7022:	32 06       	cpc	r3, r18
    7024:	20 e0       	ldi	r18, 0x00	; 0
    7026:	42 06       	cpc	r4, r18
    7028:	21 e0       	ldi	r18, 0x01	; 1
    702a:	52 06       	cpc	r5, r18
    702c:	30 f0       	brcs	.+12     	; 0x703a <__udivdi3+0xde>
    702e:	38 e1       	ldi	r19, 0x18	; 24
    7030:	e3 2e       	mov	r14, r19
    7032:	f1 2c       	mov	r15, r1
    7034:	01 2d       	mov	r16, r1
    7036:	11 2d       	mov	r17, r1
    7038:	05 c0       	rjmp	.+10     	; 0x7044 <__udivdi3+0xe8>
    703a:	20 e1       	ldi	r18, 0x10	; 16
    703c:	e2 2e       	mov	r14, r18
    703e:	f1 2c       	mov	r15, r1
    7040:	01 2d       	mov	r16, r1
    7042:	11 2d       	mov	r17, r1
    7044:	d2 01       	movw	r26, r4
    7046:	c1 01       	movw	r24, r2
    7048:	0e 2c       	mov	r0, r14
    704a:	04 c0       	rjmp	.+8      	; 0x7054 <__udivdi3+0xf8>
    704c:	b6 95       	lsr	r27
    704e:	a7 95       	ror	r26
    7050:	97 95       	ror	r25
    7052:	87 95       	ror	r24
    7054:	0a 94       	dec	r0
    7056:	d2 f7       	brpl	.-12     	; 0x704c <__udivdi3+0xf0>
    7058:	84 5e       	subi	r24, 0xE4	; 228
    705a:	9f 4d       	sbci	r25, 0xDF	; 223
    705c:	dc 01       	movw	r26, r24
    705e:	2c 91       	ld	r18, X
    7060:	80 e2       	ldi	r24, 0x20	; 32
    7062:	90 e0       	ldi	r25, 0x00	; 0
    7064:	a0 e0       	ldi	r26, 0x00	; 0
    7066:	b0 e0       	ldi	r27, 0x00	; 0
    7068:	8e 19       	sub	r24, r14
    706a:	9f 09       	sbc	r25, r15
    706c:	a0 0b       	sbc	r26, r16
    706e:	b1 0b       	sbc	r27, r17
    7070:	7c 01       	movw	r14, r24
    7072:	8d 01       	movw	r16, r26
    7074:	e2 1a       	sub	r14, r18
    7076:	f1 08       	sbc	r15, r1
    7078:	01 09       	sbc	r16, r1
    707a:	11 09       	sbc	r17, r1
    707c:	e1 14       	cp	r14, r1
    707e:	f1 04       	cpc	r15, r1
    7080:	01 05       	cpc	r16, r1
    7082:	11 05       	cpc	r17, r1
    7084:	a1 f1       	breq	.+104    	; 0x70ee <__udivdi3+0x192>
    7086:	0e 2c       	mov	r0, r14
    7088:	04 c0       	rjmp	.+8      	; 0x7092 <__udivdi3+0x136>
    708a:	22 0c       	add	r2, r2
    708c:	33 1c       	adc	r3, r3
    708e:	44 1c       	adc	r4, r4
    7090:	55 1c       	adc	r5, r5
    7092:	0a 94       	dec	r0
    7094:	d2 f7       	brpl	.-12     	; 0x708a <__udivdi3+0x12e>
    7096:	a4 01       	movw	r20, r8
    7098:	93 01       	movw	r18, r6
    709a:	0e 2c       	mov	r0, r14
    709c:	04 c0       	rjmp	.+8      	; 0x70a6 <__udivdi3+0x14a>
    709e:	22 0f       	add	r18, r18
    70a0:	33 1f       	adc	r19, r19
    70a2:	44 1f       	adc	r20, r20
    70a4:	55 1f       	adc	r21, r21
    70a6:	0a 94       	dec	r0
    70a8:	d2 f7       	brpl	.-12     	; 0x709e <__udivdi3+0x142>
    70aa:	80 e2       	ldi	r24, 0x20	; 32
    70ac:	90 e0       	ldi	r25, 0x00	; 0
    70ae:	8e 19       	sub	r24, r14
    70b0:	9f 09       	sbc	r25, r15
    70b2:	6d a4       	ldd	r6, Y+45	; 0x2d
    70b4:	7e a4       	ldd	r7, Y+46	; 0x2e
    70b6:	8f a4       	ldd	r8, Y+47	; 0x2f
    70b8:	98 a8       	ldd	r9, Y+48	; 0x30
    70ba:	04 c0       	rjmp	.+8      	; 0x70c4 <__udivdi3+0x168>
    70bc:	96 94       	lsr	r9
    70be:	87 94       	ror	r8
    70c0:	77 94       	ror	r7
    70c2:	67 94       	ror	r6
    70c4:	8a 95       	dec	r24
    70c6:	d2 f7       	brpl	.-12     	; 0x70bc <__udivdi3+0x160>
    70c8:	62 2a       	or	r6, r18
    70ca:	73 2a       	or	r7, r19
    70cc:	84 2a       	or	r8, r20
    70ce:	95 2a       	or	r9, r21
    70d0:	ad a4       	ldd	r10, Y+45	; 0x2d
    70d2:	be a4       	ldd	r11, Y+46	; 0x2e
    70d4:	cf a4       	ldd	r12, Y+47	; 0x2f
    70d6:	d8 a8       	ldd	r13, Y+48	; 0x30
    70d8:	04 c0       	rjmp	.+8      	; 0x70e2 <__udivdi3+0x186>
    70da:	aa 0c       	add	r10, r10
    70dc:	bb 1c       	adc	r11, r11
    70de:	cc 1c       	adc	r12, r12
    70e0:	dd 1c       	adc	r13, r13
    70e2:	ea 94       	dec	r14
    70e4:	d2 f7       	brpl	.-12     	; 0x70da <__udivdi3+0x17e>
    70e6:	ad a6       	std	Y+45, r10	; 0x2d
    70e8:	be a6       	std	Y+46, r11	; 0x2e
    70ea:	cf a6       	std	Y+47, r12	; 0x2f
    70ec:	d8 aa       	std	Y+48, r13	; 0x30
    70ee:	62 01       	movw	r12, r4
    70f0:	ee 24       	eor	r14, r14
    70f2:	ff 24       	eor	r15, r15
    70f4:	cd aa       	std	Y+53, r12	; 0x35
    70f6:	de aa       	std	Y+54, r13	; 0x36
    70f8:	ef aa       	std	Y+55, r14	; 0x37
    70fa:	f8 ae       	std	Y+56, r15	; 0x38
    70fc:	92 01       	movw	r18, r4
    70fe:	81 01       	movw	r16, r2
    7100:	20 70       	andi	r18, 0x00	; 0
    7102:	30 70       	andi	r19, 0x00	; 0
    7104:	09 af       	std	Y+57, r16	; 0x39
    7106:	1a af       	std	Y+58, r17	; 0x3a
    7108:	2b af       	std	Y+59, r18	; 0x3b
    710a:	3c af       	std	Y+60, r19	; 0x3c
    710c:	c4 01       	movw	r24, r8
    710e:	b3 01       	movw	r22, r6
    7110:	a7 01       	movw	r20, r14
    7112:	96 01       	movw	r18, r12
    7114:	0e 94 1f 46 	call	0x8c3e	; 0x8c3e <__udivmodsi4>
    7118:	7b 01       	movw	r14, r22
    711a:	8c 01       	movw	r16, r24
    711c:	c4 01       	movw	r24, r8
    711e:	b3 01       	movw	r22, r6
    7120:	2d a9       	ldd	r18, Y+53	; 0x35
    7122:	3e a9       	ldd	r19, Y+54	; 0x36
    7124:	4f a9       	ldd	r20, Y+55	; 0x37
    7126:	58 ad       	ldd	r21, Y+56	; 0x38
    7128:	0e 94 1f 46 	call	0x8c3e	; 0x8c3e <__udivmodsi4>
    712c:	c9 01       	movw	r24, r18
    712e:	da 01       	movw	r26, r20
    7130:	3c 01       	movw	r6, r24
    7132:	4d 01       	movw	r8, r26
    7134:	c4 01       	movw	r24, r8
    7136:	b3 01       	movw	r22, r6
    7138:	29 ad       	ldd	r18, Y+57	; 0x39
    713a:	3a ad       	ldd	r19, Y+58	; 0x3a
    713c:	4b ad       	ldd	r20, Y+59	; 0x3b
    713e:	5c ad       	ldd	r21, Y+60	; 0x3c
    7140:	0e 94 00 46 	call	0x8c00	; 0x8c00 <__mulsi3>
    7144:	9b 01       	movw	r18, r22
    7146:	ac 01       	movw	r20, r24
    7148:	87 01       	movw	r16, r14
    714a:	ff 24       	eor	r15, r15
    714c:	ee 24       	eor	r14, r14
    714e:	ad a4       	ldd	r10, Y+45	; 0x2d
    7150:	be a4       	ldd	r11, Y+46	; 0x2e
    7152:	cf a4       	ldd	r12, Y+47	; 0x2f
    7154:	d8 a8       	ldd	r13, Y+48	; 0x30
    7156:	c6 01       	movw	r24, r12
    7158:	aa 27       	eor	r26, r26
    715a:	bb 27       	eor	r27, r27
    715c:	57 01       	movw	r10, r14
    715e:	68 01       	movw	r12, r16
    7160:	a8 2a       	or	r10, r24
    7162:	b9 2a       	or	r11, r25
    7164:	ca 2a       	or	r12, r26
    7166:	db 2a       	or	r13, r27
    7168:	a2 16       	cp	r10, r18
    716a:	b3 06       	cpc	r11, r19
    716c:	c4 06       	cpc	r12, r20
    716e:	d5 06       	cpc	r13, r21
    7170:	e0 f4       	brcc	.+56     	; 0x71aa <__udivdi3+0x24e>
    7172:	08 94       	sec
    7174:	61 08       	sbc	r6, r1
    7176:	71 08       	sbc	r7, r1
    7178:	81 08       	sbc	r8, r1
    717a:	91 08       	sbc	r9, r1
    717c:	a2 0c       	add	r10, r2
    717e:	b3 1c       	adc	r11, r3
    7180:	c4 1c       	adc	r12, r4
    7182:	d5 1c       	adc	r13, r5
    7184:	a2 14       	cp	r10, r2
    7186:	b3 04       	cpc	r11, r3
    7188:	c4 04       	cpc	r12, r4
    718a:	d5 04       	cpc	r13, r5
    718c:	70 f0       	brcs	.+28     	; 0x71aa <__udivdi3+0x24e>
    718e:	a2 16       	cp	r10, r18
    7190:	b3 06       	cpc	r11, r19
    7192:	c4 06       	cpc	r12, r20
    7194:	d5 06       	cpc	r13, r21
    7196:	48 f4       	brcc	.+18     	; 0x71aa <__udivdi3+0x24e>
    7198:	08 94       	sec
    719a:	61 08       	sbc	r6, r1
    719c:	71 08       	sbc	r7, r1
    719e:	81 08       	sbc	r8, r1
    71a0:	91 08       	sbc	r9, r1
    71a2:	a2 0c       	add	r10, r2
    71a4:	b3 1c       	adc	r11, r3
    71a6:	c4 1c       	adc	r12, r4
    71a8:	d5 1c       	adc	r13, r5
    71aa:	a2 1a       	sub	r10, r18
    71ac:	b3 0a       	sbc	r11, r19
    71ae:	c4 0a       	sbc	r12, r20
    71b0:	d5 0a       	sbc	r13, r21
    71b2:	c6 01       	movw	r24, r12
    71b4:	b5 01       	movw	r22, r10
    71b6:	2d a9       	ldd	r18, Y+53	; 0x35
    71b8:	3e a9       	ldd	r19, Y+54	; 0x36
    71ba:	4f a9       	ldd	r20, Y+55	; 0x37
    71bc:	58 ad       	ldd	r21, Y+56	; 0x38
    71be:	0e 94 1f 46 	call	0x8c3e	; 0x8c3e <__udivmodsi4>
    71c2:	7b 01       	movw	r14, r22
    71c4:	8c 01       	movw	r16, r24
    71c6:	c6 01       	movw	r24, r12
    71c8:	b5 01       	movw	r22, r10
    71ca:	2d a9       	ldd	r18, Y+53	; 0x35
    71cc:	3e a9       	ldd	r19, Y+54	; 0x36
    71ce:	4f a9       	ldd	r20, Y+55	; 0x37
    71d0:	58 ad       	ldd	r21, Y+56	; 0x38
    71d2:	0e 94 1f 46 	call	0x8c3e	; 0x8c3e <__udivmodsi4>
    71d6:	c9 01       	movw	r24, r18
    71d8:	da 01       	movw	r26, r20
    71da:	5c 01       	movw	r10, r24
    71dc:	6d 01       	movw	r12, r26
    71de:	c6 01       	movw	r24, r12
    71e0:	b5 01       	movw	r22, r10
    71e2:	29 ad       	ldd	r18, Y+57	; 0x39
    71e4:	3a ad       	ldd	r19, Y+58	; 0x3a
    71e6:	4b ad       	ldd	r20, Y+59	; 0x3b
    71e8:	5c ad       	ldd	r21, Y+60	; 0x3c
    71ea:	0e 94 00 46 	call	0x8c00	; 0x8c00 <__mulsi3>
    71ee:	9b 01       	movw	r18, r22
    71f0:	ac 01       	movw	r20, r24
    71f2:	87 01       	movw	r16, r14
    71f4:	ff 24       	eor	r15, r15
    71f6:	ee 24       	eor	r14, r14
    71f8:	8d a5       	ldd	r24, Y+45	; 0x2d
    71fa:	9e a5       	ldd	r25, Y+46	; 0x2e
    71fc:	af a5       	ldd	r26, Y+47	; 0x2f
    71fe:	b8 a9       	ldd	r27, Y+48	; 0x30
    7200:	a0 70       	andi	r26, 0x00	; 0
    7202:	b0 70       	andi	r27, 0x00	; 0
    7204:	e8 2a       	or	r14, r24
    7206:	f9 2a       	or	r15, r25
    7208:	0a 2b       	or	r16, r26
    720a:	1b 2b       	or	r17, r27
    720c:	e2 16       	cp	r14, r18
    720e:	f3 06       	cpc	r15, r19
    7210:	04 07       	cpc	r16, r20
    7212:	15 07       	cpc	r17, r21
    7214:	c0 f4       	brcc	.+48     	; 0x7246 <__udivdi3+0x2ea>
    7216:	08 94       	sec
    7218:	a1 08       	sbc	r10, r1
    721a:	b1 08       	sbc	r11, r1
    721c:	c1 08       	sbc	r12, r1
    721e:	d1 08       	sbc	r13, r1
    7220:	e2 0c       	add	r14, r2
    7222:	f3 1c       	adc	r15, r3
    7224:	04 1d       	adc	r16, r4
    7226:	15 1d       	adc	r17, r5
    7228:	e2 14       	cp	r14, r2
    722a:	f3 04       	cpc	r15, r3
    722c:	04 05       	cpc	r16, r4
    722e:	15 05       	cpc	r17, r5
    7230:	50 f0       	brcs	.+20     	; 0x7246 <__udivdi3+0x2ea>
    7232:	e2 16       	cp	r14, r18
    7234:	f3 06       	cpc	r15, r19
    7236:	04 07       	cpc	r16, r20
    7238:	15 07       	cpc	r17, r21
    723a:	28 f4       	brcc	.+10     	; 0x7246 <__udivdi3+0x2ea>
    723c:	08 94       	sec
    723e:	a1 08       	sbc	r10, r1
    7240:	b1 08       	sbc	r11, r1
    7242:	c1 08       	sbc	r12, r1
    7244:	d1 08       	sbc	r13, r1
    7246:	d3 01       	movw	r26, r6
    7248:	99 27       	eor	r25, r25
    724a:	88 27       	eor	r24, r24
    724c:	86 01       	movw	r16, r12
    724e:	75 01       	movw	r14, r10
    7250:	e8 2a       	or	r14, r24
    7252:	f9 2a       	or	r15, r25
    7254:	0a 2b       	or	r16, r26
    7256:	1b 2b       	or	r17, r27
    7258:	e9 aa       	std	Y+49, r14	; 0x31
    725a:	fa aa       	std	Y+50, r15	; 0x32
    725c:	0b ab       	std	Y+51, r16	; 0x33
    725e:	1c ab       	std	Y+52, r17	; 0x34
    7260:	cf c4       	rjmp	.+2462   	; 0x7c00 <__udivdi3+0xca4>
    7262:	21 14       	cp	r2, r1
    7264:	31 04       	cpc	r3, r1
    7266:	41 04       	cpc	r4, r1
    7268:	51 04       	cpc	r5, r1
    726a:	71 f4       	brne	.+28     	; 0x7288 <__udivdi3+0x32c>
    726c:	61 e0       	ldi	r22, 0x01	; 1
    726e:	70 e0       	ldi	r23, 0x00	; 0
    7270:	80 e0       	ldi	r24, 0x00	; 0
    7272:	90 e0       	ldi	r25, 0x00	; 0
    7274:	20 e0       	ldi	r18, 0x00	; 0
    7276:	30 e0       	ldi	r19, 0x00	; 0
    7278:	40 e0       	ldi	r20, 0x00	; 0
    727a:	50 e0       	ldi	r21, 0x00	; 0
    727c:	0e 94 1f 46 	call	0x8c3e	; 0x8c3e <__udivmodsi4>
    7280:	c9 01       	movw	r24, r18
    7282:	da 01       	movw	r26, r20
    7284:	1c 01       	movw	r2, r24
    7286:	2d 01       	movw	r4, r26
    7288:	00 e0       	ldi	r16, 0x00	; 0
    728a:	20 16       	cp	r2, r16
    728c:	00 e0       	ldi	r16, 0x00	; 0
    728e:	30 06       	cpc	r3, r16
    7290:	01 e0       	ldi	r16, 0x01	; 1
    7292:	40 06       	cpc	r4, r16
    7294:	00 e0       	ldi	r16, 0x00	; 0
    7296:	50 06       	cpc	r5, r16
    7298:	88 f4       	brcc	.+34     	; 0x72bc <__udivdi3+0x360>
    729a:	1f ef       	ldi	r17, 0xFF	; 255
    729c:	21 16       	cp	r2, r17
    729e:	31 04       	cpc	r3, r1
    72a0:	41 04       	cpc	r4, r1
    72a2:	51 04       	cpc	r5, r1
    72a4:	31 f0       	breq	.+12     	; 0x72b2 <__udivdi3+0x356>
    72a6:	28 f0       	brcs	.+10     	; 0x72b2 <__udivdi3+0x356>
    72a8:	48 e0       	ldi	r20, 0x08	; 8
    72aa:	50 e0       	ldi	r21, 0x00	; 0
    72ac:	60 e0       	ldi	r22, 0x00	; 0
    72ae:	70 e0       	ldi	r23, 0x00	; 0
    72b0:	17 c0       	rjmp	.+46     	; 0x72e0 <__udivdi3+0x384>
    72b2:	40 e0       	ldi	r20, 0x00	; 0
    72b4:	50 e0       	ldi	r21, 0x00	; 0
    72b6:	60 e0       	ldi	r22, 0x00	; 0
    72b8:	70 e0       	ldi	r23, 0x00	; 0
    72ba:	12 c0       	rjmp	.+36     	; 0x72e0 <__udivdi3+0x384>
    72bc:	20 e0       	ldi	r18, 0x00	; 0
    72be:	22 16       	cp	r2, r18
    72c0:	20 e0       	ldi	r18, 0x00	; 0
    72c2:	32 06       	cpc	r3, r18
    72c4:	20 e0       	ldi	r18, 0x00	; 0
    72c6:	42 06       	cpc	r4, r18
    72c8:	21 e0       	ldi	r18, 0x01	; 1
    72ca:	52 06       	cpc	r5, r18
    72cc:	28 f0       	brcs	.+10     	; 0x72d8 <__udivdi3+0x37c>
    72ce:	48 e1       	ldi	r20, 0x18	; 24
    72d0:	50 e0       	ldi	r21, 0x00	; 0
    72d2:	60 e0       	ldi	r22, 0x00	; 0
    72d4:	70 e0       	ldi	r23, 0x00	; 0
    72d6:	04 c0       	rjmp	.+8      	; 0x72e0 <__udivdi3+0x384>
    72d8:	40 e1       	ldi	r20, 0x10	; 16
    72da:	50 e0       	ldi	r21, 0x00	; 0
    72dc:	60 e0       	ldi	r22, 0x00	; 0
    72de:	70 e0       	ldi	r23, 0x00	; 0
    72e0:	d2 01       	movw	r26, r4
    72e2:	c1 01       	movw	r24, r2
    72e4:	04 2e       	mov	r0, r20
    72e6:	04 c0       	rjmp	.+8      	; 0x72f0 <__udivdi3+0x394>
    72e8:	b6 95       	lsr	r27
    72ea:	a7 95       	ror	r26
    72ec:	97 95       	ror	r25
    72ee:	87 95       	ror	r24
    72f0:	0a 94       	dec	r0
    72f2:	d2 f7       	brpl	.-12     	; 0x72e8 <__udivdi3+0x38c>
    72f4:	84 5e       	subi	r24, 0xE4	; 228
    72f6:	9f 4d       	sbci	r25, 0xDF	; 223
    72f8:	dc 01       	movw	r26, r24
    72fa:	2c 91       	ld	r18, X
    72fc:	e0 e2       	ldi	r30, 0x20	; 32
    72fe:	ee 2e       	mov	r14, r30
    7300:	f1 2c       	mov	r15, r1
    7302:	01 2d       	mov	r16, r1
    7304:	11 2d       	mov	r17, r1
    7306:	d8 01       	movw	r26, r16
    7308:	c7 01       	movw	r24, r14
    730a:	84 1b       	sub	r24, r20
    730c:	95 0b       	sbc	r25, r21
    730e:	a6 0b       	sbc	r26, r22
    7310:	b7 0b       	sbc	r27, r23
    7312:	82 1b       	sub	r24, r18
    7314:	91 09       	sbc	r25, r1
    7316:	a1 09       	sbc	r26, r1
    7318:	b1 09       	sbc	r27, r1
    731a:	00 97       	sbiw	r24, 0x00	; 0
    731c:	a1 05       	cpc	r26, r1
    731e:	b1 05       	cpc	r27, r1
    7320:	61 f4       	brne	.+24     	; 0x733a <__udivdi3+0x3de>
    7322:	64 01       	movw	r12, r8
    7324:	53 01       	movw	r10, r6
    7326:	a2 18       	sub	r10, r2
    7328:	b3 08       	sbc	r11, r3
    732a:	c4 08       	sbc	r12, r4
    732c:	d5 08       	sbc	r13, r5
    732e:	31 e0       	ldi	r19, 0x01	; 1
    7330:	63 2e       	mov	r6, r19
    7332:	71 2c       	mov	r7, r1
    7334:	81 2c       	mov	r8, r1
    7336:	91 2c       	mov	r9, r1
    7338:	1e c1       	rjmp	.+572    	; 0x7576 <__udivdi3+0x61a>
    733a:	6f 96       	adiw	r28, 0x1f	; 31
    733c:	8f af       	std	Y+63, r24	; 0x3f
    733e:	6f 97       	sbiw	r28, 0x1f	; 31
    7340:	08 2e       	mov	r0, r24
    7342:	04 c0       	rjmp	.+8      	; 0x734c <__udivdi3+0x3f0>
    7344:	22 0c       	add	r2, r2
    7346:	33 1c       	adc	r3, r3
    7348:	44 1c       	adc	r4, r4
    734a:	55 1c       	adc	r5, r5
    734c:	0a 94       	dec	r0
    734e:	d2 f7       	brpl	.-12     	; 0x7344 <__udivdi3+0x3e8>
    7350:	ee 2d       	mov	r30, r14
    7352:	e8 1b       	sub	r30, r24
    7354:	64 01       	movw	r12, r8
    7356:	53 01       	movw	r10, r6
    7358:	0e 2e       	mov	r0, r30
    735a:	04 c0       	rjmp	.+8      	; 0x7364 <__udivdi3+0x408>
    735c:	d6 94       	lsr	r13
    735e:	c7 94       	ror	r12
    7360:	b7 94       	ror	r11
    7362:	a7 94       	ror	r10
    7364:	0a 94       	dec	r0
    7366:	d2 f7       	brpl	.-12     	; 0x735c <__udivdi3+0x400>
    7368:	a4 01       	movw	r20, r8
    736a:	93 01       	movw	r18, r6
    736c:	6f 96       	adiw	r28, 0x1f	; 31
    736e:	0f ac       	ldd	r0, Y+63	; 0x3f
    7370:	6f 97       	sbiw	r28, 0x1f	; 31
    7372:	04 c0       	rjmp	.+8      	; 0x737c <__udivdi3+0x420>
    7374:	22 0f       	add	r18, r18
    7376:	33 1f       	adc	r19, r19
    7378:	44 1f       	adc	r20, r20
    737a:	55 1f       	adc	r21, r21
    737c:	0a 94       	dec	r0
    737e:	d2 f7       	brpl	.-12     	; 0x7374 <__udivdi3+0x418>
    7380:	6d a4       	ldd	r6, Y+45	; 0x2d
    7382:	7e a4       	ldd	r7, Y+46	; 0x2e
    7384:	8f a4       	ldd	r8, Y+47	; 0x2f
    7386:	98 a8       	ldd	r9, Y+48	; 0x30
    7388:	0e 2e       	mov	r0, r30
    738a:	04 c0       	rjmp	.+8      	; 0x7394 <__udivdi3+0x438>
    738c:	96 94       	lsr	r9
    738e:	87 94       	ror	r8
    7390:	77 94       	ror	r7
    7392:	67 94       	ror	r6
    7394:	0a 94       	dec	r0
    7396:	d2 f7       	brpl	.-12     	; 0x738c <__udivdi3+0x430>
    7398:	84 01       	movw	r16, r8
    739a:	73 01       	movw	r14, r6
    739c:	e2 2a       	or	r14, r18
    739e:	f3 2a       	or	r15, r19
    73a0:	04 2b       	or	r16, r20
    73a2:	15 2b       	or	r17, r21
    73a4:	e9 a6       	std	Y+41, r14	; 0x29
    73a6:	fa a6       	std	Y+42, r15	; 0x2a
    73a8:	0b a7       	std	Y+43, r16	; 0x2b
    73aa:	1c a7       	std	Y+44, r17	; 0x2c
    73ac:	32 01       	movw	r6, r4
    73ae:	88 24       	eor	r8, r8
    73b0:	99 24       	eor	r9, r9
    73b2:	92 01       	movw	r18, r4
    73b4:	81 01       	movw	r16, r2
    73b6:	20 70       	andi	r18, 0x00	; 0
    73b8:	30 70       	andi	r19, 0x00	; 0
    73ba:	21 96       	adiw	r28, 0x01	; 1
    73bc:	0c af       	std	Y+60, r16	; 0x3c
    73be:	1d af       	std	Y+61, r17	; 0x3d
    73c0:	2e af       	std	Y+62, r18	; 0x3e
    73c2:	3f af       	std	Y+63, r19	; 0x3f
    73c4:	21 97       	sbiw	r28, 0x01	; 1
    73c6:	c6 01       	movw	r24, r12
    73c8:	b5 01       	movw	r22, r10
    73ca:	a4 01       	movw	r20, r8
    73cc:	93 01       	movw	r18, r6
    73ce:	0e 94 1f 46 	call	0x8c3e	; 0x8c3e <__udivmodsi4>
    73d2:	7b 01       	movw	r14, r22
    73d4:	8c 01       	movw	r16, r24
    73d6:	c6 01       	movw	r24, r12
    73d8:	b5 01       	movw	r22, r10
    73da:	a4 01       	movw	r20, r8
    73dc:	93 01       	movw	r18, r6
    73de:	0e 94 1f 46 	call	0x8c3e	; 0x8c3e <__udivmodsi4>
    73e2:	c9 01       	movw	r24, r18
    73e4:	da 01       	movw	r26, r20
    73e6:	25 96       	adiw	r28, 0x05	; 5
    73e8:	8c af       	std	Y+60, r24	; 0x3c
    73ea:	9d af       	std	Y+61, r25	; 0x3d
    73ec:	ae af       	std	Y+62, r26	; 0x3e
    73ee:	bf af       	std	Y+63, r27	; 0x3f
    73f0:	25 97       	sbiw	r28, 0x05	; 5
    73f2:	bc 01       	movw	r22, r24
    73f4:	cd 01       	movw	r24, r26
    73f6:	21 96       	adiw	r28, 0x01	; 1
    73f8:	2c ad       	ldd	r18, Y+60	; 0x3c
    73fa:	3d ad       	ldd	r19, Y+61	; 0x3d
    73fc:	4e ad       	ldd	r20, Y+62	; 0x3e
    73fe:	5f ad       	ldd	r21, Y+63	; 0x3f
    7400:	21 97       	sbiw	r28, 0x01	; 1
    7402:	0e 94 00 46 	call	0x8c00	; 0x8c00 <__mulsi3>
    7406:	9b 01       	movw	r18, r22
    7408:	ac 01       	movw	r20, r24
    740a:	87 01       	movw	r16, r14
    740c:	ff 24       	eor	r15, r15
    740e:	ee 24       	eor	r14, r14
    7410:	a9 a4       	ldd	r10, Y+41	; 0x29
    7412:	ba a4       	ldd	r11, Y+42	; 0x2a
    7414:	cb a4       	ldd	r12, Y+43	; 0x2b
    7416:	dc a4       	ldd	r13, Y+44	; 0x2c
    7418:	c6 01       	movw	r24, r12
    741a:	aa 27       	eor	r26, r26
    741c:	bb 27       	eor	r27, r27
    741e:	5c 01       	movw	r10, r24
    7420:	6d 01       	movw	r12, r26
    7422:	ae 28       	or	r10, r14
    7424:	bf 28       	or	r11, r15
    7426:	c0 2a       	or	r12, r16
    7428:	d1 2a       	or	r13, r17
    742a:	a2 16       	cp	r10, r18
    742c:	b3 06       	cpc	r11, r19
    742e:	c4 06       	cpc	r12, r20
    7430:	d5 06       	cpc	r13, r21
    7432:	60 f5       	brcc	.+88     	; 0x748c <__udivdi3+0x530>
    7434:	25 96       	adiw	r28, 0x05	; 5
    7436:	6c ad       	ldd	r22, Y+60	; 0x3c
    7438:	7d ad       	ldd	r23, Y+61	; 0x3d
    743a:	8e ad       	ldd	r24, Y+62	; 0x3e
    743c:	9f ad       	ldd	r25, Y+63	; 0x3f
    743e:	25 97       	sbiw	r28, 0x05	; 5
    7440:	61 50       	subi	r22, 0x01	; 1
    7442:	70 40       	sbci	r23, 0x00	; 0
    7444:	80 40       	sbci	r24, 0x00	; 0
    7446:	90 40       	sbci	r25, 0x00	; 0
    7448:	25 96       	adiw	r28, 0x05	; 5
    744a:	6c af       	std	Y+60, r22	; 0x3c
    744c:	7d af       	std	Y+61, r23	; 0x3d
    744e:	8e af       	std	Y+62, r24	; 0x3e
    7450:	9f af       	std	Y+63, r25	; 0x3f
    7452:	25 97       	sbiw	r28, 0x05	; 5
    7454:	a2 0c       	add	r10, r2
    7456:	b3 1c       	adc	r11, r3
    7458:	c4 1c       	adc	r12, r4
    745a:	d5 1c       	adc	r13, r5
    745c:	a2 14       	cp	r10, r2
    745e:	b3 04       	cpc	r11, r3
    7460:	c4 04       	cpc	r12, r4
    7462:	d5 04       	cpc	r13, r5
    7464:	98 f0       	brcs	.+38     	; 0x748c <__udivdi3+0x530>
    7466:	a2 16       	cp	r10, r18
    7468:	b3 06       	cpc	r11, r19
    746a:	c4 06       	cpc	r12, r20
    746c:	d5 06       	cpc	r13, r21
    746e:	70 f4       	brcc	.+28     	; 0x748c <__udivdi3+0x530>
    7470:	61 50       	subi	r22, 0x01	; 1
    7472:	70 40       	sbci	r23, 0x00	; 0
    7474:	80 40       	sbci	r24, 0x00	; 0
    7476:	90 40       	sbci	r25, 0x00	; 0
    7478:	25 96       	adiw	r28, 0x05	; 5
    747a:	6c af       	std	Y+60, r22	; 0x3c
    747c:	7d af       	std	Y+61, r23	; 0x3d
    747e:	8e af       	std	Y+62, r24	; 0x3e
    7480:	9f af       	std	Y+63, r25	; 0x3f
    7482:	25 97       	sbiw	r28, 0x05	; 5
    7484:	a2 0c       	add	r10, r2
    7486:	b3 1c       	adc	r11, r3
    7488:	c4 1c       	adc	r12, r4
    748a:	d5 1c       	adc	r13, r5
    748c:	a2 1a       	sub	r10, r18
    748e:	b3 0a       	sbc	r11, r19
    7490:	c4 0a       	sbc	r12, r20
    7492:	d5 0a       	sbc	r13, r21
    7494:	c6 01       	movw	r24, r12
    7496:	b5 01       	movw	r22, r10
    7498:	a4 01       	movw	r20, r8
    749a:	93 01       	movw	r18, r6
    749c:	0e 94 1f 46 	call	0x8c3e	; 0x8c3e <__udivmodsi4>
    74a0:	7b 01       	movw	r14, r22
    74a2:	8c 01       	movw	r16, r24
    74a4:	c6 01       	movw	r24, r12
    74a6:	b5 01       	movw	r22, r10
    74a8:	a4 01       	movw	r20, r8
    74aa:	93 01       	movw	r18, r6
    74ac:	0e 94 1f 46 	call	0x8c3e	; 0x8c3e <__udivmodsi4>
    74b0:	c9 01       	movw	r24, r18
    74b2:	da 01       	movw	r26, r20
    74b4:	3c 01       	movw	r6, r24
    74b6:	4d 01       	movw	r8, r26
    74b8:	c4 01       	movw	r24, r8
    74ba:	b3 01       	movw	r22, r6
    74bc:	21 96       	adiw	r28, 0x01	; 1
    74be:	2c ad       	ldd	r18, Y+60	; 0x3c
    74c0:	3d ad       	ldd	r19, Y+61	; 0x3d
    74c2:	4e ad       	ldd	r20, Y+62	; 0x3e
    74c4:	5f ad       	ldd	r21, Y+63	; 0x3f
    74c6:	21 97       	sbiw	r28, 0x01	; 1
    74c8:	0e 94 00 46 	call	0x8c00	; 0x8c00 <__mulsi3>
    74cc:	9b 01       	movw	r18, r22
    74ce:	ac 01       	movw	r20, r24
    74d0:	87 01       	movw	r16, r14
    74d2:	ff 24       	eor	r15, r15
    74d4:	ee 24       	eor	r14, r14
    74d6:	89 a5       	ldd	r24, Y+41	; 0x29
    74d8:	9a a5       	ldd	r25, Y+42	; 0x2a
    74da:	ab a5       	ldd	r26, Y+43	; 0x2b
    74dc:	bc a5       	ldd	r27, Y+44	; 0x2c
    74de:	a0 70       	andi	r26, 0x00	; 0
    74e0:	b0 70       	andi	r27, 0x00	; 0
    74e2:	57 01       	movw	r10, r14
    74e4:	68 01       	movw	r12, r16
    74e6:	a8 2a       	or	r10, r24
    74e8:	b9 2a       	or	r11, r25
    74ea:	ca 2a       	or	r12, r26
    74ec:	db 2a       	or	r13, r27
    74ee:	a2 16       	cp	r10, r18
    74f0:	b3 06       	cpc	r11, r19
    74f2:	c4 06       	cpc	r12, r20
    74f4:	d5 06       	cpc	r13, r21
    74f6:	e0 f4       	brcc	.+56     	; 0x7530 <__udivdi3+0x5d4>
    74f8:	08 94       	sec
    74fa:	61 08       	sbc	r6, r1
    74fc:	71 08       	sbc	r7, r1
    74fe:	81 08       	sbc	r8, r1
    7500:	91 08       	sbc	r9, r1
    7502:	a2 0c       	add	r10, r2
    7504:	b3 1c       	adc	r11, r3
    7506:	c4 1c       	adc	r12, r4
    7508:	d5 1c       	adc	r13, r5
    750a:	a2 14       	cp	r10, r2
    750c:	b3 04       	cpc	r11, r3
    750e:	c4 04       	cpc	r12, r4
    7510:	d5 04       	cpc	r13, r5
    7512:	70 f0       	brcs	.+28     	; 0x7530 <__udivdi3+0x5d4>
    7514:	a2 16       	cp	r10, r18
    7516:	b3 06       	cpc	r11, r19
    7518:	c4 06       	cpc	r12, r20
    751a:	d5 06       	cpc	r13, r21
    751c:	48 f4       	brcc	.+18     	; 0x7530 <__udivdi3+0x5d4>
    751e:	08 94       	sec
    7520:	61 08       	sbc	r6, r1
    7522:	71 08       	sbc	r7, r1
    7524:	81 08       	sbc	r8, r1
    7526:	91 08       	sbc	r9, r1
    7528:	a2 0c       	add	r10, r2
    752a:	b3 1c       	adc	r11, r3
    752c:	c4 1c       	adc	r12, r4
    752e:	d5 1c       	adc	r13, r5
    7530:	8d a5       	ldd	r24, Y+45	; 0x2d
    7532:	9e a5       	ldd	r25, Y+46	; 0x2e
    7534:	af a5       	ldd	r26, Y+47	; 0x2f
    7536:	b8 a9       	ldd	r27, Y+48	; 0x30
    7538:	6f 96       	adiw	r28, 0x1f	; 31
    753a:	0f ac       	ldd	r0, Y+63	; 0x3f
    753c:	6f 97       	sbiw	r28, 0x1f	; 31
    753e:	04 c0       	rjmp	.+8      	; 0x7548 <__udivdi3+0x5ec>
    7540:	88 0f       	add	r24, r24
    7542:	99 1f       	adc	r25, r25
    7544:	aa 1f       	adc	r26, r26
    7546:	bb 1f       	adc	r27, r27
    7548:	0a 94       	dec	r0
    754a:	d2 f7       	brpl	.-12     	; 0x7540 <__udivdi3+0x5e4>
    754c:	8d a7       	std	Y+45, r24	; 0x2d
    754e:	9e a7       	std	Y+46, r25	; 0x2e
    7550:	af a7       	std	Y+47, r26	; 0x2f
    7552:	b8 ab       	std	Y+48, r27	; 0x30
    7554:	a2 1a       	sub	r10, r18
    7556:	b3 0a       	sbc	r11, r19
    7558:	c4 0a       	sbc	r12, r20
    755a:	d5 0a       	sbc	r13, r21
    755c:	25 96       	adiw	r28, 0x05	; 5
    755e:	ec ac       	ldd	r14, Y+60	; 0x3c
    7560:	fd ac       	ldd	r15, Y+61	; 0x3d
    7562:	0e ad       	ldd	r16, Y+62	; 0x3e
    7564:	1f ad       	ldd	r17, Y+63	; 0x3f
    7566:	25 97       	sbiw	r28, 0x05	; 5
    7568:	d7 01       	movw	r26, r14
    756a:	99 27       	eor	r25, r25
    756c:	88 27       	eor	r24, r24
    756e:	68 2a       	or	r6, r24
    7570:	79 2a       	or	r7, r25
    7572:	8a 2a       	or	r8, r26
    7574:	9b 2a       	or	r9, r27
    7576:	82 01       	movw	r16, r4
    7578:	22 27       	eor	r18, r18
    757a:	33 27       	eor	r19, r19
    757c:	29 96       	adiw	r28, 0x09	; 9
    757e:	0c af       	std	Y+60, r16	; 0x3c
    7580:	1d af       	std	Y+61, r17	; 0x3d
    7582:	2e af       	std	Y+62, r18	; 0x3e
    7584:	3f af       	std	Y+63, r19	; 0x3f
    7586:	29 97       	sbiw	r28, 0x09	; 9
    7588:	a2 01       	movw	r20, r4
    758a:	91 01       	movw	r18, r2
    758c:	40 70       	andi	r20, 0x00	; 0
    758e:	50 70       	andi	r21, 0x00	; 0
    7590:	2d 96       	adiw	r28, 0x0d	; 13
    7592:	2c af       	std	Y+60, r18	; 0x3c
    7594:	3d af       	std	Y+61, r19	; 0x3d
    7596:	4e af       	std	Y+62, r20	; 0x3e
    7598:	5f af       	std	Y+63, r21	; 0x3f
    759a:	2d 97       	sbiw	r28, 0x0d	; 13
    759c:	c6 01       	movw	r24, r12
    759e:	b5 01       	movw	r22, r10
    75a0:	29 96       	adiw	r28, 0x09	; 9
    75a2:	2c ad       	ldd	r18, Y+60	; 0x3c
    75a4:	3d ad       	ldd	r19, Y+61	; 0x3d
    75a6:	4e ad       	ldd	r20, Y+62	; 0x3e
    75a8:	5f ad       	ldd	r21, Y+63	; 0x3f
    75aa:	29 97       	sbiw	r28, 0x09	; 9
    75ac:	0e 94 1f 46 	call	0x8c3e	; 0x8c3e <__udivmodsi4>
    75b0:	7b 01       	movw	r14, r22
    75b2:	8c 01       	movw	r16, r24
    75b4:	c6 01       	movw	r24, r12
    75b6:	b5 01       	movw	r22, r10
    75b8:	29 96       	adiw	r28, 0x09	; 9
    75ba:	2c ad       	ldd	r18, Y+60	; 0x3c
    75bc:	3d ad       	ldd	r19, Y+61	; 0x3d
    75be:	4e ad       	ldd	r20, Y+62	; 0x3e
    75c0:	5f ad       	ldd	r21, Y+63	; 0x3f
    75c2:	29 97       	sbiw	r28, 0x09	; 9
    75c4:	0e 94 1f 46 	call	0x8c3e	; 0x8c3e <__udivmodsi4>
    75c8:	c9 01       	movw	r24, r18
    75ca:	da 01       	movw	r26, r20
    75cc:	61 96       	adiw	r28, 0x11	; 17
    75ce:	8c af       	std	Y+60, r24	; 0x3c
    75d0:	9d af       	std	Y+61, r25	; 0x3d
    75d2:	ae af       	std	Y+62, r26	; 0x3e
    75d4:	bf af       	std	Y+63, r27	; 0x3f
    75d6:	61 97       	sbiw	r28, 0x11	; 17
    75d8:	bc 01       	movw	r22, r24
    75da:	cd 01       	movw	r24, r26
    75dc:	2d 96       	adiw	r28, 0x0d	; 13
    75de:	2c ad       	ldd	r18, Y+60	; 0x3c
    75e0:	3d ad       	ldd	r19, Y+61	; 0x3d
    75e2:	4e ad       	ldd	r20, Y+62	; 0x3e
    75e4:	5f ad       	ldd	r21, Y+63	; 0x3f
    75e6:	2d 97       	sbiw	r28, 0x0d	; 13
    75e8:	0e 94 00 46 	call	0x8c00	; 0x8c00 <__mulsi3>
    75ec:	9b 01       	movw	r18, r22
    75ee:	ac 01       	movw	r20, r24
    75f0:	87 01       	movw	r16, r14
    75f2:	ff 24       	eor	r15, r15
    75f4:	ee 24       	eor	r14, r14
    75f6:	ad a4       	ldd	r10, Y+45	; 0x2d
    75f8:	be a4       	ldd	r11, Y+46	; 0x2e
    75fa:	cf a4       	ldd	r12, Y+47	; 0x2f
    75fc:	d8 a8       	ldd	r13, Y+48	; 0x30
    75fe:	c6 01       	movw	r24, r12
    7600:	aa 27       	eor	r26, r26
    7602:	bb 27       	eor	r27, r27
    7604:	57 01       	movw	r10, r14
    7606:	68 01       	movw	r12, r16
    7608:	a8 2a       	or	r10, r24
    760a:	b9 2a       	or	r11, r25
    760c:	ca 2a       	or	r12, r26
    760e:	db 2a       	or	r13, r27
    7610:	a2 16       	cp	r10, r18
    7612:	b3 06       	cpc	r11, r19
    7614:	c4 06       	cpc	r12, r20
    7616:	d5 06       	cpc	r13, r21
    7618:	60 f5       	brcc	.+88     	; 0x7672 <__udivdi3+0x716>
    761a:	61 96       	adiw	r28, 0x11	; 17
    761c:	6c ad       	ldd	r22, Y+60	; 0x3c
    761e:	7d ad       	ldd	r23, Y+61	; 0x3d
    7620:	8e ad       	ldd	r24, Y+62	; 0x3e
    7622:	9f ad       	ldd	r25, Y+63	; 0x3f
    7624:	61 97       	sbiw	r28, 0x11	; 17
    7626:	61 50       	subi	r22, 0x01	; 1
    7628:	70 40       	sbci	r23, 0x00	; 0
    762a:	80 40       	sbci	r24, 0x00	; 0
    762c:	90 40       	sbci	r25, 0x00	; 0
    762e:	61 96       	adiw	r28, 0x11	; 17
    7630:	6c af       	std	Y+60, r22	; 0x3c
    7632:	7d af       	std	Y+61, r23	; 0x3d
    7634:	8e af       	std	Y+62, r24	; 0x3e
    7636:	9f af       	std	Y+63, r25	; 0x3f
    7638:	61 97       	sbiw	r28, 0x11	; 17
    763a:	a2 0c       	add	r10, r2
    763c:	b3 1c       	adc	r11, r3
    763e:	c4 1c       	adc	r12, r4
    7640:	d5 1c       	adc	r13, r5
    7642:	a2 14       	cp	r10, r2
    7644:	b3 04       	cpc	r11, r3
    7646:	c4 04       	cpc	r12, r4
    7648:	d5 04       	cpc	r13, r5
    764a:	98 f0       	brcs	.+38     	; 0x7672 <__udivdi3+0x716>
    764c:	a2 16       	cp	r10, r18
    764e:	b3 06       	cpc	r11, r19
    7650:	c4 06       	cpc	r12, r20
    7652:	d5 06       	cpc	r13, r21
    7654:	70 f4       	brcc	.+28     	; 0x7672 <__udivdi3+0x716>
    7656:	61 50       	subi	r22, 0x01	; 1
    7658:	70 40       	sbci	r23, 0x00	; 0
    765a:	80 40       	sbci	r24, 0x00	; 0
    765c:	90 40       	sbci	r25, 0x00	; 0
    765e:	61 96       	adiw	r28, 0x11	; 17
    7660:	6c af       	std	Y+60, r22	; 0x3c
    7662:	7d af       	std	Y+61, r23	; 0x3d
    7664:	8e af       	std	Y+62, r24	; 0x3e
    7666:	9f af       	std	Y+63, r25	; 0x3f
    7668:	61 97       	sbiw	r28, 0x11	; 17
    766a:	a2 0c       	add	r10, r2
    766c:	b3 1c       	adc	r11, r3
    766e:	c4 1c       	adc	r12, r4
    7670:	d5 1c       	adc	r13, r5
    7672:	a2 1a       	sub	r10, r18
    7674:	b3 0a       	sbc	r11, r19
    7676:	c4 0a       	sbc	r12, r20
    7678:	d5 0a       	sbc	r13, r21
    767a:	c6 01       	movw	r24, r12
    767c:	b5 01       	movw	r22, r10
    767e:	29 96       	adiw	r28, 0x09	; 9
    7680:	2c ad       	ldd	r18, Y+60	; 0x3c
    7682:	3d ad       	ldd	r19, Y+61	; 0x3d
    7684:	4e ad       	ldd	r20, Y+62	; 0x3e
    7686:	5f ad       	ldd	r21, Y+63	; 0x3f
    7688:	29 97       	sbiw	r28, 0x09	; 9
    768a:	0e 94 1f 46 	call	0x8c3e	; 0x8c3e <__udivmodsi4>
    768e:	7b 01       	movw	r14, r22
    7690:	8c 01       	movw	r16, r24
    7692:	c6 01       	movw	r24, r12
    7694:	b5 01       	movw	r22, r10
    7696:	29 96       	adiw	r28, 0x09	; 9
    7698:	2c ad       	ldd	r18, Y+60	; 0x3c
    769a:	3d ad       	ldd	r19, Y+61	; 0x3d
    769c:	4e ad       	ldd	r20, Y+62	; 0x3e
    769e:	5f ad       	ldd	r21, Y+63	; 0x3f
    76a0:	29 97       	sbiw	r28, 0x09	; 9
    76a2:	0e 94 1f 46 	call	0x8c3e	; 0x8c3e <__udivmodsi4>
    76a6:	c9 01       	movw	r24, r18
    76a8:	da 01       	movw	r26, r20
    76aa:	5c 01       	movw	r10, r24
    76ac:	6d 01       	movw	r12, r26
    76ae:	c6 01       	movw	r24, r12
    76b0:	b5 01       	movw	r22, r10
    76b2:	2d 96       	adiw	r28, 0x0d	; 13
    76b4:	2c ad       	ldd	r18, Y+60	; 0x3c
    76b6:	3d ad       	ldd	r19, Y+61	; 0x3d
    76b8:	4e ad       	ldd	r20, Y+62	; 0x3e
    76ba:	5f ad       	ldd	r21, Y+63	; 0x3f
    76bc:	2d 97       	sbiw	r28, 0x0d	; 13
    76be:	0e 94 00 46 	call	0x8c00	; 0x8c00 <__mulsi3>
    76c2:	9b 01       	movw	r18, r22
    76c4:	ac 01       	movw	r20, r24
    76c6:	87 01       	movw	r16, r14
    76c8:	ff 24       	eor	r15, r15
    76ca:	ee 24       	eor	r14, r14
    76cc:	8d a5       	ldd	r24, Y+45	; 0x2d
    76ce:	9e a5       	ldd	r25, Y+46	; 0x2e
    76d0:	af a5       	ldd	r26, Y+47	; 0x2f
    76d2:	b8 a9       	ldd	r27, Y+48	; 0x30
    76d4:	a0 70       	andi	r26, 0x00	; 0
    76d6:	b0 70       	andi	r27, 0x00	; 0
    76d8:	e8 2a       	or	r14, r24
    76da:	f9 2a       	or	r15, r25
    76dc:	0a 2b       	or	r16, r26
    76de:	1b 2b       	or	r17, r27
    76e0:	e2 16       	cp	r14, r18
    76e2:	f3 06       	cpc	r15, r19
    76e4:	04 07       	cpc	r16, r20
    76e6:	15 07       	cpc	r17, r21
    76e8:	c0 f4       	brcc	.+48     	; 0x771a <__udivdi3+0x7be>
    76ea:	08 94       	sec
    76ec:	a1 08       	sbc	r10, r1
    76ee:	b1 08       	sbc	r11, r1
    76f0:	c1 08       	sbc	r12, r1
    76f2:	d1 08       	sbc	r13, r1
    76f4:	e2 0c       	add	r14, r2
    76f6:	f3 1c       	adc	r15, r3
    76f8:	04 1d       	adc	r16, r4
    76fa:	15 1d       	adc	r17, r5
    76fc:	e2 14       	cp	r14, r2
    76fe:	f3 04       	cpc	r15, r3
    7700:	04 05       	cpc	r16, r4
    7702:	15 05       	cpc	r17, r5
    7704:	50 f0       	brcs	.+20     	; 0x771a <__udivdi3+0x7be>
    7706:	e2 16       	cp	r14, r18
    7708:	f3 06       	cpc	r15, r19
    770a:	04 07       	cpc	r16, r20
    770c:	15 07       	cpc	r17, r21
    770e:	28 f4       	brcc	.+10     	; 0x771a <__udivdi3+0x7be>
    7710:	08 94       	sec
    7712:	a1 08       	sbc	r10, r1
    7714:	b1 08       	sbc	r11, r1
    7716:	c1 08       	sbc	r12, r1
    7718:	d1 08       	sbc	r13, r1
    771a:	61 96       	adiw	r28, 0x11	; 17
    771c:	ec ac       	ldd	r14, Y+60	; 0x3c
    771e:	fd ac       	ldd	r15, Y+61	; 0x3d
    7720:	0e ad       	ldd	r16, Y+62	; 0x3e
    7722:	1f ad       	ldd	r17, Y+63	; 0x3f
    7724:	61 97       	sbiw	r28, 0x11	; 17
    7726:	d7 01       	movw	r26, r14
    7728:	99 27       	eor	r25, r25
    772a:	88 27       	eor	r24, r24
    772c:	96 01       	movw	r18, r12
    772e:	85 01       	movw	r16, r10
    7730:	08 2b       	or	r16, r24
    7732:	19 2b       	or	r17, r25
    7734:	2a 2b       	or	r18, r26
    7736:	3b 2b       	or	r19, r27
    7738:	09 ab       	std	Y+49, r16	; 0x31
    773a:	1a ab       	std	Y+50, r17	; 0x32
    773c:	2b ab       	std	Y+51, r18	; 0x33
    773e:	3c ab       	std	Y+52, r19	; 0x34
    7740:	62 c2       	rjmp	.+1220   	; 0x7c06 <__udivdi3+0xcaa>
    7742:	6e 14       	cp	r6, r14
    7744:	7f 04       	cpc	r7, r15
    7746:	80 06       	cpc	r8, r16
    7748:	91 06       	cpc	r9, r17
    774a:	08 f4       	brcc	.+2      	; 0x774e <__udivdi3+0x7f2>
    774c:	51 c2       	rjmp	.+1186   	; 0x7bf0 <__udivdi3+0xc94>
    774e:	20 e0       	ldi	r18, 0x00	; 0
    7750:	e2 16       	cp	r14, r18
    7752:	20 e0       	ldi	r18, 0x00	; 0
    7754:	f2 06       	cpc	r15, r18
    7756:	21 e0       	ldi	r18, 0x01	; 1
    7758:	02 07       	cpc	r16, r18
    775a:	20 e0       	ldi	r18, 0x00	; 0
    775c:	12 07       	cpc	r17, r18
    775e:	88 f4       	brcc	.+34     	; 0x7782 <__udivdi3+0x826>
    7760:	3f ef       	ldi	r19, 0xFF	; 255
    7762:	e3 16       	cp	r14, r19
    7764:	f1 04       	cpc	r15, r1
    7766:	01 05       	cpc	r16, r1
    7768:	11 05       	cpc	r17, r1
    776a:	31 f0       	breq	.+12     	; 0x7778 <__udivdi3+0x81c>
    776c:	28 f0       	brcs	.+10     	; 0x7778 <__udivdi3+0x81c>
    776e:	48 e0       	ldi	r20, 0x08	; 8
    7770:	50 e0       	ldi	r21, 0x00	; 0
    7772:	60 e0       	ldi	r22, 0x00	; 0
    7774:	70 e0       	ldi	r23, 0x00	; 0
    7776:	17 c0       	rjmp	.+46     	; 0x77a6 <__udivdi3+0x84a>
    7778:	40 e0       	ldi	r20, 0x00	; 0
    777a:	50 e0       	ldi	r21, 0x00	; 0
    777c:	60 e0       	ldi	r22, 0x00	; 0
    777e:	70 e0       	ldi	r23, 0x00	; 0
    7780:	12 c0       	rjmp	.+36     	; 0x77a6 <__udivdi3+0x84a>
    7782:	40 e0       	ldi	r20, 0x00	; 0
    7784:	e4 16       	cp	r14, r20
    7786:	40 e0       	ldi	r20, 0x00	; 0
    7788:	f4 06       	cpc	r15, r20
    778a:	40 e0       	ldi	r20, 0x00	; 0
    778c:	04 07       	cpc	r16, r20
    778e:	41 e0       	ldi	r20, 0x01	; 1
    7790:	14 07       	cpc	r17, r20
    7792:	28 f0       	brcs	.+10     	; 0x779e <__udivdi3+0x842>
    7794:	48 e1       	ldi	r20, 0x18	; 24
    7796:	50 e0       	ldi	r21, 0x00	; 0
    7798:	60 e0       	ldi	r22, 0x00	; 0
    779a:	70 e0       	ldi	r23, 0x00	; 0
    779c:	04 c0       	rjmp	.+8      	; 0x77a6 <__udivdi3+0x84a>
    779e:	40 e1       	ldi	r20, 0x10	; 16
    77a0:	50 e0       	ldi	r21, 0x00	; 0
    77a2:	60 e0       	ldi	r22, 0x00	; 0
    77a4:	70 e0       	ldi	r23, 0x00	; 0
    77a6:	d8 01       	movw	r26, r16
    77a8:	c7 01       	movw	r24, r14
    77aa:	04 2e       	mov	r0, r20
    77ac:	04 c0       	rjmp	.+8      	; 0x77b6 <__udivdi3+0x85a>
    77ae:	b6 95       	lsr	r27
    77b0:	a7 95       	ror	r26
    77b2:	97 95       	ror	r25
    77b4:	87 95       	ror	r24
    77b6:	0a 94       	dec	r0
    77b8:	d2 f7       	brpl	.-12     	; 0x77ae <__udivdi3+0x852>
    77ba:	84 5e       	subi	r24, 0xE4	; 228
    77bc:	9f 4d       	sbci	r25, 0xDF	; 223
    77be:	dc 01       	movw	r26, r24
    77c0:	2c 91       	ld	r18, X
    77c2:	30 e2       	ldi	r19, 0x20	; 32
    77c4:	a3 2e       	mov	r10, r19
    77c6:	b1 2c       	mov	r11, r1
    77c8:	c1 2c       	mov	r12, r1
    77ca:	d1 2c       	mov	r13, r1
    77cc:	d6 01       	movw	r26, r12
    77ce:	c5 01       	movw	r24, r10
    77d0:	84 1b       	sub	r24, r20
    77d2:	95 0b       	sbc	r25, r21
    77d4:	a6 0b       	sbc	r26, r22
    77d6:	b7 0b       	sbc	r27, r23
    77d8:	82 1b       	sub	r24, r18
    77da:	91 09       	sbc	r25, r1
    77dc:	a1 09       	sbc	r26, r1
    77de:	b1 09       	sbc	r27, r1
    77e0:	00 97       	sbiw	r24, 0x00	; 0
    77e2:	a1 05       	cpc	r26, r1
    77e4:	b1 05       	cpc	r27, r1
    77e6:	89 f4       	brne	.+34     	; 0x780a <__udivdi3+0x8ae>
    77e8:	e6 14       	cp	r14, r6
    77ea:	f7 04       	cpc	r15, r7
    77ec:	08 05       	cpc	r16, r8
    77ee:	19 05       	cpc	r17, r9
    77f0:	08 f4       	brcc	.+2      	; 0x77f4 <__udivdi3+0x898>
    77f2:	f2 c1       	rjmp	.+996    	; 0x7bd8 <__udivdi3+0xc7c>
    77f4:	6d a4       	ldd	r6, Y+45	; 0x2d
    77f6:	7e a4       	ldd	r7, Y+46	; 0x2e
    77f8:	8f a4       	ldd	r8, Y+47	; 0x2f
    77fa:	98 a8       	ldd	r9, Y+48	; 0x30
    77fc:	62 14       	cp	r6, r2
    77fe:	73 04       	cpc	r7, r3
    7800:	84 04       	cpc	r8, r4
    7802:	95 04       	cpc	r9, r5
    7804:	08 f0       	brcs	.+2      	; 0x7808 <__udivdi3+0x8ac>
    7806:	e8 c1       	rjmp	.+976    	; 0x7bd8 <__udivdi3+0xc7c>
    7808:	f3 c1       	rjmp	.+998    	; 0x7bf0 <__udivdi3+0xc94>
    780a:	6e 96       	adiw	r28, 0x1e	; 30
    780c:	8f af       	std	Y+63, r24	; 0x3f
    780e:	6e 97       	sbiw	r28, 0x1e	; 30
    7810:	08 2e       	mov	r0, r24
    7812:	04 c0       	rjmp	.+8      	; 0x781c <__udivdi3+0x8c0>
    7814:	ee 0c       	add	r14, r14
    7816:	ff 1c       	adc	r15, r15
    7818:	00 1f       	adc	r16, r16
    781a:	11 1f       	adc	r17, r17
    781c:	0a 94       	dec	r0
    781e:	d2 f7       	brpl	.-12     	; 0x7814 <__udivdi3+0x8b8>
    7820:	6a 2d       	mov	r22, r10
    7822:	68 1b       	sub	r22, r24
    7824:	d2 01       	movw	r26, r4
    7826:	c1 01       	movw	r24, r2
    7828:	06 2e       	mov	r0, r22
    782a:	04 c0       	rjmp	.+8      	; 0x7834 <__udivdi3+0x8d8>
    782c:	b6 95       	lsr	r27
    782e:	a7 95       	ror	r26
    7830:	97 95       	ror	r25
    7832:	87 95       	ror	r24
    7834:	0a 94       	dec	r0
    7836:	d2 f7       	brpl	.-12     	; 0x782c <__udivdi3+0x8d0>
    7838:	5c 01       	movw	r10, r24
    783a:	6d 01       	movw	r12, r26
    783c:	ae 28       	or	r10, r14
    783e:	bf 28       	or	r11, r15
    7840:	c0 2a       	or	r12, r16
    7842:	d1 2a       	or	r13, r17
    7844:	ad a2       	std	Y+37, r10	; 0x25
    7846:	be a2       	std	Y+38, r11	; 0x26
    7848:	cf a2       	std	Y+39, r12	; 0x27
    784a:	d8 a6       	std	Y+40, r13	; 0x28
    784c:	72 01       	movw	r14, r4
    784e:	61 01       	movw	r12, r2
    7850:	6e 96       	adiw	r28, 0x1e	; 30
    7852:	0f ac       	ldd	r0, Y+63	; 0x3f
    7854:	6e 97       	sbiw	r28, 0x1e	; 30
    7856:	04 c0       	rjmp	.+8      	; 0x7860 <__udivdi3+0x904>
    7858:	cc 0c       	add	r12, r12
    785a:	dd 1c       	adc	r13, r13
    785c:	ee 1c       	adc	r14, r14
    785e:	ff 1c       	adc	r15, r15
    7860:	0a 94       	dec	r0
    7862:	d2 f7       	brpl	.-12     	; 0x7858 <__udivdi3+0x8fc>
    7864:	c9 a2       	std	Y+33, r12	; 0x21
    7866:	da a2       	std	Y+34, r13	; 0x22
    7868:	eb a2       	std	Y+35, r14	; 0x23
    786a:	fc a2       	std	Y+36, r15	; 0x24
    786c:	64 01       	movw	r12, r8
    786e:	53 01       	movw	r10, r6
    7870:	06 2e       	mov	r0, r22
    7872:	04 c0       	rjmp	.+8      	; 0x787c <__udivdi3+0x920>
    7874:	d6 94       	lsr	r13
    7876:	c7 94       	ror	r12
    7878:	b7 94       	ror	r11
    787a:	a7 94       	ror	r10
    787c:	0a 94       	dec	r0
    787e:	d2 f7       	brpl	.-12     	; 0x7874 <__udivdi3+0x918>
    7880:	d4 01       	movw	r26, r8
    7882:	c3 01       	movw	r24, r6
    7884:	6e 96       	adiw	r28, 0x1e	; 30
    7886:	0f ac       	ldd	r0, Y+63	; 0x3f
    7888:	6e 97       	sbiw	r28, 0x1e	; 30
    788a:	04 c0       	rjmp	.+8      	; 0x7894 <__udivdi3+0x938>
    788c:	88 0f       	add	r24, r24
    788e:	99 1f       	adc	r25, r25
    7890:	aa 1f       	adc	r26, r26
    7892:	bb 1f       	adc	r27, r27
    7894:	0a 94       	dec	r0
    7896:	d2 f7       	brpl	.-12     	; 0x788c <__udivdi3+0x930>
    7898:	ed a4       	ldd	r14, Y+45	; 0x2d
    789a:	fe a4       	ldd	r15, Y+46	; 0x2e
    789c:	0f a5       	ldd	r16, Y+47	; 0x2f
    789e:	18 a9       	ldd	r17, Y+48	; 0x30
    78a0:	04 c0       	rjmp	.+8      	; 0x78aa <__udivdi3+0x94e>
    78a2:	16 95       	lsr	r17
    78a4:	07 95       	ror	r16
    78a6:	f7 94       	ror	r15
    78a8:	e7 94       	ror	r14
    78aa:	6a 95       	dec	r22
    78ac:	d2 f7       	brpl	.-12     	; 0x78a2 <__udivdi3+0x946>
    78ae:	37 01       	movw	r6, r14
    78b0:	48 01       	movw	r8, r16
    78b2:	68 2a       	or	r6, r24
    78b4:	79 2a       	or	r7, r25
    78b6:	8a 2a       	or	r8, r26
    78b8:	9b 2a       	or	r9, r27
    78ba:	6d 8e       	std	Y+29, r6	; 0x1d
    78bc:	7e 8e       	std	Y+30, r7	; 0x1e
    78be:	8f 8e       	std	Y+31, r8	; 0x1f
    78c0:	98 a2       	std	Y+32, r9	; 0x20
    78c2:	ed a0       	ldd	r14, Y+37	; 0x25
    78c4:	fe a0       	ldd	r15, Y+38	; 0x26
    78c6:	0f a1       	ldd	r16, Y+39	; 0x27
    78c8:	18 a5       	ldd	r17, Y+40	; 0x28
    78ca:	38 01       	movw	r6, r16
    78cc:	88 24       	eor	r8, r8
    78ce:	99 24       	eor	r9, r9
    78d0:	98 01       	movw	r18, r16
    78d2:	87 01       	movw	r16, r14
    78d4:	20 70       	andi	r18, 0x00	; 0
    78d6:	30 70       	andi	r19, 0x00	; 0
    78d8:	65 96       	adiw	r28, 0x15	; 21
    78da:	0c af       	std	Y+60, r16	; 0x3c
    78dc:	1d af       	std	Y+61, r17	; 0x3d
    78de:	2e af       	std	Y+62, r18	; 0x3e
    78e0:	3f af       	std	Y+63, r19	; 0x3f
    78e2:	65 97       	sbiw	r28, 0x15	; 21
    78e4:	c6 01       	movw	r24, r12
    78e6:	b5 01       	movw	r22, r10
    78e8:	a4 01       	movw	r20, r8
    78ea:	93 01       	movw	r18, r6
    78ec:	0e 94 1f 46 	call	0x8c3e	; 0x8c3e <__udivmodsi4>
    78f0:	7b 01       	movw	r14, r22
    78f2:	8c 01       	movw	r16, r24
    78f4:	c6 01       	movw	r24, r12
    78f6:	b5 01       	movw	r22, r10
    78f8:	a4 01       	movw	r20, r8
    78fa:	93 01       	movw	r18, r6
    78fc:	0e 94 1f 46 	call	0x8c3e	; 0x8c3e <__udivmodsi4>
    7900:	c9 01       	movw	r24, r18
    7902:	da 01       	movw	r26, r20
    7904:	1c 01       	movw	r2, r24
    7906:	2d 01       	movw	r4, r26
    7908:	c2 01       	movw	r24, r4
    790a:	b1 01       	movw	r22, r2
    790c:	65 96       	adiw	r28, 0x15	; 21
    790e:	2c ad       	ldd	r18, Y+60	; 0x3c
    7910:	3d ad       	ldd	r19, Y+61	; 0x3d
    7912:	4e ad       	ldd	r20, Y+62	; 0x3e
    7914:	5f ad       	ldd	r21, Y+63	; 0x3f
    7916:	65 97       	sbiw	r28, 0x15	; 21
    7918:	0e 94 00 46 	call	0x8c00	; 0x8c00 <__mulsi3>
    791c:	9b 01       	movw	r18, r22
    791e:	ac 01       	movw	r20, r24
    7920:	87 01       	movw	r16, r14
    7922:	ff 24       	eor	r15, r15
    7924:	ee 24       	eor	r14, r14
    7926:	ad 8c       	ldd	r10, Y+29	; 0x1d
    7928:	be 8c       	ldd	r11, Y+30	; 0x1e
    792a:	cf 8c       	ldd	r12, Y+31	; 0x1f
    792c:	d8 a0       	ldd	r13, Y+32	; 0x20
    792e:	c6 01       	movw	r24, r12
    7930:	aa 27       	eor	r26, r26
    7932:	bb 27       	eor	r27, r27
    7934:	57 01       	movw	r10, r14
    7936:	68 01       	movw	r12, r16
    7938:	a8 2a       	or	r10, r24
    793a:	b9 2a       	or	r11, r25
    793c:	ca 2a       	or	r12, r26
    793e:	db 2a       	or	r13, r27
    7940:	a2 16       	cp	r10, r18
    7942:	b3 06       	cpc	r11, r19
    7944:	c4 06       	cpc	r12, r20
    7946:	d5 06       	cpc	r13, r21
    7948:	00 f5       	brcc	.+64     	; 0x798a <__udivdi3+0xa2e>
    794a:	08 94       	sec
    794c:	21 08       	sbc	r2, r1
    794e:	31 08       	sbc	r3, r1
    7950:	41 08       	sbc	r4, r1
    7952:	51 08       	sbc	r5, r1
    7954:	ed a0       	ldd	r14, Y+37	; 0x25
    7956:	fe a0       	ldd	r15, Y+38	; 0x26
    7958:	0f a1       	ldd	r16, Y+39	; 0x27
    795a:	18 a5       	ldd	r17, Y+40	; 0x28
    795c:	ae 0c       	add	r10, r14
    795e:	bf 1c       	adc	r11, r15
    7960:	c0 1e       	adc	r12, r16
    7962:	d1 1e       	adc	r13, r17
    7964:	ae 14       	cp	r10, r14
    7966:	bf 04       	cpc	r11, r15
    7968:	c0 06       	cpc	r12, r16
    796a:	d1 06       	cpc	r13, r17
    796c:	70 f0       	brcs	.+28     	; 0x798a <__udivdi3+0xa2e>
    796e:	a2 16       	cp	r10, r18
    7970:	b3 06       	cpc	r11, r19
    7972:	c4 06       	cpc	r12, r20
    7974:	d5 06       	cpc	r13, r21
    7976:	48 f4       	brcc	.+18     	; 0x798a <__udivdi3+0xa2e>
    7978:	08 94       	sec
    797a:	21 08       	sbc	r2, r1
    797c:	31 08       	sbc	r3, r1
    797e:	41 08       	sbc	r4, r1
    7980:	51 08       	sbc	r5, r1
    7982:	ae 0c       	add	r10, r14
    7984:	bf 1c       	adc	r11, r15
    7986:	c0 1e       	adc	r12, r16
    7988:	d1 1e       	adc	r13, r17
    798a:	a2 1a       	sub	r10, r18
    798c:	b3 0a       	sbc	r11, r19
    798e:	c4 0a       	sbc	r12, r20
    7990:	d5 0a       	sbc	r13, r21
    7992:	c6 01       	movw	r24, r12
    7994:	b5 01       	movw	r22, r10
    7996:	a4 01       	movw	r20, r8
    7998:	93 01       	movw	r18, r6
    799a:	0e 94 1f 46 	call	0x8c3e	; 0x8c3e <__udivmodsi4>
    799e:	7b 01       	movw	r14, r22
    79a0:	8c 01       	movw	r16, r24
    79a2:	c6 01       	movw	r24, r12
    79a4:	b5 01       	movw	r22, r10
    79a6:	a4 01       	movw	r20, r8
    79a8:	93 01       	movw	r18, r6
    79aa:	0e 94 1f 46 	call	0x8c3e	; 0x8c3e <__udivmodsi4>
    79ae:	c9 01       	movw	r24, r18
    79b0:	da 01       	movw	r26, r20
    79b2:	3c 01       	movw	r6, r24
    79b4:	4d 01       	movw	r8, r26
    79b6:	c4 01       	movw	r24, r8
    79b8:	b3 01       	movw	r22, r6
    79ba:	65 96       	adiw	r28, 0x15	; 21
    79bc:	2c ad       	ldd	r18, Y+60	; 0x3c
    79be:	3d ad       	ldd	r19, Y+61	; 0x3d
    79c0:	4e ad       	ldd	r20, Y+62	; 0x3e
    79c2:	5f ad       	ldd	r21, Y+63	; 0x3f
    79c4:	65 97       	sbiw	r28, 0x15	; 21
    79c6:	0e 94 00 46 	call	0x8c00	; 0x8c00 <__mulsi3>
    79ca:	9b 01       	movw	r18, r22
    79cc:	ac 01       	movw	r20, r24
    79ce:	87 01       	movw	r16, r14
    79d0:	ff 24       	eor	r15, r15
    79d2:	ee 24       	eor	r14, r14
    79d4:	8d 8d       	ldd	r24, Y+29	; 0x1d
    79d6:	9e 8d       	ldd	r25, Y+30	; 0x1e
    79d8:	af 8d       	ldd	r26, Y+31	; 0x1f
    79da:	b8 a1       	ldd	r27, Y+32	; 0x20
    79dc:	a0 70       	andi	r26, 0x00	; 0
    79de:	b0 70       	andi	r27, 0x00	; 0
    79e0:	57 01       	movw	r10, r14
    79e2:	68 01       	movw	r12, r16
    79e4:	a8 2a       	or	r10, r24
    79e6:	b9 2a       	or	r11, r25
    79e8:	ca 2a       	or	r12, r26
    79ea:	db 2a       	or	r13, r27
    79ec:	a2 16       	cp	r10, r18
    79ee:	b3 06       	cpc	r11, r19
    79f0:	c4 06       	cpc	r12, r20
    79f2:	d5 06       	cpc	r13, r21
    79f4:	00 f5       	brcc	.+64     	; 0x7a36 <__udivdi3+0xada>
    79f6:	08 94       	sec
    79f8:	61 08       	sbc	r6, r1
    79fa:	71 08       	sbc	r7, r1
    79fc:	81 08       	sbc	r8, r1
    79fe:	91 08       	sbc	r9, r1
    7a00:	6d a1       	ldd	r22, Y+37	; 0x25
    7a02:	7e a1       	ldd	r23, Y+38	; 0x26
    7a04:	8f a1       	ldd	r24, Y+39	; 0x27
    7a06:	98 a5       	ldd	r25, Y+40	; 0x28
    7a08:	a6 0e       	add	r10, r22
    7a0a:	b7 1e       	adc	r11, r23
    7a0c:	c8 1e       	adc	r12, r24
    7a0e:	d9 1e       	adc	r13, r25
    7a10:	a6 16       	cp	r10, r22
    7a12:	b7 06       	cpc	r11, r23
    7a14:	c8 06       	cpc	r12, r24
    7a16:	d9 06       	cpc	r13, r25
    7a18:	70 f0       	brcs	.+28     	; 0x7a36 <__udivdi3+0xada>
    7a1a:	a2 16       	cp	r10, r18
    7a1c:	b3 06       	cpc	r11, r19
    7a1e:	c4 06       	cpc	r12, r20
    7a20:	d5 06       	cpc	r13, r21
    7a22:	48 f4       	brcc	.+18     	; 0x7a36 <__udivdi3+0xada>
    7a24:	08 94       	sec
    7a26:	61 08       	sbc	r6, r1
    7a28:	71 08       	sbc	r7, r1
    7a2a:	81 08       	sbc	r8, r1
    7a2c:	91 08       	sbc	r9, r1
    7a2e:	a6 0e       	add	r10, r22
    7a30:	b7 1e       	adc	r11, r23
    7a32:	c8 1e       	adc	r12, r24
    7a34:	d9 1e       	adc	r13, r25
    7a36:	d6 01       	movw	r26, r12
    7a38:	c5 01       	movw	r24, r10
    7a3a:	82 1b       	sub	r24, r18
    7a3c:	93 0b       	sbc	r25, r19
    7a3e:	a4 0b       	sbc	r26, r20
    7a40:	b5 0b       	sbc	r27, r21
    7a42:	89 8f       	std	Y+25, r24	; 0x19
    7a44:	9a 8f       	std	Y+26, r25	; 0x1a
    7a46:	ab 8f       	std	Y+27, r26	; 0x1b
    7a48:	bc 8f       	std	Y+28, r27	; 0x1c
    7a4a:	d1 01       	movw	r26, r2
    7a4c:	99 27       	eor	r25, r25
    7a4e:	88 27       	eor	r24, r24
    7a50:	64 01       	movw	r12, r8
    7a52:	53 01       	movw	r10, r6
    7a54:	a8 2a       	or	r10, r24
    7a56:	b9 2a       	or	r11, r25
    7a58:	ca 2a       	or	r12, r26
    7a5a:	db 2a       	or	r13, r27
    7a5c:	a9 aa       	std	Y+49, r10	; 0x31
    7a5e:	ba aa       	std	Y+50, r11	; 0x32
    7a60:	cb aa       	std	Y+51, r12	; 0x33
    7a62:	dc aa       	std	Y+52, r13	; 0x34
    7a64:	86 01       	movw	r16, r12
    7a66:	75 01       	movw	r14, r10
    7a68:	2f ef       	ldi	r18, 0xFF	; 255
    7a6a:	3f ef       	ldi	r19, 0xFF	; 255
    7a6c:	40 e0       	ldi	r20, 0x00	; 0
    7a6e:	50 e0       	ldi	r21, 0x00	; 0
    7a70:	e2 22       	and	r14, r18
    7a72:	f3 22       	and	r15, r19
    7a74:	04 23       	and	r16, r20
    7a76:	15 23       	and	r17, r21
    7a78:	a6 01       	movw	r20, r12
    7a7a:	66 27       	eor	r22, r22
    7a7c:	77 27       	eor	r23, r23
    7a7e:	6d 96       	adiw	r28, 0x1d	; 29
    7a80:	4c af       	std	Y+60, r20	; 0x3c
    7a82:	5d af       	std	Y+61, r21	; 0x3d
    7a84:	6e af       	std	Y+62, r22	; 0x3e
    7a86:	7f af       	std	Y+63, r23	; 0x3f
    7a88:	6d 97       	sbiw	r28, 0x1d	; 29
    7a8a:	a9 a0       	ldd	r10, Y+33	; 0x21
    7a8c:	ba a0       	ldd	r11, Y+34	; 0x22
    7a8e:	cb a0       	ldd	r12, Y+35	; 0x23
    7a90:	dc a0       	ldd	r13, Y+36	; 0x24
    7a92:	6f ef       	ldi	r22, 0xFF	; 255
    7a94:	7f ef       	ldi	r23, 0xFF	; 255
    7a96:	80 e0       	ldi	r24, 0x00	; 0
    7a98:	90 e0       	ldi	r25, 0x00	; 0
    7a9a:	a6 22       	and	r10, r22
    7a9c:	b7 22       	and	r11, r23
    7a9e:	c8 22       	and	r12, r24
    7aa0:	d9 22       	and	r13, r25
    7aa2:	89 a1       	ldd	r24, Y+33	; 0x21
    7aa4:	9a a1       	ldd	r25, Y+34	; 0x22
    7aa6:	ab a1       	ldd	r26, Y+35	; 0x23
    7aa8:	bc a1       	ldd	r27, Y+36	; 0x24
    7aaa:	1d 01       	movw	r2, r26
    7aac:	44 24       	eor	r4, r4
    7aae:	55 24       	eor	r5, r5
    7ab0:	c8 01       	movw	r24, r16
    7ab2:	b7 01       	movw	r22, r14
    7ab4:	a6 01       	movw	r20, r12
    7ab6:	95 01       	movw	r18, r10
    7ab8:	0e 94 00 46 	call	0x8c00	; 0x8c00 <__mulsi3>
    7abc:	69 96       	adiw	r28, 0x19	; 25
    7abe:	6c af       	std	Y+60, r22	; 0x3c
    7ac0:	7d af       	std	Y+61, r23	; 0x3d
    7ac2:	8e af       	std	Y+62, r24	; 0x3e
    7ac4:	9f af       	std	Y+63, r25	; 0x3f
    7ac6:	69 97       	sbiw	r28, 0x19	; 25
    7ac8:	c8 01       	movw	r24, r16
    7aca:	b7 01       	movw	r22, r14
    7acc:	a2 01       	movw	r20, r4
    7ace:	91 01       	movw	r18, r2
    7ad0:	0e 94 00 46 	call	0x8c00	; 0x8c00 <__mulsi3>
    7ad4:	3b 01       	movw	r6, r22
    7ad6:	4c 01       	movw	r8, r24
    7ad8:	6d 96       	adiw	r28, 0x1d	; 29
    7ada:	6c ad       	ldd	r22, Y+60	; 0x3c
    7adc:	7d ad       	ldd	r23, Y+61	; 0x3d
    7ade:	8e ad       	ldd	r24, Y+62	; 0x3e
    7ae0:	9f ad       	ldd	r25, Y+63	; 0x3f
    7ae2:	6d 97       	sbiw	r28, 0x1d	; 29
    7ae4:	a6 01       	movw	r20, r12
    7ae6:	95 01       	movw	r18, r10
    7ae8:	0e 94 00 46 	call	0x8c00	; 0x8c00 <__mulsi3>
    7aec:	7b 01       	movw	r14, r22
    7aee:	8c 01       	movw	r16, r24
    7af0:	6d 96       	adiw	r28, 0x1d	; 29
    7af2:	6c ad       	ldd	r22, Y+60	; 0x3c
    7af4:	7d ad       	ldd	r23, Y+61	; 0x3d
    7af6:	8e ad       	ldd	r24, Y+62	; 0x3e
    7af8:	9f ad       	ldd	r25, Y+63	; 0x3f
    7afa:	6d 97       	sbiw	r28, 0x1d	; 29
    7afc:	a2 01       	movw	r20, r4
    7afe:	91 01       	movw	r18, r2
    7b00:	0e 94 00 46 	call	0x8c00	; 0x8c00 <__mulsi3>
    7b04:	5b 01       	movw	r10, r22
    7b06:	6c 01       	movw	r12, r24
    7b08:	a8 01       	movw	r20, r16
    7b0a:	97 01       	movw	r18, r14
    7b0c:	26 0d       	add	r18, r6
    7b0e:	37 1d       	adc	r19, r7
    7b10:	48 1d       	adc	r20, r8
    7b12:	59 1d       	adc	r21, r9
    7b14:	69 96       	adiw	r28, 0x19	; 25
    7b16:	6c ac       	ldd	r6, Y+60	; 0x3c
    7b18:	7d ac       	ldd	r7, Y+61	; 0x3d
    7b1a:	8e ac       	ldd	r8, Y+62	; 0x3e
    7b1c:	9f ac       	ldd	r9, Y+63	; 0x3f
    7b1e:	69 97       	sbiw	r28, 0x19	; 25
    7b20:	c4 01       	movw	r24, r8
    7b22:	aa 27       	eor	r26, r26
    7b24:	bb 27       	eor	r27, r27
    7b26:	28 0f       	add	r18, r24
    7b28:	39 1f       	adc	r19, r25
    7b2a:	4a 1f       	adc	r20, r26
    7b2c:	5b 1f       	adc	r21, r27
    7b2e:	2e 15       	cp	r18, r14
    7b30:	3f 05       	cpc	r19, r15
    7b32:	40 07       	cpc	r20, r16
    7b34:	51 07       	cpc	r21, r17
    7b36:	48 f4       	brcc	.+18     	; 0x7b4a <__udivdi3+0xbee>
    7b38:	e1 2c       	mov	r14, r1
    7b3a:	f1 2c       	mov	r15, r1
    7b3c:	61 e0       	ldi	r22, 0x01	; 1
    7b3e:	06 2f       	mov	r16, r22
    7b40:	11 2d       	mov	r17, r1
    7b42:	ae 0c       	add	r10, r14
    7b44:	bf 1c       	adc	r11, r15
    7b46:	c0 1e       	adc	r12, r16
    7b48:	d1 1e       	adc	r13, r17
    7b4a:	ca 01       	movw	r24, r20
    7b4c:	aa 27       	eor	r26, r26
    7b4e:	bb 27       	eor	r27, r27
    7b50:	bc 01       	movw	r22, r24
    7b52:	cd 01       	movw	r24, r26
    7b54:	6a 0d       	add	r22, r10
    7b56:	7b 1d       	adc	r23, r11
    7b58:	8c 1d       	adc	r24, r12
    7b5a:	9d 1d       	adc	r25, r13
    7b5c:	69 8c       	ldd	r6, Y+25	; 0x19
    7b5e:	7a 8c       	ldd	r7, Y+26	; 0x1a
    7b60:	8b 8c       	ldd	r8, Y+27	; 0x1b
    7b62:	9c 8c       	ldd	r9, Y+28	; 0x1c
    7b64:	66 16       	cp	r6, r22
    7b66:	77 06       	cpc	r7, r23
    7b68:	88 06       	cpc	r8, r24
    7b6a:	99 06       	cpc	r9, r25
    7b6c:	40 f1       	brcs	.+80     	; 0x7bbe <__udivdi3+0xc62>
    7b6e:	66 15       	cp	r22, r6
    7b70:	77 05       	cpc	r23, r7
    7b72:	88 05       	cpc	r24, r8
    7b74:	99 05       	cpc	r25, r9
    7b76:	09 f0       	breq	.+2      	; 0x7b7a <__udivdi3+0xc1e>
    7b78:	43 c0       	rjmp	.+134    	; 0x7c00 <__udivdi3+0xca4>
    7b7a:	d9 01       	movw	r26, r18
    7b7c:	99 27       	eor	r25, r25
    7b7e:	88 27       	eor	r24, r24
    7b80:	69 96       	adiw	r28, 0x19	; 25
    7b82:	2c ad       	ldd	r18, Y+60	; 0x3c
    7b84:	3d ad       	ldd	r19, Y+61	; 0x3d
    7b86:	4e ad       	ldd	r20, Y+62	; 0x3e
    7b88:	5f ad       	ldd	r21, Y+63	; 0x3f
    7b8a:	69 97       	sbiw	r28, 0x19	; 25
    7b8c:	40 70       	andi	r20, 0x00	; 0
    7b8e:	50 70       	andi	r21, 0x00	; 0
    7b90:	82 0f       	add	r24, r18
    7b92:	93 1f       	adc	r25, r19
    7b94:	a4 1f       	adc	r26, r20
    7b96:	b5 1f       	adc	r27, r21
    7b98:	2d a5       	ldd	r18, Y+45	; 0x2d
    7b9a:	3e a5       	ldd	r19, Y+46	; 0x2e
    7b9c:	4f a5       	ldd	r20, Y+47	; 0x2f
    7b9e:	58 a9       	ldd	r21, Y+48	; 0x30
    7ba0:	6e 96       	adiw	r28, 0x1e	; 30
    7ba2:	0f ac       	ldd	r0, Y+63	; 0x3f
    7ba4:	6e 97       	sbiw	r28, 0x1e	; 30
    7ba6:	04 c0       	rjmp	.+8      	; 0x7bb0 <__udivdi3+0xc54>
    7ba8:	22 0f       	add	r18, r18
    7baa:	33 1f       	adc	r19, r19
    7bac:	44 1f       	adc	r20, r20
    7bae:	55 1f       	adc	r21, r21
    7bb0:	0a 94       	dec	r0
    7bb2:	d2 f7       	brpl	.-12     	; 0x7ba8 <__udivdi3+0xc4c>
    7bb4:	28 17       	cp	r18, r24
    7bb6:	39 07       	cpc	r19, r25
    7bb8:	4a 07       	cpc	r20, r26
    7bba:	5b 07       	cpc	r21, r27
    7bbc:	08 f5       	brcc	.+66     	; 0x7c00 <__udivdi3+0xca4>
    7bbe:	09 a9       	ldd	r16, Y+49	; 0x31
    7bc0:	1a a9       	ldd	r17, Y+50	; 0x32
    7bc2:	2b a9       	ldd	r18, Y+51	; 0x33
    7bc4:	3c a9       	ldd	r19, Y+52	; 0x34
    7bc6:	01 50       	subi	r16, 0x01	; 1
    7bc8:	10 40       	sbci	r17, 0x00	; 0
    7bca:	20 40       	sbci	r18, 0x00	; 0
    7bcc:	30 40       	sbci	r19, 0x00	; 0
    7bce:	09 ab       	std	Y+49, r16	; 0x31
    7bd0:	1a ab       	std	Y+50, r17	; 0x32
    7bd2:	2b ab       	std	Y+51, r18	; 0x33
    7bd4:	3c ab       	std	Y+52, r19	; 0x34
    7bd6:	14 c0       	rjmp	.+40     	; 0x7c00 <__udivdi3+0xca4>
    7bd8:	66 24       	eor	r6, r6
    7bda:	77 24       	eor	r7, r7
    7bdc:	43 01       	movw	r8, r6
    7bde:	21 e0       	ldi	r18, 0x01	; 1
    7be0:	30 e0       	ldi	r19, 0x00	; 0
    7be2:	40 e0       	ldi	r20, 0x00	; 0
    7be4:	50 e0       	ldi	r21, 0x00	; 0
    7be6:	29 ab       	std	Y+49, r18	; 0x31
    7be8:	3a ab       	std	Y+50, r19	; 0x32
    7bea:	4b ab       	std	Y+51, r20	; 0x33
    7bec:	5c ab       	std	Y+52, r21	; 0x34
    7bee:	0b c0       	rjmp	.+22     	; 0x7c06 <__udivdi3+0xcaa>
    7bf0:	66 24       	eor	r6, r6
    7bf2:	77 24       	eor	r7, r7
    7bf4:	43 01       	movw	r8, r6
    7bf6:	19 aa       	std	Y+49, r1	; 0x31
    7bf8:	1a aa       	std	Y+50, r1	; 0x32
    7bfa:	1b aa       	std	Y+51, r1	; 0x33
    7bfc:	1c aa       	std	Y+52, r1	; 0x34
    7bfe:	03 c0       	rjmp	.+6      	; 0x7c06 <__udivdi3+0xcaa>
    7c00:	66 24       	eor	r6, r6
    7c02:	77 24       	eor	r7, r7
    7c04:	43 01       	movw	r8, r6
    7c06:	fe 01       	movw	r30, r28
    7c08:	71 96       	adiw	r30, 0x11	; 17
    7c0a:	88 e0       	ldi	r24, 0x08	; 8
    7c0c:	df 01       	movw	r26, r30
    7c0e:	1d 92       	st	X+, r1
    7c10:	8a 95       	dec	r24
    7c12:	e9 f7       	brne	.-6      	; 0x7c0e <__udivdi3+0xcb2>
    7c14:	a9 a8       	ldd	r10, Y+49	; 0x31
    7c16:	ba a8       	ldd	r11, Y+50	; 0x32
    7c18:	cb a8       	ldd	r12, Y+51	; 0x33
    7c1a:	dc a8       	ldd	r13, Y+52	; 0x34
    7c1c:	a9 8a       	std	Y+17, r10	; 0x11
    7c1e:	ba 8a       	std	Y+18, r11	; 0x12
    7c20:	cb 8a       	std	Y+19, r12	; 0x13
    7c22:	dc 8a       	std	Y+20, r13	; 0x14
    7c24:	6d 8a       	std	Y+21, r6	; 0x15
    7c26:	7e 8a       	std	Y+22, r7	; 0x16
    7c28:	8f 8a       	std	Y+23, r8	; 0x17
    7c2a:	98 8e       	std	Y+24, r9	; 0x18
    7c2c:	29 a9       	ldd	r18, Y+49	; 0x31
    7c2e:	3a 89       	ldd	r19, Y+18	; 0x12
    7c30:	4b 89       	ldd	r20, Y+19	; 0x13
    7c32:	5c 89       	ldd	r21, Y+20	; 0x14
    7c34:	66 2d       	mov	r22, r6
    7c36:	7e 89       	ldd	r23, Y+22	; 0x16
    7c38:	8f 89       	ldd	r24, Y+23	; 0x17
    7c3a:	98 8d       	ldd	r25, Y+24	; 0x18
    7c3c:	c2 5a       	subi	r28, 0xA2	; 162
    7c3e:	df 4f       	sbci	r29, 0xFF	; 255
    7c40:	e2 e1       	ldi	r30, 0x12	; 18
    7c42:	0c 94 5d 46 	jmp	0x8cba	; 0x8cba <__epilogue_restores__>

00007c46 <vfprintf>:
    7c46:	2f 92       	push	r2
    7c48:	3f 92       	push	r3
    7c4a:	4f 92       	push	r4
    7c4c:	5f 92       	push	r5
    7c4e:	6f 92       	push	r6
    7c50:	7f 92       	push	r7
    7c52:	8f 92       	push	r8
    7c54:	9f 92       	push	r9
    7c56:	af 92       	push	r10
    7c58:	bf 92       	push	r11
    7c5a:	cf 92       	push	r12
    7c5c:	df 92       	push	r13
    7c5e:	ef 92       	push	r14
    7c60:	ff 92       	push	r15
    7c62:	0f 93       	push	r16
    7c64:	1f 93       	push	r17
    7c66:	df 93       	push	r29
    7c68:	cf 93       	push	r28
    7c6a:	cd b7       	in	r28, 0x3d	; 61
    7c6c:	de b7       	in	r29, 0x3e	; 62
    7c6e:	61 97       	sbiw	r28, 0x11	; 17
    7c70:	cd bf       	out	0x3d, r28	; 61
    7c72:	de bf       	out	0x3e, r29	; 62
    7c74:	3c 01       	movw	r6, r24
    7c76:	6e 87       	std	Y+14, r22	; 0x0e
    7c78:	7f 87       	std	Y+15, r23	; 0x0f
    7c7a:	6a 01       	movw	r12, r20
    7c7c:	fc 01       	movw	r30, r24
    7c7e:	16 82       	std	Z+6, r1	; 0x06
    7c80:	17 82       	std	Z+7, r1	; 0x07
    7c82:	83 81       	ldd	r24, Z+3	; 0x03
    7c84:	81 fd       	sbrc	r24, 1
    7c86:	03 c0       	rjmp	.+6      	; 0x7c8e <vfprintf+0x48>
    7c88:	6f ef       	ldi	r22, 0xFF	; 255
    7c8a:	7f ef       	ldi	r23, 0xFF	; 255
    7c8c:	6f c3       	rjmp	.+1758   	; 0x836c <vfprintf+0x726>
    7c8e:	9e 01       	movw	r18, r28
    7c90:	2f 5f       	subi	r18, 0xFF	; 255
    7c92:	3f 4f       	sbci	r19, 0xFF	; 255
    7c94:	28 8b       	std	Y+16, r18	; 0x10
    7c96:	39 8b       	std	Y+17, r19	; 0x11
    7c98:	f3 01       	movw	r30, r6
    7c9a:	23 81       	ldd	r18, Z+3	; 0x03
    7c9c:	ee 85       	ldd	r30, Y+14	; 0x0e
    7c9e:	ff 85       	ldd	r31, Y+15	; 0x0f
    7ca0:	23 fd       	sbrc	r18, 3
    7ca2:	85 91       	lpm	r24, Z+
    7ca4:	23 ff       	sbrs	r18, 3
    7ca6:	81 91       	ld	r24, Z+
    7ca8:	ee 87       	std	Y+14, r30	; 0x0e
    7caa:	ff 87       	std	Y+15, r31	; 0x0f
    7cac:	88 23       	and	r24, r24
    7cae:	09 f4       	brne	.+2      	; 0x7cb2 <vfprintf+0x6c>
    7cb0:	5a c3       	rjmp	.+1716   	; 0x8366 <vfprintf+0x720>
    7cb2:	85 32       	cpi	r24, 0x25	; 37
    7cb4:	51 f4       	brne	.+20     	; 0x7cca <vfprintf+0x84>
    7cb6:	ee 85       	ldd	r30, Y+14	; 0x0e
    7cb8:	ff 85       	ldd	r31, Y+15	; 0x0f
    7cba:	23 fd       	sbrc	r18, 3
    7cbc:	85 91       	lpm	r24, Z+
    7cbe:	23 ff       	sbrs	r18, 3
    7cc0:	81 91       	ld	r24, Z+
    7cc2:	ee 87       	std	Y+14, r30	; 0x0e
    7cc4:	ff 87       	std	Y+15, r31	; 0x0f
    7cc6:	85 32       	cpi	r24, 0x25	; 37
    7cc8:	29 f4       	brne	.+10     	; 0x7cd4 <vfprintf+0x8e>
    7cca:	90 e0       	ldi	r25, 0x00	; 0
    7ccc:	b3 01       	movw	r22, r6
    7cce:	0e 94 6e 49 	call	0x92dc	; 0x92dc <fputc>
    7cd2:	e2 cf       	rjmp	.-60     	; 0x7c98 <vfprintf+0x52>
    7cd4:	98 2f       	mov	r25, r24
    7cd6:	10 e0       	ldi	r17, 0x00	; 0
    7cd8:	88 24       	eor	r8, r8
    7cda:	99 24       	eor	r9, r9
    7cdc:	10 32       	cpi	r17, 0x20	; 32
    7cde:	b0 f4       	brcc	.+44     	; 0x7d0c <vfprintf+0xc6>
    7ce0:	9b 32       	cpi	r25, 0x2B	; 43
    7ce2:	69 f0       	breq	.+26     	; 0x7cfe <vfprintf+0xb8>
    7ce4:	9c 32       	cpi	r25, 0x2C	; 44
    7ce6:	28 f4       	brcc	.+10     	; 0x7cf2 <vfprintf+0xac>
    7ce8:	90 32       	cpi	r25, 0x20	; 32
    7cea:	51 f0       	breq	.+20     	; 0x7d00 <vfprintf+0xba>
    7cec:	93 32       	cpi	r25, 0x23	; 35
    7cee:	71 f4       	brne	.+28     	; 0x7d0c <vfprintf+0xc6>
    7cf0:	0b c0       	rjmp	.+22     	; 0x7d08 <vfprintf+0xc2>
    7cf2:	9d 32       	cpi	r25, 0x2D	; 45
    7cf4:	39 f0       	breq	.+14     	; 0x7d04 <vfprintf+0xbe>
    7cf6:	90 33       	cpi	r25, 0x30	; 48
    7cf8:	49 f4       	brne	.+18     	; 0x7d0c <vfprintf+0xc6>
    7cfa:	11 60       	ori	r17, 0x01	; 1
    7cfc:	28 c0       	rjmp	.+80     	; 0x7d4e <vfprintf+0x108>
    7cfe:	12 60       	ori	r17, 0x02	; 2
    7d00:	14 60       	ori	r17, 0x04	; 4
    7d02:	25 c0       	rjmp	.+74     	; 0x7d4e <vfprintf+0x108>
    7d04:	18 60       	ori	r17, 0x08	; 8
    7d06:	23 c0       	rjmp	.+70     	; 0x7d4e <vfprintf+0x108>
    7d08:	10 61       	ori	r17, 0x10	; 16
    7d0a:	21 c0       	rjmp	.+66     	; 0x7d4e <vfprintf+0x108>
    7d0c:	17 fd       	sbrc	r17, 7
    7d0e:	2a c0       	rjmp	.+84     	; 0x7d64 <vfprintf+0x11e>
    7d10:	89 2f       	mov	r24, r25
    7d12:	80 53       	subi	r24, 0x30	; 48
    7d14:	8a 30       	cpi	r24, 0x0A	; 10
    7d16:	78 f4       	brcc	.+30     	; 0x7d36 <vfprintf+0xf0>
    7d18:	16 ff       	sbrs	r17, 6
    7d1a:	06 c0       	rjmp	.+12     	; 0x7d28 <vfprintf+0xe2>
    7d1c:	fa e0       	ldi	r31, 0x0A	; 10
    7d1e:	9f 9e       	mul	r9, r31
    7d20:	90 2c       	mov	r9, r0
    7d22:	11 24       	eor	r1, r1
    7d24:	98 0e       	add	r9, r24
    7d26:	13 c0       	rjmp	.+38     	; 0x7d4e <vfprintf+0x108>
    7d28:	3a e0       	ldi	r19, 0x0A	; 10
    7d2a:	83 9e       	mul	r8, r19
    7d2c:	80 2c       	mov	r8, r0
    7d2e:	11 24       	eor	r1, r1
    7d30:	88 0e       	add	r8, r24
    7d32:	10 62       	ori	r17, 0x20	; 32
    7d34:	0c c0       	rjmp	.+24     	; 0x7d4e <vfprintf+0x108>
    7d36:	9e 32       	cpi	r25, 0x2E	; 46
    7d38:	21 f4       	brne	.+8      	; 0x7d42 <vfprintf+0xfc>
    7d3a:	16 fd       	sbrc	r17, 6
    7d3c:	14 c3       	rjmp	.+1576   	; 0x8366 <vfprintf+0x720>
    7d3e:	10 64       	ori	r17, 0x40	; 64
    7d40:	06 c0       	rjmp	.+12     	; 0x7d4e <vfprintf+0x108>
    7d42:	9c 36       	cpi	r25, 0x6C	; 108
    7d44:	11 f4       	brne	.+4      	; 0x7d4a <vfprintf+0x104>
    7d46:	10 68       	ori	r17, 0x80	; 128
    7d48:	02 c0       	rjmp	.+4      	; 0x7d4e <vfprintf+0x108>
    7d4a:	98 36       	cpi	r25, 0x68	; 104
    7d4c:	59 f4       	brne	.+22     	; 0x7d64 <vfprintf+0x11e>
    7d4e:	ee 85       	ldd	r30, Y+14	; 0x0e
    7d50:	ff 85       	ldd	r31, Y+15	; 0x0f
    7d52:	23 fd       	sbrc	r18, 3
    7d54:	95 91       	lpm	r25, Z+
    7d56:	23 ff       	sbrs	r18, 3
    7d58:	91 91       	ld	r25, Z+
    7d5a:	ee 87       	std	Y+14, r30	; 0x0e
    7d5c:	ff 87       	std	Y+15, r31	; 0x0f
    7d5e:	99 23       	and	r25, r25
    7d60:	09 f0       	breq	.+2      	; 0x7d64 <vfprintf+0x11e>
    7d62:	bc cf       	rjmp	.-136    	; 0x7cdc <vfprintf+0x96>
    7d64:	89 2f       	mov	r24, r25
    7d66:	85 54       	subi	r24, 0x45	; 69
    7d68:	83 30       	cpi	r24, 0x03	; 3
    7d6a:	20 f4       	brcc	.+8      	; 0x7d74 <vfprintf+0x12e>
    7d6c:	81 2f       	mov	r24, r17
    7d6e:	80 61       	ori	r24, 0x10	; 16
    7d70:	90 5e       	subi	r25, 0xE0	; 224
    7d72:	07 c0       	rjmp	.+14     	; 0x7d82 <vfprintf+0x13c>
    7d74:	89 2f       	mov	r24, r25
    7d76:	85 56       	subi	r24, 0x65	; 101
    7d78:	83 30       	cpi	r24, 0x03	; 3
    7d7a:	08 f0       	brcs	.+2      	; 0x7d7e <vfprintf+0x138>
    7d7c:	9f c1       	rjmp	.+830    	; 0x80bc <vfprintf+0x476>
    7d7e:	81 2f       	mov	r24, r17
    7d80:	8f 7e       	andi	r24, 0xEF	; 239
    7d82:	86 fd       	sbrc	r24, 6
    7d84:	02 c0       	rjmp	.+4      	; 0x7d8a <vfprintf+0x144>
    7d86:	76 e0       	ldi	r23, 0x06	; 6
    7d88:	97 2e       	mov	r9, r23
    7d8a:	6f e3       	ldi	r22, 0x3F	; 63
    7d8c:	f6 2e       	mov	r15, r22
    7d8e:	f8 22       	and	r15, r24
    7d90:	95 36       	cpi	r25, 0x65	; 101
    7d92:	19 f4       	brne	.+6      	; 0x7d9a <vfprintf+0x154>
    7d94:	f0 e4       	ldi	r31, 0x40	; 64
    7d96:	ff 2a       	or	r15, r31
    7d98:	07 c0       	rjmp	.+14     	; 0x7da8 <vfprintf+0x162>
    7d9a:	96 36       	cpi	r25, 0x66	; 102
    7d9c:	19 f4       	brne	.+6      	; 0x7da4 <vfprintf+0x15e>
    7d9e:	20 e8       	ldi	r18, 0x80	; 128
    7da0:	f2 2a       	or	r15, r18
    7da2:	02 c0       	rjmp	.+4      	; 0x7da8 <vfprintf+0x162>
    7da4:	91 10       	cpse	r9, r1
    7da6:	9a 94       	dec	r9
    7da8:	f7 fe       	sbrs	r15, 7
    7daa:	0a c0       	rjmp	.+20     	; 0x7dc0 <vfprintf+0x17a>
    7dac:	3b e3       	ldi	r19, 0x3B	; 59
    7dae:	39 15       	cp	r19, r9
    7db0:	18 f4       	brcc	.+6      	; 0x7db8 <vfprintf+0x172>
    7db2:	5c e3       	ldi	r21, 0x3C	; 60
    7db4:	b5 2e       	mov	r11, r21
    7db6:	02 c0       	rjmp	.+4      	; 0x7dbc <vfprintf+0x176>
    7db8:	b9 2c       	mov	r11, r9
    7dba:	b3 94       	inc	r11
    7dbc:	27 e0       	ldi	r18, 0x07	; 7
    7dbe:	09 c0       	rjmp	.+18     	; 0x7dd2 <vfprintf+0x18c>
    7dc0:	47 e0       	ldi	r20, 0x07	; 7
    7dc2:	49 15       	cp	r20, r9
    7dc4:	20 f4       	brcc	.+8      	; 0x7dce <vfprintf+0x188>
    7dc6:	bb 24       	eor	r11, r11
    7dc8:	47 e0       	ldi	r20, 0x07	; 7
    7dca:	94 2e       	mov	r9, r20
    7dcc:	f7 cf       	rjmp	.-18     	; 0x7dbc <vfprintf+0x176>
    7dce:	29 2d       	mov	r18, r9
    7dd0:	bb 24       	eor	r11, r11
    7dd2:	c6 01       	movw	r24, r12
    7dd4:	04 96       	adiw	r24, 0x04	; 4
    7dd6:	8c 87       	std	Y+12, r24	; 0x0c
    7dd8:	9d 87       	std	Y+13, r25	; 0x0d
    7dda:	f6 01       	movw	r30, r12
    7ddc:	60 81       	ld	r22, Z
    7dde:	71 81       	ldd	r23, Z+1	; 0x01
    7de0:	82 81       	ldd	r24, Z+2	; 0x02
    7de2:	93 81       	ldd	r25, Z+3	; 0x03
    7de4:	ae 01       	movw	r20, r28
    7de6:	4f 5f       	subi	r20, 0xFF	; 255
    7de8:	5f 4f       	sbci	r21, 0xFF	; 255
    7dea:	0b 2d       	mov	r16, r11
    7dec:	0e 94 04 48 	call	0x9008	; 0x9008 <__ftoa_engine>
    7df0:	6c 01       	movw	r12, r24
    7df2:	09 81       	ldd	r16, Y+1	; 0x01
    7df4:	20 2e       	mov	r2, r16
    7df6:	33 24       	eor	r3, r3
    7df8:	00 ff       	sbrs	r16, 0
    7dfa:	04 c0       	rjmp	.+8      	; 0x7e04 <vfprintf+0x1be>
    7dfc:	03 fd       	sbrc	r16, 3
    7dfe:	02 c0       	rjmp	.+4      	; 0x7e04 <vfprintf+0x1be>
    7e00:	1d e2       	ldi	r17, 0x2D	; 45
    7e02:	09 c0       	rjmp	.+18     	; 0x7e16 <vfprintf+0x1d0>
    7e04:	f1 fe       	sbrs	r15, 1
    7e06:	02 c0       	rjmp	.+4      	; 0x7e0c <vfprintf+0x1c6>
    7e08:	1b e2       	ldi	r17, 0x2B	; 43
    7e0a:	05 c0       	rjmp	.+10     	; 0x7e16 <vfprintf+0x1d0>
    7e0c:	f2 fc       	sbrc	r15, 2
    7e0e:	02 c0       	rjmp	.+4      	; 0x7e14 <vfprintf+0x1ce>
    7e10:	10 e0       	ldi	r17, 0x00	; 0
    7e12:	01 c0       	rjmp	.+2      	; 0x7e16 <vfprintf+0x1d0>
    7e14:	10 e2       	ldi	r17, 0x20	; 32
    7e16:	c1 01       	movw	r24, r2
    7e18:	8c 70       	andi	r24, 0x0C	; 12
    7e1a:	90 70       	andi	r25, 0x00	; 0
    7e1c:	89 2b       	or	r24, r25
    7e1e:	b9 f1       	breq	.+110    	; 0x7e8e <vfprintf+0x248>
    7e20:	11 23       	and	r17, r17
    7e22:	11 f4       	brne	.+4      	; 0x7e28 <vfprintf+0x1e2>
    7e24:	83 e0       	ldi	r24, 0x03	; 3
    7e26:	01 c0       	rjmp	.+2      	; 0x7e2a <vfprintf+0x1e4>
    7e28:	84 e0       	ldi	r24, 0x04	; 4
    7e2a:	88 15       	cp	r24, r8
    7e2c:	10 f0       	brcs	.+4      	; 0x7e32 <vfprintf+0x1ec>
    7e2e:	88 24       	eor	r8, r8
    7e30:	0a c0       	rjmp	.+20     	; 0x7e46 <vfprintf+0x200>
    7e32:	88 1a       	sub	r8, r24
    7e34:	f3 fc       	sbrc	r15, 3
    7e36:	07 c0       	rjmp	.+14     	; 0x7e46 <vfprintf+0x200>
    7e38:	80 e2       	ldi	r24, 0x20	; 32
    7e3a:	90 e0       	ldi	r25, 0x00	; 0
    7e3c:	b3 01       	movw	r22, r6
    7e3e:	0e 94 6e 49 	call	0x92dc	; 0x92dc <fputc>
    7e42:	8a 94       	dec	r8
    7e44:	c9 f7       	brne	.-14     	; 0x7e38 <vfprintf+0x1f2>
    7e46:	11 23       	and	r17, r17
    7e48:	29 f0       	breq	.+10     	; 0x7e54 <vfprintf+0x20e>
    7e4a:	81 2f       	mov	r24, r17
    7e4c:	90 e0       	ldi	r25, 0x00	; 0
    7e4e:	b3 01       	movw	r22, r6
    7e50:	0e 94 6e 49 	call	0x92dc	; 0x92dc <fputc>
    7e54:	23 fe       	sbrs	r2, 3
    7e56:	03 c0       	rjmp	.+6      	; 0x7e5e <vfprintf+0x218>
    7e58:	03 e3       	ldi	r16, 0x33	; 51
    7e5a:	12 e0       	ldi	r17, 0x02	; 2
    7e5c:	0e c0       	rjmp	.+28     	; 0x7e7a <vfprintf+0x234>
    7e5e:	07 e3       	ldi	r16, 0x37	; 55
    7e60:	12 e0       	ldi	r17, 0x02	; 2
    7e62:	0b c0       	rjmp	.+22     	; 0x7e7a <vfprintf+0x234>
    7e64:	e1 14       	cp	r14, r1
    7e66:	f1 04       	cpc	r15, r1
    7e68:	09 f0       	breq	.+2      	; 0x7e6c <vfprintf+0x226>
    7e6a:	80 52       	subi	r24, 0x20	; 32
    7e6c:	90 e0       	ldi	r25, 0x00	; 0
    7e6e:	b3 01       	movw	r22, r6
    7e70:	0e 94 6e 49 	call	0x92dc	; 0x92dc <fputc>
    7e74:	0f 5f       	subi	r16, 0xFF	; 255
    7e76:	1f 4f       	sbci	r17, 0xFF	; 255
    7e78:	05 c0       	rjmp	.+10     	; 0x7e84 <vfprintf+0x23e>
    7e7a:	ef 2c       	mov	r14, r15
    7e7c:	ff 24       	eor	r15, r15
    7e7e:	f0 e1       	ldi	r31, 0x10	; 16
    7e80:	ef 22       	and	r14, r31
    7e82:	ff 24       	eor	r15, r15
    7e84:	f8 01       	movw	r30, r16
    7e86:	84 91       	lpm	r24, Z+
    7e88:	88 23       	and	r24, r24
    7e8a:	61 f7       	brne	.-40     	; 0x7e64 <vfprintf+0x21e>
    7e8c:	14 c1       	rjmp	.+552    	; 0x80b6 <vfprintf+0x470>
    7e8e:	f7 fe       	sbrs	r15, 7
    7e90:	12 c0       	rjmp	.+36     	; 0x7eb6 <vfprintf+0x270>
    7e92:	bc 0c       	add	r11, r12
    7e94:	24 fe       	sbrs	r2, 4
    7e96:	04 c0       	rjmp	.+8      	; 0x7ea0 <vfprintf+0x25a>
    7e98:	8a 81       	ldd	r24, Y+2	; 0x02
    7e9a:	81 33       	cpi	r24, 0x31	; 49
    7e9c:	09 f4       	brne	.+2      	; 0x7ea0 <vfprintf+0x25a>
    7e9e:	ba 94       	dec	r11
    7ea0:	1b 14       	cp	r1, r11
    7ea2:	1c f0       	brlt	.+6      	; 0x7eaa <vfprintf+0x264>
    7ea4:	bb 24       	eor	r11, r11
    7ea6:	b3 94       	inc	r11
    7ea8:	2d c0       	rjmp	.+90     	; 0x7f04 <vfprintf+0x2be>
    7eaa:	f8 e0       	ldi	r31, 0x08	; 8
    7eac:	fb 15       	cp	r31, r11
    7eae:	50 f5       	brcc	.+84     	; 0x7f04 <vfprintf+0x2be>
    7eb0:	38 e0       	ldi	r19, 0x08	; 8
    7eb2:	b3 2e       	mov	r11, r19
    7eb4:	27 c0       	rjmp	.+78     	; 0x7f04 <vfprintf+0x2be>
    7eb6:	f6 fc       	sbrc	r15, 6
    7eb8:	25 c0       	rjmp	.+74     	; 0x7f04 <vfprintf+0x2be>
    7eba:	89 2d       	mov	r24, r9
    7ebc:	90 e0       	ldi	r25, 0x00	; 0
    7ebe:	8c 15       	cp	r24, r12
    7ec0:	9d 05       	cpc	r25, r13
    7ec2:	4c f0       	brlt	.+18     	; 0x7ed6 <vfprintf+0x290>
    7ec4:	2c ef       	ldi	r18, 0xFC	; 252
    7ec6:	c2 16       	cp	r12, r18
    7ec8:	2f ef       	ldi	r18, 0xFF	; 255
    7eca:	d2 06       	cpc	r13, r18
    7ecc:	24 f0       	brlt	.+8      	; 0x7ed6 <vfprintf+0x290>
    7ece:	30 e8       	ldi	r19, 0x80	; 128
    7ed0:	f3 2a       	or	r15, r19
    7ed2:	01 c0       	rjmp	.+2      	; 0x7ed6 <vfprintf+0x290>
    7ed4:	9a 94       	dec	r9
    7ed6:	99 20       	and	r9, r9
    7ed8:	49 f0       	breq	.+18     	; 0x7eec <vfprintf+0x2a6>
    7eda:	e2 e0       	ldi	r30, 0x02	; 2
    7edc:	f0 e0       	ldi	r31, 0x00	; 0
    7ede:	ec 0f       	add	r30, r28
    7ee0:	fd 1f       	adc	r31, r29
    7ee2:	e9 0d       	add	r30, r9
    7ee4:	f1 1d       	adc	r31, r1
    7ee6:	80 81       	ld	r24, Z
    7ee8:	80 33       	cpi	r24, 0x30	; 48
    7eea:	a1 f3       	breq	.-24     	; 0x7ed4 <vfprintf+0x28e>
    7eec:	f7 fe       	sbrs	r15, 7
    7eee:	0a c0       	rjmp	.+20     	; 0x7f04 <vfprintf+0x2be>
    7ef0:	b9 2c       	mov	r11, r9
    7ef2:	b3 94       	inc	r11
    7ef4:	89 2d       	mov	r24, r9
    7ef6:	90 e0       	ldi	r25, 0x00	; 0
    7ef8:	c8 16       	cp	r12, r24
    7efa:	d9 06       	cpc	r13, r25
    7efc:	14 f0       	brlt	.+4      	; 0x7f02 <vfprintf+0x2bc>
    7efe:	99 24       	eor	r9, r9
    7f00:	01 c0       	rjmp	.+2      	; 0x7f04 <vfprintf+0x2be>
    7f02:	9c 18       	sub	r9, r12
    7f04:	f7 fc       	sbrc	r15, 7
    7f06:	03 c0       	rjmp	.+6      	; 0x7f0e <vfprintf+0x2c8>
    7f08:	25 e0       	ldi	r18, 0x05	; 5
    7f0a:	30 e0       	ldi	r19, 0x00	; 0
    7f0c:	09 c0       	rjmp	.+18     	; 0x7f20 <vfprintf+0x2da>
    7f0e:	1c 14       	cp	r1, r12
    7f10:	1d 04       	cpc	r1, r13
    7f12:	1c f0       	brlt	.+6      	; 0x7f1a <vfprintf+0x2d4>
    7f14:	21 e0       	ldi	r18, 0x01	; 1
    7f16:	30 e0       	ldi	r19, 0x00	; 0
    7f18:	03 c0       	rjmp	.+6      	; 0x7f20 <vfprintf+0x2da>
    7f1a:	96 01       	movw	r18, r12
    7f1c:	2f 5f       	subi	r18, 0xFF	; 255
    7f1e:	3f 4f       	sbci	r19, 0xFF	; 255
    7f20:	11 23       	and	r17, r17
    7f22:	11 f0       	breq	.+4      	; 0x7f28 <vfprintf+0x2e2>
    7f24:	2f 5f       	subi	r18, 0xFF	; 255
    7f26:	3f 4f       	sbci	r19, 0xFF	; 255
    7f28:	99 20       	and	r9, r9
    7f2a:	29 f0       	breq	.+10     	; 0x7f36 <vfprintf+0x2f0>
    7f2c:	89 2d       	mov	r24, r9
    7f2e:	90 e0       	ldi	r25, 0x00	; 0
    7f30:	01 96       	adiw	r24, 0x01	; 1
    7f32:	28 0f       	add	r18, r24
    7f34:	39 1f       	adc	r19, r25
    7f36:	88 2d       	mov	r24, r8
    7f38:	90 e0       	ldi	r25, 0x00	; 0
    7f3a:	28 17       	cp	r18, r24
    7f3c:	39 07       	cpc	r19, r25
    7f3e:	14 f0       	brlt	.+4      	; 0x7f44 <vfprintf+0x2fe>
    7f40:	88 24       	eor	r8, r8
    7f42:	01 c0       	rjmp	.+2      	; 0x7f46 <vfprintf+0x300>
    7f44:	82 1a       	sub	r8, r18
    7f46:	4f 2c       	mov	r4, r15
    7f48:	55 24       	eor	r5, r5
    7f4a:	c2 01       	movw	r24, r4
    7f4c:	89 70       	andi	r24, 0x09	; 9
    7f4e:	90 70       	andi	r25, 0x00	; 0
    7f50:	89 2b       	or	r24, r25
    7f52:	39 f0       	breq	.+14     	; 0x7f62 <vfprintf+0x31c>
    7f54:	08 c0       	rjmp	.+16     	; 0x7f66 <vfprintf+0x320>
    7f56:	80 e2       	ldi	r24, 0x20	; 32
    7f58:	90 e0       	ldi	r25, 0x00	; 0
    7f5a:	b3 01       	movw	r22, r6
    7f5c:	0e 94 6e 49 	call	0x92dc	; 0x92dc <fputc>
    7f60:	8a 94       	dec	r8
    7f62:	88 20       	and	r8, r8
    7f64:	c1 f7       	brne	.-16     	; 0x7f56 <vfprintf+0x310>
    7f66:	11 23       	and	r17, r17
    7f68:	29 f0       	breq	.+10     	; 0x7f74 <vfprintf+0x32e>
    7f6a:	81 2f       	mov	r24, r17
    7f6c:	90 e0       	ldi	r25, 0x00	; 0
    7f6e:	b3 01       	movw	r22, r6
    7f70:	0e 94 6e 49 	call	0x92dc	; 0x92dc <fputc>
    7f74:	43 fe       	sbrs	r4, 3
    7f76:	07 c0       	rjmp	.+14     	; 0x7f86 <vfprintf+0x340>
    7f78:	08 c0       	rjmp	.+16     	; 0x7f8a <vfprintf+0x344>
    7f7a:	80 e3       	ldi	r24, 0x30	; 48
    7f7c:	90 e0       	ldi	r25, 0x00	; 0
    7f7e:	b3 01       	movw	r22, r6
    7f80:	0e 94 6e 49 	call	0x92dc	; 0x92dc <fputc>
    7f84:	8a 94       	dec	r8
    7f86:	88 20       	and	r8, r8
    7f88:	c1 f7       	brne	.-16     	; 0x7f7a <vfprintf+0x334>
    7f8a:	f7 fe       	sbrs	r15, 7
    7f8c:	46 c0       	rjmp	.+140    	; 0x801a <vfprintf+0x3d4>
    7f8e:	86 01       	movw	r16, r12
    7f90:	d7 fe       	sbrs	r13, 7
    7f92:	02 c0       	rjmp	.+4      	; 0x7f98 <vfprintf+0x352>
    7f94:	00 e0       	ldi	r16, 0x00	; 0
    7f96:	10 e0       	ldi	r17, 0x00	; 0
    7f98:	76 01       	movw	r14, r12
    7f9a:	08 94       	sec
    7f9c:	e1 1c       	adc	r14, r1
    7f9e:	f1 1c       	adc	r15, r1
    7fa0:	e0 1a       	sub	r14, r16
    7fa2:	f1 0a       	sbc	r15, r17
    7fa4:	41 e0       	ldi	r20, 0x01	; 1
    7fa6:	50 e0       	ldi	r21, 0x00	; 0
    7fa8:	4c 0f       	add	r20, r28
    7faa:	5d 1f       	adc	r21, r29
    7fac:	e4 0e       	add	r14, r20
    7fae:	f5 1e       	adc	r15, r21
    7fb0:	26 01       	movw	r4, r12
    7fb2:	4b 18       	sub	r4, r11
    7fb4:	51 08       	sbc	r5, r1
    7fb6:	89 2d       	mov	r24, r9
    7fb8:	90 e0       	ldi	r25, 0x00	; 0
    7fba:	aa 24       	eor	r10, r10
    7fbc:	bb 24       	eor	r11, r11
    7fbe:	a8 1a       	sub	r10, r24
    7fc0:	b9 0a       	sbc	r11, r25
    7fc2:	5f ef       	ldi	r21, 0xFF	; 255
    7fc4:	0f 3f       	cpi	r16, 0xFF	; 255
    7fc6:	15 07       	cpc	r17, r21
    7fc8:	29 f4       	brne	.+10     	; 0x7fd4 <vfprintf+0x38e>
    7fca:	8e e2       	ldi	r24, 0x2E	; 46
    7fcc:	90 e0       	ldi	r25, 0x00	; 0
    7fce:	b3 01       	movw	r22, r6
    7fd0:	0e 94 6e 49 	call	0x92dc	; 0x92dc <fputc>
    7fd4:	c0 16       	cp	r12, r16
    7fd6:	d1 06       	cpc	r13, r17
    7fd8:	34 f0       	brlt	.+12     	; 0x7fe6 <vfprintf+0x3a0>
    7fda:	40 16       	cp	r4, r16
    7fdc:	51 06       	cpc	r5, r17
    7fde:	1c f4       	brge	.+6      	; 0x7fe6 <vfprintf+0x3a0>
    7fe0:	f7 01       	movw	r30, r14
    7fe2:	80 81       	ld	r24, Z
    7fe4:	01 c0       	rjmp	.+2      	; 0x7fe8 <vfprintf+0x3a2>
    7fe6:	80 e3       	ldi	r24, 0x30	; 48
    7fe8:	01 50       	subi	r16, 0x01	; 1
    7fea:	10 40       	sbci	r17, 0x00	; 0
    7fec:	08 94       	sec
    7fee:	e1 1c       	adc	r14, r1
    7ff0:	f1 1c       	adc	r15, r1
    7ff2:	0a 15       	cp	r16, r10
    7ff4:	1b 05       	cpc	r17, r11
    7ff6:	2c f0       	brlt	.+10     	; 0x8002 <vfprintf+0x3bc>
    7ff8:	90 e0       	ldi	r25, 0x00	; 0
    7ffa:	b3 01       	movw	r22, r6
    7ffc:	0e 94 6e 49 	call	0x92dc	; 0x92dc <fputc>
    8000:	e0 cf       	rjmp	.-64     	; 0x7fc2 <vfprintf+0x37c>
    8002:	0c 15       	cp	r16, r12
    8004:	1d 05       	cpc	r17, r13
    8006:	39 f4       	brne	.+14     	; 0x8016 <vfprintf+0x3d0>
    8008:	9a 81       	ldd	r25, Y+2	; 0x02
    800a:	96 33       	cpi	r25, 0x36	; 54
    800c:	18 f4       	brcc	.+6      	; 0x8014 <vfprintf+0x3ce>
    800e:	95 33       	cpi	r25, 0x35	; 53
    8010:	11 f4       	brne	.+4      	; 0x8016 <vfprintf+0x3d0>
    8012:	24 fe       	sbrs	r2, 4
    8014:	81 e3       	ldi	r24, 0x31	; 49
    8016:	90 e0       	ldi	r25, 0x00	; 0
    8018:	4b c0       	rjmp	.+150    	; 0x80b0 <vfprintf+0x46a>
    801a:	8a 81       	ldd	r24, Y+2	; 0x02
    801c:	81 33       	cpi	r24, 0x31	; 49
    801e:	09 f0       	breq	.+2      	; 0x8022 <vfprintf+0x3dc>
    8020:	0f 7e       	andi	r16, 0xEF	; 239
    8022:	90 e0       	ldi	r25, 0x00	; 0
    8024:	b3 01       	movw	r22, r6
    8026:	0e 94 6e 49 	call	0x92dc	; 0x92dc <fputc>
    802a:	99 20       	and	r9, r9
    802c:	a1 f0       	breq	.+40     	; 0x8056 <vfprintf+0x410>
    802e:	8e e2       	ldi	r24, 0x2E	; 46
    8030:	90 e0       	ldi	r25, 0x00	; 0
    8032:	b3 01       	movw	r22, r6
    8034:	0e 94 6e 49 	call	0x92dc	; 0x92dc <fputc>
    8038:	12 e0       	ldi	r17, 0x02	; 2
    803a:	e1 e0       	ldi	r30, 0x01	; 1
    803c:	f0 e0       	ldi	r31, 0x00	; 0
    803e:	ec 0f       	add	r30, r28
    8040:	fd 1f       	adc	r31, r29
    8042:	e1 0f       	add	r30, r17
    8044:	f1 1d       	adc	r31, r1
    8046:	1f 5f       	subi	r17, 0xFF	; 255
    8048:	80 81       	ld	r24, Z
    804a:	90 e0       	ldi	r25, 0x00	; 0
    804c:	b3 01       	movw	r22, r6
    804e:	0e 94 6e 49 	call	0x92dc	; 0x92dc <fputc>
    8052:	9a 94       	dec	r9
    8054:	91 f7       	brne	.-28     	; 0x803a <vfprintf+0x3f4>
    8056:	44 fc       	sbrc	r4, 4
    8058:	03 c0       	rjmp	.+6      	; 0x8060 <vfprintf+0x41a>
    805a:	85 e6       	ldi	r24, 0x65	; 101
    805c:	90 e0       	ldi	r25, 0x00	; 0
    805e:	02 c0       	rjmp	.+4      	; 0x8064 <vfprintf+0x41e>
    8060:	85 e4       	ldi	r24, 0x45	; 69
    8062:	90 e0       	ldi	r25, 0x00	; 0
    8064:	b3 01       	movw	r22, r6
    8066:	0e 94 6e 49 	call	0x92dc	; 0x92dc <fputc>
    806a:	d7 fc       	sbrc	r13, 7
    806c:	05 c0       	rjmp	.+10     	; 0x8078 <vfprintf+0x432>
    806e:	c1 14       	cp	r12, r1
    8070:	d1 04       	cpc	r13, r1
    8072:	41 f4       	brne	.+16     	; 0x8084 <vfprintf+0x43e>
    8074:	04 ff       	sbrs	r16, 4
    8076:	06 c0       	rjmp	.+12     	; 0x8084 <vfprintf+0x43e>
    8078:	d0 94       	com	r13
    807a:	c1 94       	neg	r12
    807c:	d1 08       	sbc	r13, r1
    807e:	d3 94       	inc	r13
    8080:	8d e2       	ldi	r24, 0x2D	; 45
    8082:	01 c0       	rjmp	.+2      	; 0x8086 <vfprintf+0x440>
    8084:	8b e2       	ldi	r24, 0x2B	; 43
    8086:	90 e0       	ldi	r25, 0x00	; 0
    8088:	b3 01       	movw	r22, r6
    808a:	0e 94 6e 49 	call	0x92dc	; 0x92dc <fputc>
    808e:	80 e3       	ldi	r24, 0x30	; 48
    8090:	05 c0       	rjmp	.+10     	; 0x809c <vfprintf+0x456>
    8092:	8f 5f       	subi	r24, 0xFF	; 255
    8094:	26 ef       	ldi	r18, 0xF6	; 246
    8096:	3f ef       	ldi	r19, 0xFF	; 255
    8098:	c2 0e       	add	r12, r18
    809a:	d3 1e       	adc	r13, r19
    809c:	3a e0       	ldi	r19, 0x0A	; 10
    809e:	c3 16       	cp	r12, r19
    80a0:	d1 04       	cpc	r13, r1
    80a2:	bc f7       	brge	.-18     	; 0x8092 <vfprintf+0x44c>
    80a4:	90 e0       	ldi	r25, 0x00	; 0
    80a6:	b3 01       	movw	r22, r6
    80a8:	0e 94 6e 49 	call	0x92dc	; 0x92dc <fputc>
    80ac:	c6 01       	movw	r24, r12
    80ae:	c0 96       	adiw	r24, 0x30	; 48
    80b0:	b3 01       	movw	r22, r6
    80b2:	0e 94 6e 49 	call	0x92dc	; 0x92dc <fputc>
    80b6:	cc 84       	ldd	r12, Y+12	; 0x0c
    80b8:	dd 84       	ldd	r13, Y+13	; 0x0d
    80ba:	52 c1       	rjmp	.+676    	; 0x8360 <vfprintf+0x71a>
    80bc:	93 36       	cpi	r25, 0x63	; 99
    80be:	31 f0       	breq	.+12     	; 0x80cc <vfprintf+0x486>
    80c0:	93 37       	cpi	r25, 0x73	; 115
    80c2:	99 f0       	breq	.+38     	; 0x80ea <vfprintf+0x4a4>
    80c4:	93 35       	cpi	r25, 0x53	; 83
    80c6:	09 f0       	breq	.+2      	; 0x80ca <vfprintf+0x484>
    80c8:	59 c0       	rjmp	.+178    	; 0x817c <vfprintf+0x536>
    80ca:	23 c0       	rjmp	.+70     	; 0x8112 <vfprintf+0x4cc>
    80cc:	f6 01       	movw	r30, r12
    80ce:	80 81       	ld	r24, Z
    80d0:	89 83       	std	Y+1, r24	; 0x01
    80d2:	5e 01       	movw	r10, r28
    80d4:	08 94       	sec
    80d6:	a1 1c       	adc	r10, r1
    80d8:	b1 1c       	adc	r11, r1
    80da:	22 e0       	ldi	r18, 0x02	; 2
    80dc:	30 e0       	ldi	r19, 0x00	; 0
    80de:	c2 0e       	add	r12, r18
    80e0:	d3 1e       	adc	r13, r19
    80e2:	21 e0       	ldi	r18, 0x01	; 1
    80e4:	e2 2e       	mov	r14, r18
    80e6:	f1 2c       	mov	r15, r1
    80e8:	12 c0       	rjmp	.+36     	; 0x810e <vfprintf+0x4c8>
    80ea:	f6 01       	movw	r30, r12
    80ec:	a0 80       	ld	r10, Z
    80ee:	b1 80       	ldd	r11, Z+1	; 0x01
    80f0:	16 fd       	sbrc	r17, 6
    80f2:	03 c0       	rjmp	.+6      	; 0x80fa <vfprintf+0x4b4>
    80f4:	6f ef       	ldi	r22, 0xFF	; 255
    80f6:	7f ef       	ldi	r23, 0xFF	; 255
    80f8:	02 c0       	rjmp	.+4      	; 0x80fe <vfprintf+0x4b8>
    80fa:	69 2d       	mov	r22, r9
    80fc:	70 e0       	ldi	r23, 0x00	; 0
    80fe:	22 e0       	ldi	r18, 0x02	; 2
    8100:	30 e0       	ldi	r19, 0x00	; 0
    8102:	c2 0e       	add	r12, r18
    8104:	d3 1e       	adc	r13, r19
    8106:	c5 01       	movw	r24, r10
    8108:	0e 94 23 49 	call	0x9246	; 0x9246 <strnlen>
    810c:	7c 01       	movw	r14, r24
    810e:	1f 77       	andi	r17, 0x7F	; 127
    8110:	13 c0       	rjmp	.+38     	; 0x8138 <vfprintf+0x4f2>
    8112:	f6 01       	movw	r30, r12
    8114:	a0 80       	ld	r10, Z
    8116:	b1 80       	ldd	r11, Z+1	; 0x01
    8118:	16 fd       	sbrc	r17, 6
    811a:	03 c0       	rjmp	.+6      	; 0x8122 <vfprintf+0x4dc>
    811c:	6f ef       	ldi	r22, 0xFF	; 255
    811e:	7f ef       	ldi	r23, 0xFF	; 255
    8120:	02 c0       	rjmp	.+4      	; 0x8126 <vfprintf+0x4e0>
    8122:	69 2d       	mov	r22, r9
    8124:	70 e0       	ldi	r23, 0x00	; 0
    8126:	22 e0       	ldi	r18, 0x02	; 2
    8128:	30 e0       	ldi	r19, 0x00	; 0
    812a:	c2 0e       	add	r12, r18
    812c:	d3 1e       	adc	r13, r19
    812e:	c5 01       	movw	r24, r10
    8130:	0e 94 0d 49 	call	0x921a	; 0x921a <strnlen_P>
    8134:	7c 01       	movw	r14, r24
    8136:	10 68       	ori	r17, 0x80	; 128
    8138:	13 ff       	sbrs	r17, 3
    813a:	07 c0       	rjmp	.+14     	; 0x814a <vfprintf+0x504>
    813c:	1b c0       	rjmp	.+54     	; 0x8174 <vfprintf+0x52e>
    813e:	80 e2       	ldi	r24, 0x20	; 32
    8140:	90 e0       	ldi	r25, 0x00	; 0
    8142:	b3 01       	movw	r22, r6
    8144:	0e 94 6e 49 	call	0x92dc	; 0x92dc <fputc>
    8148:	8a 94       	dec	r8
    814a:	88 2d       	mov	r24, r8
    814c:	90 e0       	ldi	r25, 0x00	; 0
    814e:	e8 16       	cp	r14, r24
    8150:	f9 06       	cpc	r15, r25
    8152:	a8 f3       	brcs	.-22     	; 0x813e <vfprintf+0x4f8>
    8154:	0f c0       	rjmp	.+30     	; 0x8174 <vfprintf+0x52e>
    8156:	f5 01       	movw	r30, r10
    8158:	17 fd       	sbrc	r17, 7
    815a:	85 91       	lpm	r24, Z+
    815c:	17 ff       	sbrs	r17, 7
    815e:	81 91       	ld	r24, Z+
    8160:	5f 01       	movw	r10, r30
    8162:	90 e0       	ldi	r25, 0x00	; 0
    8164:	b3 01       	movw	r22, r6
    8166:	0e 94 6e 49 	call	0x92dc	; 0x92dc <fputc>
    816a:	81 10       	cpse	r8, r1
    816c:	8a 94       	dec	r8
    816e:	08 94       	sec
    8170:	e1 08       	sbc	r14, r1
    8172:	f1 08       	sbc	r15, r1
    8174:	e1 14       	cp	r14, r1
    8176:	f1 04       	cpc	r15, r1
    8178:	71 f7       	brne	.-36     	; 0x8156 <vfprintf+0x510>
    817a:	f2 c0       	rjmp	.+484    	; 0x8360 <vfprintf+0x71a>
    817c:	94 36       	cpi	r25, 0x64	; 100
    817e:	11 f0       	breq	.+4      	; 0x8184 <vfprintf+0x53e>
    8180:	99 36       	cpi	r25, 0x69	; 105
    8182:	89 f5       	brne	.+98     	; 0x81e6 <vfprintf+0x5a0>
    8184:	17 ff       	sbrs	r17, 7
    8186:	08 c0       	rjmp	.+16     	; 0x8198 <vfprintf+0x552>
    8188:	f6 01       	movw	r30, r12
    818a:	20 81       	ld	r18, Z
    818c:	31 81       	ldd	r19, Z+1	; 0x01
    818e:	42 81       	ldd	r20, Z+2	; 0x02
    8190:	53 81       	ldd	r21, Z+3	; 0x03
    8192:	84 e0       	ldi	r24, 0x04	; 4
    8194:	90 e0       	ldi	r25, 0x00	; 0
    8196:	0a c0       	rjmp	.+20     	; 0x81ac <vfprintf+0x566>
    8198:	f6 01       	movw	r30, r12
    819a:	80 81       	ld	r24, Z
    819c:	91 81       	ldd	r25, Z+1	; 0x01
    819e:	9c 01       	movw	r18, r24
    81a0:	44 27       	eor	r20, r20
    81a2:	37 fd       	sbrc	r19, 7
    81a4:	40 95       	com	r20
    81a6:	54 2f       	mov	r21, r20
    81a8:	82 e0       	ldi	r24, 0x02	; 2
    81aa:	90 e0       	ldi	r25, 0x00	; 0
    81ac:	c8 0e       	add	r12, r24
    81ae:	d9 1e       	adc	r13, r25
    81b0:	9f e6       	ldi	r25, 0x6F	; 111
    81b2:	f9 2e       	mov	r15, r25
    81b4:	f1 22       	and	r15, r17
    81b6:	57 ff       	sbrs	r21, 7
    81b8:	09 c0       	rjmp	.+18     	; 0x81cc <vfprintf+0x586>
    81ba:	50 95       	com	r21
    81bc:	40 95       	com	r20
    81be:	30 95       	com	r19
    81c0:	21 95       	neg	r18
    81c2:	3f 4f       	sbci	r19, 0xFF	; 255
    81c4:	4f 4f       	sbci	r20, 0xFF	; 255
    81c6:	5f 4f       	sbci	r21, 0xFF	; 255
    81c8:	90 e8       	ldi	r25, 0x80	; 128
    81ca:	f9 2a       	or	r15, r25
    81cc:	ca 01       	movw	r24, r20
    81ce:	b9 01       	movw	r22, r18
    81d0:	ae 01       	movw	r20, r28
    81d2:	4f 5f       	subi	r20, 0xFF	; 255
    81d4:	5f 4f       	sbci	r21, 0xFF	; 255
    81d6:	2a e0       	ldi	r18, 0x0A	; 10
    81d8:	30 e0       	ldi	r19, 0x00	; 0
    81da:	0e 94 bd 49 	call	0x937a	; 0x937a <__ultoa_invert>
    81de:	e8 2e       	mov	r14, r24
    81e0:	e8 89       	ldd	r30, Y+16	; 0x10
    81e2:	ee 1a       	sub	r14, r30
    81e4:	41 c0       	rjmp	.+130    	; 0x8268 <vfprintf+0x622>
    81e6:	95 37       	cpi	r25, 0x75	; 117
    81e8:	21 f4       	brne	.+8      	; 0x81f2 <vfprintf+0x5ac>
    81ea:	1f 7e       	andi	r17, 0xEF	; 239
    81ec:	2a e0       	ldi	r18, 0x0A	; 10
    81ee:	30 e0       	ldi	r19, 0x00	; 0
    81f0:	1c c0       	rjmp	.+56     	; 0x822a <vfprintf+0x5e4>
    81f2:	19 7f       	andi	r17, 0xF9	; 249
    81f4:	9f 36       	cpi	r25, 0x6F	; 111
    81f6:	61 f0       	breq	.+24     	; 0x8210 <vfprintf+0x5ca>
    81f8:	90 37       	cpi	r25, 0x70	; 112
    81fa:	20 f4       	brcc	.+8      	; 0x8204 <vfprintf+0x5be>
    81fc:	98 35       	cpi	r25, 0x58	; 88
    81fe:	09 f0       	breq	.+2      	; 0x8202 <vfprintf+0x5bc>
    8200:	b2 c0       	rjmp	.+356    	; 0x8366 <vfprintf+0x720>
    8202:	0f c0       	rjmp	.+30     	; 0x8222 <vfprintf+0x5dc>
    8204:	90 37       	cpi	r25, 0x70	; 112
    8206:	39 f0       	breq	.+14     	; 0x8216 <vfprintf+0x5d0>
    8208:	98 37       	cpi	r25, 0x78	; 120
    820a:	09 f0       	breq	.+2      	; 0x820e <vfprintf+0x5c8>
    820c:	ac c0       	rjmp	.+344    	; 0x8366 <vfprintf+0x720>
    820e:	04 c0       	rjmp	.+8      	; 0x8218 <vfprintf+0x5d2>
    8210:	28 e0       	ldi	r18, 0x08	; 8
    8212:	30 e0       	ldi	r19, 0x00	; 0
    8214:	0a c0       	rjmp	.+20     	; 0x822a <vfprintf+0x5e4>
    8216:	10 61       	ori	r17, 0x10	; 16
    8218:	14 fd       	sbrc	r17, 4
    821a:	14 60       	ori	r17, 0x04	; 4
    821c:	20 e1       	ldi	r18, 0x10	; 16
    821e:	30 e0       	ldi	r19, 0x00	; 0
    8220:	04 c0       	rjmp	.+8      	; 0x822a <vfprintf+0x5e4>
    8222:	14 fd       	sbrc	r17, 4
    8224:	16 60       	ori	r17, 0x06	; 6
    8226:	20 e1       	ldi	r18, 0x10	; 16
    8228:	32 e0       	ldi	r19, 0x02	; 2
    822a:	17 ff       	sbrs	r17, 7
    822c:	08 c0       	rjmp	.+16     	; 0x823e <vfprintf+0x5f8>
    822e:	f6 01       	movw	r30, r12
    8230:	60 81       	ld	r22, Z
    8232:	71 81       	ldd	r23, Z+1	; 0x01
    8234:	82 81       	ldd	r24, Z+2	; 0x02
    8236:	93 81       	ldd	r25, Z+3	; 0x03
    8238:	44 e0       	ldi	r20, 0x04	; 4
    823a:	50 e0       	ldi	r21, 0x00	; 0
    823c:	08 c0       	rjmp	.+16     	; 0x824e <vfprintf+0x608>
    823e:	f6 01       	movw	r30, r12
    8240:	80 81       	ld	r24, Z
    8242:	91 81       	ldd	r25, Z+1	; 0x01
    8244:	bc 01       	movw	r22, r24
    8246:	80 e0       	ldi	r24, 0x00	; 0
    8248:	90 e0       	ldi	r25, 0x00	; 0
    824a:	42 e0       	ldi	r20, 0x02	; 2
    824c:	50 e0       	ldi	r21, 0x00	; 0
    824e:	c4 0e       	add	r12, r20
    8250:	d5 1e       	adc	r13, r21
    8252:	ae 01       	movw	r20, r28
    8254:	4f 5f       	subi	r20, 0xFF	; 255
    8256:	5f 4f       	sbci	r21, 0xFF	; 255
    8258:	0e 94 bd 49 	call	0x937a	; 0x937a <__ultoa_invert>
    825c:	e8 2e       	mov	r14, r24
    825e:	58 89       	ldd	r21, Y+16	; 0x10
    8260:	e5 1a       	sub	r14, r21
    8262:	8f e7       	ldi	r24, 0x7F	; 127
    8264:	f8 2e       	mov	r15, r24
    8266:	f1 22       	and	r15, r17
    8268:	f6 fe       	sbrs	r15, 6
    826a:	0b c0       	rjmp	.+22     	; 0x8282 <vfprintf+0x63c>
    826c:	8e ef       	ldi	r24, 0xFE	; 254
    826e:	f8 22       	and	r15, r24
    8270:	e9 14       	cp	r14, r9
    8272:	38 f4       	brcc	.+14     	; 0x8282 <vfprintf+0x63c>
    8274:	f4 fe       	sbrs	r15, 4
    8276:	07 c0       	rjmp	.+14     	; 0x8286 <vfprintf+0x640>
    8278:	f2 fc       	sbrc	r15, 2
    827a:	05 c0       	rjmp	.+10     	; 0x8286 <vfprintf+0x640>
    827c:	9f ee       	ldi	r25, 0xEF	; 239
    827e:	f9 22       	and	r15, r25
    8280:	02 c0       	rjmp	.+4      	; 0x8286 <vfprintf+0x640>
    8282:	1e 2d       	mov	r17, r14
    8284:	01 c0       	rjmp	.+2      	; 0x8288 <vfprintf+0x642>
    8286:	19 2d       	mov	r17, r9
    8288:	f4 fe       	sbrs	r15, 4
    828a:	0d c0       	rjmp	.+26     	; 0x82a6 <vfprintf+0x660>
    828c:	fe 01       	movw	r30, r28
    828e:	ee 0d       	add	r30, r14
    8290:	f1 1d       	adc	r31, r1
    8292:	80 81       	ld	r24, Z
    8294:	80 33       	cpi	r24, 0x30	; 48
    8296:	19 f4       	brne	.+6      	; 0x829e <vfprintf+0x658>
    8298:	e9 ee       	ldi	r30, 0xE9	; 233
    829a:	fe 22       	and	r15, r30
    829c:	08 c0       	rjmp	.+16     	; 0x82ae <vfprintf+0x668>
    829e:	1f 5f       	subi	r17, 0xFF	; 255
    82a0:	f2 fe       	sbrs	r15, 2
    82a2:	05 c0       	rjmp	.+10     	; 0x82ae <vfprintf+0x668>
    82a4:	03 c0       	rjmp	.+6      	; 0x82ac <vfprintf+0x666>
    82a6:	8f 2d       	mov	r24, r15
    82a8:	86 78       	andi	r24, 0x86	; 134
    82aa:	09 f0       	breq	.+2      	; 0x82ae <vfprintf+0x668>
    82ac:	1f 5f       	subi	r17, 0xFF	; 255
    82ae:	0f 2d       	mov	r16, r15
    82b0:	f3 fc       	sbrc	r15, 3
    82b2:	14 c0       	rjmp	.+40     	; 0x82dc <vfprintf+0x696>
    82b4:	f0 fe       	sbrs	r15, 0
    82b6:	0f c0       	rjmp	.+30     	; 0x82d6 <vfprintf+0x690>
    82b8:	18 15       	cp	r17, r8
    82ba:	10 f0       	brcs	.+4      	; 0x82c0 <vfprintf+0x67a>
    82bc:	9e 2c       	mov	r9, r14
    82be:	0b c0       	rjmp	.+22     	; 0x82d6 <vfprintf+0x690>
    82c0:	9e 2c       	mov	r9, r14
    82c2:	98 0c       	add	r9, r8
    82c4:	91 1a       	sub	r9, r17
    82c6:	18 2d       	mov	r17, r8
    82c8:	06 c0       	rjmp	.+12     	; 0x82d6 <vfprintf+0x690>
    82ca:	80 e2       	ldi	r24, 0x20	; 32
    82cc:	90 e0       	ldi	r25, 0x00	; 0
    82ce:	b3 01       	movw	r22, r6
    82d0:	0e 94 6e 49 	call	0x92dc	; 0x92dc <fputc>
    82d4:	1f 5f       	subi	r17, 0xFF	; 255
    82d6:	18 15       	cp	r17, r8
    82d8:	c0 f3       	brcs	.-16     	; 0x82ca <vfprintf+0x684>
    82da:	04 c0       	rjmp	.+8      	; 0x82e4 <vfprintf+0x69e>
    82dc:	18 15       	cp	r17, r8
    82de:	10 f4       	brcc	.+4      	; 0x82e4 <vfprintf+0x69e>
    82e0:	81 1a       	sub	r8, r17
    82e2:	01 c0       	rjmp	.+2      	; 0x82e6 <vfprintf+0x6a0>
    82e4:	88 24       	eor	r8, r8
    82e6:	04 ff       	sbrs	r16, 4
    82e8:	0f c0       	rjmp	.+30     	; 0x8308 <vfprintf+0x6c2>
    82ea:	80 e3       	ldi	r24, 0x30	; 48
    82ec:	90 e0       	ldi	r25, 0x00	; 0
    82ee:	b3 01       	movw	r22, r6
    82f0:	0e 94 6e 49 	call	0x92dc	; 0x92dc <fputc>
    82f4:	02 ff       	sbrs	r16, 2
    82f6:	1d c0       	rjmp	.+58     	; 0x8332 <vfprintf+0x6ec>
    82f8:	01 fd       	sbrc	r16, 1
    82fa:	03 c0       	rjmp	.+6      	; 0x8302 <vfprintf+0x6bc>
    82fc:	88 e7       	ldi	r24, 0x78	; 120
    82fe:	90 e0       	ldi	r25, 0x00	; 0
    8300:	0e c0       	rjmp	.+28     	; 0x831e <vfprintf+0x6d8>
    8302:	88 e5       	ldi	r24, 0x58	; 88
    8304:	90 e0       	ldi	r25, 0x00	; 0
    8306:	0b c0       	rjmp	.+22     	; 0x831e <vfprintf+0x6d8>
    8308:	80 2f       	mov	r24, r16
    830a:	86 78       	andi	r24, 0x86	; 134
    830c:	91 f0       	breq	.+36     	; 0x8332 <vfprintf+0x6ec>
    830e:	01 ff       	sbrs	r16, 1
    8310:	02 c0       	rjmp	.+4      	; 0x8316 <vfprintf+0x6d0>
    8312:	8b e2       	ldi	r24, 0x2B	; 43
    8314:	01 c0       	rjmp	.+2      	; 0x8318 <vfprintf+0x6d2>
    8316:	80 e2       	ldi	r24, 0x20	; 32
    8318:	f7 fc       	sbrc	r15, 7
    831a:	8d e2       	ldi	r24, 0x2D	; 45
    831c:	90 e0       	ldi	r25, 0x00	; 0
    831e:	b3 01       	movw	r22, r6
    8320:	0e 94 6e 49 	call	0x92dc	; 0x92dc <fputc>
    8324:	06 c0       	rjmp	.+12     	; 0x8332 <vfprintf+0x6ec>
    8326:	80 e3       	ldi	r24, 0x30	; 48
    8328:	90 e0       	ldi	r25, 0x00	; 0
    832a:	b3 01       	movw	r22, r6
    832c:	0e 94 6e 49 	call	0x92dc	; 0x92dc <fputc>
    8330:	9a 94       	dec	r9
    8332:	e9 14       	cp	r14, r9
    8334:	c0 f3       	brcs	.-16     	; 0x8326 <vfprintf+0x6e0>
    8336:	ea 94       	dec	r14
    8338:	e1 e0       	ldi	r30, 0x01	; 1
    833a:	f0 e0       	ldi	r31, 0x00	; 0
    833c:	ec 0f       	add	r30, r28
    833e:	fd 1f       	adc	r31, r29
    8340:	ee 0d       	add	r30, r14
    8342:	f1 1d       	adc	r31, r1
    8344:	80 81       	ld	r24, Z
    8346:	90 e0       	ldi	r25, 0x00	; 0
    8348:	b3 01       	movw	r22, r6
    834a:	0e 94 6e 49 	call	0x92dc	; 0x92dc <fputc>
    834e:	ee 20       	and	r14, r14
    8350:	91 f7       	brne	.-28     	; 0x8336 <vfprintf+0x6f0>
    8352:	06 c0       	rjmp	.+12     	; 0x8360 <vfprintf+0x71a>
    8354:	80 e2       	ldi	r24, 0x20	; 32
    8356:	90 e0       	ldi	r25, 0x00	; 0
    8358:	b3 01       	movw	r22, r6
    835a:	0e 94 6e 49 	call	0x92dc	; 0x92dc <fputc>
    835e:	8a 94       	dec	r8
    8360:	88 20       	and	r8, r8
    8362:	c1 f7       	brne	.-16     	; 0x8354 <vfprintf+0x70e>
    8364:	99 cc       	rjmp	.-1742   	; 0x7c98 <vfprintf+0x52>
    8366:	f3 01       	movw	r30, r6
    8368:	66 81       	ldd	r22, Z+6	; 0x06
    836a:	77 81       	ldd	r23, Z+7	; 0x07
    836c:	cb 01       	movw	r24, r22
    836e:	61 96       	adiw	r28, 0x11	; 17
    8370:	cd bf       	out	0x3d, r28	; 61
    8372:	de bf       	out	0x3e, r29	; 62
    8374:	cf 91       	pop	r28
    8376:	df 91       	pop	r29
    8378:	1f 91       	pop	r17
    837a:	0f 91       	pop	r16
    837c:	ff 90       	pop	r15
    837e:	ef 90       	pop	r14
    8380:	df 90       	pop	r13
    8382:	cf 90       	pop	r12
    8384:	bf 90       	pop	r11
    8386:	af 90       	pop	r10
    8388:	9f 90       	pop	r9
    838a:	8f 90       	pop	r8
    838c:	7f 90       	pop	r7
    838e:	6f 90       	pop	r6
    8390:	5f 90       	pop	r5
    8392:	4f 90       	pop	r4
    8394:	3f 90       	pop	r3
    8396:	2f 90       	pop	r2
    8398:	08 95       	ret

0000839a <__subsf3>:
    839a:	50 58       	subi	r21, 0x80	; 128

0000839c <__addsf3>:
    839c:	bb 27       	eor	r27, r27
    839e:	aa 27       	eor	r26, r26
    83a0:	0e d0       	rcall	.+28     	; 0x83be <__addsf3x>
    83a2:	29 c2       	rjmp	.+1106   	; 0x87f6 <__fp_round>
    83a4:	f2 d1       	rcall	.+996    	; 0x878a <__fp_pscA>
    83a6:	30 f0       	brcs	.+12     	; 0x83b4 <__addsf3+0x18>
    83a8:	f7 d1       	rcall	.+1006   	; 0x8798 <__fp_pscB>
    83aa:	20 f0       	brcs	.+8      	; 0x83b4 <__addsf3+0x18>
    83ac:	31 f4       	brne	.+12     	; 0x83ba <__addsf3+0x1e>
    83ae:	9f 3f       	cpi	r25, 0xFF	; 255
    83b0:	11 f4       	brne	.+4      	; 0x83b6 <__addsf3+0x1a>
    83b2:	1e f4       	brtc	.+6      	; 0x83ba <__addsf3+0x1e>
    83b4:	c2 c1       	rjmp	.+900    	; 0x873a <__fp_nan>
    83b6:	0e f4       	brtc	.+2      	; 0x83ba <__addsf3+0x1e>
    83b8:	e0 95       	com	r30
    83ba:	e7 fb       	bst	r30, 7
    83bc:	8f c1       	rjmp	.+798    	; 0x86dc <__fp_inf>

000083be <__addsf3x>:
    83be:	e9 2f       	mov	r30, r25
    83c0:	3c d2       	rcall	.+1144   	; 0x883a <__fp_split3>
    83c2:	80 f3       	brcs	.-32     	; 0x83a4 <__addsf3+0x8>
    83c4:	ba 17       	cp	r27, r26
    83c6:	62 07       	cpc	r22, r18
    83c8:	73 07       	cpc	r23, r19
    83ca:	84 07       	cpc	r24, r20
    83cc:	95 07       	cpc	r25, r21
    83ce:	18 f0       	brcs	.+6      	; 0x83d6 <__addsf3x+0x18>
    83d0:	71 f4       	brne	.+28     	; 0x83ee <__addsf3x+0x30>
    83d2:	9e f5       	brtc	.+102    	; 0x843a <__addsf3x+0x7c>
    83d4:	6b c2       	rjmp	.+1238   	; 0x88ac <__fp_zero>
    83d6:	0e f4       	brtc	.+2      	; 0x83da <__addsf3x+0x1c>
    83d8:	e0 95       	com	r30
    83da:	0b 2e       	mov	r0, r27
    83dc:	ba 2f       	mov	r27, r26
    83de:	a0 2d       	mov	r26, r0
    83e0:	0b 01       	movw	r0, r22
    83e2:	b9 01       	movw	r22, r18
    83e4:	90 01       	movw	r18, r0
    83e6:	0c 01       	movw	r0, r24
    83e8:	ca 01       	movw	r24, r20
    83ea:	a0 01       	movw	r20, r0
    83ec:	11 24       	eor	r1, r1
    83ee:	ff 27       	eor	r31, r31
    83f0:	59 1b       	sub	r21, r25
    83f2:	99 f0       	breq	.+38     	; 0x841a <__addsf3x+0x5c>
    83f4:	59 3f       	cpi	r21, 0xF9	; 249
    83f6:	50 f4       	brcc	.+20     	; 0x840c <__addsf3x+0x4e>
    83f8:	50 3e       	cpi	r21, 0xE0	; 224
    83fa:	68 f1       	brcs	.+90     	; 0x8456 <__addsf3x+0x98>
    83fc:	1a 16       	cp	r1, r26
    83fe:	f0 40       	sbci	r31, 0x00	; 0
    8400:	a2 2f       	mov	r26, r18
    8402:	23 2f       	mov	r18, r19
    8404:	34 2f       	mov	r19, r20
    8406:	44 27       	eor	r20, r20
    8408:	58 5f       	subi	r21, 0xF8	; 248
    840a:	f3 cf       	rjmp	.-26     	; 0x83f2 <__addsf3x+0x34>
    840c:	46 95       	lsr	r20
    840e:	37 95       	ror	r19
    8410:	27 95       	ror	r18
    8412:	a7 95       	ror	r26
    8414:	f0 40       	sbci	r31, 0x00	; 0
    8416:	53 95       	inc	r21
    8418:	c9 f7       	brne	.-14     	; 0x840c <__addsf3x+0x4e>
    841a:	7e f4       	brtc	.+30     	; 0x843a <__addsf3x+0x7c>
    841c:	1f 16       	cp	r1, r31
    841e:	ba 0b       	sbc	r27, r26
    8420:	62 0b       	sbc	r22, r18
    8422:	73 0b       	sbc	r23, r19
    8424:	84 0b       	sbc	r24, r20
    8426:	ba f0       	brmi	.+46     	; 0x8456 <__addsf3x+0x98>
    8428:	91 50       	subi	r25, 0x01	; 1
    842a:	a1 f0       	breq	.+40     	; 0x8454 <__addsf3x+0x96>
    842c:	ff 0f       	add	r31, r31
    842e:	bb 1f       	adc	r27, r27
    8430:	66 1f       	adc	r22, r22
    8432:	77 1f       	adc	r23, r23
    8434:	88 1f       	adc	r24, r24
    8436:	c2 f7       	brpl	.-16     	; 0x8428 <__addsf3x+0x6a>
    8438:	0e c0       	rjmp	.+28     	; 0x8456 <__addsf3x+0x98>
    843a:	ba 0f       	add	r27, r26
    843c:	62 1f       	adc	r22, r18
    843e:	73 1f       	adc	r23, r19
    8440:	84 1f       	adc	r24, r20
    8442:	48 f4       	brcc	.+18     	; 0x8456 <__addsf3x+0x98>
    8444:	87 95       	ror	r24
    8446:	77 95       	ror	r23
    8448:	67 95       	ror	r22
    844a:	b7 95       	ror	r27
    844c:	f7 95       	ror	r31
    844e:	9e 3f       	cpi	r25, 0xFE	; 254
    8450:	08 f0       	brcs	.+2      	; 0x8454 <__addsf3x+0x96>
    8452:	b3 cf       	rjmp	.-154    	; 0x83ba <__addsf3+0x1e>
    8454:	93 95       	inc	r25
    8456:	88 0f       	add	r24, r24
    8458:	08 f0       	brcs	.+2      	; 0x845c <__addsf3x+0x9e>
    845a:	99 27       	eor	r25, r25
    845c:	ee 0f       	add	r30, r30
    845e:	97 95       	ror	r25
    8460:	87 95       	ror	r24
    8462:	08 95       	ret

00008464 <atan>:
    8464:	df 93       	push	r29
    8466:	dd 27       	eor	r29, r29
    8468:	b9 2f       	mov	r27, r25
    846a:	bf 77       	andi	r27, 0x7F	; 127
    846c:	40 e8       	ldi	r20, 0x80	; 128
    846e:	5f e3       	ldi	r21, 0x3F	; 63
    8470:	16 16       	cp	r1, r22
    8472:	17 06       	cpc	r1, r23
    8474:	48 07       	cpc	r20, r24
    8476:	5b 07       	cpc	r21, r27
    8478:	10 f4       	brcc	.+4      	; 0x847e <atan+0x1a>
    847a:	d9 2f       	mov	r29, r25
    847c:	83 d2       	rcall	.+1286   	; 0x8984 <inverse>
    847e:	9f 93       	push	r25
    8480:	8f 93       	push	r24
    8482:	7f 93       	push	r23
    8484:	6f 93       	push	r22
    8486:	96 d3       	rcall	.+1836   	; 0x8bb4 <square>
    8488:	e8 ee       	ldi	r30, 0xE8	; 232
    848a:	f1 e0       	ldi	r31, 0x01	; 1
    848c:	59 d1       	rcall	.+690    	; 0x8740 <__fp_powser>
    848e:	b3 d1       	rcall	.+870    	; 0x87f6 <__fp_round>
    8490:	2f 91       	pop	r18
    8492:	3f 91       	pop	r19
    8494:	4f 91       	pop	r20
    8496:	5f 91       	pop	r21
    8498:	ee d2       	rcall	.+1500   	; 0x8a76 <__mulsf3x>
    849a:	dd 23       	and	r29, r29
    849c:	49 f0       	breq	.+18     	; 0x84b0 <atan+0x4c>
    849e:	90 58       	subi	r25, 0x80	; 128
    84a0:	a2 ea       	ldi	r26, 0xA2	; 162
    84a2:	2a ed       	ldi	r18, 0xDA	; 218
    84a4:	3f e0       	ldi	r19, 0x0F	; 15
    84a6:	49 ec       	ldi	r20, 0xC9	; 201
    84a8:	5f e3       	ldi	r21, 0x3F	; 63
    84aa:	d0 78       	andi	r29, 0x80	; 128
    84ac:	5d 27       	eor	r21, r29
    84ae:	87 df       	rcall	.-242    	; 0x83be <__addsf3x>
    84b0:	df 91       	pop	r29
    84b2:	a1 c1       	rjmp	.+834    	; 0x87f6 <__fp_round>

000084b4 <ceil>:
    84b4:	e4 d1       	rcall	.+968    	; 0x887e <__fp_trunc>
    84b6:	80 f0       	brcs	.+32     	; 0x84d8 <ceil+0x24>
    84b8:	9f 37       	cpi	r25, 0x7F	; 127
    84ba:	40 f4       	brcc	.+16     	; 0x84cc <ceil+0x18>
    84bc:	91 11       	cpse	r25, r1
    84be:	0e f4       	brtc	.+2      	; 0x84c2 <ceil+0xe>
    84c0:	f6 c1       	rjmp	.+1004   	; 0x88ae <__fp_szero>
    84c2:	60 e0       	ldi	r22, 0x00	; 0
    84c4:	70 e0       	ldi	r23, 0x00	; 0
    84c6:	80 e8       	ldi	r24, 0x80	; 128
    84c8:	9f e3       	ldi	r25, 0x3F	; 63
    84ca:	08 95       	ret
    84cc:	26 f0       	brts	.+8      	; 0x84d6 <ceil+0x22>
    84ce:	1b 16       	cp	r1, r27
    84d0:	61 1d       	adc	r22, r1
    84d2:	71 1d       	adc	r23, r1
    84d4:	81 1d       	adc	r24, r1
    84d6:	08 c1       	rjmp	.+528    	; 0x86e8 <__fp_mintl>
    84d8:	22 c1       	rjmp	.+580    	; 0x871e <__fp_mpack>

000084da <__cmpsf2>:
    84da:	dc d0       	rcall	.+440    	; 0x8694 <__fp_cmp>
    84dc:	08 f4       	brcc	.+2      	; 0x84e0 <__cmpsf2+0x6>
    84de:	81 e0       	ldi	r24, 0x01	; 1
    84e0:	08 95       	ret

000084e2 <cos>:
    84e2:	62 d1       	rcall	.+708    	; 0x87a8 <__fp_rempio2>
    84e4:	e3 95       	inc	r30
    84e6:	98 c1       	rjmp	.+816    	; 0x8818 <__fp_sinus>

000084e8 <__divsf3>:
    84e8:	0c d0       	rcall	.+24     	; 0x8502 <__divsf3x>
    84ea:	85 c1       	rjmp	.+778    	; 0x87f6 <__fp_round>
    84ec:	55 d1       	rcall	.+682    	; 0x8798 <__fp_pscB>
    84ee:	40 f0       	brcs	.+16     	; 0x8500 <__divsf3+0x18>
    84f0:	4c d1       	rcall	.+664    	; 0x878a <__fp_pscA>
    84f2:	30 f0       	brcs	.+12     	; 0x8500 <__divsf3+0x18>
    84f4:	21 f4       	brne	.+8      	; 0x84fe <__divsf3+0x16>
    84f6:	5f 3f       	cpi	r21, 0xFF	; 255
    84f8:	19 f0       	breq	.+6      	; 0x8500 <__divsf3+0x18>
    84fa:	f0 c0       	rjmp	.+480    	; 0x86dc <__fp_inf>
    84fc:	51 11       	cpse	r21, r1
    84fe:	d7 c1       	rjmp	.+942    	; 0x88ae <__fp_szero>
    8500:	1c c1       	rjmp	.+568    	; 0x873a <__fp_nan>

00008502 <__divsf3x>:
    8502:	9b d1       	rcall	.+822    	; 0x883a <__fp_split3>
    8504:	98 f3       	brcs	.-26     	; 0x84ec <__divsf3+0x4>

00008506 <__divsf3_pse>:
    8506:	99 23       	and	r25, r25
    8508:	c9 f3       	breq	.-14     	; 0x84fc <__divsf3+0x14>
    850a:	55 23       	and	r21, r21
    850c:	b1 f3       	breq	.-20     	; 0x84fa <__divsf3+0x12>
    850e:	95 1b       	sub	r25, r21
    8510:	55 0b       	sbc	r21, r21
    8512:	bb 27       	eor	r27, r27
    8514:	aa 27       	eor	r26, r26
    8516:	62 17       	cp	r22, r18
    8518:	73 07       	cpc	r23, r19
    851a:	84 07       	cpc	r24, r20
    851c:	38 f0       	brcs	.+14     	; 0x852c <__divsf3_pse+0x26>
    851e:	9f 5f       	subi	r25, 0xFF	; 255
    8520:	5f 4f       	sbci	r21, 0xFF	; 255
    8522:	22 0f       	add	r18, r18
    8524:	33 1f       	adc	r19, r19
    8526:	44 1f       	adc	r20, r20
    8528:	aa 1f       	adc	r26, r26
    852a:	a9 f3       	breq	.-22     	; 0x8516 <__divsf3_pse+0x10>
    852c:	33 d0       	rcall	.+102    	; 0x8594 <__divsf3_pse+0x8e>
    852e:	0e 2e       	mov	r0, r30
    8530:	3a f0       	brmi	.+14     	; 0x8540 <__divsf3_pse+0x3a>
    8532:	e0 e8       	ldi	r30, 0x80	; 128
    8534:	30 d0       	rcall	.+96     	; 0x8596 <__divsf3_pse+0x90>
    8536:	91 50       	subi	r25, 0x01	; 1
    8538:	50 40       	sbci	r21, 0x00	; 0
    853a:	e6 95       	lsr	r30
    853c:	00 1c       	adc	r0, r0
    853e:	ca f7       	brpl	.-14     	; 0x8532 <__divsf3_pse+0x2c>
    8540:	29 d0       	rcall	.+82     	; 0x8594 <__divsf3_pse+0x8e>
    8542:	fe 2f       	mov	r31, r30
    8544:	27 d0       	rcall	.+78     	; 0x8594 <__divsf3_pse+0x8e>
    8546:	66 0f       	add	r22, r22
    8548:	77 1f       	adc	r23, r23
    854a:	88 1f       	adc	r24, r24
    854c:	bb 1f       	adc	r27, r27
    854e:	26 17       	cp	r18, r22
    8550:	37 07       	cpc	r19, r23
    8552:	48 07       	cpc	r20, r24
    8554:	ab 07       	cpc	r26, r27
    8556:	b0 e8       	ldi	r27, 0x80	; 128
    8558:	09 f0       	breq	.+2      	; 0x855c <__divsf3_pse+0x56>
    855a:	bb 0b       	sbc	r27, r27
    855c:	80 2d       	mov	r24, r0
    855e:	bf 01       	movw	r22, r30
    8560:	ff 27       	eor	r31, r31
    8562:	93 58       	subi	r25, 0x83	; 131
    8564:	5f 4f       	sbci	r21, 0xFF	; 255
    8566:	2a f0       	brmi	.+10     	; 0x8572 <__divsf3_pse+0x6c>
    8568:	9e 3f       	cpi	r25, 0xFE	; 254
    856a:	51 05       	cpc	r21, r1
    856c:	68 f0       	brcs	.+26     	; 0x8588 <__divsf3_pse+0x82>
    856e:	b6 c0       	rjmp	.+364    	; 0x86dc <__fp_inf>
    8570:	9e c1       	rjmp	.+828    	; 0x88ae <__fp_szero>
    8572:	5f 3f       	cpi	r21, 0xFF	; 255
    8574:	ec f3       	brlt	.-6      	; 0x8570 <__divsf3_pse+0x6a>
    8576:	98 3e       	cpi	r25, 0xE8	; 232
    8578:	dc f3       	brlt	.-10     	; 0x8570 <__divsf3_pse+0x6a>
    857a:	86 95       	lsr	r24
    857c:	77 95       	ror	r23
    857e:	67 95       	ror	r22
    8580:	b7 95       	ror	r27
    8582:	f7 95       	ror	r31
    8584:	9f 5f       	subi	r25, 0xFF	; 255
    8586:	c9 f7       	brne	.-14     	; 0x857a <__divsf3_pse+0x74>
    8588:	88 0f       	add	r24, r24
    858a:	91 1d       	adc	r25, r1
    858c:	96 95       	lsr	r25
    858e:	87 95       	ror	r24
    8590:	97 f9       	bld	r25, 7
    8592:	08 95       	ret
    8594:	e1 e0       	ldi	r30, 0x01	; 1
    8596:	66 0f       	add	r22, r22
    8598:	77 1f       	adc	r23, r23
    859a:	88 1f       	adc	r24, r24
    859c:	bb 1f       	adc	r27, r27
    859e:	62 17       	cp	r22, r18
    85a0:	73 07       	cpc	r23, r19
    85a2:	84 07       	cpc	r24, r20
    85a4:	ba 07       	cpc	r27, r26
    85a6:	20 f0       	brcs	.+8      	; 0x85b0 <__divsf3_pse+0xaa>
    85a8:	62 1b       	sub	r22, r18
    85aa:	73 0b       	sbc	r23, r19
    85ac:	84 0b       	sbc	r24, r20
    85ae:	ba 0b       	sbc	r27, r26
    85b0:	ee 1f       	adc	r30, r30
    85b2:	88 f7       	brcc	.-30     	; 0x8596 <__divsf3_pse+0x90>
    85b4:	e0 95       	com	r30
    85b6:	08 95       	ret

000085b8 <__fixsfsi>:
    85b8:	04 d0       	rcall	.+8      	; 0x85c2 <__fixunssfsi>
    85ba:	68 94       	set
    85bc:	b1 11       	cpse	r27, r1
    85be:	77 c1       	rjmp	.+750    	; 0x88ae <__fp_szero>
    85c0:	08 95       	ret

000085c2 <__fixunssfsi>:
    85c2:	43 d1       	rcall	.+646    	; 0x884a <__fp_splitA>
    85c4:	88 f0       	brcs	.+34     	; 0x85e8 <__fixunssfsi+0x26>
    85c6:	9f 57       	subi	r25, 0x7F	; 127
    85c8:	90 f0       	brcs	.+36     	; 0x85ee <__fixunssfsi+0x2c>
    85ca:	b9 2f       	mov	r27, r25
    85cc:	99 27       	eor	r25, r25
    85ce:	b7 51       	subi	r27, 0x17	; 23
    85d0:	a0 f0       	brcs	.+40     	; 0x85fa <__fixunssfsi+0x38>
    85d2:	d1 f0       	breq	.+52     	; 0x8608 <__fixunssfsi+0x46>
    85d4:	66 0f       	add	r22, r22
    85d6:	77 1f       	adc	r23, r23
    85d8:	88 1f       	adc	r24, r24
    85da:	99 1f       	adc	r25, r25
    85dc:	1a f0       	brmi	.+6      	; 0x85e4 <__fixunssfsi+0x22>
    85de:	ba 95       	dec	r27
    85e0:	c9 f7       	brne	.-14     	; 0x85d4 <__fixunssfsi+0x12>
    85e2:	12 c0       	rjmp	.+36     	; 0x8608 <__fixunssfsi+0x46>
    85e4:	b1 30       	cpi	r27, 0x01	; 1
    85e6:	81 f0       	breq	.+32     	; 0x8608 <__fixunssfsi+0x46>
    85e8:	61 d1       	rcall	.+706    	; 0x88ac <__fp_zero>
    85ea:	b1 e0       	ldi	r27, 0x01	; 1
    85ec:	08 95       	ret
    85ee:	5e c1       	rjmp	.+700    	; 0x88ac <__fp_zero>
    85f0:	67 2f       	mov	r22, r23
    85f2:	78 2f       	mov	r23, r24
    85f4:	88 27       	eor	r24, r24
    85f6:	b8 5f       	subi	r27, 0xF8	; 248
    85f8:	39 f0       	breq	.+14     	; 0x8608 <__fixunssfsi+0x46>
    85fa:	b9 3f       	cpi	r27, 0xF9	; 249
    85fc:	cc f3       	brlt	.-14     	; 0x85f0 <__fixunssfsi+0x2e>
    85fe:	86 95       	lsr	r24
    8600:	77 95       	ror	r23
    8602:	67 95       	ror	r22
    8604:	b3 95       	inc	r27
    8606:	d9 f7       	brne	.-10     	; 0x85fe <__fixunssfsi+0x3c>
    8608:	3e f4       	brtc	.+14     	; 0x8618 <__fixunssfsi+0x56>
    860a:	90 95       	com	r25
    860c:	80 95       	com	r24
    860e:	70 95       	com	r23
    8610:	61 95       	neg	r22
    8612:	7f 4f       	sbci	r23, 0xFF	; 255
    8614:	8f 4f       	sbci	r24, 0xFF	; 255
    8616:	9f 4f       	sbci	r25, 0xFF	; 255
    8618:	08 95       	ret

0000861a <__floatunsisf>:
    861a:	e8 94       	clt
    861c:	09 c0       	rjmp	.+18     	; 0x8630 <__floatsisf+0x12>

0000861e <__floatsisf>:
    861e:	97 fb       	bst	r25, 7
    8620:	3e f4       	brtc	.+14     	; 0x8630 <__floatsisf+0x12>
    8622:	90 95       	com	r25
    8624:	80 95       	com	r24
    8626:	70 95       	com	r23
    8628:	61 95       	neg	r22
    862a:	7f 4f       	sbci	r23, 0xFF	; 255
    862c:	8f 4f       	sbci	r24, 0xFF	; 255
    862e:	9f 4f       	sbci	r25, 0xFF	; 255
    8630:	99 23       	and	r25, r25
    8632:	a9 f0       	breq	.+42     	; 0x865e <__floatsisf+0x40>
    8634:	f9 2f       	mov	r31, r25
    8636:	96 e9       	ldi	r25, 0x96	; 150
    8638:	bb 27       	eor	r27, r27
    863a:	93 95       	inc	r25
    863c:	f6 95       	lsr	r31
    863e:	87 95       	ror	r24
    8640:	77 95       	ror	r23
    8642:	67 95       	ror	r22
    8644:	b7 95       	ror	r27
    8646:	f1 11       	cpse	r31, r1
    8648:	f8 cf       	rjmp	.-16     	; 0x863a <__floatsisf+0x1c>
    864a:	fa f4       	brpl	.+62     	; 0x868a <__floatsisf+0x6c>
    864c:	bb 0f       	add	r27, r27
    864e:	11 f4       	brne	.+4      	; 0x8654 <__floatsisf+0x36>
    8650:	60 ff       	sbrs	r22, 0
    8652:	1b c0       	rjmp	.+54     	; 0x868a <__floatsisf+0x6c>
    8654:	6f 5f       	subi	r22, 0xFF	; 255
    8656:	7f 4f       	sbci	r23, 0xFF	; 255
    8658:	8f 4f       	sbci	r24, 0xFF	; 255
    865a:	9f 4f       	sbci	r25, 0xFF	; 255
    865c:	16 c0       	rjmp	.+44     	; 0x868a <__floatsisf+0x6c>
    865e:	88 23       	and	r24, r24
    8660:	11 f0       	breq	.+4      	; 0x8666 <__floatsisf+0x48>
    8662:	96 e9       	ldi	r25, 0x96	; 150
    8664:	11 c0       	rjmp	.+34     	; 0x8688 <__floatsisf+0x6a>
    8666:	77 23       	and	r23, r23
    8668:	21 f0       	breq	.+8      	; 0x8672 <__floatsisf+0x54>
    866a:	9e e8       	ldi	r25, 0x8E	; 142
    866c:	87 2f       	mov	r24, r23
    866e:	76 2f       	mov	r23, r22
    8670:	05 c0       	rjmp	.+10     	; 0x867c <__floatsisf+0x5e>
    8672:	66 23       	and	r22, r22
    8674:	71 f0       	breq	.+28     	; 0x8692 <__floatsisf+0x74>
    8676:	96 e8       	ldi	r25, 0x86	; 134
    8678:	86 2f       	mov	r24, r22
    867a:	70 e0       	ldi	r23, 0x00	; 0
    867c:	60 e0       	ldi	r22, 0x00	; 0
    867e:	2a f0       	brmi	.+10     	; 0x868a <__floatsisf+0x6c>
    8680:	9a 95       	dec	r25
    8682:	66 0f       	add	r22, r22
    8684:	77 1f       	adc	r23, r23
    8686:	88 1f       	adc	r24, r24
    8688:	da f7       	brpl	.-10     	; 0x8680 <__floatsisf+0x62>
    868a:	88 0f       	add	r24, r24
    868c:	96 95       	lsr	r25
    868e:	87 95       	ror	r24
    8690:	97 f9       	bld	r25, 7
    8692:	08 95       	ret

00008694 <__fp_cmp>:
    8694:	99 0f       	add	r25, r25
    8696:	00 08       	sbc	r0, r0
    8698:	55 0f       	add	r21, r21
    869a:	aa 0b       	sbc	r26, r26
    869c:	e0 e8       	ldi	r30, 0x80	; 128
    869e:	fe ef       	ldi	r31, 0xFE	; 254
    86a0:	16 16       	cp	r1, r22
    86a2:	17 06       	cpc	r1, r23
    86a4:	e8 07       	cpc	r30, r24
    86a6:	f9 07       	cpc	r31, r25
    86a8:	c0 f0       	brcs	.+48     	; 0x86da <__fp_cmp+0x46>
    86aa:	12 16       	cp	r1, r18
    86ac:	13 06       	cpc	r1, r19
    86ae:	e4 07       	cpc	r30, r20
    86b0:	f5 07       	cpc	r31, r21
    86b2:	98 f0       	brcs	.+38     	; 0x86da <__fp_cmp+0x46>
    86b4:	62 1b       	sub	r22, r18
    86b6:	73 0b       	sbc	r23, r19
    86b8:	84 0b       	sbc	r24, r20
    86ba:	95 0b       	sbc	r25, r21
    86bc:	39 f4       	brne	.+14     	; 0x86cc <__fp_cmp+0x38>
    86be:	0a 26       	eor	r0, r26
    86c0:	61 f0       	breq	.+24     	; 0x86da <__fp_cmp+0x46>
    86c2:	23 2b       	or	r18, r19
    86c4:	24 2b       	or	r18, r20
    86c6:	25 2b       	or	r18, r21
    86c8:	21 f4       	brne	.+8      	; 0x86d2 <__fp_cmp+0x3e>
    86ca:	08 95       	ret
    86cc:	0a 26       	eor	r0, r26
    86ce:	09 f4       	brne	.+2      	; 0x86d2 <__fp_cmp+0x3e>
    86d0:	a1 40       	sbci	r26, 0x01	; 1
    86d2:	a6 95       	lsr	r26
    86d4:	8f ef       	ldi	r24, 0xFF	; 255
    86d6:	81 1d       	adc	r24, r1
    86d8:	81 1d       	adc	r24, r1
    86da:	08 95       	ret

000086dc <__fp_inf>:
    86dc:	97 f9       	bld	r25, 7
    86de:	9f 67       	ori	r25, 0x7F	; 127
    86e0:	80 e8       	ldi	r24, 0x80	; 128
    86e2:	70 e0       	ldi	r23, 0x00	; 0
    86e4:	60 e0       	ldi	r22, 0x00	; 0
    86e6:	08 95       	ret

000086e8 <__fp_mintl>:
    86e8:	88 23       	and	r24, r24
    86ea:	71 f4       	brne	.+28     	; 0x8708 <__fp_mintl+0x20>
    86ec:	77 23       	and	r23, r23
    86ee:	21 f0       	breq	.+8      	; 0x86f8 <__fp_mintl+0x10>
    86f0:	98 50       	subi	r25, 0x08	; 8
    86f2:	87 2b       	or	r24, r23
    86f4:	76 2f       	mov	r23, r22
    86f6:	07 c0       	rjmp	.+14     	; 0x8706 <__fp_mintl+0x1e>
    86f8:	66 23       	and	r22, r22
    86fa:	11 f4       	brne	.+4      	; 0x8700 <__fp_mintl+0x18>
    86fc:	99 27       	eor	r25, r25
    86fe:	0d c0       	rjmp	.+26     	; 0x871a <__fp_mintl+0x32>
    8700:	90 51       	subi	r25, 0x10	; 16
    8702:	86 2b       	or	r24, r22
    8704:	70 e0       	ldi	r23, 0x00	; 0
    8706:	60 e0       	ldi	r22, 0x00	; 0
    8708:	2a f0       	brmi	.+10     	; 0x8714 <__fp_mintl+0x2c>
    870a:	9a 95       	dec	r25
    870c:	66 0f       	add	r22, r22
    870e:	77 1f       	adc	r23, r23
    8710:	88 1f       	adc	r24, r24
    8712:	da f7       	brpl	.-10     	; 0x870a <__fp_mintl+0x22>
    8714:	88 0f       	add	r24, r24
    8716:	96 95       	lsr	r25
    8718:	87 95       	ror	r24
    871a:	97 f9       	bld	r25, 7
    871c:	08 95       	ret

0000871e <__fp_mpack>:
    871e:	9f 3f       	cpi	r25, 0xFF	; 255
    8720:	31 f0       	breq	.+12     	; 0x872e <__fp_mpack_finite+0xc>

00008722 <__fp_mpack_finite>:
    8722:	91 50       	subi	r25, 0x01	; 1
    8724:	20 f4       	brcc	.+8      	; 0x872e <__fp_mpack_finite+0xc>
    8726:	87 95       	ror	r24
    8728:	77 95       	ror	r23
    872a:	67 95       	ror	r22
    872c:	b7 95       	ror	r27
    872e:	88 0f       	add	r24, r24
    8730:	91 1d       	adc	r25, r1
    8732:	96 95       	lsr	r25
    8734:	87 95       	ror	r24
    8736:	97 f9       	bld	r25, 7
    8738:	08 95       	ret

0000873a <__fp_nan>:
    873a:	9f ef       	ldi	r25, 0xFF	; 255
    873c:	80 ec       	ldi	r24, 0xC0	; 192
    873e:	08 95       	ret

00008740 <__fp_powser>:
    8740:	df 93       	push	r29
    8742:	cf 93       	push	r28
    8744:	1f 93       	push	r17
    8746:	0f 93       	push	r16
    8748:	ff 92       	push	r15
    874a:	ef 92       	push	r14
    874c:	df 92       	push	r13
    874e:	7b 01       	movw	r14, r22
    8750:	8c 01       	movw	r16, r24
    8752:	68 94       	set
    8754:	05 c0       	rjmp	.+10     	; 0x8760 <__fp_powser+0x20>
    8756:	da 2e       	mov	r13, r26
    8758:	ef 01       	movw	r28, r30
    875a:	8d d1       	rcall	.+794    	; 0x8a76 <__mulsf3x>
    875c:	fe 01       	movw	r30, r28
    875e:	e8 94       	clt
    8760:	a5 91       	lpm	r26, Z+
    8762:	25 91       	lpm	r18, Z+
    8764:	35 91       	lpm	r19, Z+
    8766:	45 91       	lpm	r20, Z+
    8768:	55 91       	lpm	r21, Z+
    876a:	ae f3       	brts	.-22     	; 0x8756 <__fp_powser+0x16>
    876c:	ef 01       	movw	r28, r30
    876e:	27 de       	rcall	.-946    	; 0x83be <__addsf3x>
    8770:	fe 01       	movw	r30, r28
    8772:	97 01       	movw	r18, r14
    8774:	a8 01       	movw	r20, r16
    8776:	da 94       	dec	r13
    8778:	79 f7       	brne	.-34     	; 0x8758 <__fp_powser+0x18>
    877a:	df 90       	pop	r13
    877c:	ef 90       	pop	r14
    877e:	ff 90       	pop	r15
    8780:	0f 91       	pop	r16
    8782:	1f 91       	pop	r17
    8784:	cf 91       	pop	r28
    8786:	df 91       	pop	r29
    8788:	08 95       	ret

0000878a <__fp_pscA>:
    878a:	00 24       	eor	r0, r0
    878c:	0a 94       	dec	r0
    878e:	16 16       	cp	r1, r22
    8790:	17 06       	cpc	r1, r23
    8792:	18 06       	cpc	r1, r24
    8794:	09 06       	cpc	r0, r25
    8796:	08 95       	ret

00008798 <__fp_pscB>:
    8798:	00 24       	eor	r0, r0
    879a:	0a 94       	dec	r0
    879c:	12 16       	cp	r1, r18
    879e:	13 06       	cpc	r1, r19
    87a0:	14 06       	cpc	r1, r20
    87a2:	05 06       	cpc	r0, r21
    87a4:	08 95       	ret
    87a6:	c9 cf       	rjmp	.-110    	; 0x873a <__fp_nan>

000087a8 <__fp_rempio2>:
    87a8:	50 d0       	rcall	.+160    	; 0x884a <__fp_splitA>
    87aa:	e8 f3       	brcs	.-6      	; 0x87a6 <__fp_pscB+0xe>
    87ac:	e8 94       	clt
    87ae:	e0 e0       	ldi	r30, 0x00	; 0
    87b0:	bb 27       	eor	r27, r27
    87b2:	9f 57       	subi	r25, 0x7F	; 127
    87b4:	f0 f0       	brcs	.+60     	; 0x87f2 <__fp_rempio2+0x4a>
    87b6:	2a ed       	ldi	r18, 0xDA	; 218
    87b8:	3f e0       	ldi	r19, 0x0F	; 15
    87ba:	49 ec       	ldi	r20, 0xC9	; 201
    87bc:	06 c0       	rjmp	.+12     	; 0x87ca <__fp_rempio2+0x22>
    87be:	ee 0f       	add	r30, r30
    87c0:	bb 0f       	add	r27, r27
    87c2:	66 1f       	adc	r22, r22
    87c4:	77 1f       	adc	r23, r23
    87c6:	88 1f       	adc	r24, r24
    87c8:	28 f0       	brcs	.+10     	; 0x87d4 <__fp_rempio2+0x2c>
    87ca:	b2 3a       	cpi	r27, 0xA2	; 162
    87cc:	62 07       	cpc	r22, r18
    87ce:	73 07       	cpc	r23, r19
    87d0:	84 07       	cpc	r24, r20
    87d2:	28 f0       	brcs	.+10     	; 0x87de <__fp_rempio2+0x36>
    87d4:	b2 5a       	subi	r27, 0xA2	; 162
    87d6:	62 0b       	sbc	r22, r18
    87d8:	73 0b       	sbc	r23, r19
    87da:	84 0b       	sbc	r24, r20
    87dc:	e3 95       	inc	r30
    87de:	9a 95       	dec	r25
    87e0:	72 f7       	brpl	.-36     	; 0x87be <__fp_rempio2+0x16>
    87e2:	80 38       	cpi	r24, 0x80	; 128
    87e4:	30 f4       	brcc	.+12     	; 0x87f2 <__fp_rempio2+0x4a>
    87e6:	9a 95       	dec	r25
    87e8:	bb 0f       	add	r27, r27
    87ea:	66 1f       	adc	r22, r22
    87ec:	77 1f       	adc	r23, r23
    87ee:	88 1f       	adc	r24, r24
    87f0:	d2 f7       	brpl	.-12     	; 0x87e6 <__fp_rempio2+0x3e>
    87f2:	90 48       	sbci	r25, 0x80	; 128
    87f4:	96 cf       	rjmp	.-212    	; 0x8722 <__fp_mpack_finite>

000087f6 <__fp_round>:
    87f6:	09 2e       	mov	r0, r25
    87f8:	03 94       	inc	r0
    87fa:	00 0c       	add	r0, r0
    87fc:	11 f4       	brne	.+4      	; 0x8802 <__fp_round+0xc>
    87fe:	88 23       	and	r24, r24
    8800:	52 f0       	brmi	.+20     	; 0x8816 <__fp_round+0x20>
    8802:	bb 0f       	add	r27, r27
    8804:	40 f4       	brcc	.+16     	; 0x8816 <__fp_round+0x20>
    8806:	bf 2b       	or	r27, r31
    8808:	11 f4       	brne	.+4      	; 0x880e <__fp_round+0x18>
    880a:	60 ff       	sbrs	r22, 0
    880c:	04 c0       	rjmp	.+8      	; 0x8816 <__fp_round+0x20>
    880e:	6f 5f       	subi	r22, 0xFF	; 255
    8810:	7f 4f       	sbci	r23, 0xFF	; 255
    8812:	8f 4f       	sbci	r24, 0xFF	; 255
    8814:	9f 4f       	sbci	r25, 0xFF	; 255
    8816:	08 95       	ret

00008818 <__fp_sinus>:
    8818:	ef 93       	push	r30
    881a:	e0 ff       	sbrs	r30, 0
    881c:	06 c0       	rjmp	.+12     	; 0x882a <__fp_sinus+0x12>
    881e:	a2 ea       	ldi	r26, 0xA2	; 162
    8820:	2a ed       	ldi	r18, 0xDA	; 218
    8822:	3f e0       	ldi	r19, 0x0F	; 15
    8824:	49 ec       	ldi	r20, 0xC9	; 201
    8826:	5f eb       	ldi	r21, 0xBF	; 191
    8828:	ca dd       	rcall	.-1132   	; 0x83be <__addsf3x>
    882a:	e5 df       	rcall	.-54     	; 0x87f6 <__fp_round>
    882c:	0f 90       	pop	r0
    882e:	03 94       	inc	r0
    8830:	01 fc       	sbrc	r0, 1
    8832:	90 58       	subi	r25, 0x80	; 128
    8834:	e5 e1       	ldi	r30, 0x15	; 21
    8836:	f2 e0       	ldi	r31, 0x02	; 2
    8838:	d2 c1       	rjmp	.+932    	; 0x8bde <__fp_powsodd>

0000883a <__fp_split3>:
    883a:	57 fd       	sbrc	r21, 7
    883c:	90 58       	subi	r25, 0x80	; 128
    883e:	44 0f       	add	r20, r20
    8840:	55 1f       	adc	r21, r21
    8842:	59 f0       	breq	.+22     	; 0x885a <__fp_splitA+0x10>
    8844:	5f 3f       	cpi	r21, 0xFF	; 255
    8846:	71 f0       	breq	.+28     	; 0x8864 <__fp_splitA+0x1a>
    8848:	47 95       	ror	r20

0000884a <__fp_splitA>:
    884a:	88 0f       	add	r24, r24
    884c:	97 fb       	bst	r25, 7
    884e:	99 1f       	adc	r25, r25
    8850:	61 f0       	breq	.+24     	; 0x886a <__fp_splitA+0x20>
    8852:	9f 3f       	cpi	r25, 0xFF	; 255
    8854:	79 f0       	breq	.+30     	; 0x8874 <__fp_splitA+0x2a>
    8856:	87 95       	ror	r24
    8858:	08 95       	ret
    885a:	12 16       	cp	r1, r18
    885c:	13 06       	cpc	r1, r19
    885e:	14 06       	cpc	r1, r20
    8860:	55 1f       	adc	r21, r21
    8862:	f2 cf       	rjmp	.-28     	; 0x8848 <__fp_split3+0xe>
    8864:	46 95       	lsr	r20
    8866:	f1 df       	rcall	.-30     	; 0x884a <__fp_splitA>
    8868:	08 c0       	rjmp	.+16     	; 0x887a <__fp_splitA+0x30>
    886a:	16 16       	cp	r1, r22
    886c:	17 06       	cpc	r1, r23
    886e:	18 06       	cpc	r1, r24
    8870:	99 1f       	adc	r25, r25
    8872:	f1 cf       	rjmp	.-30     	; 0x8856 <__fp_splitA+0xc>
    8874:	86 95       	lsr	r24
    8876:	71 05       	cpc	r23, r1
    8878:	61 05       	cpc	r22, r1
    887a:	08 94       	sec
    887c:	08 95       	ret

0000887e <__fp_trunc>:
    887e:	e5 df       	rcall	.-54     	; 0x884a <__fp_splitA>
    8880:	a0 f0       	brcs	.+40     	; 0x88aa <__fp_trunc+0x2c>
    8882:	be e7       	ldi	r27, 0x7E	; 126
    8884:	b9 17       	cp	r27, r25
    8886:	88 f4       	brcc	.+34     	; 0x88aa <__fp_trunc+0x2c>
    8888:	bb 27       	eor	r27, r27
    888a:	9f 38       	cpi	r25, 0x8F	; 143
    888c:	60 f4       	brcc	.+24     	; 0x88a6 <__fp_trunc+0x28>
    888e:	16 16       	cp	r1, r22
    8890:	b1 1d       	adc	r27, r1
    8892:	67 2f       	mov	r22, r23
    8894:	78 2f       	mov	r23, r24
    8896:	88 27       	eor	r24, r24
    8898:	98 5f       	subi	r25, 0xF8	; 248
    889a:	f7 cf       	rjmp	.-18     	; 0x888a <__fp_trunc+0xc>
    889c:	86 95       	lsr	r24
    889e:	77 95       	ror	r23
    88a0:	67 95       	ror	r22
    88a2:	b1 1d       	adc	r27, r1
    88a4:	93 95       	inc	r25
    88a6:	96 39       	cpi	r25, 0x96	; 150
    88a8:	c8 f3       	brcs	.-14     	; 0x889c <__fp_trunc+0x1e>
    88aa:	08 95       	ret

000088ac <__fp_zero>:
    88ac:	e8 94       	clt

000088ae <__fp_szero>:
    88ae:	bb 27       	eor	r27, r27
    88b0:	66 27       	eor	r22, r22
    88b2:	77 27       	eor	r23, r23
    88b4:	cb 01       	movw	r24, r22
    88b6:	97 f9       	bld	r25, 7
    88b8:	08 95       	ret

000088ba <__gesf2>:
    88ba:	ec de       	rcall	.-552    	; 0x8694 <__fp_cmp>
    88bc:	08 f4       	brcc	.+2      	; 0x88c0 <__gesf2+0x6>
    88be:	8f ef       	ldi	r24, 0xFF	; 255
    88c0:	08 95       	ret
    88c2:	63 df       	rcall	.-314    	; 0x878a <__fp_pscA>
    88c4:	19 f0       	breq	.+6      	; 0x88cc <__gesf2+0x12>
    88c6:	68 df       	rcall	.-304    	; 0x8798 <__fp_pscB>
    88c8:	09 f0       	breq	.+2      	; 0x88cc <__gesf2+0x12>
    88ca:	37 cf       	rjmp	.-402    	; 0x873a <__fp_nan>
    88cc:	07 cf       	rjmp	.-498    	; 0x86dc <__fp_inf>
    88ce:	b9 01       	movw	r22, r18
    88d0:	ca 01       	movw	r24, r20
    88d2:	25 cf       	rjmp	.-438    	; 0x871e <__fp_mpack>

000088d4 <hypot>:
    88d4:	9f 77       	andi	r25, 0x7F	; 127
    88d6:	5f 77       	andi	r21, 0x7F	; 127
    88d8:	b0 df       	rcall	.-160    	; 0x883a <__fp_split3>
    88da:	98 f3       	brcs	.-26     	; 0x88c2 <__gesf2+0x8>
    88dc:	99 23       	and	r25, r25
    88de:	b9 f3       	breq	.-18     	; 0x88ce <__gesf2+0x14>
    88e0:	55 23       	and	r21, r21
    88e2:	b9 f3       	breq	.-18     	; 0x88d2 <__gesf2+0x18>
    88e4:	ff 27       	eor	r31, r31
    88e6:	95 17       	cp	r25, r21
    88e8:	58 f4       	brcc	.+22     	; 0x8900 <hypot+0x2c>
    88ea:	e5 2f       	mov	r30, r21
    88ec:	e9 1b       	sub	r30, r25
    88ee:	ed 30       	cpi	r30, 0x0D	; 13
    88f0:	70 f7       	brcc	.-36     	; 0x88ce <__gesf2+0x14>
    88f2:	5e 3b       	cpi	r21, 0xBE	; 190
    88f4:	10 f0       	brcs	.+4      	; 0x88fa <hypot+0x26>
    88f6:	f1 e4       	ldi	r31, 0x41	; 65
    88f8:	1c c0       	rjmp	.+56     	; 0x8932 <hypot+0x5e>
    88fa:	90 34       	cpi	r25, 0x40	; 64
    88fc:	e0 f4       	brcc	.+56     	; 0x8936 <hypot+0x62>
    88fe:	0a c0       	rjmp	.+20     	; 0x8914 <hypot+0x40>
    8900:	e9 2f       	mov	r30, r25
    8902:	e5 1b       	sub	r30, r21
    8904:	ed 30       	cpi	r30, 0x0D	; 13
    8906:	28 f7       	brcc	.-54     	; 0x88d2 <__gesf2+0x18>
    8908:	9e 3b       	cpi	r25, 0xBE	; 190
    890a:	10 f0       	brcs	.+4      	; 0x8910 <hypot+0x3c>
    890c:	f1 e4       	ldi	r31, 0x41	; 65
    890e:	11 c0       	rjmp	.+34     	; 0x8932 <hypot+0x5e>
    8910:	50 34       	cpi	r21, 0x40	; 64
    8912:	88 f4       	brcc	.+34     	; 0x8936 <hypot+0x62>
    8914:	f9 ea       	ldi	r31, 0xA9	; 169
    8916:	88 23       	and	r24, r24
    8918:	2a f0       	brmi	.+10     	; 0x8924 <hypot+0x50>
    891a:	9a 95       	dec	r25
    891c:	66 0f       	add	r22, r22
    891e:	77 1f       	adc	r23, r23
    8920:	88 1f       	adc	r24, r24
    8922:	da f7       	brpl	.-10     	; 0x891a <hypot+0x46>
    8924:	44 23       	and	r20, r20
    8926:	2a f0       	brmi	.+10     	; 0x8932 <hypot+0x5e>
    8928:	5a 95       	dec	r21
    892a:	22 0f       	add	r18, r18
    892c:	33 1f       	adc	r19, r19
    892e:	44 1f       	adc	r20, r20
    8930:	da f7       	brpl	.-10     	; 0x8928 <hypot+0x54>
    8932:	9f 1b       	sub	r25, r31
    8934:	5f 1b       	sub	r21, r31
    8936:	ff 93       	push	r31
    8938:	1f 93       	push	r17
    893a:	0f 93       	push	r16
    893c:	ff 92       	push	r15
    893e:	ef 92       	push	r14
    8940:	79 01       	movw	r14, r18
    8942:	8a 01       	movw	r16, r20
    8944:	bb 27       	eor	r27, r27
    8946:	ab 2f       	mov	r26, r27
    8948:	9b 01       	movw	r18, r22
    894a:	ac 01       	movw	r20, r24
    894c:	96 d0       	rcall	.+300    	; 0x8a7a <__mulsf3_pse>
    894e:	97 01       	movw	r18, r14
    8950:	a8 01       	movw	r20, r16
    8952:	bf 93       	push	r27
    8954:	7b 01       	movw	r14, r22
    8956:	8c 01       	movw	r16, r24
    8958:	aa 27       	eor	r26, r26
    895a:	ba 2f       	mov	r27, r26
    895c:	b9 01       	movw	r22, r18
    895e:	ca 01       	movw	r24, r20
    8960:	8c d0       	rcall	.+280    	; 0x8a7a <__mulsf3_pse>
    8962:	af 91       	pop	r26
    8964:	97 01       	movw	r18, r14
    8966:	a8 01       	movw	r20, r16
    8968:	ef 90       	pop	r14
    896a:	ff 90       	pop	r15
    896c:	0f 91       	pop	r16
    896e:	1f 91       	pop	r17
    8970:	26 dd       	rcall	.-1460   	; 0x83be <__addsf3x>
    8972:	41 df       	rcall	.-382    	; 0x87f6 <__fp_round>
    8974:	e1 d0       	rcall	.+450    	; 0x8b38 <sqrt>
    8976:	4f 91       	pop	r20
    8978:	40 ff       	sbrs	r20, 0
    897a:	08 95       	ret
    897c:	55 27       	eor	r21, r21
    897e:	47 fd       	sbrc	r20, 7
    8980:	50 95       	com	r21
    8982:	09 c0       	rjmp	.+18     	; 0x8996 <ldexp>

00008984 <inverse>:
    8984:	9b 01       	movw	r18, r22
    8986:	ac 01       	movw	r20, r24
    8988:	60 e0       	ldi	r22, 0x00	; 0
    898a:	70 e0       	ldi	r23, 0x00	; 0
    898c:	80 e8       	ldi	r24, 0x80	; 128
    898e:	9f e3       	ldi	r25, 0x3F	; 63
    8990:	ab cd       	rjmp	.-1194   	; 0x84e8 <__divsf3>
    8992:	a4 ce       	rjmp	.-696    	; 0x86dc <__fp_inf>
    8994:	c4 ce       	rjmp	.-632    	; 0x871e <__fp_mpack>

00008996 <ldexp>:
    8996:	59 df       	rcall	.-334    	; 0x884a <__fp_splitA>
    8998:	e8 f3       	brcs	.-6      	; 0x8994 <inverse+0x10>
    899a:	99 23       	and	r25, r25
    899c:	d9 f3       	breq	.-10     	; 0x8994 <inverse+0x10>
    899e:	94 0f       	add	r25, r20
    89a0:	51 1d       	adc	r21, r1
    89a2:	bb f3       	brvs	.-18     	; 0x8992 <inverse+0xe>
    89a4:	91 50       	subi	r25, 0x01	; 1
    89a6:	50 40       	sbci	r21, 0x00	; 0
    89a8:	94 f0       	brlt	.+36     	; 0x89ce <ldexp+0x38>
    89aa:	59 f0       	breq	.+22     	; 0x89c2 <ldexp+0x2c>
    89ac:	88 23       	and	r24, r24
    89ae:	32 f0       	brmi	.+12     	; 0x89bc <ldexp+0x26>
    89b0:	66 0f       	add	r22, r22
    89b2:	77 1f       	adc	r23, r23
    89b4:	88 1f       	adc	r24, r24
    89b6:	91 50       	subi	r25, 0x01	; 1
    89b8:	50 40       	sbci	r21, 0x00	; 0
    89ba:	c1 f7       	brne	.-16     	; 0x89ac <ldexp+0x16>
    89bc:	9e 3f       	cpi	r25, 0xFE	; 254
    89be:	51 05       	cpc	r21, r1
    89c0:	44 f7       	brge	.-48     	; 0x8992 <inverse+0xe>
    89c2:	88 0f       	add	r24, r24
    89c4:	91 1d       	adc	r25, r1
    89c6:	96 95       	lsr	r25
    89c8:	87 95       	ror	r24
    89ca:	97 f9       	bld	r25, 7
    89cc:	08 95       	ret
    89ce:	5f 3f       	cpi	r21, 0xFF	; 255
    89d0:	ac f0       	brlt	.+42     	; 0x89fc <ldexp+0x66>
    89d2:	98 3e       	cpi	r25, 0xE8	; 232
    89d4:	9c f0       	brlt	.+38     	; 0x89fc <ldexp+0x66>
    89d6:	bb 27       	eor	r27, r27
    89d8:	86 95       	lsr	r24
    89da:	77 95       	ror	r23
    89dc:	67 95       	ror	r22
    89de:	b7 95       	ror	r27
    89e0:	08 f4       	brcc	.+2      	; 0x89e4 <ldexp+0x4e>
    89e2:	b1 60       	ori	r27, 0x01	; 1
    89e4:	93 95       	inc	r25
    89e6:	c1 f7       	brne	.-16     	; 0x89d8 <ldexp+0x42>
    89e8:	bb 0f       	add	r27, r27
    89ea:	58 f7       	brcc	.-42     	; 0x89c2 <ldexp+0x2c>
    89ec:	11 f4       	brne	.+4      	; 0x89f2 <ldexp+0x5c>
    89ee:	60 ff       	sbrs	r22, 0
    89f0:	e8 cf       	rjmp	.-48     	; 0x89c2 <ldexp+0x2c>
    89f2:	6f 5f       	subi	r22, 0xFF	; 255
    89f4:	7f 4f       	sbci	r23, 0xFF	; 255
    89f6:	8f 4f       	sbci	r24, 0xFF	; 255
    89f8:	9f 4f       	sbci	r25, 0xFF	; 255
    89fa:	e3 cf       	rjmp	.-58     	; 0x89c2 <ldexp+0x2c>
    89fc:	58 cf       	rjmp	.-336    	; 0x88ae <__fp_szero>

000089fe <lround>:
    89fe:	25 df       	rcall	.-438    	; 0x884a <__fp_splitA>
    8a00:	58 f1       	brcs	.+86     	; 0x8a58 <lround+0x5a>
    8a02:	9e 57       	subi	r25, 0x7E	; 126
    8a04:	58 f1       	brcs	.+86     	; 0x8a5c <lround+0x5e>
    8a06:	98 51       	subi	r25, 0x18	; 24
    8a08:	a0 f0       	brcs	.+40     	; 0x8a32 <lround+0x34>
    8a0a:	e9 f0       	breq	.+58     	; 0x8a46 <lround+0x48>
    8a0c:	98 30       	cpi	r25, 0x08	; 8
    8a0e:	20 f5       	brcc	.+72     	; 0x8a58 <lround+0x5a>
    8a10:	09 2e       	mov	r0, r25
    8a12:	99 27       	eor	r25, r25
    8a14:	66 0f       	add	r22, r22
    8a16:	77 1f       	adc	r23, r23
    8a18:	88 1f       	adc	r24, r24
    8a1a:	99 1f       	adc	r25, r25
    8a1c:	0a 94       	dec	r0
    8a1e:	d1 f7       	brne	.-12     	; 0x8a14 <lround+0x16>
    8a20:	12 c0       	rjmp	.+36     	; 0x8a46 <lround+0x48>
    8a22:	06 2e       	mov	r0, r22
    8a24:	67 2f       	mov	r22, r23
    8a26:	78 2f       	mov	r23, r24
    8a28:	88 27       	eor	r24, r24
    8a2a:	98 5f       	subi	r25, 0xF8	; 248
    8a2c:	11 f4       	brne	.+4      	; 0x8a32 <lround+0x34>
    8a2e:	00 0c       	add	r0, r0
    8a30:	07 c0       	rjmp	.+14     	; 0x8a40 <lround+0x42>
    8a32:	99 3f       	cpi	r25, 0xF9	; 249
    8a34:	b4 f3       	brlt	.-20     	; 0x8a22 <lround+0x24>
    8a36:	86 95       	lsr	r24
    8a38:	77 95       	ror	r23
    8a3a:	67 95       	ror	r22
    8a3c:	93 95       	inc	r25
    8a3e:	d9 f7       	brne	.-10     	; 0x8a36 <lround+0x38>
    8a40:	61 1d       	adc	r22, r1
    8a42:	71 1d       	adc	r23, r1
    8a44:	81 1d       	adc	r24, r1
    8a46:	3e f4       	brtc	.+14     	; 0x8a56 <lround+0x58>
    8a48:	90 95       	com	r25
    8a4a:	80 95       	com	r24
    8a4c:	70 95       	com	r23
    8a4e:	61 95       	neg	r22
    8a50:	7f 4f       	sbci	r23, 0xFF	; 255
    8a52:	8f 4f       	sbci	r24, 0xFF	; 255
    8a54:	9f 4f       	sbci	r25, 0xFF	; 255
    8a56:	08 95       	ret
    8a58:	68 94       	set
    8a5a:	29 cf       	rjmp	.-430    	; 0x88ae <__fp_szero>
    8a5c:	27 cf       	rjmp	.-434    	; 0x88ac <__fp_zero>

00008a5e <__mulsf3>:
    8a5e:	0b d0       	rcall	.+22     	; 0x8a76 <__mulsf3x>
    8a60:	ca ce       	rjmp	.-620    	; 0x87f6 <__fp_round>
    8a62:	93 de       	rcall	.-730    	; 0x878a <__fp_pscA>
    8a64:	28 f0       	brcs	.+10     	; 0x8a70 <__mulsf3+0x12>
    8a66:	98 de       	rcall	.-720    	; 0x8798 <__fp_pscB>
    8a68:	18 f0       	brcs	.+6      	; 0x8a70 <__mulsf3+0x12>
    8a6a:	95 23       	and	r25, r21
    8a6c:	09 f0       	breq	.+2      	; 0x8a70 <__mulsf3+0x12>
    8a6e:	36 ce       	rjmp	.-916    	; 0x86dc <__fp_inf>
    8a70:	64 ce       	rjmp	.-824    	; 0x873a <__fp_nan>
    8a72:	11 24       	eor	r1, r1
    8a74:	1c cf       	rjmp	.-456    	; 0x88ae <__fp_szero>

00008a76 <__mulsf3x>:
    8a76:	e1 de       	rcall	.-574    	; 0x883a <__fp_split3>
    8a78:	a0 f3       	brcs	.-24     	; 0x8a62 <__mulsf3+0x4>

00008a7a <__mulsf3_pse>:
    8a7a:	95 9f       	mul	r25, r21
    8a7c:	d1 f3       	breq	.-12     	; 0x8a72 <__mulsf3+0x14>
    8a7e:	95 0f       	add	r25, r21
    8a80:	50 e0       	ldi	r21, 0x00	; 0
    8a82:	55 1f       	adc	r21, r21
    8a84:	62 9f       	mul	r22, r18
    8a86:	f0 01       	movw	r30, r0
    8a88:	72 9f       	mul	r23, r18
    8a8a:	bb 27       	eor	r27, r27
    8a8c:	f0 0d       	add	r31, r0
    8a8e:	b1 1d       	adc	r27, r1
    8a90:	63 9f       	mul	r22, r19
    8a92:	aa 27       	eor	r26, r26
    8a94:	f0 0d       	add	r31, r0
    8a96:	b1 1d       	adc	r27, r1
    8a98:	aa 1f       	adc	r26, r26
    8a9a:	64 9f       	mul	r22, r20
    8a9c:	66 27       	eor	r22, r22
    8a9e:	b0 0d       	add	r27, r0
    8aa0:	a1 1d       	adc	r26, r1
    8aa2:	66 1f       	adc	r22, r22
    8aa4:	82 9f       	mul	r24, r18
    8aa6:	22 27       	eor	r18, r18
    8aa8:	b0 0d       	add	r27, r0
    8aaa:	a1 1d       	adc	r26, r1
    8aac:	62 1f       	adc	r22, r18
    8aae:	73 9f       	mul	r23, r19
    8ab0:	b0 0d       	add	r27, r0
    8ab2:	a1 1d       	adc	r26, r1
    8ab4:	62 1f       	adc	r22, r18
    8ab6:	83 9f       	mul	r24, r19
    8ab8:	a0 0d       	add	r26, r0
    8aba:	61 1d       	adc	r22, r1
    8abc:	22 1f       	adc	r18, r18
    8abe:	74 9f       	mul	r23, r20
    8ac0:	33 27       	eor	r19, r19
    8ac2:	a0 0d       	add	r26, r0
    8ac4:	61 1d       	adc	r22, r1
    8ac6:	23 1f       	adc	r18, r19
    8ac8:	84 9f       	mul	r24, r20
    8aca:	60 0d       	add	r22, r0
    8acc:	21 1d       	adc	r18, r1
    8ace:	82 2f       	mov	r24, r18
    8ad0:	76 2f       	mov	r23, r22
    8ad2:	6a 2f       	mov	r22, r26
    8ad4:	11 24       	eor	r1, r1
    8ad6:	9f 57       	subi	r25, 0x7F	; 127
    8ad8:	50 40       	sbci	r21, 0x00	; 0
    8ada:	8a f0       	brmi	.+34     	; 0x8afe <__mulsf3_pse+0x84>
    8adc:	e1 f0       	breq	.+56     	; 0x8b16 <__mulsf3_pse+0x9c>
    8ade:	88 23       	and	r24, r24
    8ae0:	4a f0       	brmi	.+18     	; 0x8af4 <__mulsf3_pse+0x7a>
    8ae2:	ee 0f       	add	r30, r30
    8ae4:	ff 1f       	adc	r31, r31
    8ae6:	bb 1f       	adc	r27, r27
    8ae8:	66 1f       	adc	r22, r22
    8aea:	77 1f       	adc	r23, r23
    8aec:	88 1f       	adc	r24, r24
    8aee:	91 50       	subi	r25, 0x01	; 1
    8af0:	50 40       	sbci	r21, 0x00	; 0
    8af2:	a9 f7       	brne	.-22     	; 0x8ade <__mulsf3_pse+0x64>
    8af4:	9e 3f       	cpi	r25, 0xFE	; 254
    8af6:	51 05       	cpc	r21, r1
    8af8:	70 f0       	brcs	.+28     	; 0x8b16 <__mulsf3_pse+0x9c>
    8afa:	f0 cd       	rjmp	.-1056   	; 0x86dc <__fp_inf>
    8afc:	d8 ce       	rjmp	.-592    	; 0x88ae <__fp_szero>
    8afe:	5f 3f       	cpi	r21, 0xFF	; 255
    8b00:	ec f3       	brlt	.-6      	; 0x8afc <__mulsf3_pse+0x82>
    8b02:	98 3e       	cpi	r25, 0xE8	; 232
    8b04:	dc f3       	brlt	.-10     	; 0x8afc <__mulsf3_pse+0x82>
    8b06:	86 95       	lsr	r24
    8b08:	77 95       	ror	r23
    8b0a:	67 95       	ror	r22
    8b0c:	b7 95       	ror	r27
    8b0e:	f7 95       	ror	r31
    8b10:	e7 95       	ror	r30
    8b12:	9f 5f       	subi	r25, 0xFF	; 255
    8b14:	c1 f7       	brne	.-16     	; 0x8b06 <__mulsf3_pse+0x8c>
    8b16:	fe 2b       	or	r31, r30
    8b18:	88 0f       	add	r24, r24
    8b1a:	91 1d       	adc	r25, r1
    8b1c:	96 95       	lsr	r25
    8b1e:	87 95       	ror	r24
    8b20:	97 f9       	bld	r25, 7
    8b22:	08 95       	ret

00008b24 <sin>:
    8b24:	9f 93       	push	r25
    8b26:	40 de       	rcall	.-896    	; 0x87a8 <__fp_rempio2>
    8b28:	0f 90       	pop	r0
    8b2a:	07 fc       	sbrc	r0, 7
    8b2c:	ee 5f       	subi	r30, 0xFE	; 254
    8b2e:	74 ce       	rjmp	.-792    	; 0x8818 <__fp_sinus>
    8b30:	11 f4       	brne	.+4      	; 0x8b36 <sin+0x12>
    8b32:	0e f4       	brtc	.+2      	; 0x8b36 <sin+0x12>
    8b34:	02 ce       	rjmp	.-1020   	; 0x873a <__fp_nan>
    8b36:	f3 cd       	rjmp	.-1050   	; 0x871e <__fp_mpack>

00008b38 <sqrt>:
    8b38:	88 de       	rcall	.-752    	; 0x884a <__fp_splitA>
    8b3a:	d0 f3       	brcs	.-12     	; 0x8b30 <sin+0xc>
    8b3c:	99 23       	and	r25, r25
    8b3e:	d9 f3       	breq	.-10     	; 0x8b36 <sin+0x12>
    8b40:	ce f3       	brts	.-14     	; 0x8b34 <sin+0x10>
    8b42:	9f 57       	subi	r25, 0x7F	; 127
    8b44:	55 0b       	sbc	r21, r21
    8b46:	87 ff       	sbrs	r24, 7
    8b48:	43 d0       	rcall	.+134    	; 0x8bd0 <__fp_norm2>
    8b4a:	00 24       	eor	r0, r0
    8b4c:	a0 e6       	ldi	r26, 0x60	; 96
    8b4e:	40 ea       	ldi	r20, 0xA0	; 160
    8b50:	90 01       	movw	r18, r0
    8b52:	80 58       	subi	r24, 0x80	; 128
    8b54:	56 95       	lsr	r21
    8b56:	97 95       	ror	r25
    8b58:	28 f4       	brcc	.+10     	; 0x8b64 <sqrt+0x2c>
    8b5a:	80 5c       	subi	r24, 0xC0	; 192
    8b5c:	66 0f       	add	r22, r22
    8b5e:	77 1f       	adc	r23, r23
    8b60:	88 1f       	adc	r24, r24
    8b62:	20 f0       	brcs	.+8      	; 0x8b6c <sqrt+0x34>
    8b64:	26 17       	cp	r18, r22
    8b66:	37 07       	cpc	r19, r23
    8b68:	48 07       	cpc	r20, r24
    8b6a:	30 f4       	brcc	.+12     	; 0x8b78 <sqrt+0x40>
    8b6c:	62 1b       	sub	r22, r18
    8b6e:	73 0b       	sbc	r23, r19
    8b70:	84 0b       	sbc	r24, r20
    8b72:	20 29       	or	r18, r0
    8b74:	31 29       	or	r19, r1
    8b76:	4a 2b       	or	r20, r26
    8b78:	a6 95       	lsr	r26
    8b7a:	17 94       	ror	r1
    8b7c:	07 94       	ror	r0
    8b7e:	20 25       	eor	r18, r0
    8b80:	31 25       	eor	r19, r1
    8b82:	4a 27       	eor	r20, r26
    8b84:	58 f7       	brcc	.-42     	; 0x8b5c <sqrt+0x24>
    8b86:	66 0f       	add	r22, r22
    8b88:	77 1f       	adc	r23, r23
    8b8a:	88 1f       	adc	r24, r24
    8b8c:	20 f0       	brcs	.+8      	; 0x8b96 <sqrt+0x5e>
    8b8e:	26 17       	cp	r18, r22
    8b90:	37 07       	cpc	r19, r23
    8b92:	48 07       	cpc	r20, r24
    8b94:	30 f4       	brcc	.+12     	; 0x8ba2 <sqrt+0x6a>
    8b96:	62 0b       	sbc	r22, r18
    8b98:	73 0b       	sbc	r23, r19
    8b9a:	84 0b       	sbc	r24, r20
    8b9c:	20 0d       	add	r18, r0
    8b9e:	31 1d       	adc	r19, r1
    8ba0:	41 1d       	adc	r20, r1
    8ba2:	a0 95       	com	r26
    8ba4:	81 f7       	brne	.-32     	; 0x8b86 <sqrt+0x4e>
    8ba6:	b9 01       	movw	r22, r18
    8ba8:	84 2f       	mov	r24, r20
    8baa:	91 58       	subi	r25, 0x81	; 129
    8bac:	88 0f       	add	r24, r24
    8bae:	96 95       	lsr	r25
    8bb0:	87 95       	ror	r24
    8bb2:	08 95       	ret

00008bb4 <square>:
    8bb4:	9b 01       	movw	r18, r22
    8bb6:	ac 01       	movw	r20, r24
    8bb8:	52 cf       	rjmp	.-348    	; 0x8a5e <__mulsf3>

00008bba <trunc>:
    8bba:	61 de       	rcall	.-830    	; 0x887e <__fp_trunc>
    8bbc:	20 f0       	brcs	.+8      	; 0x8bc6 <trunc+0xc>
    8bbe:	9f 37       	cpi	r25, 0x7F	; 127
    8bc0:	08 f4       	brcc	.+2      	; 0x8bc4 <trunc+0xa>
    8bc2:	75 ce       	rjmp	.-790    	; 0x88ae <__fp_szero>
    8bc4:	91 cd       	rjmp	.-1246   	; 0x86e8 <__fp_mintl>
    8bc6:	ab cd       	rjmp	.-1194   	; 0x871e <__fp_mpack>

00008bc8 <__unordsf2>:
    8bc8:	65 dd       	rcall	.-1334   	; 0x8694 <__fp_cmp>
    8bca:	88 0b       	sbc	r24, r24
    8bcc:	99 0b       	sbc	r25, r25
    8bce:	08 95       	ret

00008bd0 <__fp_norm2>:
    8bd0:	91 50       	subi	r25, 0x01	; 1
    8bd2:	50 40       	sbci	r21, 0x00	; 0
    8bd4:	66 0f       	add	r22, r22
    8bd6:	77 1f       	adc	r23, r23
    8bd8:	88 1f       	adc	r24, r24
    8bda:	d2 f7       	brpl	.-12     	; 0x8bd0 <__fp_norm2>
    8bdc:	08 95       	ret

00008bde <__fp_powsodd>:
    8bde:	9f 93       	push	r25
    8be0:	8f 93       	push	r24
    8be2:	7f 93       	push	r23
    8be4:	6f 93       	push	r22
    8be6:	ff 93       	push	r31
    8be8:	ef 93       	push	r30
    8bea:	9b 01       	movw	r18, r22
    8bec:	ac 01       	movw	r20, r24
    8bee:	37 df       	rcall	.-402    	; 0x8a5e <__mulsf3>
    8bf0:	ef 91       	pop	r30
    8bf2:	ff 91       	pop	r31
    8bf4:	a5 dd       	rcall	.-1206   	; 0x8740 <__fp_powser>
    8bf6:	2f 91       	pop	r18
    8bf8:	3f 91       	pop	r19
    8bfa:	4f 91       	pop	r20
    8bfc:	5f 91       	pop	r21
    8bfe:	2f cf       	rjmp	.-418    	; 0x8a5e <__mulsf3>

00008c00 <__mulsi3>:
    8c00:	62 9f       	mul	r22, r18
    8c02:	d0 01       	movw	r26, r0
    8c04:	73 9f       	mul	r23, r19
    8c06:	f0 01       	movw	r30, r0
    8c08:	82 9f       	mul	r24, r18
    8c0a:	e0 0d       	add	r30, r0
    8c0c:	f1 1d       	adc	r31, r1
    8c0e:	64 9f       	mul	r22, r20
    8c10:	e0 0d       	add	r30, r0
    8c12:	f1 1d       	adc	r31, r1
    8c14:	92 9f       	mul	r25, r18
    8c16:	f0 0d       	add	r31, r0
    8c18:	83 9f       	mul	r24, r19
    8c1a:	f0 0d       	add	r31, r0
    8c1c:	74 9f       	mul	r23, r20
    8c1e:	f0 0d       	add	r31, r0
    8c20:	65 9f       	mul	r22, r21
    8c22:	f0 0d       	add	r31, r0
    8c24:	99 27       	eor	r25, r25
    8c26:	72 9f       	mul	r23, r18
    8c28:	b0 0d       	add	r27, r0
    8c2a:	e1 1d       	adc	r30, r1
    8c2c:	f9 1f       	adc	r31, r25
    8c2e:	63 9f       	mul	r22, r19
    8c30:	b0 0d       	add	r27, r0
    8c32:	e1 1d       	adc	r30, r1
    8c34:	f9 1f       	adc	r31, r25
    8c36:	bd 01       	movw	r22, r26
    8c38:	cf 01       	movw	r24, r30
    8c3a:	11 24       	eor	r1, r1
    8c3c:	08 95       	ret

00008c3e <__udivmodsi4>:
    8c3e:	a1 e2       	ldi	r26, 0x21	; 33
    8c40:	1a 2e       	mov	r1, r26
    8c42:	aa 1b       	sub	r26, r26
    8c44:	bb 1b       	sub	r27, r27
    8c46:	fd 01       	movw	r30, r26
    8c48:	0d c0       	rjmp	.+26     	; 0x8c64 <__udivmodsi4_ep>

00008c4a <__udivmodsi4_loop>:
    8c4a:	aa 1f       	adc	r26, r26
    8c4c:	bb 1f       	adc	r27, r27
    8c4e:	ee 1f       	adc	r30, r30
    8c50:	ff 1f       	adc	r31, r31
    8c52:	a2 17       	cp	r26, r18
    8c54:	b3 07       	cpc	r27, r19
    8c56:	e4 07       	cpc	r30, r20
    8c58:	f5 07       	cpc	r31, r21
    8c5a:	20 f0       	brcs	.+8      	; 0x8c64 <__udivmodsi4_ep>
    8c5c:	a2 1b       	sub	r26, r18
    8c5e:	b3 0b       	sbc	r27, r19
    8c60:	e4 0b       	sbc	r30, r20
    8c62:	f5 0b       	sbc	r31, r21

00008c64 <__udivmodsi4_ep>:
    8c64:	66 1f       	adc	r22, r22
    8c66:	77 1f       	adc	r23, r23
    8c68:	88 1f       	adc	r24, r24
    8c6a:	99 1f       	adc	r25, r25
    8c6c:	1a 94       	dec	r1
    8c6e:	69 f7       	brne	.-38     	; 0x8c4a <__udivmodsi4_loop>
    8c70:	60 95       	com	r22
    8c72:	70 95       	com	r23
    8c74:	80 95       	com	r24
    8c76:	90 95       	com	r25
    8c78:	9b 01       	movw	r18, r22
    8c7a:	ac 01       	movw	r20, r24
    8c7c:	bd 01       	movw	r22, r26
    8c7e:	cf 01       	movw	r24, r30
    8c80:	08 95       	ret

00008c82 <__prologue_saves__>:
    8c82:	2f 92       	push	r2
    8c84:	3f 92       	push	r3
    8c86:	4f 92       	push	r4
    8c88:	5f 92       	push	r5
    8c8a:	6f 92       	push	r6
    8c8c:	7f 92       	push	r7
    8c8e:	8f 92       	push	r8
    8c90:	9f 92       	push	r9
    8c92:	af 92       	push	r10
    8c94:	bf 92       	push	r11
    8c96:	cf 92       	push	r12
    8c98:	df 92       	push	r13
    8c9a:	ef 92       	push	r14
    8c9c:	ff 92       	push	r15
    8c9e:	0f 93       	push	r16
    8ca0:	1f 93       	push	r17
    8ca2:	cf 93       	push	r28
    8ca4:	df 93       	push	r29
    8ca6:	cd b7       	in	r28, 0x3d	; 61
    8ca8:	de b7       	in	r29, 0x3e	; 62
    8caa:	ca 1b       	sub	r28, r26
    8cac:	db 0b       	sbc	r29, r27
    8cae:	0f b6       	in	r0, 0x3f	; 63
    8cb0:	f8 94       	cli
    8cb2:	de bf       	out	0x3e, r29	; 62
    8cb4:	0f be       	out	0x3f, r0	; 63
    8cb6:	cd bf       	out	0x3d, r28	; 61
    8cb8:	19 94       	eijmp

00008cba <__epilogue_restores__>:
    8cba:	2a 88       	ldd	r2, Y+18	; 0x12
    8cbc:	39 88       	ldd	r3, Y+17	; 0x11
    8cbe:	48 88       	ldd	r4, Y+16	; 0x10
    8cc0:	5f 84       	ldd	r5, Y+15	; 0x0f
    8cc2:	6e 84       	ldd	r6, Y+14	; 0x0e
    8cc4:	7d 84       	ldd	r7, Y+13	; 0x0d
    8cc6:	8c 84       	ldd	r8, Y+12	; 0x0c
    8cc8:	9b 84       	ldd	r9, Y+11	; 0x0b
    8cca:	aa 84       	ldd	r10, Y+10	; 0x0a
    8ccc:	b9 84       	ldd	r11, Y+9	; 0x09
    8cce:	c8 84       	ldd	r12, Y+8	; 0x08
    8cd0:	df 80       	ldd	r13, Y+7	; 0x07
    8cd2:	ee 80       	ldd	r14, Y+6	; 0x06
    8cd4:	fd 80       	ldd	r15, Y+5	; 0x05
    8cd6:	0c 81       	ldd	r16, Y+4	; 0x04
    8cd8:	1b 81       	ldd	r17, Y+3	; 0x03
    8cda:	aa 81       	ldd	r26, Y+2	; 0x02
    8cdc:	b9 81       	ldd	r27, Y+1	; 0x01
    8cde:	ce 0f       	add	r28, r30
    8ce0:	d1 1d       	adc	r29, r1
    8ce2:	0f b6       	in	r0, 0x3f	; 63
    8ce4:	f8 94       	cli
    8ce6:	de bf       	out	0x3e, r29	; 62
    8ce8:	0f be       	out	0x3f, r0	; 63
    8cea:	cd bf       	out	0x3d, r28	; 61
    8cec:	ed 01       	movw	r28, r26
    8cee:	08 95       	ret

00008cf0 <strtod>:
    8cf0:	8f 92       	push	r8
    8cf2:	9f 92       	push	r9
    8cf4:	af 92       	push	r10
    8cf6:	bf 92       	push	r11
    8cf8:	cf 92       	push	r12
    8cfa:	df 92       	push	r13
    8cfc:	ef 92       	push	r14
    8cfe:	ff 92       	push	r15
    8d00:	0f 93       	push	r16
    8d02:	1f 93       	push	r17
    8d04:	cf 93       	push	r28
    8d06:	df 93       	push	r29
    8d08:	ec 01       	movw	r28, r24
    8d0a:	5b 01       	movw	r10, r22
    8d0c:	61 15       	cp	r22, r1
    8d0e:	71 05       	cpc	r23, r1
    8d10:	19 f0       	breq	.+6      	; 0x8d18 <strtod+0x28>
    8d12:	fb 01       	movw	r30, r22
    8d14:	80 83       	st	Z, r24
    8d16:	91 83       	std	Z+1, r25	; 0x01
    8d18:	f9 90       	ld	r15, Y+
    8d1a:	8f 2d       	mov	r24, r15
    8d1c:	90 e0       	ldi	r25, 0x00	; 0
    8d1e:	0e 94 e5 48 	call	0x91ca	; 0x91ca <isspace>
    8d22:	89 2b       	or	r24, r25
    8d24:	c9 f7       	brne	.-14     	; 0x8d18 <strtod+0x28>
    8d26:	fd e2       	ldi	r31, 0x2D	; 45
    8d28:	ff 16       	cp	r15, r31
    8d2a:	21 f4       	brne	.+8      	; 0x8d34 <strtod+0x44>
    8d2c:	f9 90       	ld	r15, Y+
    8d2e:	ee 24       	eor	r14, r14
    8d30:	e3 94       	inc	r14
    8d32:	05 c0       	rjmp	.+10     	; 0x8d3e <strtod+0x4e>
    8d34:	2b e2       	ldi	r18, 0x2B	; 43
    8d36:	f2 16       	cp	r15, r18
    8d38:	09 f4       	brne	.+2      	; 0x8d3c <strtod+0x4c>
    8d3a:	f9 90       	ld	r15, Y+
    8d3c:	ee 24       	eor	r14, r14
    8d3e:	8e 01       	movw	r16, r28
    8d40:	01 50       	subi	r16, 0x01	; 1
    8d42:	10 40       	sbci	r17, 0x00	; 0
    8d44:	c8 01       	movw	r24, r16
    8d46:	6b ed       	ldi	r22, 0xDB	; 219
    8d48:	7c e1       	ldi	r23, 0x1C	; 28
    8d4a:	43 e0       	ldi	r20, 0x03	; 3
    8d4c:	50 e0       	ldi	r21, 0x00	; 0
    8d4e:	0e 94 f5 48 	call	0x91ea	; 0x91ea <strncasecmp_P>
    8d52:	89 2b       	or	r24, r25
    8d54:	01 f5       	brne	.+64     	; 0x8d96 <strtod+0xa6>
    8d56:	8e 01       	movw	r16, r28
    8d58:	0e 5f       	subi	r16, 0xFE	; 254
    8d5a:	1f 4f       	sbci	r17, 0xFF	; 255
    8d5c:	c8 01       	movw	r24, r16
    8d5e:	6e ed       	ldi	r22, 0xDE	; 222
    8d60:	7c e1       	ldi	r23, 0x1C	; 28
    8d62:	45 e0       	ldi	r20, 0x05	; 5
    8d64:	50 e0       	ldi	r21, 0x00	; 0
    8d66:	0e 94 f5 48 	call	0x91ea	; 0x91ea <strncasecmp_P>
    8d6a:	89 2b       	or	r24, r25
    8d6c:	19 f4       	brne	.+6      	; 0x8d74 <strtod+0x84>
    8d6e:	8e 01       	movw	r16, r28
    8d70:	09 5f       	subi	r16, 0xF9	; 249
    8d72:	1f 4f       	sbci	r17, 0xFF	; 255
    8d74:	a1 14       	cp	r10, r1
    8d76:	b1 04       	cpc	r11, r1
    8d78:	19 f0       	breq	.+6      	; 0x8d80 <strtod+0x90>
    8d7a:	f5 01       	movw	r30, r10
    8d7c:	00 83       	st	Z, r16
    8d7e:	11 83       	std	Z+1, r17	; 0x01
    8d80:	e0 fc       	sbrc	r14, 0
    8d82:	04 c0       	rjmp	.+8      	; 0x8d8c <strtod+0x9c>
    8d84:	70 e0       	ldi	r23, 0x00	; 0
    8d86:	90 e0       	ldi	r25, 0x00	; 0
    8d88:	80 e8       	ldi	r24, 0x80	; 128
    8d8a:	14 c0       	rjmp	.+40     	; 0x8db4 <strtod+0xc4>
    8d8c:	70 e0       	ldi	r23, 0x00	; 0
    8d8e:	90 e0       	ldi	r25, 0x00	; 0
    8d90:	80 e8       	ldi	r24, 0x80	; 128
    8d92:	6f ef       	ldi	r22, 0xFF	; 255
    8d94:	08 c1       	rjmp	.+528    	; 0x8fa6 <strtod+0x2b6>
    8d96:	c8 01       	movw	r24, r16
    8d98:	63 ee       	ldi	r22, 0xE3	; 227
    8d9a:	7c e1       	ldi	r23, 0x1C	; 28
    8d9c:	43 e0       	ldi	r20, 0x03	; 3
    8d9e:	50 e0       	ldi	r21, 0x00	; 0
    8da0:	0e 94 f5 48 	call	0x91ea	; 0x91ea <strncasecmp_P>
    8da4:	89 2b       	or	r24, r25
    8da6:	69 f4       	brne	.+26     	; 0x8dc2 <strtod+0xd2>
    8da8:	a1 14       	cp	r10, r1
    8daa:	b1 04       	cpc	r11, r1
    8dac:	29 f4       	brne	.+10     	; 0x8db8 <strtod+0xc8>
    8dae:	70 e0       	ldi	r23, 0x00	; 0
    8db0:	90 e0       	ldi	r25, 0x00	; 0
    8db2:	80 ec       	ldi	r24, 0xC0	; 192
    8db4:	6f e7       	ldi	r22, 0x7F	; 127
    8db6:	f7 c0       	rjmp	.+494    	; 0x8fa6 <strtod+0x2b6>
    8db8:	22 96       	adiw	r28, 0x02	; 2
    8dba:	f5 01       	movw	r30, r10
    8dbc:	c0 83       	st	Z, r28
    8dbe:	d1 83       	std	Z+1, r29	; 0x01
    8dc0:	f6 cf       	rjmp	.-20     	; 0x8dae <strtod+0xbe>
    8dc2:	88 24       	eor	r8, r8
    8dc4:	99 24       	eor	r9, r9
    8dc6:	40 e0       	ldi	r20, 0x00	; 0
    8dc8:	50 e0       	ldi	r21, 0x00	; 0
    8dca:	60 e0       	ldi	r22, 0x00	; 0
    8dcc:	70 e0       	ldi	r23, 0x00	; 0
    8dce:	ef 2d       	mov	r30, r15
    8dd0:	e0 53       	subi	r30, 0x30	; 48
    8dd2:	ea 30       	cpi	r30, 0x0A	; 10
    8dd4:	a0 f5       	brcc	.+104    	; 0x8e3e <strtod+0x14e>
    8dd6:	f2 e0       	ldi	r31, 0x02	; 2
    8dd8:	ef 2a       	or	r14, r31
    8dda:	8e 2d       	mov	r24, r14
    8ddc:	90 e0       	ldi	r25, 0x00	; 0
    8dde:	9c 01       	movw	r18, r24
    8de0:	28 70       	andi	r18, 0x08	; 8
    8de2:	30 70       	andi	r19, 0x00	; 0
    8de4:	e2 fe       	sbrs	r14, 2
    8de6:	06 c0       	rjmp	.+12     	; 0x8df4 <strtod+0x104>
    8de8:	23 2b       	or	r18, r19
    8dea:	79 f5       	brne	.+94     	; 0x8e4a <strtod+0x15a>
    8dec:	08 94       	sec
    8dee:	81 1c       	adc	r8, r1
    8df0:	91 1c       	adc	r9, r1
    8df2:	2b c0       	rjmp	.+86     	; 0x8e4a <strtod+0x15a>
    8df4:	23 2b       	or	r18, r19
    8df6:	19 f0       	breq	.+6      	; 0x8dfe <strtod+0x10e>
    8df8:	08 94       	sec
    8dfa:	81 08       	sbc	r8, r1
    8dfc:	91 08       	sbc	r9, r1
    8dfe:	db 01       	movw	r26, r22
    8e00:	ca 01       	movw	r24, r20
    8e02:	12 e0       	ldi	r17, 0x02	; 2
    8e04:	88 0f       	add	r24, r24
    8e06:	99 1f       	adc	r25, r25
    8e08:	aa 1f       	adc	r26, r26
    8e0a:	bb 1f       	adc	r27, r27
    8e0c:	1a 95       	dec	r17
    8e0e:	d1 f7       	brne	.-12     	; 0x8e04 <strtod+0x114>
    8e10:	48 0f       	add	r20, r24
    8e12:	59 1f       	adc	r21, r25
    8e14:	6a 1f       	adc	r22, r26
    8e16:	7b 1f       	adc	r23, r27
    8e18:	44 0f       	add	r20, r20
    8e1a:	55 1f       	adc	r21, r21
    8e1c:	66 1f       	adc	r22, r22
    8e1e:	77 1f       	adc	r23, r23
    8e20:	4e 0f       	add	r20, r30
    8e22:	51 1d       	adc	r21, r1
    8e24:	61 1d       	adc	r22, r1
    8e26:	71 1d       	adc	r23, r1
    8e28:	48 39       	cpi	r20, 0x98	; 152
    8e2a:	29 e9       	ldi	r18, 0x99	; 153
    8e2c:	52 07       	cpc	r21, r18
    8e2e:	29 e9       	ldi	r18, 0x99	; 153
    8e30:	62 07       	cpc	r22, r18
    8e32:	29 e1       	ldi	r18, 0x19	; 25
    8e34:	72 07       	cpc	r23, r18
    8e36:	48 f0       	brcs	.+18     	; 0x8e4a <strtod+0x15a>
    8e38:	84 e0       	ldi	r24, 0x04	; 4
    8e3a:	e8 2a       	or	r14, r24
    8e3c:	06 c0       	rjmp	.+12     	; 0x8e4a <strtod+0x15a>
    8e3e:	ee 3f       	cpi	r30, 0xFE	; 254
    8e40:	31 f4       	brne	.+12     	; 0x8e4e <strtod+0x15e>
    8e42:	e3 fc       	sbrc	r14, 3
    8e44:	39 c0       	rjmp	.+114    	; 0x8eb8 <strtod+0x1c8>
    8e46:	98 e0       	ldi	r25, 0x08	; 8
    8e48:	e9 2a       	or	r14, r25
    8e4a:	f9 90       	ld	r15, Y+
    8e4c:	c0 cf       	rjmp	.-128    	; 0x8dce <strtod+0xde>
    8e4e:	e5 33       	cpi	r30, 0x35	; 53
    8e50:	11 f0       	breq	.+4      	; 0x8e56 <strtod+0x166>
    8e52:	e5 31       	cpi	r30, 0x15	; 21
    8e54:	89 f5       	brne	.+98     	; 0x8eb8 <strtod+0x1c8>
    8e56:	29 91       	ld	r18, Y+
    8e58:	2d 32       	cpi	r18, 0x2D	; 45
    8e5a:	19 f4       	brne	.+6      	; 0x8e62 <strtod+0x172>
    8e5c:	e0 e1       	ldi	r30, 0x10	; 16
    8e5e:	ee 2a       	or	r14, r30
    8e60:	05 c0       	rjmp	.+10     	; 0x8e6c <strtod+0x17c>
    8e62:	2b 32       	cpi	r18, 0x2B	; 43
    8e64:	19 f0       	breq	.+6      	; 0x8e6c <strtod+0x17c>
    8e66:	81 e0       	ldi	r24, 0x01	; 1
    8e68:	90 e0       	ldi	r25, 0x00	; 0
    8e6a:	03 c0       	rjmp	.+6      	; 0x8e72 <strtod+0x182>
    8e6c:	29 91       	ld	r18, Y+
    8e6e:	82 e0       	ldi	r24, 0x02	; 2
    8e70:	90 e0       	ldi	r25, 0x00	; 0
    8e72:	e2 2f       	mov	r30, r18
    8e74:	e0 53       	subi	r30, 0x30	; 48
    8e76:	ea 30       	cpi	r30, 0x0A	; 10
    8e78:	18 f0       	brcs	.+6      	; 0x8e80 <strtod+0x190>
    8e7a:	c8 1b       	sub	r28, r24
    8e7c:	d9 0b       	sbc	r29, r25
    8e7e:	1c c0       	rjmp	.+56     	; 0x8eb8 <strtod+0x1c8>
    8e80:	20 e0       	ldi	r18, 0x00	; 0
    8e82:	30 e0       	ldi	r19, 0x00	; 0
    8e84:	fc e0       	ldi	r31, 0x0C	; 12
    8e86:	20 38       	cpi	r18, 0x80	; 128
    8e88:	3f 07       	cpc	r19, r31
    8e8a:	5c f4       	brge	.+22     	; 0x8ea2 <strtod+0x1b2>
    8e8c:	c9 01       	movw	r24, r18
    8e8e:	88 0f       	add	r24, r24
    8e90:	99 1f       	adc	r25, r25
    8e92:	88 0f       	add	r24, r24
    8e94:	99 1f       	adc	r25, r25
    8e96:	28 0f       	add	r18, r24
    8e98:	39 1f       	adc	r19, r25
    8e9a:	22 0f       	add	r18, r18
    8e9c:	33 1f       	adc	r19, r19
    8e9e:	2e 0f       	add	r18, r30
    8ea0:	31 1d       	adc	r19, r1
    8ea2:	e9 91       	ld	r30, Y+
    8ea4:	e0 53       	subi	r30, 0x30	; 48
    8ea6:	ea 30       	cpi	r30, 0x0A	; 10
    8ea8:	68 f3       	brcs	.-38     	; 0x8e84 <strtod+0x194>
    8eaa:	e4 fe       	sbrs	r14, 4
    8eac:	03 c0       	rjmp	.+6      	; 0x8eb4 <strtod+0x1c4>
    8eae:	30 95       	com	r19
    8eb0:	21 95       	neg	r18
    8eb2:	3f 4f       	sbci	r19, 0xFF	; 255
    8eb4:	82 0e       	add	r8, r18
    8eb6:	93 1e       	adc	r9, r19
    8eb8:	ce 2c       	mov	r12, r14
    8eba:	dd 24       	eor	r13, r13
    8ebc:	e1 fe       	sbrs	r14, 1
    8ebe:	07 c0       	rjmp	.+14     	; 0x8ece <strtod+0x1de>
    8ec0:	a1 14       	cp	r10, r1
    8ec2:	b1 04       	cpc	r11, r1
    8ec4:	21 f0       	breq	.+8      	; 0x8ece <strtod+0x1de>
    8ec6:	21 97       	sbiw	r28, 0x01	; 1
    8ec8:	f5 01       	movw	r30, r10
    8eca:	c0 83       	st	Z, r28
    8ecc:	d1 83       	std	Z+1, r29	; 0x01
    8ece:	cb 01       	movw	r24, r22
    8ed0:	ba 01       	movw	r22, r20
    8ed2:	0e 94 0d 43 	call	0x861a	; 0x861a <__floatunsisf>
    8ed6:	7b 01       	movw	r14, r22
    8ed8:	8c 01       	movw	r16, r24
    8eda:	f3 e0       	ldi	r31, 0x03	; 3
    8edc:	cf 22       	and	r12, r31
    8ede:	dd 24       	eor	r13, r13
    8ee0:	23 e0       	ldi	r18, 0x03	; 3
    8ee2:	c2 16       	cp	r12, r18
    8ee4:	d1 04       	cpc	r13, r1
    8ee6:	21 f4       	brne	.+8      	; 0x8ef0 <strtod+0x200>
    8ee8:	17 fb       	bst	r17, 7
    8eea:	10 95       	com	r17
    8eec:	17 f9       	bld	r17, 7
    8eee:	10 95       	com	r17
    8ef0:	57 01       	movw	r10, r14
    8ef2:	68 01       	movw	r12, r16
    8ef4:	c8 01       	movw	r24, r16
    8ef6:	b7 01       	movw	r22, r14
    8ef8:	20 e0       	ldi	r18, 0x00	; 0
    8efa:	30 e0       	ldi	r19, 0x00	; 0
    8efc:	40 e0       	ldi	r20, 0x00	; 0
    8efe:	50 e0       	ldi	r21, 0x00	; 0
    8f00:	0e 94 6d 42 	call	0x84da	; 0x84da <__cmpsf2>
    8f04:	88 23       	and	r24, r24
    8f06:	09 f4       	brne	.+2      	; 0x8f0a <strtod+0x21a>
    8f08:	4a c0       	rjmp	.+148    	; 0x8f9e <strtod+0x2ae>
    8f0a:	97 fe       	sbrs	r9, 7
    8f0c:	0d c0       	rjmp	.+26     	; 0x8f28 <strtod+0x238>
    8f0e:	2a ef       	ldi	r18, 0xFA	; 250
    8f10:	e2 2e       	mov	r14, r18
    8f12:	2c e1       	ldi	r18, 0x1C	; 28
    8f14:	f2 2e       	mov	r15, r18
    8f16:	90 94       	com	r9
    8f18:	81 94       	neg	r8
    8f1a:	91 08       	sbc	r9, r1
    8f1c:	93 94       	inc	r9
    8f1e:	c0 e2       	ldi	r28, 0x20	; 32
    8f20:	d0 e0       	ldi	r29, 0x00	; 0
    8f22:	00 e0       	ldi	r16, 0x00	; 0
    8f24:	10 e0       	ldi	r17, 0x00	; 0
    8f26:	12 c0       	rjmp	.+36     	; 0x8f4c <strtod+0x25c>
    8f28:	92 e1       	ldi	r25, 0x12	; 18
    8f2a:	e9 2e       	mov	r14, r25
    8f2c:	9d e1       	ldi	r25, 0x1D	; 29
    8f2e:	f9 2e       	mov	r15, r25
    8f30:	f6 cf       	rjmp	.-20     	; 0x8f1e <strtod+0x22e>
    8f32:	f7 01       	movw	r30, r14
    8f34:	25 91       	lpm	r18, Z+
    8f36:	35 91       	lpm	r19, Z+
    8f38:	45 91       	lpm	r20, Z+
    8f3a:	54 91       	lpm	r21, Z+
    8f3c:	c6 01       	movw	r24, r12
    8f3e:	b5 01       	movw	r22, r10
    8f40:	0e 94 2f 45 	call	0x8a5e	; 0x8a5e <__mulsf3>
    8f44:	5b 01       	movw	r10, r22
    8f46:	6c 01       	movw	r12, r24
    8f48:	8c 1a       	sub	r8, r28
    8f4a:	9d 0a       	sbc	r9, r29
    8f4c:	8c 16       	cp	r8, r28
    8f4e:	9d 06       	cpc	r9, r29
    8f50:	84 f7       	brge	.-32     	; 0x8f32 <strtod+0x242>
    8f52:	d5 95       	asr	r29
    8f54:	c7 95       	ror	r28
    8f56:	0f 5f       	subi	r16, 0xFF	; 255
    8f58:	1f 4f       	sbci	r17, 0xFF	; 255
    8f5a:	06 30       	cpi	r16, 0x06	; 6
    8f5c:	11 05       	cpc	r17, r1
    8f5e:	29 f0       	breq	.+10     	; 0x8f6a <strtod+0x27a>
    8f60:	8c ef       	ldi	r24, 0xFC	; 252
    8f62:	9f ef       	ldi	r25, 0xFF	; 255
    8f64:	e8 0e       	add	r14, r24
    8f66:	f9 1e       	adc	r15, r25
    8f68:	f1 cf       	rjmp	.-30     	; 0x8f4c <strtod+0x25c>
    8f6a:	c5 01       	movw	r24, r10
    8f6c:	d6 01       	movw	r26, r12
    8f6e:	7c 01       	movw	r14, r24
    8f70:	8d 01       	movw	r16, r26
    8f72:	8c 2d       	mov	r24, r12
    8f74:	88 0f       	add	r24, r24
    8f76:	8d 2d       	mov	r24, r13
    8f78:	88 1f       	adc	r24, r24
    8f7a:	8f 3f       	cpi	r24, 0xFF	; 255
    8f7c:	51 f0       	breq	.+20     	; 0x8f92 <strtod+0x2a2>
    8f7e:	c6 01       	movw	r24, r12
    8f80:	b5 01       	movw	r22, r10
    8f82:	20 e0       	ldi	r18, 0x00	; 0
    8f84:	30 e0       	ldi	r19, 0x00	; 0
    8f86:	40 e0       	ldi	r20, 0x00	; 0
    8f88:	50 e0       	ldi	r21, 0x00	; 0
    8f8a:	0e 94 6d 42 	call	0x84da	; 0x84da <__cmpsf2>
    8f8e:	88 23       	and	r24, r24
    8f90:	31 f4       	brne	.+12     	; 0x8f9e <strtod+0x2ae>
    8f92:	82 e2       	ldi	r24, 0x22	; 34
    8f94:	90 e0       	ldi	r25, 0x00	; 0
    8f96:	80 93 60 26 	sts	0x2660, r24
    8f9a:	90 93 61 26 	sts	0x2661, r25
    8f9e:	7e 2d       	mov	r23, r14
    8fa0:	9f 2d       	mov	r25, r15
    8fa2:	80 2f       	mov	r24, r16
    8fa4:	61 2f       	mov	r22, r17
    8fa6:	27 2f       	mov	r18, r23
    8fa8:	39 2f       	mov	r19, r25
    8faa:	48 2f       	mov	r20, r24
    8fac:	56 2f       	mov	r21, r22
    8fae:	b9 01       	movw	r22, r18
    8fb0:	ca 01       	movw	r24, r20
    8fb2:	df 91       	pop	r29
    8fb4:	cf 91       	pop	r28
    8fb6:	1f 91       	pop	r17
    8fb8:	0f 91       	pop	r16
    8fba:	ff 90       	pop	r15
    8fbc:	ef 90       	pop	r14
    8fbe:	df 90       	pop	r13
    8fc0:	cf 90       	pop	r12
    8fc2:	bf 90       	pop	r11
    8fc4:	af 90       	pop	r10
    8fc6:	9f 90       	pop	r9
    8fc8:	8f 90       	pop	r8
    8fca:	08 95       	ret

00008fcc <atoi>:
    8fcc:	fc 01       	movw	r30, r24
    8fce:	88 27       	eor	r24, r24
    8fd0:	99 27       	eor	r25, r25
    8fd2:	e8 94       	clt
    8fd4:	21 91       	ld	r18, Z+
    8fd6:	20 32       	cpi	r18, 0x20	; 32
    8fd8:	e9 f3       	breq	.-6      	; 0x8fd4 <atoi+0x8>
    8fda:	29 30       	cpi	r18, 0x09	; 9
    8fdc:	10 f0       	brcs	.+4      	; 0x8fe2 <atoi+0x16>
    8fde:	2e 30       	cpi	r18, 0x0E	; 14
    8fe0:	c8 f3       	brcs	.-14     	; 0x8fd4 <atoi+0x8>
    8fe2:	2b 32       	cpi	r18, 0x2B	; 43
    8fe4:	41 f0       	breq	.+16     	; 0x8ff6 <atoi+0x2a>
    8fe6:	2d 32       	cpi	r18, 0x2D	; 45
    8fe8:	39 f4       	brne	.+14     	; 0x8ff8 <atoi+0x2c>
    8fea:	68 94       	set
    8fec:	04 c0       	rjmp	.+8      	; 0x8ff6 <atoi+0x2a>
    8fee:	0e 94 2e 49 	call	0x925c	; 0x925c <__mulhi_const_10>
    8ff2:	82 0f       	add	r24, r18
    8ff4:	91 1d       	adc	r25, r1
    8ff6:	21 91       	ld	r18, Z+
    8ff8:	20 53       	subi	r18, 0x30	; 48
    8ffa:	2a 30       	cpi	r18, 0x0A	; 10
    8ffc:	c0 f3       	brcs	.-16     	; 0x8fee <atoi+0x22>
    8ffe:	1e f4       	brtc	.+6      	; 0x9006 <atoi+0x3a>
    9000:	90 95       	com	r25
    9002:	81 95       	neg	r24
    9004:	9f 4f       	sbci	r25, 0xFF	; 255
    9006:	08 95       	ret

00009008 <__ftoa_engine>:
    9008:	28 30       	cpi	r18, 0x08	; 8
    900a:	08 f0       	brcs	.+2      	; 0x900e <__ftoa_engine+0x6>
    900c:	27 e0       	ldi	r18, 0x07	; 7
    900e:	33 27       	eor	r19, r19
    9010:	da 01       	movw	r26, r20
    9012:	99 0f       	add	r25, r25
    9014:	31 1d       	adc	r19, r1
    9016:	87 fd       	sbrc	r24, 7
    9018:	91 60       	ori	r25, 0x01	; 1
    901a:	00 96       	adiw	r24, 0x00	; 0
    901c:	61 05       	cpc	r22, r1
    901e:	71 05       	cpc	r23, r1
    9020:	39 f4       	brne	.+14     	; 0x9030 <__ftoa_engine+0x28>
    9022:	32 60       	ori	r19, 0x02	; 2
    9024:	2e 5f       	subi	r18, 0xFE	; 254
    9026:	3d 93       	st	X+, r19
    9028:	30 e3       	ldi	r19, 0x30	; 48
    902a:	2a 95       	dec	r18
    902c:	e1 f7       	brne	.-8      	; 0x9026 <__ftoa_engine+0x1e>
    902e:	08 95       	ret
    9030:	9f 3f       	cpi	r25, 0xFF	; 255
    9032:	30 f0       	brcs	.+12     	; 0x9040 <__ftoa_engine+0x38>
    9034:	80 38       	cpi	r24, 0x80	; 128
    9036:	71 05       	cpc	r23, r1
    9038:	61 05       	cpc	r22, r1
    903a:	09 f0       	breq	.+2      	; 0x903e <__ftoa_engine+0x36>
    903c:	3c 5f       	subi	r19, 0xFC	; 252
    903e:	3c 5f       	subi	r19, 0xFC	; 252
    9040:	3d 93       	st	X+, r19
    9042:	91 30       	cpi	r25, 0x01	; 1
    9044:	08 f0       	brcs	.+2      	; 0x9048 <__ftoa_engine+0x40>
    9046:	80 68       	ori	r24, 0x80	; 128
    9048:	91 1d       	adc	r25, r1
    904a:	df 93       	push	r29
    904c:	cf 93       	push	r28
    904e:	1f 93       	push	r17
    9050:	0f 93       	push	r16
    9052:	ff 92       	push	r15
    9054:	ef 92       	push	r14
    9056:	19 2f       	mov	r17, r25
    9058:	98 7f       	andi	r25, 0xF8	; 248
    905a:	96 95       	lsr	r25
    905c:	e9 2f       	mov	r30, r25
    905e:	96 95       	lsr	r25
    9060:	96 95       	lsr	r25
    9062:	e9 0f       	add	r30, r25
    9064:	ff 27       	eor	r31, r31
    9066:	e0 59       	subi	r30, 0x90	; 144
    9068:	f2 4e       	sbci	r31, 0xE2	; 226
    906a:	99 27       	eor	r25, r25
    906c:	33 27       	eor	r19, r19
    906e:	ee 24       	eor	r14, r14
    9070:	ff 24       	eor	r15, r15
    9072:	a7 01       	movw	r20, r14
    9074:	e7 01       	movw	r28, r14
    9076:	05 90       	lpm	r0, Z+
    9078:	08 94       	sec
    907a:	07 94       	ror	r0
    907c:	28 f4       	brcc	.+10     	; 0x9088 <__ftoa_engine+0x80>
    907e:	36 0f       	add	r19, r22
    9080:	e7 1e       	adc	r14, r23
    9082:	f8 1e       	adc	r15, r24
    9084:	49 1f       	adc	r20, r25
    9086:	51 1d       	adc	r21, r1
    9088:	66 0f       	add	r22, r22
    908a:	77 1f       	adc	r23, r23
    908c:	88 1f       	adc	r24, r24
    908e:	99 1f       	adc	r25, r25
    9090:	06 94       	lsr	r0
    9092:	a1 f7       	brne	.-24     	; 0x907c <__ftoa_engine+0x74>
    9094:	05 90       	lpm	r0, Z+
    9096:	07 94       	ror	r0
    9098:	28 f4       	brcc	.+10     	; 0x90a4 <__ftoa_engine+0x9c>
    909a:	e7 0e       	add	r14, r23
    909c:	f8 1e       	adc	r15, r24
    909e:	49 1f       	adc	r20, r25
    90a0:	56 1f       	adc	r21, r22
    90a2:	c1 1d       	adc	r28, r1
    90a4:	77 0f       	add	r23, r23
    90a6:	88 1f       	adc	r24, r24
    90a8:	99 1f       	adc	r25, r25
    90aa:	66 1f       	adc	r22, r22
    90ac:	06 94       	lsr	r0
    90ae:	a1 f7       	brne	.-24     	; 0x9098 <__ftoa_engine+0x90>
    90b0:	05 90       	lpm	r0, Z+
    90b2:	07 94       	ror	r0
    90b4:	28 f4       	brcc	.+10     	; 0x90c0 <__ftoa_engine+0xb8>
    90b6:	f8 0e       	add	r15, r24
    90b8:	49 1f       	adc	r20, r25
    90ba:	56 1f       	adc	r21, r22
    90bc:	c7 1f       	adc	r28, r23
    90be:	d1 1d       	adc	r29, r1
    90c0:	88 0f       	add	r24, r24
    90c2:	99 1f       	adc	r25, r25
    90c4:	66 1f       	adc	r22, r22
    90c6:	77 1f       	adc	r23, r23
    90c8:	06 94       	lsr	r0
    90ca:	a1 f7       	brne	.-24     	; 0x90b4 <__ftoa_engine+0xac>
    90cc:	05 90       	lpm	r0, Z+
    90ce:	07 94       	ror	r0
    90d0:	20 f4       	brcc	.+8      	; 0x90da <__ftoa_engine+0xd2>
    90d2:	49 0f       	add	r20, r25
    90d4:	56 1f       	adc	r21, r22
    90d6:	c7 1f       	adc	r28, r23
    90d8:	d8 1f       	adc	r29, r24
    90da:	99 0f       	add	r25, r25
    90dc:	66 1f       	adc	r22, r22
    90de:	77 1f       	adc	r23, r23
    90e0:	88 1f       	adc	r24, r24
    90e2:	06 94       	lsr	r0
    90e4:	a9 f7       	brne	.-22     	; 0x90d0 <__ftoa_engine+0xc8>
    90e6:	84 91       	lpm	r24, Z+
    90e8:	10 95       	com	r17
    90ea:	17 70       	andi	r17, 0x07	; 7
    90ec:	41 f0       	breq	.+16     	; 0x90fe <__ftoa_engine+0xf6>
    90ee:	d6 95       	lsr	r29
    90f0:	c7 95       	ror	r28
    90f2:	57 95       	ror	r21
    90f4:	47 95       	ror	r20
    90f6:	f7 94       	ror	r15
    90f8:	e7 94       	ror	r14
    90fa:	1a 95       	dec	r17
    90fc:	c1 f7       	brne	.-16     	; 0x90ee <__ftoa_engine+0xe6>
    90fe:	e6 e1       	ldi	r30, 0x16	; 22
    9100:	fd e1       	ldi	r31, 0x1D	; 29
    9102:	68 94       	set
    9104:	15 90       	lpm	r1, Z+
    9106:	15 91       	lpm	r17, Z+
    9108:	35 91       	lpm	r19, Z+
    910a:	65 91       	lpm	r22, Z+
    910c:	95 91       	lpm	r25, Z+
    910e:	05 90       	lpm	r0, Z+
    9110:	7f e2       	ldi	r23, 0x2F	; 47
    9112:	73 95       	inc	r23
    9114:	e1 18       	sub	r14, r1
    9116:	f1 0a       	sbc	r15, r17
    9118:	43 0b       	sbc	r20, r19
    911a:	56 0b       	sbc	r21, r22
    911c:	c9 0b       	sbc	r28, r25
    911e:	d0 09       	sbc	r29, r0
    9120:	c0 f7       	brcc	.-16     	; 0x9112 <__ftoa_engine+0x10a>
    9122:	e1 0c       	add	r14, r1
    9124:	f1 1e       	adc	r15, r17
    9126:	43 1f       	adc	r20, r19
    9128:	56 1f       	adc	r21, r22
    912a:	c9 1f       	adc	r28, r25
    912c:	d0 1d       	adc	r29, r0
    912e:	7e f4       	brtc	.+30     	; 0x914e <__ftoa_engine+0x146>
    9130:	70 33       	cpi	r23, 0x30	; 48
    9132:	11 f4       	brne	.+4      	; 0x9138 <__ftoa_engine+0x130>
    9134:	8a 95       	dec	r24
    9136:	e6 cf       	rjmp	.-52     	; 0x9104 <__ftoa_engine+0xfc>
    9138:	e8 94       	clt
    913a:	01 50       	subi	r16, 0x01	; 1
    913c:	30 f0       	brcs	.+12     	; 0x914a <__ftoa_engine+0x142>
    913e:	08 0f       	add	r16, r24
    9140:	0a f4       	brpl	.+2      	; 0x9144 <__ftoa_engine+0x13c>
    9142:	00 27       	eor	r16, r16
    9144:	02 17       	cp	r16, r18
    9146:	08 f4       	brcc	.+2      	; 0x914a <__ftoa_engine+0x142>
    9148:	20 2f       	mov	r18, r16
    914a:	23 95       	inc	r18
    914c:	02 2f       	mov	r16, r18
    914e:	7a 33       	cpi	r23, 0x3A	; 58
    9150:	28 f0       	brcs	.+10     	; 0x915c <__ftoa_engine+0x154>
    9152:	79 e3       	ldi	r23, 0x39	; 57
    9154:	7d 93       	st	X+, r23
    9156:	2a 95       	dec	r18
    9158:	e9 f7       	brne	.-6      	; 0x9154 <__ftoa_engine+0x14c>
    915a:	10 c0       	rjmp	.+32     	; 0x917c <__ftoa_engine+0x174>
    915c:	7d 93       	st	X+, r23
    915e:	2a 95       	dec	r18
    9160:	89 f6       	brne	.-94     	; 0x9104 <__ftoa_engine+0xfc>
    9162:	06 94       	lsr	r0
    9164:	97 95       	ror	r25
    9166:	67 95       	ror	r22
    9168:	37 95       	ror	r19
    916a:	17 95       	ror	r17
    916c:	17 94       	ror	r1
    916e:	e1 18       	sub	r14, r1
    9170:	f1 0a       	sbc	r15, r17
    9172:	43 0b       	sbc	r20, r19
    9174:	56 0b       	sbc	r21, r22
    9176:	c9 0b       	sbc	r28, r25
    9178:	d0 09       	sbc	r29, r0
    917a:	98 f0       	brcs	.+38     	; 0x91a2 <__ftoa_engine+0x19a>
    917c:	23 95       	inc	r18
    917e:	7e 91       	ld	r23, -X
    9180:	73 95       	inc	r23
    9182:	7a 33       	cpi	r23, 0x3A	; 58
    9184:	08 f0       	brcs	.+2      	; 0x9188 <__ftoa_engine+0x180>
    9186:	70 e3       	ldi	r23, 0x30	; 48
    9188:	7c 93       	st	X, r23
    918a:	20 13       	cpse	r18, r16
    918c:	b8 f7       	brcc	.-18     	; 0x917c <__ftoa_engine+0x174>
    918e:	7e 91       	ld	r23, -X
    9190:	70 61       	ori	r23, 0x10	; 16
    9192:	7d 93       	st	X+, r23
    9194:	30 f0       	brcs	.+12     	; 0x91a2 <__ftoa_engine+0x19a>
    9196:	83 95       	inc	r24
    9198:	71 e3       	ldi	r23, 0x31	; 49
    919a:	7d 93       	st	X+, r23
    919c:	70 e3       	ldi	r23, 0x30	; 48
    919e:	2a 95       	dec	r18
    91a0:	e1 f7       	brne	.-8      	; 0x919a <__ftoa_engine+0x192>
    91a2:	11 24       	eor	r1, r1
    91a4:	ef 90       	pop	r14
    91a6:	ff 90       	pop	r15
    91a8:	0f 91       	pop	r16
    91aa:	1f 91       	pop	r17
    91ac:	cf 91       	pop	r28
    91ae:	df 91       	pop	r29
    91b0:	99 27       	eor	r25, r25
    91b2:	87 fd       	sbrc	r24, 7
    91b4:	90 95       	com	r25
    91b6:	08 95       	ret

000091b8 <isupper>:
    91b8:	85 fd       	sbrc	r24, 5
    91ba:	3d c1       	rjmp	.+634    	; 0x9436 <__ctype_isfalse>

000091bc <isalpha>:
    91bc:	80 62       	ori	r24, 0x20	; 32

000091be <islower>:
    91be:	91 11       	cpse	r25, r1
    91c0:	3a c1       	rjmp	.+628    	; 0x9436 <__ctype_isfalse>
    91c2:	81 56       	subi	r24, 0x61	; 97
    91c4:	8a 51       	subi	r24, 0x1A	; 26
    91c6:	e0 f7       	brcc	.-8      	; 0x91c0 <islower+0x2>
    91c8:	08 95       	ret

000091ca <isspace>:
    91ca:	91 11       	cpse	r25, r1
    91cc:	34 c1       	rjmp	.+616    	; 0x9436 <__ctype_isfalse>
    91ce:	80 32       	cpi	r24, 0x20	; 32
    91d0:	19 f0       	breq	.+6      	; 0x91d8 <isspace+0xe>
    91d2:	89 50       	subi	r24, 0x09	; 9
    91d4:	85 50       	subi	r24, 0x05	; 5
    91d6:	d0 f7       	brcc	.-12     	; 0x91cc <isspace+0x2>
    91d8:	08 95       	ret

000091da <toupper>:
    91da:	91 11       	cpse	r25, r1
    91dc:	08 95       	ret
    91de:	81 56       	subi	r24, 0x61	; 97
    91e0:	8a 51       	subi	r24, 0x1A	; 26
    91e2:	08 f4       	brcc	.+2      	; 0x91e6 <toupper+0xc>
    91e4:	80 52       	subi	r24, 0x20	; 32
    91e6:	85 58       	subi	r24, 0x85	; 133
    91e8:	08 95       	ret

000091ea <strncasecmp_P>:
    91ea:	fb 01       	movw	r30, r22
    91ec:	dc 01       	movw	r26, r24
    91ee:	41 50       	subi	r20, 0x01	; 1
    91f0:	50 40       	sbci	r21, 0x00	; 0
    91f2:	88 f0       	brcs	.+34     	; 0x9216 <strncasecmp_P+0x2c>
    91f4:	8d 91       	ld	r24, X+
    91f6:	81 34       	cpi	r24, 0x41	; 65
    91f8:	1c f0       	brlt	.+6      	; 0x9200 <strncasecmp_P+0x16>
    91fa:	8b 35       	cpi	r24, 0x5B	; 91
    91fc:	0c f4       	brge	.+2      	; 0x9200 <strncasecmp_P+0x16>
    91fe:	80 5e       	subi	r24, 0xE0	; 224
    9200:	65 91       	lpm	r22, Z+
    9202:	61 34       	cpi	r22, 0x41	; 65
    9204:	1c f0       	brlt	.+6      	; 0x920c <strncasecmp_P+0x22>
    9206:	6b 35       	cpi	r22, 0x5B	; 91
    9208:	0c f4       	brge	.+2      	; 0x920c <strncasecmp_P+0x22>
    920a:	60 5e       	subi	r22, 0xE0	; 224
    920c:	86 1b       	sub	r24, r22
    920e:	61 11       	cpse	r22, r1
    9210:	71 f3       	breq	.-36     	; 0x91ee <strncasecmp_P+0x4>
    9212:	99 0b       	sbc	r25, r25
    9214:	08 95       	ret
    9216:	88 1b       	sub	r24, r24
    9218:	fc cf       	rjmp	.-8      	; 0x9212 <strncasecmp_P+0x28>

0000921a <strnlen_P>:
    921a:	fc 01       	movw	r30, r24
    921c:	05 90       	lpm	r0, Z+
    921e:	61 50       	subi	r22, 0x01	; 1
    9220:	70 40       	sbci	r23, 0x00	; 0
    9222:	01 10       	cpse	r0, r1
    9224:	d8 f7       	brcc	.-10     	; 0x921c <strnlen_P+0x2>
    9226:	80 95       	com	r24
    9228:	90 95       	com	r25
    922a:	8e 0f       	add	r24, r30
    922c:	9f 1f       	adc	r25, r31
    922e:	08 95       	ret

00009230 <strchr>:
    9230:	fc 01       	movw	r30, r24
    9232:	81 91       	ld	r24, Z+
    9234:	86 17       	cp	r24, r22
    9236:	21 f0       	breq	.+8      	; 0x9240 <strchr+0x10>
    9238:	88 23       	and	r24, r24
    923a:	d9 f7       	brne	.-10     	; 0x9232 <strchr+0x2>
    923c:	99 27       	eor	r25, r25
    923e:	08 95       	ret
    9240:	31 97       	sbiw	r30, 0x01	; 1
    9242:	cf 01       	movw	r24, r30
    9244:	08 95       	ret

00009246 <strnlen>:
    9246:	fc 01       	movw	r30, r24
    9248:	61 50       	subi	r22, 0x01	; 1
    924a:	70 40       	sbci	r23, 0x00	; 0
    924c:	01 90       	ld	r0, Z+
    924e:	01 10       	cpse	r0, r1
    9250:	d8 f7       	brcc	.-10     	; 0x9248 <strnlen+0x2>
    9252:	80 95       	com	r24
    9254:	90 95       	com	r25
    9256:	8e 0f       	add	r24, r30
    9258:	9f 1f       	adc	r25, r31
    925a:	08 95       	ret

0000925c <__mulhi_const_10>:
    925c:	7a e0       	ldi	r23, 0x0A	; 10
    925e:	97 9f       	mul	r25, r23
    9260:	90 2d       	mov	r25, r0
    9262:	87 9f       	mul	r24, r23
    9264:	80 2d       	mov	r24, r0
    9266:	91 0d       	add	r25, r1
    9268:	11 24       	eor	r1, r1
    926a:	08 95       	ret

0000926c <clearerr>:
    926c:	fc 01       	movw	r30, r24
    926e:	83 81       	ldd	r24, Z+3	; 0x03
    9270:	8f 7c       	andi	r24, 0xCF	; 207
    9272:	83 83       	std	Z+3, r24	; 0x03
    9274:	08 95       	ret

00009276 <fgets>:
    9276:	cf 92       	push	r12
    9278:	df 92       	push	r13
    927a:	ef 92       	push	r14
    927c:	ff 92       	push	r15
    927e:	0f 93       	push	r16
    9280:	1f 93       	push	r17
    9282:	cf 93       	push	r28
    9284:	df 93       	push	r29
    9286:	7c 01       	movw	r14, r24
    9288:	6a 01       	movw	r12, r20
    928a:	fa 01       	movw	r30, r20
    928c:	83 81       	ldd	r24, Z+3	; 0x03
    928e:	80 ff       	sbrs	r24, 0
    9290:	19 c0       	rjmp	.+50     	; 0x92c4 <fgets+0x4e>
    9292:	16 16       	cp	r1, r22
    9294:	17 06       	cpc	r1, r23
    9296:	b4 f4       	brge	.+44     	; 0x92c4 <fgets+0x4e>
    9298:	eb 01       	movw	r28, r22
    929a:	21 97       	sbiw	r28, 0x01	; 1
    929c:	87 01       	movw	r16, r14
    929e:	0d c0       	rjmp	.+26     	; 0x92ba <fgets+0x44>
    92a0:	c6 01       	movw	r24, r12
    92a2:	0e 94 1e 4a 	call	0x943c	; 0x943c <fgetc>
    92a6:	ff ef       	ldi	r31, 0xFF	; 255
    92a8:	8f 3f       	cpi	r24, 0xFF	; 255
    92aa:	9f 07       	cpc	r25, r31
    92ac:	59 f0       	breq	.+22     	; 0x92c4 <fgets+0x4e>
    92ae:	f8 01       	movw	r30, r16
    92b0:	81 93       	st	Z+, r24
    92b2:	8f 01       	movw	r16, r30
    92b4:	0a 97       	sbiw	r24, 0x0a	; 10
    92b6:	19 f0       	breq	.+6      	; 0x92be <fgets+0x48>
    92b8:	21 97       	sbiw	r28, 0x01	; 1
    92ba:	20 97       	sbiw	r28, 0x00	; 0
    92bc:	89 f7       	brne	.-30     	; 0x92a0 <fgets+0x2a>
    92be:	f8 01       	movw	r30, r16
    92c0:	10 82       	st	Z, r1
    92c2:	02 c0       	rjmp	.+4      	; 0x92c8 <fgets+0x52>
    92c4:	ee 24       	eor	r14, r14
    92c6:	ff 24       	eor	r15, r15
    92c8:	c7 01       	movw	r24, r14
    92ca:	df 91       	pop	r29
    92cc:	cf 91       	pop	r28
    92ce:	1f 91       	pop	r17
    92d0:	0f 91       	pop	r16
    92d2:	ff 90       	pop	r15
    92d4:	ef 90       	pop	r14
    92d6:	df 90       	pop	r13
    92d8:	cf 90       	pop	r12
    92da:	08 95       	ret

000092dc <fputc>:
    92dc:	0f 93       	push	r16
    92de:	1f 93       	push	r17
    92e0:	cf 93       	push	r28
    92e2:	df 93       	push	r29
    92e4:	8c 01       	movw	r16, r24
    92e6:	eb 01       	movw	r28, r22
    92e8:	8b 81       	ldd	r24, Y+3	; 0x03
    92ea:	81 ff       	sbrs	r24, 1
    92ec:	1b c0       	rjmp	.+54     	; 0x9324 <fputc+0x48>
    92ee:	82 ff       	sbrs	r24, 2
    92f0:	0d c0       	rjmp	.+26     	; 0x930c <fputc+0x30>
    92f2:	2e 81       	ldd	r18, Y+6	; 0x06
    92f4:	3f 81       	ldd	r19, Y+7	; 0x07
    92f6:	8c 81       	ldd	r24, Y+4	; 0x04
    92f8:	9d 81       	ldd	r25, Y+5	; 0x05
    92fa:	28 17       	cp	r18, r24
    92fc:	39 07       	cpc	r19, r25
    92fe:	64 f4       	brge	.+24     	; 0x9318 <fputc+0x3c>
    9300:	e8 81       	ld	r30, Y
    9302:	f9 81       	ldd	r31, Y+1	; 0x01
    9304:	01 93       	st	Z+, r16
    9306:	e8 83       	st	Y, r30
    9308:	f9 83       	std	Y+1, r31	; 0x01
    930a:	06 c0       	rjmp	.+12     	; 0x9318 <fputc+0x3c>
    930c:	e8 85       	ldd	r30, Y+8	; 0x08
    930e:	f9 85       	ldd	r31, Y+9	; 0x09
    9310:	80 2f       	mov	r24, r16
    9312:	19 95       	eicall
    9314:	89 2b       	or	r24, r25
    9316:	31 f4       	brne	.+12     	; 0x9324 <fputc+0x48>
    9318:	8e 81       	ldd	r24, Y+6	; 0x06
    931a:	9f 81       	ldd	r25, Y+7	; 0x07
    931c:	01 96       	adiw	r24, 0x01	; 1
    931e:	8e 83       	std	Y+6, r24	; 0x06
    9320:	9f 83       	std	Y+7, r25	; 0x07
    9322:	02 c0       	rjmp	.+4      	; 0x9328 <fputc+0x4c>
    9324:	0f ef       	ldi	r16, 0xFF	; 255
    9326:	1f ef       	ldi	r17, 0xFF	; 255
    9328:	c8 01       	movw	r24, r16
    932a:	df 91       	pop	r29
    932c:	cf 91       	pop	r28
    932e:	1f 91       	pop	r17
    9330:	0f 91       	pop	r16
    9332:	08 95       	ret

00009334 <printf_P>:
    9334:	df 93       	push	r29
    9336:	cf 93       	push	r28
    9338:	cd b7       	in	r28, 0x3d	; 61
    933a:	de b7       	in	r29, 0x3e	; 62
    933c:	fe 01       	movw	r30, r28
    933e:	36 96       	adiw	r30, 0x06	; 6
    9340:	61 91       	ld	r22, Z+
    9342:	71 91       	ld	r23, Z+
    9344:	a0 91 5c 26 	lds	r26, 0x265C
    9348:	b0 91 5d 26 	lds	r27, 0x265D
    934c:	13 96       	adiw	r26, 0x03	; 3
    934e:	8c 91       	ld	r24, X
    9350:	13 97       	sbiw	r26, 0x03	; 3
    9352:	88 60       	ori	r24, 0x08	; 8
    9354:	13 96       	adiw	r26, 0x03	; 3
    9356:	8c 93       	st	X, r24
    9358:	80 91 5c 26 	lds	r24, 0x265C
    935c:	90 91 5d 26 	lds	r25, 0x265D
    9360:	af 01       	movw	r20, r30
    9362:	0e 94 23 3e 	call	0x7c46	; 0x7c46 <vfprintf>
    9366:	e0 91 5c 26 	lds	r30, 0x265C
    936a:	f0 91 5d 26 	lds	r31, 0x265D
    936e:	23 81       	ldd	r18, Z+3	; 0x03
    9370:	27 7f       	andi	r18, 0xF7	; 247
    9372:	23 83       	std	Z+3, r18	; 0x03
    9374:	cf 91       	pop	r28
    9376:	df 91       	pop	r29
    9378:	08 95       	ret

0000937a <__ultoa_invert>:
    937a:	fa 01       	movw	r30, r20
    937c:	aa 27       	eor	r26, r26
    937e:	28 30       	cpi	r18, 0x08	; 8
    9380:	51 f1       	breq	.+84     	; 0x93d6 <__ultoa_invert+0x5c>
    9382:	20 31       	cpi	r18, 0x10	; 16
    9384:	81 f1       	breq	.+96     	; 0x93e6 <__ultoa_invert+0x6c>
    9386:	e8 94       	clt
    9388:	6f 93       	push	r22
    938a:	6e 7f       	andi	r22, 0xFE	; 254
    938c:	6e 5f       	subi	r22, 0xFE	; 254
    938e:	7f 4f       	sbci	r23, 0xFF	; 255
    9390:	8f 4f       	sbci	r24, 0xFF	; 255
    9392:	9f 4f       	sbci	r25, 0xFF	; 255
    9394:	af 4f       	sbci	r26, 0xFF	; 255
    9396:	b1 e0       	ldi	r27, 0x01	; 1
    9398:	3e d0       	rcall	.+124    	; 0x9416 <__ultoa_invert+0x9c>
    939a:	b4 e0       	ldi	r27, 0x04	; 4
    939c:	3c d0       	rcall	.+120    	; 0x9416 <__ultoa_invert+0x9c>
    939e:	67 0f       	add	r22, r23
    93a0:	78 1f       	adc	r23, r24
    93a2:	89 1f       	adc	r24, r25
    93a4:	9a 1f       	adc	r25, r26
    93a6:	a1 1d       	adc	r26, r1
    93a8:	68 0f       	add	r22, r24
    93aa:	79 1f       	adc	r23, r25
    93ac:	8a 1f       	adc	r24, r26
    93ae:	91 1d       	adc	r25, r1
    93b0:	a1 1d       	adc	r26, r1
    93b2:	6a 0f       	add	r22, r26
    93b4:	71 1d       	adc	r23, r1
    93b6:	81 1d       	adc	r24, r1
    93b8:	91 1d       	adc	r25, r1
    93ba:	a1 1d       	adc	r26, r1
    93bc:	20 d0       	rcall	.+64     	; 0x93fe <__ultoa_invert+0x84>
    93be:	09 f4       	brne	.+2      	; 0x93c2 <__ultoa_invert+0x48>
    93c0:	68 94       	set
    93c2:	3f 91       	pop	r19
    93c4:	2a e0       	ldi	r18, 0x0A	; 10
    93c6:	26 9f       	mul	r18, r22
    93c8:	11 24       	eor	r1, r1
    93ca:	30 19       	sub	r19, r0
    93cc:	30 5d       	subi	r19, 0xD0	; 208
    93ce:	31 93       	st	Z+, r19
    93d0:	de f6       	brtc	.-74     	; 0x9388 <__ultoa_invert+0xe>
    93d2:	cf 01       	movw	r24, r30
    93d4:	08 95       	ret
    93d6:	46 2f       	mov	r20, r22
    93d8:	47 70       	andi	r20, 0x07	; 7
    93da:	40 5d       	subi	r20, 0xD0	; 208
    93dc:	41 93       	st	Z+, r20
    93de:	b3 e0       	ldi	r27, 0x03	; 3
    93e0:	0f d0       	rcall	.+30     	; 0x9400 <__ultoa_invert+0x86>
    93e2:	c9 f7       	brne	.-14     	; 0x93d6 <__ultoa_invert+0x5c>
    93e4:	f6 cf       	rjmp	.-20     	; 0x93d2 <__ultoa_invert+0x58>
    93e6:	46 2f       	mov	r20, r22
    93e8:	4f 70       	andi	r20, 0x0F	; 15
    93ea:	40 5d       	subi	r20, 0xD0	; 208
    93ec:	4a 33       	cpi	r20, 0x3A	; 58
    93ee:	18 f0       	brcs	.+6      	; 0x93f6 <__ultoa_invert+0x7c>
    93f0:	49 5d       	subi	r20, 0xD9	; 217
    93f2:	31 fd       	sbrc	r19, 1
    93f4:	40 52       	subi	r20, 0x20	; 32
    93f6:	41 93       	st	Z+, r20
    93f8:	02 d0       	rcall	.+4      	; 0x93fe <__ultoa_invert+0x84>
    93fa:	a9 f7       	brne	.-22     	; 0x93e6 <__ultoa_invert+0x6c>
    93fc:	ea cf       	rjmp	.-44     	; 0x93d2 <__ultoa_invert+0x58>
    93fe:	b4 e0       	ldi	r27, 0x04	; 4
    9400:	a6 95       	lsr	r26
    9402:	97 95       	ror	r25
    9404:	87 95       	ror	r24
    9406:	77 95       	ror	r23
    9408:	67 95       	ror	r22
    940a:	ba 95       	dec	r27
    940c:	c9 f7       	brne	.-14     	; 0x9400 <__ultoa_invert+0x86>
    940e:	00 97       	sbiw	r24, 0x00	; 0
    9410:	61 05       	cpc	r22, r1
    9412:	71 05       	cpc	r23, r1
    9414:	08 95       	ret
    9416:	9b 01       	movw	r18, r22
    9418:	ac 01       	movw	r20, r24
    941a:	0a 2e       	mov	r0, r26
    941c:	06 94       	lsr	r0
    941e:	57 95       	ror	r21
    9420:	47 95       	ror	r20
    9422:	37 95       	ror	r19
    9424:	27 95       	ror	r18
    9426:	ba 95       	dec	r27
    9428:	c9 f7       	brne	.-14     	; 0x941c <__ultoa_invert+0xa2>
    942a:	62 0f       	add	r22, r18
    942c:	73 1f       	adc	r23, r19
    942e:	84 1f       	adc	r24, r20
    9430:	95 1f       	adc	r25, r21
    9432:	a0 1d       	adc	r26, r0
    9434:	08 95       	ret

00009436 <__ctype_isfalse>:
    9436:	99 27       	eor	r25, r25
    9438:	88 27       	eor	r24, r24

0000943a <__ctype_istrue>:
    943a:	08 95       	ret

0000943c <fgetc>:
    943c:	cf 93       	push	r28
    943e:	df 93       	push	r29
    9440:	ec 01       	movw	r28, r24
    9442:	4b 81       	ldd	r20, Y+3	; 0x03
    9444:	40 ff       	sbrs	r20, 0
    9446:	1a c0       	rjmp	.+52     	; 0x947c <fgetc+0x40>
    9448:	46 ff       	sbrs	r20, 6
    944a:	0a c0       	rjmp	.+20     	; 0x9460 <fgetc+0x24>
    944c:	4f 7b       	andi	r20, 0xBF	; 191
    944e:	4b 83       	std	Y+3, r20	; 0x03
    9450:	8e 81       	ldd	r24, Y+6	; 0x06
    9452:	9f 81       	ldd	r25, Y+7	; 0x07
    9454:	01 96       	adiw	r24, 0x01	; 1
    9456:	8e 83       	std	Y+6, r24	; 0x06
    9458:	9f 83       	std	Y+7, r25	; 0x07
    945a:	8a 81       	ldd	r24, Y+2	; 0x02
    945c:	28 2f       	mov	r18, r24
    945e:	2b c0       	rjmp	.+86     	; 0x94b6 <fgetc+0x7a>
    9460:	42 ff       	sbrs	r20, 2
    9462:	13 c0       	rjmp	.+38     	; 0x948a <fgetc+0x4e>
    9464:	e8 81       	ld	r30, Y
    9466:	f9 81       	ldd	r31, Y+1	; 0x01
    9468:	80 81       	ld	r24, Z
    946a:	28 2f       	mov	r18, r24
    946c:	33 27       	eor	r19, r19
    946e:	27 fd       	sbrc	r18, 7
    9470:	30 95       	com	r19
    9472:	21 15       	cp	r18, r1
    9474:	31 05       	cpc	r19, r1
    9476:	29 f4       	brne	.+10     	; 0x9482 <fgetc+0x46>
    9478:	40 62       	ori	r20, 0x20	; 32
    947a:	4b 83       	std	Y+3, r20	; 0x03
    947c:	2f ef       	ldi	r18, 0xFF	; 255
    947e:	3f ef       	ldi	r19, 0xFF	; 255
    9480:	1b c0       	rjmp	.+54     	; 0x94b8 <fgetc+0x7c>
    9482:	31 96       	adiw	r30, 0x01	; 1
    9484:	e8 83       	st	Y, r30
    9486:	f9 83       	std	Y+1, r31	; 0x01
    9488:	11 c0       	rjmp	.+34     	; 0x94ac <fgetc+0x70>
    948a:	ea 85       	ldd	r30, Y+10	; 0x0a
    948c:	fb 85       	ldd	r31, Y+11	; 0x0b
    948e:	ce 01       	movw	r24, r28
    9490:	19 95       	eicall
    9492:	9c 01       	movw	r18, r24
    9494:	97 ff       	sbrs	r25, 7
    9496:	0a c0       	rjmp	.+20     	; 0x94ac <fgetc+0x70>
    9498:	9b 81       	ldd	r25, Y+3	; 0x03
    949a:	2f 5f       	subi	r18, 0xFF	; 255
    949c:	3f 4f       	sbci	r19, 0xFF	; 255
    949e:	11 f0       	breq	.+4      	; 0x94a4 <fgetc+0x68>
    94a0:	80 e2       	ldi	r24, 0x20	; 32
    94a2:	01 c0       	rjmp	.+2      	; 0x94a6 <fgetc+0x6a>
    94a4:	80 e1       	ldi	r24, 0x10	; 16
    94a6:	89 2b       	or	r24, r25
    94a8:	8b 83       	std	Y+3, r24	; 0x03
    94aa:	e8 cf       	rjmp	.-48     	; 0x947c <fgetc+0x40>
    94ac:	8e 81       	ldd	r24, Y+6	; 0x06
    94ae:	9f 81       	ldd	r25, Y+7	; 0x07
    94b0:	01 96       	adiw	r24, 0x01	; 1
    94b2:	8e 83       	std	Y+6, r24	; 0x06
    94b4:	9f 83       	std	Y+7, r25	; 0x07
    94b6:	30 e0       	ldi	r19, 0x00	; 0
    94b8:	c9 01       	movw	r24, r18
    94ba:	df 91       	pop	r29
    94bc:	cf 91       	pop	r28
    94be:	08 95       	ret

000094c0 <_exit>:
    94c0:	f8 94       	cli

000094c2 <__stop_program>:
    94c2:	ff cf       	rjmp	.-2      	; 0x94c2 <__stop_program>
