
TinyG.elf:     file format elf32-avr

Sections:
Idx Name          Size      VMA       LMA       File off  Algn
  0 .text         00008a98  00000000  00000000  00000094  2**1
                  CONTENTS, ALLOC, LOAD, READONLY, CODE
  1 .data         0000011c  00802000  00008a98  00008b2c  2**0
                  CONTENTS, ALLOC, LOAD, DATA
  2 .bss          000003f8  0080211c  0080211c  00008c48  2**0
                  ALLOC
  3 .debug_aranges 00000320  00000000  00000000  00008c48  2**0
                  CONTENTS, READONLY, DEBUGGING
  4 .debug_pubnames 00000cdf  00000000  00000000  00008f68  2**0
                  CONTENTS, READONLY, DEBUGGING
  5 .debug_info   0000b91a  00000000  00000000  00009c47  2**0
                  CONTENTS, READONLY, DEBUGGING
  6 .debug_abbrev 000028a5  00000000  00000000  00015561  2**0
                  CONTENTS, READONLY, DEBUGGING
  7 .debug_line   00004981  00000000  00000000  00017e06  2**0
                  CONTENTS, READONLY, DEBUGGING
  8 .debug_frame  00000a20  00000000  00000000  0001c788  2**2
                  CONTENTS, READONLY, DEBUGGING
  9 .debug_str    00002438  00000000  00000000  0001d1a8  2**0
                  CONTENTS, READONLY, DEBUGGING
 10 .debug_loc    00003827  00000000  00000000  0001f5e0  2**0
                  CONTENTS, READONLY, DEBUGGING
 11 .debug_ranges 00000128  00000000  00000000  00022e07  2**0
                  CONTENTS, READONLY, DEBUGGING

Disassembly of section .text:

00000000 <__vectors>:
       0:	0c 94 2b 0e 	jmp	0x1c56	; 0x1c56 <__ctors_end>
       4:	0c 94 4c 0e 	jmp	0x1c98	; 0x1c98 <__bad_interrupt>
       8:	0c 94 4c 0e 	jmp	0x1c98	; 0x1c98 <__bad_interrupt>
       c:	0c 94 4c 0e 	jmp	0x1c98	; 0x1c98 <__bad_interrupt>
      10:	0c 94 4c 0e 	jmp	0x1c98	; 0x1c98 <__bad_interrupt>
      14:	0c 94 4c 0e 	jmp	0x1c98	; 0x1c98 <__bad_interrupt>
      18:	0c 94 4c 0e 	jmp	0x1c98	; 0x1c98 <__bad_interrupt>
      1c:	0c 94 4c 0e 	jmp	0x1c98	; 0x1c98 <__bad_interrupt>
      20:	0c 94 4c 0e 	jmp	0x1c98	; 0x1c98 <__bad_interrupt>
      24:	0c 94 4c 0e 	jmp	0x1c98	; 0x1c98 <__bad_interrupt>
      28:	0c 94 4c 0e 	jmp	0x1c98	; 0x1c98 <__bad_interrupt>
      2c:	0c 94 4c 0e 	jmp	0x1c98	; 0x1c98 <__bad_interrupt>
      30:	0c 94 4c 0e 	jmp	0x1c98	; 0x1c98 <__bad_interrupt>
      34:	0c 94 4c 0e 	jmp	0x1c98	; 0x1c98 <__bad_interrupt>
      38:	0c 94 8c 25 	jmp	0x4b18	; 0x4b18 <__vector_14>
      3c:	0c 94 4c 0e 	jmp	0x1c98	; 0x1c98 <__bad_interrupt>
      40:	0c 94 4c 0e 	jmp	0x1c98	; 0x1c98 <__bad_interrupt>
      44:	0c 94 4c 0e 	jmp	0x1c98	; 0x1c98 <__bad_interrupt>
      48:	0c 94 4c 0e 	jmp	0x1c98	; 0x1c98 <__bad_interrupt>
      4c:	0c 94 4c 0e 	jmp	0x1c98	; 0x1c98 <__bad_interrupt>
      50:	0c 94 4c 0e 	jmp	0x1c98	; 0x1c98 <__bad_interrupt>
      54:	0c 94 4c 0e 	jmp	0x1c98	; 0x1c98 <__bad_interrupt>
      58:	0c 94 4c 0e 	jmp	0x1c98	; 0x1c98 <__bad_interrupt>
      5c:	0c 94 4c 0e 	jmp	0x1c98	; 0x1c98 <__bad_interrupt>
      60:	0c 94 4c 0e 	jmp	0x1c98	; 0x1c98 <__bad_interrupt>
      64:	0c 94 c7 27 	jmp	0x4f8e	; 0x4f8e <__vector_25>
      68:	0c 94 45 28 	jmp	0x508a	; 0x508a <__vector_26>
      6c:	0c 94 4c 0e 	jmp	0x1c98	; 0x1c98 <__bad_interrupt>
      70:	0c 94 4c 0e 	jmp	0x1c98	; 0x1c98 <__bad_interrupt>
      74:	0c 94 4c 0e 	jmp	0x1c98	; 0x1c98 <__bad_interrupt>
      78:	0c 94 4c 0e 	jmp	0x1c98	; 0x1c98 <__bad_interrupt>
      7c:	0c 94 4c 0e 	jmp	0x1c98	; 0x1c98 <__bad_interrupt>
      80:	0c 94 4c 0e 	jmp	0x1c98	; 0x1c98 <__bad_interrupt>
      84:	0c 94 4c 0e 	jmp	0x1c98	; 0x1c98 <__bad_interrupt>
      88:	0c 94 4c 0e 	jmp	0x1c98	; 0x1c98 <__bad_interrupt>
      8c:	0c 94 4c 0e 	jmp	0x1c98	; 0x1c98 <__bad_interrupt>
      90:	0c 94 4c 0e 	jmp	0x1c98	; 0x1c98 <__bad_interrupt>
      94:	0c 94 4c 0e 	jmp	0x1c98	; 0x1c98 <__bad_interrupt>
      98:	0c 94 4c 0e 	jmp	0x1c98	; 0x1c98 <__bad_interrupt>
      9c:	0c 94 4c 0e 	jmp	0x1c98	; 0x1c98 <__bad_interrupt>
      a0:	0c 94 4c 0e 	jmp	0x1c98	; 0x1c98 <__bad_interrupt>
      a4:	0c 94 4c 0e 	jmp	0x1c98	; 0x1c98 <__bad_interrupt>
      a8:	0c 94 4c 0e 	jmp	0x1c98	; 0x1c98 <__bad_interrupt>
      ac:	0c 94 ec 31 	jmp	0x63d8	; 0x63d8 <__vector_43>
      b0:	0c 94 c4 31 	jmp	0x6388	; 0x6388 <__vector_44>
      b4:	0c 94 4c 0e 	jmp	0x1c98	; 0x1c98 <__bad_interrupt>
      b8:	0c 94 4c 0e 	jmp	0x1c98	; 0x1c98 <__bad_interrupt>
      bc:	0c 94 c2 24 	jmp	0x4984	; 0x4984 <__vector_47>
      c0:	0c 94 4c 0e 	jmp	0x1c98	; 0x1c98 <__bad_interrupt>
      c4:	0c 94 4c 0e 	jmp	0x1c98	; 0x1c98 <__bad_interrupt>
      c8:	0c 94 4c 0e 	jmp	0x1c98	; 0x1c98 <__bad_interrupt>
      cc:	0c 94 4c 0e 	jmp	0x1c98	; 0x1c98 <__bad_interrupt>
      d0:	0c 94 4c 0e 	jmp	0x1c98	; 0x1c98 <__bad_interrupt>
      d4:	0c 94 4c 0e 	jmp	0x1c98	; 0x1c98 <__bad_interrupt>
      d8:	0c 94 4c 0e 	jmp	0x1c98	; 0x1c98 <__bad_interrupt>
      dc:	0c 94 4c 0e 	jmp	0x1c98	; 0x1c98 <__bad_interrupt>
      e0:	0c 94 4c 0e 	jmp	0x1c98	; 0x1c98 <__bad_interrupt>
      e4:	0c 94 4c 0e 	jmp	0x1c98	; 0x1c98 <__bad_interrupt>
      e8:	0c 94 4c 0e 	jmp	0x1c98	; 0x1c98 <__bad_interrupt>
      ec:	0c 94 4c 0e 	jmp	0x1c98	; 0x1c98 <__bad_interrupt>
      f0:	0c 94 4c 0e 	jmp	0x1c98	; 0x1c98 <__bad_interrupt>
      f4:	0c 94 4c 0e 	jmp	0x1c98	; 0x1c98 <__bad_interrupt>
      f8:	0c 94 4c 0e 	jmp	0x1c98	; 0x1c98 <__bad_interrupt>
      fc:	0c 94 4c 0e 	jmp	0x1c98	; 0x1c98 <__bad_interrupt>
     100:	0c 94 9c 31 	jmp	0x6338	; 0x6338 <__vector_64>
     104:	0c 94 74 31 	jmp	0x62e8	; 0x62e8 <__vector_65>
     108:	0c 94 8c 32 	jmp	0x6518	; 0x6518 <__vector_66>
     10c:	0c 94 64 32 	jmp	0x64c8	; 0x64c8 <__vector_67>
     110:	0c 94 4c 0e 	jmp	0x1c98	; 0x1c98 <__bad_interrupt>
     114:	0c 94 4c 0e 	jmp	0x1c98	; 0x1c98 <__bad_interrupt>
     118:	0c 94 4c 0e 	jmp	0x1c98	; 0x1c98 <__bad_interrupt>
     11c:	0c 94 4c 0e 	jmp	0x1c98	; 0x1c98 <__bad_interrupt>
     120:	0c 94 4c 0e 	jmp	0x1c98	; 0x1c98 <__bad_interrupt>
     124:	0c 94 4c 0e 	jmp	0x1c98	; 0x1c98 <__bad_interrupt>
     128:	0c 94 4c 0e 	jmp	0x1c98	; 0x1c98 <__bad_interrupt>
     12c:	0c 94 4c 0e 	jmp	0x1c98	; 0x1c98 <__bad_interrupt>
     130:	0c 94 4c 0e 	jmp	0x1c98	; 0x1c98 <__bad_interrupt>
     134:	0c 94 27 25 	jmp	0x4a4e	; 0x4a4e <__vector_77>
     138:	0c 94 4c 0e 	jmp	0x1c98	; 0x1c98 <__bad_interrupt>
     13c:	0c 94 4c 0e 	jmp	0x1c98	; 0x1c98 <__bad_interrupt>
     140:	0c 94 4c 0e 	jmp	0x1c98	; 0x1c98 <__bad_interrupt>
     144:	0c 94 4c 0e 	jmp	0x1c98	; 0x1c98 <__bad_interrupt>
     148:	0c 94 4c 0e 	jmp	0x1c98	; 0x1c98 <__bad_interrupt>
     14c:	0c 94 4c 0e 	jmp	0x1c98	; 0x1c98 <__bad_interrupt>
     150:	0c 94 4c 0e 	jmp	0x1c98	; 0x1c98 <__bad_interrupt>
     154:	0c 94 4c 0e 	jmp	0x1c98	; 0x1c98 <__bad_interrupt>
     158:	0c 94 4c 0e 	jmp	0x1c98	; 0x1c98 <__bad_interrupt>
     15c:	0c 94 4c 0e 	jmp	0x1c98	; 0x1c98 <__bad_interrupt>
     160:	0c 94 4c 0e 	jmp	0x1c98	; 0x1c98 <__bad_interrupt>
     164:	0c 94 4c 0e 	jmp	0x1c98	; 0x1c98 <__bad_interrupt>
     168:	0c 94 4c 0e 	jmp	0x1c98	; 0x1c98 <__bad_interrupt>
     16c:	0c 94 4c 0e 	jmp	0x1c98	; 0x1c98 <__bad_interrupt>
     170:	0c 94 4c 0e 	jmp	0x1c98	; 0x1c98 <__bad_interrupt>
     174:	0c 94 4c 0e 	jmp	0x1c98	; 0x1c98 <__bad_interrupt>
     178:	0c 94 4c 0e 	jmp	0x1c98	; 0x1c98 <__bad_interrupt>
     17c:	0c 94 4c 0e 	jmp	0x1c98	; 0x1c98 <__bad_interrupt>
     180:	0c 94 4c 0e 	jmp	0x1c98	; 0x1c98 <__bad_interrupt>
     184:	0c 94 4c 0e 	jmp	0x1c98	; 0x1c98 <__bad_interrupt>
     188:	0c 94 4c 0e 	jmp	0x1c98	; 0x1c98 <__bad_interrupt>
     18c:	0c 94 4c 0e 	jmp	0x1c98	; 0x1c98 <__bad_interrupt>
     190:	0c 94 4c 0e 	jmp	0x1c98	; 0x1c98 <__bad_interrupt>
     194:	0c 94 4c 0e 	jmp	0x1c98	; 0x1c98 <__bad_interrupt>
     198:	0c 94 4c 0e 	jmp	0x1c98	; 0x1c98 <__bad_interrupt>
     19c:	0c 94 4c 0e 	jmp	0x1c98	; 0x1c98 <__bad_interrupt>
     1a0:	0c 94 3c 32 	jmp	0x6478	; 0x6478 <__vector_104>
     1a4:	0c 94 14 32 	jmp	0x6428	; 0x6428 <__vector_105>
     1a8:	0c 94 4c 0e 	jmp	0x1c98	; 0x1c98 <__bad_interrupt>
     1ac:	0c 94 4c 0e 	jmp	0x1c98	; 0x1c98 <__bad_interrupt>
     1b0:	0c 94 5d 24 	jmp	0x48ba	; 0x48ba <__vector_108>
     1b4:	0c 94 4c 0e 	jmp	0x1c98	; 0x1c98 <__bad_interrupt>
     1b8:	0c 94 4c 0e 	jmp	0x1c98	; 0x1c98 <__bad_interrupt>
     1bc:	0c 94 4c 0e 	jmp	0x1c98	; 0x1c98 <__bad_interrupt>
     1c0:	0c 94 4c 0e 	jmp	0x1c98	; 0x1c98 <__bad_interrupt>
     1c4:	0c 94 4c 0e 	jmp	0x1c98	; 0x1c98 <__bad_interrupt>
     1c8:	0c 94 4c 0e 	jmp	0x1c98	; 0x1c98 <__bad_interrupt>
     1cc:	0c 94 4c 0e 	jmp	0x1c98	; 0x1c98 <__bad_interrupt>
     1d0:	0c 94 4c 0e 	jmp	0x1c98	; 0x1c98 <__bad_interrupt>
     1d4:	0c 94 4c 0e 	jmp	0x1c98	; 0x1c98 <__bad_interrupt>
     1d8:	0c 94 4c 0e 	jmp	0x1c98	; 0x1c98 <__bad_interrupt>
     1dc:	0c 94 4c 0e 	jmp	0x1c98	; 0x1c98 <__bad_interrupt>
     1e0:	0c 94 4c 0e 	jmp	0x1c98	; 0x1c98 <__bad_interrupt>
     1e4:	0c 94 4c 0e 	jmp	0x1c98	; 0x1c98 <__bad_interrupt>
     1e8:	08 4a       	sbci	r16, 0xA8	; 168
     1ea:	d7 3b       	cpi	r29, 0xB7	; 183
     1ec:	3b ce       	rjmp	.-906    	; 0xfffffe64 <__eeprom_end+0xff7efe64>
     1ee:	01 6e       	ori	r16, 0xE1	; 225
     1f0:	84 bc       	out	0x24, r8	; 36
     1f2:	bf fd       	.word	0xfdbf	; ????
     1f4:	c1 2f       	mov	r28, r17
     1f6:	3d 6c       	ori	r19, 0xCD	; 205
     1f8:	74 31       	cpi	r23, 0x14	; 20
     1fa:	9a bd       	out	0x2a, r25	; 42
     1fc:	56 83       	std	Z+6, r21	; 0x06
     1fe:	3d da       	rcall	.-2950   	; 0xfffff67a <__eeprom_end+0xff7ef67a>
     200:	3d 00       	.word	0x003d	; ????
     202:	c7 7f       	andi	r28, 0xF7	; 247
     204:	11 be       	out	0x31, r1	; 49
     206:	d9 e4       	ldi	r29, 0x49	; 73
     208:	bb 4c       	sbci	r27, 0xCB	; 203
     20a:	3e 91       	ld	r19, -X
     20c:	6b aa       	std	Y+51, r6	; 0x33
     20e:	aa be       	out	0x3a, r10	; 58
     210:	00 00       	nop
     212:	00 80       	ld	r0, Z
     214:	3f 05       	cpc	r19, r15
     216:	a8 4c       	sbci	r26, 0xC8	; 200
     218:	cd b2       	in	r12, 0x1d	; 29
     21a:	d4 4e       	sbci	r29, 0xE4	; 228
     21c:	b9 38       	cpi	r27, 0x89	; 137
     21e:	36 a9       	ldd	r19, Z+54	; 0x36
     220:	02 0c       	add	r0, r2
     222:	50 b9       	out	0x00, r21	; 0
     224:	91 86       	std	Z+9, r9	; 0x09
     226:	88 08       	sbc	r8, r8
     228:	3c a6       	std	Y+44, r3	; 0x2c
     22a:	aa aa       	std	Y+50, r10	; 0x32
     22c:	2a be       	out	0x3a, r2	; 58
     22e:	00 00       	nop
     230:	00 80       	ld	r0, Z
     232:	3f 6e       	ori	r19, 0xEF	; 239

00000233 <__c.1790>:
     233:	6e 61 6e 00                                         nan.

00000237 <__c.1788>:
     237:	69 6e 66 00                                         inf.

0000023b <cfgMsgXaxis>:
     23b:	58 00                                               X.

0000023d <cfgMsgYaxis>:
     23d:	59 00                                               Y.

0000023f <cfgMsgZaxis>:
     23f:	5a 00                                               Z.

00000241 <cfgMsgAaxis>:
     241:	41 00                                               A.

00000243 <cfgMsgs>:
     243:	3b 02 3d 02 3f 02 41 02                             ;.=.?.A.

0000024b <configs_P>:
     24b:	6d 6d 5f 70 65 72 5f 61 72 63 5f 73 65 67 6d 65     mm_per_arc_segme
     25b:	6e 74 20 3d 20 30 2e 32 20 0a 78 5f 73 65 65 6b     nt = 0.2 .x_seek
     26b:	5f 73 74 65 70 73 5f 73 65 63 20 3d 20 31 30 30     _steps_sec = 100
     27b:	30 20 0a 79 5f 73 65 65 6b 5f 73 74 65 70 73 5f     0 .y_seek_steps_
     28b:	73 65 63 20 3d 20 31 31 30 30 20 0a 7a 5f 73 65     sec = 1100 .z_se
     29b:	65 6b 5f 73 74 65 70 73 5f 73 65 63 20 3d 20 31     ek_steps_sec = 1
     2ab:	32 30 30 20 0a 61 5f 73 65 65 6b 5f 73 74 65 70     200 .a_seek_step
     2bb:	73 5f 73 65 63 20 3d 20 31 33 30 30 20 0a 78 5f     s_sec = 1300 .x_
     2cb:	66 65 65 64 5f 73 74 65 70 73 5f 73 65 63 20 3d     feed_steps_sec =
     2db:	20 36 30 30 20 0a 79 5f 66 65 65 64 5f 73 74 65      600 .y_feed_ste
     2eb:	70 73 5f 73 65 63 20 3d 20 37 30 30 20 0a 7a 5f     ps_sec = 700 .z_
     2fb:	66 65 65 64 5f 73 74 65 70 73 5f 73 65 63 20 3d     feed_steps_sec =
     30b:	20 38 30 30 20 0a 61 5f 66 65 65 64 5f 73 74 65      800 .a_feed_ste
     31b:	70 73 5f 73 65 63 20 3d 20 39 30 30 20 0a 78 5f     ps_sec = 900 .x_
     32b:	64 65 67 72 65 65 5f 73 74 65 70 20 3d 20 30 2e     degree_step = 0.
     33b:	39 09 0a 78 5f 6d 6d 5f 72 65 76 20 3d 20 35 2e     9..x_mm_rev = 5.
     34b:	30 20 0a 78 5f 6d 6d 5f 74 72 61 76 65 6c 09 3d     0 .x_mm_travel.=
     35b:	20 34 31 30 20 0a 7a 5f 6d 69 63 72 6f 73 74 65      410 .z_microste
     36b:	70 09 3d 20 32 09 20 0a 78 5f 6c 6f 77 5f 70 77     p.= 2. .x_low_pw
     37b:	72 5f 69 64 6c 65 20 3d 20 30 20 0a 78 5f 6c 69     r_idle = 0 .x_li
     38b:	6d 69 74 5f 65 6e 61 62 6c 65 3d 09 30 00           mit_enable=.0.

00000399 <__c.3831>:
     399:	49 6c 6c 65 67 61 6c 20 41 72 63 20 53 74 61 74     Illegal Arc Stat
     3a9:	65 6d 65 6e 74 3a 20 25 73 0a 00                    ement: %s..

000003b4 <__c.3828>:
     3b4:	46 6c 6f 61 74 69 6e 67 20 50 6f 69 6e 74 20 45     Floating Point E
     3c4:	72 72 6f 72 3a 20 25 73 0a 00                       rror: %s..

000003ce <__c.3825>:
     3ce:	55 6e 72 65 63 6f 67 6e 69 7a 65 64 20 43 6f 6d     Unrecognized Com
     3de:	6d 61 6e 64 3a 20 25 73 0a 00                       mand: %s..

000003e8 <__c.3822>:
     3e8:	42 61 64 20 4e 75 6d 62 65 72 20 46 6f 72 6d 61     Bad Number Forma
     3f8:	74 3a 20 25 73 0a 00                                t: %s..

000003ff <__c.3819>:
     3ff:	51 75 69 74 74 69 6e 67 20 43 6f 6e 66 69 67 20     Quitting Config 
     40f:	4d 6f 64 65 0a 00                                   Mode..

00000415 <__c.3816>:
     415:	43 6f 6e 66 69 67 20 43 6f 6e 74 69 6e 75 61 74     Config Continuat
     425:	69 6f 6e 20 66 6f 72 3a 20 25 73 0a 00              ion for: %s..

00000432 <__c.3748>:
     432:	20 28 73 74 65 70 73 5f 70 65 72 5f 6d 6d 3a 20      (steps_per_mm: 
     442:	20 20 20 25 37 2e 32 66 20 6d 69 63 72 6f 73 74        %7.2f microst
     452:	65 70 73 20 2f 20 6d 69 6c 6c 69 6d 65 74 65 72     eps / millimeter
     462:	29 0a 0a 00                                         )...

00000466 <__c.3746>:
     466:	20 20 70 6f 6c 61 72 69 74 79 3a 20 20 20 20 20       polarity:     
     476:	20 20 20 25 34 64 20 20 20 20 31 3d 69 6e 76 65        %4d    1=inve
     486:	72 74 65 64 2c 20 30 3d 6e 6f 72 6d 61 6c 0a 00     rted, 0=normal..

00000496 <__c.3744>:
     496:	20 20 6c 6f 77 5f 70 77 72 5f 69 64 6c 65 3a 20       low_pwr_idle: 
     4a6:	20 20 20 25 34 64 20 20 20 20 31 3d 65 6e 61 62        %4d    1=enab
     4b6:	6c 65 64 2c 20 30 3d 64 69 73 61 62 6c 65 64 0a     led, 0=disabled.
	...

000004c7 <__c.3742>:
     4c7:	20 20 6c 69 6d 69 74 5f 65 6e 61 62 6c 65 3a 20       limit_enable: 
     4d7:	20 20 20 25 34 64 20 20 20 20 31 3d 65 6e 61 62        %4d    1=enab
     4e7:	6c 65 64 2c 20 30 3d 64 69 73 61 62 6c 65 64 0a     led, 0=disabled.
	...

000004f8 <__c.3740>:
     4f8:	20 20 6d 6d 5f 74 72 61 76 65 6c 3a 20 20 20 20       mm_travel:    
     508:	20 20 20 25 37 2e 32 66 20 6d 69 6c 6c 69 6d 65        %7.2f millime
     518:	74 65 72 73 20 74 6f 74 61 6c 20 74 72 61 76 65     ters total trave
     528:	6c 0a 00                                            l..

0000052b <__c.3738>:
     52b:	20 20 6d 6d 5f 72 65 76 6f 6c 75 74 69 6f 6e 3a       mm_revolution:
     53b:	20 20 20 25 37 2e 32 66 20 6d 69 6c 6c 69 6d 65        %7.2f millime
     54b:	74 65 72 73 20 2f 20 72 65 76 6f 6c 75 74 69 6f     ters / revolutio
     55b:	6e 0a 00                                            n..

0000055e <__c.3736>:
     55e:	20 20 64 65 67 72 65 65 5f 70 65 72 5f 73 74 65       degree_per_ste
     56e:	70 3a 20 25 37 2e 32 66 20 64 65 67 72 65 65 73     p: %7.2f degrees
     57e:	20 2f 20 73 74 65 70 20 28 77 68 6f 6c 65 20 73      / step (whole s
     58e:	74 65 70 73 29 0a 00                                teps)..

00000595 <__c.3734>:
     595:	20 20 6d 69 63 72 6f 73 74 65 70 73 3a 20 20 20       microsteps:   
     5a5:	20 20 20 25 34 64 20 20 20 20 6d 69 63 72 6f 73        %4d    micros
     5b5:	74 65 70 73 20 2f 20 77 68 6f 6c 65 20 73 74 65     teps / whole ste
     5c5:	70 0a 00                                            p..

000005c8 <__c.3732>:
     5c8:	20 20 66 65 65 64 5f 73 74 65 70 73 5f 73 65 63       feed_steps_sec
     5d8:	3a 20 20 25 34 64 20 20 20 20 73 74 65 70 73 20     :  %4d    steps 
     5e8:	2f 20 73 65 63 6f 6e 64 20 28 77 68 6f 6c 65 20     / second (whole 
     5f8:	73 74 65 70 73 29 0a 00                             steps)..

00000600 <__c.3730>:
     600:	20 20 73 65 65 6b 5f 73 74 65 70 73 5f 73 65 63       seek_steps_sec
     610:	3a 20 20 25 34 64 20 20 20 20 73 74 65 70 73 20     :  %4d    steps 
     620:	2f 20 73 65 63 6f 6e 64 20 28 77 68 6f 6c 65 20     / second (whole 
     630:	73 74 65 70 73 29 0a 00                             steps)..

00000638 <__c.3725>:
     638:	25 53 20 41 78 69 73 20 43 6f 6e 66 69 67 75 72     %S Axis Configur
     648:	61 74 69 6f 6e 20 56 61 6c 75 65 73 0a 00           ation Values..

00000656 <__c.3711>:
     656:	20 28 64 65 66 61 75 6c 74 5f 66 65 65 64 5f 72      (default_feed_r
     666:	61 74 65 3a 20 20 25 35 2e 33 66 20 6d 6d 20 2f     ate:  %5.3f mm /
     676:	20 73 65 63 6f 6e 64 29 0a 0a 00                     second)...

00000681 <__c.3709>:
     681:	20 28 64 65 66 61 75 6c 74 5f 73 65 65 6b 5f 72      (default_seek_r
     691:	61 74 65 3a 20 20 25 35 2e 33 66 20 6d 6d 20 2f     ate:  %5.3f mm /
     6a1:	20 73 65 63 6f 6e 64 29 0a 00                        second)..

000006ab <__c.3707>:
     6ab:	20 20 6d 6d 5f 70 65 72 5f 61 72 63 5f 73 65 67       mm_per_arc_seg
     6bb:	6d 65 6e 74 3a 20 25 35 2e 33 66 20 6d 6d 20 2f     ment: %5.3f mm /
     6cb:	20 73 65 67 6d 65 6e 74 0a 00                        segment..

000006d5 <__c.3705>:
     6d5:	47 2d 63 6f 64 65 20 4d 6f 64 65 6c 20 43 6f 6e     G-code Model Con
     6e5:	66 69 67 75 72 61 74 69 6f 6e 20 56 61 6c 75 65     figuration Value
     6f5:	73 20 2d 2d 2d 0a 00                                s ---..

000006fc <__c.3703>:
     6fc:	0a 2a 2a 2a 2a 2a 20 43 4f 4e 46 49 47 55 52 41     .***** CONFIGURA
     70c:	54 49 4f 4e 20 5b 76 65 72 73 69 6f 6e 20 25 64     TION [version %d
     71c:	5d 20 2a 2a 2a 2a 0a 00                             ] ****..

00000724 <bsel>:
     724:	00 cf 67 33 22 21 1f 1b 13 01 01                    ..g3"!.....

0000072f <bscale>:
     72f:	00 00 00 00 00 f0 e0 d0 c0 10 01                    ...........

0000073a <__c.3505>:
     73a:	0a 0a 2a 2a 2a 2a 20 58 6d 65 67 61 20 49 4f 20     ..**** Xmega IO 
     74a:	73 75 62 73 79 73 74 65 6d 20 69 6e 69 74 69 61     subsystem initia
     75a:	6c 69 7a 65 64 20 2a 2a 2a 2a 0a 00                 lized ****..

00000766 <readlnFuncs>:
     766:	07 2a dc 29 dc 29 4e 2a dc 29 dc 29 dc 29 dc 29     .*.).)N*.).).).)
     776:	3a 2a dc 29 07 2a dc 29 dc 29 07 2a 69 2a 72 2a     :*.).*.).).*i*r*
     786:	dc 29 60 2a dc 29 57 2a dc 29 dc 29 dc 29 dc 29     .)`*.)W*.).).).)
     796:	4e 2a dc 29 dc 29 4e 2a dc 29 dc 29 dc 29 dc 29     N*.).)N*.).).).)
     7a6:	dc 29 dc 29 dc 29 dc 29 dc 29 dc 29 dc 29 dc 29     .).).).).).).).)
     7b6:	dc 29 dc 29 dc 29 dc 29 dc 29 dc 29 dc 29 dc 29     .).).).).).).).)
     7c6:	dc 29 dc 29 dc 29 dc 29 dc 29 dc 29 dc 29 dc 29     .).).).).).).).)
     7d6:	dc 29 dc 29 dc 29 30 2a dc 29 dc 29 dc 29 dc 29     .).).)0*.).).).)
     7e6:	dc 29 dc 29 dc 29 dc 29 dc 29 dc 29 dc 29 dc 29     .).).).).).).).)
     7f6:	dc 29 dc 29 dc 29 dc 29 dc 29 dc 29 dc 29 dc 29     .).).).).).).).)
     806:	dc 29 dc 29 dc 29 dc 29 dc 29 dc 29 dc 29 dc 29     .).).).).).).).)
     816:	dc 29 dc 29 dc 29 dc 29 dc 29 dc 29 dc 29 dc 29     .).).).).).).).)
     826:	dc 29 dc 29 dc 29 dc 29 dc 29 dc 29 dc 29 dc 29     .).).).).).).).)
     836:	dc 29 dc 29 dc 29 dc 29 dc 29 dc 29 dc 29 dc 29     .).).).).).).).)
     846:	dc 29 dc 29 dc 29 dc 29 dc 29 dc 29 dc 29 dc 29     .).).).).).).).)
     856:	dc 29 dc 29 dc 29 dc 29 dc 29 dc 29 dc 29 3a 2a     .).).).).).).):*

00000866 <getcFuncs>:
     866:	5b 29 4b 29 4b 29 80 29 4b 29 4b 29 4b 29 4b 29     [)K)K).)K)K)K)K)
     876:	7a 29 4b 29 5b 29 4b 29 4b 29 5b 29 92 29 98 29     z)K)[)K)K)[).).)
     886:	4b 29 8c 29 4b 29 86 29 4b 29 4b 29 4b 29 4b 29     K).)K).)K)K)K)K)
     896:	80 29 4b 29 4b 29 80 29 4b 29 4b 29 4b 29 4b 29     .)K)K).)K)K)K)K)
     8a6:	4b 29 4b 29 4b 29 4b 29 4b 29 4b 29 4b 29 4b 29     K)K)K)K)K)K)K)K)
     8b6:	4b 29 4b 29 4b 29 4b 29 4b 29 4b 29 4b 29 4b 29     K)K)K)K)K)K)K)K)
     8c6:	4b 29 4b 29 4b 29 4b 29 4b 29 4b 29 4b 29 4b 29     K)K)K)K)K)K)K)K)
     8d6:	4b 29 4b 29 4b 29 70 29 4b 29 4b 29 4b 29 4b 29     K)K)K)p)K)K)K)K)
     8e6:	4b 29 4b 29 4b 29 4b 29 4b 29 4b 29 4b 29 4b 29     K)K)K)K)K)K)K)K)
     8f6:	4b 29 4b 29 4b 29 4b 29 4b 29 4b 29 4b 29 4b 29     K)K)K)K)K)K)K)K)
     906:	4b 29 4b 29 4b 29 4b 29 4b 29 4b 29 4b 29 4b 29     K)K)K)K)K)K)K)K)
     916:	4b 29 4b 29 4b 29 4b 29 4b 29 4b 29 4b 29 4b 29     K)K)K)K)K)K)K)K)
     926:	4b 29 4b 29 4b 29 4b 29 4b 29 4b 29 4b 29 4b 29     K)K)K)K)K)K)K)K)
     936:	4b 29 4b 29 4b 29 4b 29 4b 29 4b 29 4b 29 4b 29     K)K)K)K)K)K)K)K)
     946:	4b 29 4b 29 4b 29 4b 29 4b 29 4b 29 4b 29 4b 29     K)K)K)K)K)K)K)K)
     956:	4b 29 4b 29 4b 29 4b 29 4b 29 4b 29 4b 29 7a 29     K)K)K)K)K)K)K)z)

00000966 <square_test1>:
     966:	67 31 20 66 33 33 33 20 78 30 20 79 30 0a 78 31     g1 f333 x0 y0.x1
     976:	20 79 30 0a 78 31 20 79 31 0a 78 30 20 79 31 0a      y0.x1 y1.x0 y1.
     986:	78 30 20 79 30 0a 78 31 20 79 30 0a 78 31 20 79     x0 y0.x1 y0.x1 y
     996:	31 0a 78 30 20 79 31 0a 78 30 20 79 30 0a 78 31     1.x0 y1.x0 y0.x1
     9a6:	20 79 30 0a 78 31 20 79 31 0a 78 30 20 79 31 0a      y0.x1 y1.x0 y1.
     9b6:	78 30 20 79 30 0a 78 31 20 79 30 0a 78 31 20 79     x0 y0.x1 y0.x1 y
     9c6:	31 0a 78 30 20 79 31 0a 78 30 20 79 30 00           1.x0 y1.x0 y0.

000009d4 <square_test2>:
     9d4:	67 31 20 66 33 33 33 20 78 30 20 79 30 0a 78 32     g1 f333 x0 y0.x2
     9e4:	20 79 30 0a 78 32 20 79 32 0a 78 30 20 79 32 0a      y0.x2 y2.x0 y2.
     9f4:	78 30 20 79 30 00                                   x0 y0.

000009fa <square_test10>:
     9fa:	67 31 20 66 33 33 33 20 78 2d 31 30 20 79 2d 35     g1 f333 x-10 y-5
     a0a:	0a 78 31 30 20 79 31 30 0a 78 30 20 79 31 30 0a     .x10 y10.x0 y10.
     a1a:	78 30 20 79 30 0a 78 35 20 79 35 00                 x0 y0.x5 y5.

00000a26 <circle_test10>:
     a26:	67 31 20 66 33 33 33 20 78 30 20 79 35 0a 67 33     g1 f333 x0 y5.g3
     a36:	20 66 33 33 33 20 78 31 30 20 79 35 20 69 30 20      f333 x10 y5 i0 
     a46:	6a 35 0a 67 33 20 78 35 20 79 31 30 20 69 2d 35     j5.g3 x5 y10 i-5
     a56:	20 6a 30 0a 67 33 20 78 30 20 79 35 20 69 30 20      j0.g3 x0 y5 i0 
     a66:	6a 2d 35 0a 67 33 20 78 35 20 79 30 20 69 35 20     j-5.g3 x5 y0 i5 
     a76:	6a 30 0a 67 31 20 66 33 33 33 20 78 31 30 20 79     j0.g1 f333 x10 y
     a86:	30 00                                               0.

00000a88 <square_circle_test10>:
     a88:	67 31 20 66 33 33 33 20 78 31 30 20 79 30 0a 78     g1 f333 x10 y0.x
     a98:	31 30 20 79 31 30 0a 78 30 20 79 31 30 0a 78 30     10 y10.x0 y10.x0
     aa8:	20 79 30 0a 78 35 0a 67 33 20 78 31 30 20 79 35      y0.x5.g3 x10 y5
     ab8:	20 69 30 20 6a 35 0a 67 33 20 78 35 20 79 31 30      i0 j5.g3 x5 y10
     ac8:	20 69 2d 35 20 6a 30 0a 67 33 20 78 30 20 79 35      i-5 j0.g3 x0 y5
     ad8:	20 69 30 20 6a 2d 35 0a 67 33 20 78 35 20 79 30      i0 j-5.g3 x5 y0
     ae8:	20 69 35 20 6a 30 0a 67 31 20 66 33 33 33 20 78      i5 j0.g1 f333 x
     af8:	31 30 20 79 30 00                                   10 y0.

00000afe <square_circle_test100>:
     afe:	67 31 20 66 33 33 33 20 78 31 30 30 20 79 30 0a     g1 f333 x100 y0.
     b0e:	78 31 30 30 20 79 31 30 30 0a 78 30 20 79 31 30     x100 y100.x0 y10
     b1e:	30 0a 78 30 20 79 30 0a 78 35 30 0a 67 33 20 78     0.x0 y0.x50.g3 x
     b2e:	31 30 30 20 79 35 30 20 69 30 20 6a 35 30 0a 67     100 y50 i0 j50.g
     b3e:	33 20 78 35 30 20 79 31 30 30 20 69 2d 35 30 20     3 x50 y100 i-50 
     b4e:	6a 30 0a 67 33 20 78 30 20 79 35 30 20 69 30 20     j0.g3 x0 y50 i0 
     b5e:	6a 2d 35 30 0a 67 33 20 78 35 30 20 79 30 20 69     j-50.g3 x50 y0 i
     b6e:	35 30 20 6a 30 00                                   50 j0.

00000b74 <spiral_test5>:
     b74:	67 31 20 66 33 30 30 20 78 2e 35 20 79 30 0a 67     g1 f300 x.5 y0.g
     b84:	32 78 31 59 30 49 30 4a 30 0a 67 32 78 31 2e 35     2x1Y0I0J0.g2x1.5
     b94:	59 30 49 30 4a 30 0a 67 32 78 32 59 30 49 30 4a     Y0I0J0.g2x2Y0I0J
     ba4:	30 0a 67 32 78 32 2e 35 59 30 49 30 4a 30 0a 67     0.g2x2.5Y0I0J0.g
     bb4:	32 78 33 59 30 49 30 4a 30 0a 67 32 78 33 2e 35     2x3Y0I0J0.g2x3.5
     bc4:	59 30 49 30 4a 30 0a 67 32 78 34 59 30 49 30 4a     Y0I0J0.g2x4Y0I0J
     bd4:	30 0a 67 32 78 34 2e 35 59 30 49 30 4a 30 0a 67     0.g2x4.5Y0I0J0.g
     be4:	32 78 35 59 30 49 30 4a 30 00                       2x5Y0I0J0.

00000bee <spiral_test50a>:
     bee:	67 31 20 66 33 33 33 20 78 30 20 79 30 0a 67 33     g1 f333 x0 y0.g3
     bfe:	20 78 35 30 20 79 35 30 20 69 30 20 6a 35 30 00      x50 y50 i0 j50.

00000c0e <g0_test1>:
     c0e:	67 30 20 78 31 30 20 79 32 30 20 7a 33 30 0a 67     g0 x10 y20 z30.g
     c1e:	30 20 78 30 20 79 32 31 20 7a 2d 33 34 2e 32 00     0 x0 y21 z-34.2.

00000c2e <g0_test2>:
     c2e:	67 30 20 78 31 30 20 79 32 30 20 7a 34 30 0a 67     g0 x10 y20 z40.g
     c3e:	30 20 78 30 20 79 30 20 7a 30 0a 67 30 20 78 31     0 x0 y0 z0.g0 x1
     c4e:	30 20 79 32 30 20 7a 34 30 0a 67 30 20 78 30 20     0 y20 z40.g0 x0 
     c5e:	79 30 20 7a 30 00                                   y0 z0.

00000c64 <g0_test3>:
     c64:	67 31 20 66 33 30 30 20 78 31 20 79 32 20 7a 33     g1 f300 x1 y2 z3
     c74:	0a 67 31 20 78 32 20 79 34 20 7a 36 0a 67 31 20     .g1 x2 y4 z6.g1 
     c84:	78 34 30 20 79 2d 36 37 20 7a 2d 31 32 00           x40 y-67 z-12.

00000c92 <radius_arc_test1>:
     c92:	67 31 20 66 33 30 30 20 78 31 20 79 31 0a 67 32     g1 f300 x1 y1.g2
     ca2:	20 66 33 32 30 20 78 31 30 31 20 79 31 30 31 20      f320 x101 y101 
     cb2:	72 35 30 0a 00                                      r50..

00000cb7 <radius_arc_test2>:
     cb7:	67 32 0a 00                                         g2..

00000cbb <zoetrope>:
     cbb:	47 39 30 0a 46 33 32 30 0a 47 31 20 58 2d 32 37     G90.F320.G1 X-27
     ccb:	2e 37 38 31 34 20 59 31 31 2e 33 32 32 32 20 0a     .7814 Y11.3222 .
     cdb:	47 31 20 58 2d 31 33 2e 37 39 35 32 20 59 31 2e     G1 X-13.7952 Y1.
     ceb:	39 39 38 30 33 20 0a 47 31 20 58 2d 32 37 2e 37     99803 .G1 X-27.7
     cfb:	38 31 34 20 59 31 31 2e 33 32 32 32 20 0a 47 31     814 Y11.3222 .G1
     d0b:	20 58 2d 32 37 2e 37 38 31 34 20 59 31 2e 39 39      X-27.7814 Y1.99
     d1b:	38 30 33 20 0a 47 31 20 58 2d 32 37 2e 37 38 31     803 .G1 X-27.781
     d2b:	34 20 59 31 31 2e 33 32 32 32 20 0a 47 31 20 58     4 Y11.3222 .G1 X
     d3b:	2d 32 37 2e 37 38 31 34 20 59 31 2e 39 39 38 30     -27.7814 Y1.9980
     d4b:	33 20 0a 47 31 20 58 2d 31 33 2e 37 39 35 32 20     3 .G1 X-13.7952 
     d5b:	59 31 2e 39 39 38 30 33 20 0a 47 31 20 58 2d 31     Y1.99803 .G1 X-1
     d6b:	33 2e 37 39 35 32 20 59 31 31 2e 33 32 32 32 20     3.7952 Y11.3222 
     d7b:	0a 47 31 20 58 2d 31 33 2e 37 39 35 32 20 59 31     .G1 X-13.7952 Y1
     d8b:	2e 39 39 38 30 33 20 0a 47 31 20 58 2d 31 30 2e     .99803 .G1 X-10.
     d9b:	38 30 35 35 20 59 32 31 2e 31 32 31 39 20 0a 47     8055 Y21.1219 .G
     dab:	31 20 58 2d 31 31 2e 33 39 36 31 20 59 31 39 2e     1 X-11.3961 Y19.
     dbb:	37 35 34 38 20 0a 47 31 20 58 2d 31 31 2e 35 35     7548 .G1 X-11.55
     dcb:	38 20 59 31 37 2e 38 37 38 20 0a 47 31 20 58 2d     8 Y17.878 .G1 X-
     ddb:	31 30 2e 37 38 31 34 20 59 31 35 2e 39 32 30 32     10.7814 Y15.9202
     deb:	20 0a 47 31 20 58 2d 39 2e 39 32 33 39 36 20 59      .G1 X-9.92396 Y
     dfb:	31 34 2e 39 30 30 39 20 0a 47 31 20 58 2d 38 2e     14.9009 .G1 X-8.
     e0b:	31 32 38 30 39 20 59 31 33 2e 38 30 30 37 20 0a     12809 Y13.8007 .
     e1b:	47 31 20 58 2d 36 2e 32 35 31 32 39 20 59 31 33     G1 X-6.25129 Y13
     e2b:	2e 36 33 38 38 20 0a 47 31 20 58 2d 34 2e 38 30     .6388 .G1 X-4.80
     e3b:	33 32 34 20 59 31 33 2e 39 38 36 36 20 0a 47 31     324 Y13.9866 .G1
     e4b:	20 58 2d 33 2e 32 37 34 32 35 20 59 31 35 2e 32      X-3.27425 Y15.2
     e5b:	37 32 38 20 0a 47 31 20 58 2d 32 2e 36 38 33 36     728 .G1 X-2.6836
     e6b:	37 20 59 31 36 2e 36 34 20 0a 47 31 20 58 2d 32     7 Y16.64 .G1 X-2
     e7b:	2e 35 32 31 38 32 20 59 31 38 2e 35 31 36 38 20     .52182 Y18.5168 
     e8b:	0a 47 31 20 58 2d 33 2e 32 39 38 33 37 20 59 32     .G1 X-3.29837 Y2
     e9b:	30 2e 34 37 34 35 20 0a 47 31 20 58 2d 34 2e 31     0.4745 .G1 X-4.1
     eab:	35 35 38 34 20 59 32 31 2e 34 39 33 38 20 0a 47     5584 Y21.4938 .G
     ebb:	31 20 58 2d 35 2e 39 35 31 37 31 20 59 32 32 2e     1 X-5.95171 Y22.
     ecb:	35 39 34 31 20 0a 47 31 20 58 2d 37 2e 38 32 38     5941 .G1 X-7.828
     edb:	35 20 59 32 32 2e 37 35 35 39 20 0a 47 31 20 58     5 Y22.7559 .G1 X
     eeb:	2d 39 2e 32 37 36 35 36 20 59 32 32 2e 34 30 38     -9.27656 Y22.408
     efb:	31 20 0a 47 31 20 58 2d 31 30 2e 38 30 35 35 20     1 .G1 X-10.8055 
     f0b:	59 32 31 2e 31 32 31 39 20 0a 47 31 20 58 34 2e     Y21.1219 .G1 X4.
     f1b:	32 37 35 37 36 20 59 31 38 2e 37 34 36 20 0a 47     27576 Y18.746 .G
     f2b:	31 20 58 31 32 2e 32 31 30 33 20 59 31 37 2e 37     1 X12.2103 Y17.7
     f3b:	38 38 20 0a 47 31 20 58 31 32 2e 33 36 39 39 20     88 .G1 X12.3699 
     f4b:	59 31 39 2e 31 31 30 34 20 0a 47 31 20 58 31 31     Y19.1104 .G1 X11
     f5b:	2e 38 36 38 34 20 59 32 30 2e 35 31 32 37 20 0a     .8684 Y20.5127 .
     f6b:	47 31 20 58 31 31 2e 32 38 37 20 59 32 31 2e 32     G1 X11.287 Y21.2
     f7b:	35 33 37 20 0a 47 31 20 58 31 30 2e 30 34 34 34     537 .G1 X10.0444
     f8b:	20 59 32 32 2e 30 37 34 36 20 0a 47 31 20 58 38      Y22.0746 .G1 X8
     f9b:	2e 30 36 30 37 37 20 59 32 32 2e 33 31 34 31 20     .06077 Y22.3141 
     fab:	0a 47 31 20 58 36 2e 36 35 38 35 33 20 59 32 31     .G1 X6.65853 Y21
     fbb:	2e 38 31 32 35 20 0a 47 31 20 58 35 2e 31 37 36     .8125 .G1 X5.176
     fcb:	34 35 20 59 32 30 2e 36 34 39 38 20 0a 47 31 20     45 Y20.6498 .G1 
     fdb:	58 34 2e 32 37 35 37 36 20 59 31 38 2e 37 34 36     X4.27576 Y18.746
     feb:	20 0a 47 31 20 58 34 2e 31 31 36 31 20 59 31 37      .G1 X4.1161 Y17
     ffb:	2e 34 32 33 35 20 0a 47 31 20 58 34 2e 35 33 37     .4235 .G1 X4.537
    100b:	38 33 20 59 31 35 2e 33 36 30 31 20 0a 47 31 20     83 Y15.3601 .G1 
    101b:	58 35 2e 37 30 30 35 39 20 59 31 33 2e 38 37 38     X5.70059 Y13.878
    102b:	20 0a 47 31 20 58 36 2e 39 34 33 31 37 20 59 31      .G1 X6.94317 Y1
    103b:	33 2e 30 35 37 32 20 0a 47 31 20 58 38 2e 39 32     3.0572 .G1 X8.92
    104b:	36 38 20 59 31 32 2e 38 31 37 37 20 0a 47 31 20     68 Y12.8177 .G1 
    105b:	58 31 30 2e 33 32 39 20 59 31 33 2e 33 31 39 32     X10.329 Y13.3192
    106b:	20 0a 47 31 20 58 31 31 2e 38 31 31 31 20 59 31      .G1 X11.8111 Y1
    107b:	34 2e 34 38 32 20 0a 47 31 20 58 32 33 2e 36 35     4.482 .G1 X23.65
    108b:	30 39 20 59 31 34 2e 39 35 31 20 0a 47 31 20 58     09 Y14.951 .G1 X
    109b:	31 34 2e 38 36 38 37 20 59 37 2e 38 30 35 30 39     14.8687 Y7.80509
    10ab:	20 0a 47 31 20 58 31 33 2e 37 33 39 32 20 59 36      .G1 X13.7392 Y6
    10bb:	2e 30 32 37 34 35 20 0a 47 31 20 58 31 34 2e 30     .02745 .G1 X14.0
    10cb:	36 33 33 20 59 34 2e 35 37 33 39 20 0a 47 31 20     633 Y4.5739 .G1 
    10db:	58 31 34 2e 39 30 34 20 59 33 2e 35 34 30 37 20     X14.904 Y3.5407 
    10eb:	0a 47 31 20 58 31 38 2e 37 37 33 37 20 59 31 33     .G1 X18.7737 Y13
    10fb:	2e 35 35 38 34 20 0a 47 31 20 58 32 31 2e 37 31     .5584 .G1 X21.71
    110b:	36 31 20 59 39 2e 39 34 32 31 34 20 0a 47 31 20     61 Y9.94214 .G1 
    111b:	58 31 38 2e 37 37 33 37 20 59 31 33 2e 35 35 38     X18.7737 Y13.558
    112b:	34 20 0a 47 31 20 58 32 33 2e 32 33 35 32 20 59     4 .G1 X23.2352 Y
    113b:	31 2e 33 31 35 33 33 20 0a 47 31 20 58 31 34 2e     1.31533 .G1 X14.
    114b:	30 34 37 34 20 59 2d 30 2e 32 37 33 38 34 38 20     0474 Y-0.273848 
    115b:	0a 47 31 20 58 32 33 2e 32 33 35 32 20 59 31 2e     .G1 X23.2352 Y1.
    116b:	33 31 35 33 33 20 0a 47 31 20 58 31 39 2e 32 39     31533 .G1 X19.29
    117b:	37 36 20 59 30 2e 36 33 34 32 35 32 20 0a 47 31     76 Y0.634252 .G1
    118b:	20 58 32 31 2e 33 37 39 39 20 59 30 2e 33 31 38      X21.3799 Y0.318
    119b:	35 32 34 20 0a 47 31 20 58 32 32 2e 39 31 39 34     524 .G1 X22.9194
    11ab:	20 59 2d 30 2e 37 36 36 39 38 31 20 0a 47 31 20      Y-0.766981 .G1 
    11bb:	58 32 33 2e 38 30 32 37 20 59 2d 31 2e 39 36 36     X23.8027 Y-1.966
    11cb:	20 0a 47 31 20 58 32 34 2e 31 34 33 33 20 59 2d      .G1 X24.1433 Y-
    11db:	33 2e 39 33 34 38 20 0a 47 31 20 58 31 38 2e 36     3.9348 .G1 X18.6
    11eb:	39 31 33 20 59 2d 31 34 2e 36 31 32 37 20 0a 47     913 Y-14.6127 .G
    11fb:	31 20 58 31 38 2e 36 35 31 37 20 59 2d 31 33 2e     1 X18.6517 Y-13.
    120b:	31 32 33 39 20 0a 47 31 20 58 31 38 2e 30 30 38     1239 .G1 X18.008
    121b:	36 20 59 2d 31 31 2e 33 35 33 33 20 0a 47 31 20     6 Y-11.3533 .G1 
    122b:	58 31 36 2e 34 38 30 33 20 59 2d 39 2e 39 30 34     X16.4803 Y-9.904
    123b:	32 35 20 0a 47 31 20 58 31 35 2e 32 37 33 34 20     25 .G1 X15.2734 
    124b:	59 2d 39 2e 33 34 30 34 36 20 0a 47 31 20 58 31     Y-9.34046 .G1 X1
    125b:	33 2e 31 38 31 33 20 59 2d 39 2e 30 39 38 32 20     3.1813 Y-9.0982 
    126b:	0a 47 31 20 58 31 31 2e 34 31 30 37 20 59 2d 39     .G1 X11.4107 Y-9
    127b:	2e 37 34 31 32 35 20 0a 47 31 20 58 31 30 2e 32     .74125 .G1 X10.2
    128b:	34 33 35 20 59 2d 31 30 2e 36 36 36 32 20 0a 47     435 Y-10.6662 .G
    129b:	31 20 58 39 2e 33 39 37 38 34 20 59 2d 31 32 2e     1 X9.39784 Y-12.
    12ab:	34 37 36 34 20 0a 47 31 20 58 39 2e 34 33 37 34     4764 .G1 X9.4374
    12bb:	37 20 59 2d 31 33 2e 39 36 35 31 20 0a 47 31 20     7 Y-13.9651 .G1 
    12cb:	58 31 30 2e 30 38 30 35 20 59 2d 31 35 2e 37 33     X10.0805 Y-15.73
    12db:	35 37 20 0a 47 31 20 58 31 31 2e 36 30 38 39 20     57 .G1 X11.6089 
    12eb:	59 2d 31 37 2e 31 38 34 38 20 0a 47 31 20 58 31     Y-17.1848 .G1 X1
    12fb:	32 2e 38 31 35 37 20 59 2d 31 37 2e 37 34 38 36     2.8157 Y-17.7486
    130b:	20 0a 47 31 20 58 31 34 2e 39 30 37 38 20 59 2d      .G1 X14.9078 Y-
    131b:	31 37 2e 39 39 30 39 20 0a 47 31 20 58 31 36 2e     17.9909 .G1 X16.
    132b:	36 37 38 34 20 59 2d 31 37 2e 33 34 37 38 20 0a     6784 Y-17.3478 .
    133b:	47 31 20 58 31 37 2e 38 34 35 36 20 59 2d 31 36     G1 X17.8456 Y-16
    134b:	2e 34 32 32 39 20 0a 47 31 20 58 31 38 2e 36 39     .4229 .G1 X18.69
    135b:	31 33 20 59 2d 31 34 2e 36 31 32 37 20 0a 47 31     13 Y-14.6127 .G1
    136b:	20 58 34 2e 36 31 32 34 36 20 59 2d 32 32 2e 38      X4.61246 Y-22.8
    137b:	31 30 37 20 0a 47 31 20 58 30 2e 32 38 39 34 31     107 .G1 X0.28941
    138b:	35 20 59 2d 39 2e 35 30 39 33 37 20 0a 47 31 20     5 Y-9.50937 .G1 
    139b:	58 34 2e 36 31 32 34 36 20 59 2d 32 32 2e 38 31     X4.61246 Y-22.81
    13ab:	30 37 20 0a 47 31 20 58 33 2e 39 39 34 38 38 20     07 .G1 X3.99488 
    13bb:	59 2d 32 30 2e 39 31 30 35 20 0a 47 31 20 58 33     Y-20.9105 .G1 X3
    13cb:	2e 31 33 39 38 31 20 59 2d 32 32 2e 35 38 39 20     .13981 Y-22.589 
    13db:	0a 47 31 20 58 32 2e 30 37 38 38 37 20 59 2d 32     .G1 X2.07887 Y-2
    13eb:	33 2e 36 33 34 31 20 0a 47 31 20 58 30 2e 31 37     3.6341 .G1 X0.17
    13fb:	38 36 38 34 20 59 2d 32 34 2e 32 35 31 37 20 0a     8684 Y-24.2517 .
    140b:	47 31 20 58 2d 31 2e 32 39 33 39 37 20 59 2d 32     G1 X-1.29397 Y-2
    141b:	34 2e 30 33 20 0a 47 31 20 58 2d 32 2e 39 37 32     4.03 .G1 X-2.972
    142b:	34 38 20 59 2d 32 33 2e 31 37 35 20 0a 47 31 20     48 Y-23.175 .G1 
    143b:	58 2d 34 2e 32 32 33 34 35 20 59 2d 32 31 2e 34     X-4.22345 Y-21.4
    144b:	38 30 36 20 0a 47 31 20 58 2d 34 2e 36 33 35 31     806 .G1 X-4.6351
    145b:	37 20 59 2d 32 30 2e 32 31 33 38 20 0a 47 31 20     7 Y-20.2138 .G1 
    146b:	58 2d 34 2e 36 31 39 33 35 20 59 2d 31 38 2e 31     X-4.61935 Y-18.1
    147b:	30 37 38 20 0a 47 31 20 58 2d 33 2e 37 36 34 32     078 .G1 X-3.7642
    148b:	38 20 59 2d 31 36 2e 34 32 39 33 20 0a 47 31 20     8 Y-16.4293 .G1 
    149b:	58 2d 32 2e 37 30 33 33 35 20 59 2d 31 35 2e 33     X-2.70335 Y-15.3
    14ab:	38 34 32 20 0a 47 31 20 58 2d 30 2e 38 30 33 31     842 .G1 X-0.8031
    14bb:	35 36 20 59 2d 31 34 2e 37 36 36 36 20 0a 47 31     56 Y-14.7666 .G1
    14cb:	20 58 30 2e 36 36 39 34 39 36 20 59 2d 31 34 2e      X0.669496 Y-14.
    14db:	39 38 38 33 20 0a 47 31 20 58 32 2e 33 34 38 30     9883 .G1 X2.3480
    14eb:	31 20 59 2d 31 35 2e 38 34 33 33 20 0a 47 31 20     1 Y-15.8433 .G1 
    14fb:	58 2d 31 30 2e 39 34 37 39 20 59 2d 31 35 2e 38     X-10.9479 Y-15.8
    150b:	30 36 32 20 0a 47 31 20 58 2d 31 37 2e 39 35 35     062 .G1 X-17.955
    151b:	33 20 59 2d 31 31 2e 39 36 32 39 20 0a 47 31 20     3 Y-11.9629 .G1 
    152b:	58 2d 31 38 2e 35 39 35 39 20 59 2d 31 33 2e 31     X-18.5959 Y-13.1
    153b:	33 30 38 20 0a 47 31 20 58 2d 31 38 2e 36 35 32     308 .G1 X-18.652
    154b:	35 20 59 2d 31 34 2e 36 31 39 20 0a 47 31 20 58     5 Y-14.619 .G1 X
    155b:	2d 31 38 2e 33 38 38 38 20 59 2d 31 35 2e 35 32     -18.3888 Y-15.52
    156b:	33 32 20 0a 47 31 20 58 2d 31 37 2e 35 34 31 32     32 .G1 X-17.5412
    157b:	20 59 2d 31 36 2e 37 34 37 37 20 0a 47 31 20 58      Y-16.7477 .G1 X
    158b:	2d 31 35 2e 37 38 39 33 20 59 2d 31 37 2e 37 30     -15.7893 Y-17.70
    159b:	38 35 20 0a 47 31 20 58 2d 31 34 2e 33 30 31 31     85 .G1 X-14.3011
    15ab:	20 59 2d 31 37 2e 37 36 35 31 20 0a 47 31 20 58      Y-17.7651 .G1 X
    15bb:	2d 31 32 2e 34 39 32 37 20 59 2d 31 37 2e 32 33     -12.4927 Y-17.23
    15cb:	37 38 20 0a 47 31 20 58 2d 31 30 2e 39 34 37 39     78 .G1 X-10.9479
    15db:	20 59 2d 31 35 2e 38 30 36 32 20 0a 47 31 20 58      Y-15.8062 .G1 X
    15eb:	2d 31 30 2e 33 30 37 34 20 59 2d 31 34 2e 36 33     -10.3074 Y-14.63
    15fb:	38 33 20 0a 47 31 20 58 2d 39 2e 39 33 30 35 32     83 .G1 X-9.93052
    160b:	20 59 2d 31 32 2e 35 36 36 32 20 0a 47 31 20 58      Y-12.5662 .G1 X
    161b:	2d 31 30 2e 34 35 37 39 20 59 2d 31 30 2e 37 35     -10.4579 Y-10.75
    162b:	37 37 20 0a 47 31 20 58 2d 31 31 2e 33 30 35 35     77 .G1 X-11.3055
    163b:	20 59 2d 39 2e 35 33 33 32 35 20 0a 47 31 20 58      Y-9.53325 .G1 X
    164b:	2d 31 33 2e 30 35 37 33 20 59 2d 38 2e 35 37 32     -13.0573 Y-8.572
    165b:	34 33 20 0a 47 31 20 58 2d 31 34 2e 35 34 35 35     43 .G1 X-14.5455
    166b:	20 59 2d 38 2e 35 31 35 38 33 00                     Y-8.51583.

00001676 <contraptor_circle>:
    1676:	47 32 31 0a 47 39 30 20 0a 47 30 20 5a 31 2e 35     G21.G90 .G0 Z1.5
    1686:	20 0a 47 31 37 20 0a 4d 33 20 53 30 20 0a 47 30      .G17 .M3 S0 .G0
    1696:	20 58 31 37 2e 36 30 37 35 20 59 33 35 2e 36 37      X17.6075 Y35.67
    16a6:	39 37 20 0a 47 31 20 46 31 30 30 2e 30 20 5a 2d     97 .G1 F100.0 Z-
    16b6:	30 2e 35 20 0a 47 31 20 46 32 30 30 2e 30 20 58     0.5 .G1 F200.0 X
    16c6:	32 31 2e 34 30 36 38 20 59 33 35 2e 32 36 35 34     21.4068 Y35.2654
    16d6:	20 0a 47 32 20 58 32 30 2e 31 38 31 39 20 59 33      .G2 X20.1819 Y3
    16e6:	32 2e 37 33 36 33 20 49 2d 39 2e 30 35 32 36 20     2.7363 I-9.0526 
    16f6:	4a 32 2e 38 32 33 33 20 0a 47 32 20 58 31 38 2e     J2.8233 .G2 X18.
    1706:	30 37 37 33 20 59 33 30 2e 37 30 37 32 20 49 2d     0773 Y30.7072 I-
    1716:	36 2e 35 34 20 4a 34 2e 36 37 37 33 20 0a 47 32     6.54 J4.6773 .G2
    1726:	20 58 31 35 2e 31 32 34 33 20 59 32 39 2e 34 34      X15.1243 Y29.44
    1736:	34 34 20 49 2d 34 2e 37 34 31 34 20 4a 37 2e 30     44 I-4.7414 J7.0
    1746:	30 33 37 20 0a 47 32 20 58 31 31 2e 38 36 37 37     037 .G2 X11.8677
    1756:	20 59 32 39 2e 30 38 35 37 20 49 2d 32 2e 39 36      Y29.0857 I-2.96
    1766:	30 35 20 4a 31 31 2e 39 31 34 37 20 0a 47 32 20     05 J11.9147 .G2 
    1776:	58 37 2e 37 38 30 33 20 59 32 39 2e 36 36 39 37     X7.7803 Y29.6697
    1786:	20 49 2d 30 2e 33 38 35 33 20 4a 31 31 2e 38 39      I-0.3853 J11.89
    1796:	39 20 0a 47 32 20 58 34 2e 33 31 20 59 33 31 2e     9 .G2 X4.31 Y31.
    17a6:	36 36 32 31 20 49 32 2e 34 37 39 31 20 4a 38 2e     6621 I2.4791 J8.
    17b6:	33 33 36 38 20 0a 47 32 20 58 32 2e 31 32 34 33     3368 .G2 X2.1243
    17c6:	20 59 33 35 2e 30 35 35 32 20 49 36 2e 30 35 37      Y35.0552 I6.057
    17d6:	34 20 4a 36 2e 33 30 32 34 20 0a 47 32 20 58 31     4 J6.3024 .G2 X1
    17e6:	2e 35 33 32 20 59 33 38 2e 39 32 32 37 20 49 31     .532 Y38.9227 I1
    17f6:	32 2e 37 34 33 33 20 4a 33 2e 39 33 30 36 20 0a     2.7433 J3.9306 .
    1806:	47 32 20 58 32 2e 31 32 38 36 20 59 34 32 2e 39     G2 X2.1286 Y42.9
    1816:	30 37 39 20 49 31 34 2e 30 32 38 31 20 4a 2d 30     079 I14.0281 J-0
    1826:	2e 30 36 33 20 0a 47 32 20 58 34 2e 33 35 30 38     .063 .G2 X4.3508
    1836:	20 59 34 36 2e 34 31 37 35 20 49 38 2e 35 31 36      Y46.4175 I8.516
    1846:	36 20 4a 2d 32 2e 39 33 34 32 20 0a 47 32 20 58     6 J-2.9342 .G2 X
    1856:	37 2e 36 37 39 34 20 59 34 38 2e 34 35 20 49 36     7.6794 Y48.45 I6
    1866:	2e 31 36 34 37 20 4a 2d 36 2e 33 35 33 39 20 0a     .1647 J-6.3539 .
    1876:	47 32 20 58 31 31 2e 36 36 33 35 20 59 34 39 2e     G2 X11.6635 Y49.
    1886:	30 38 34 20 49 33 2e 36 32 37 39 20 4a 2d 39 2e     084 I3.6279 J-9.
    1896:	39 36 33 36 20 0a 47 32 20 58 31 35 2e 35 33 39     9636 .G2 X15.539
    18a6:	33 20 59 34 38 2e 34 35 38 37 20 49 30 2e 33 34     3 Y48.4587 I0.34
    18b6:	33 33 20 4a 2d 31 30 2e 31 39 36 38 20 0a 47 32     33 J-10.1968 .G2
    18c6:	20 58 31 38 2e 37 37 31 38 20 59 34 36 2e 34 37      X18.7718 Y46.47
    18d6:	31 36 20 49 2d 32 2e 38 32 31 33 20 4a 2d 38 2e     16 I-2.8213 J-8.
    18e6:	32 31 32 34 20 0a 47 32 20 58 32 30 2e 39 34 36     2124 .G2 X20.946
    18f6:	35 20 59 34 33 2e 30 32 38 35 20 49 2d 36 2e 31     5 Y43.0285 I-6.1
    1906:	37 34 38 20 4a 2d 36 2e 33 30 38 33 20 0a 47 32     748 J-6.3083 .G2
    1916:	20 58 32 31 2e 35 32 39 34 20 59 33 39 2e 31 32      X21.5294 Y39.12
    1926:	30 39 20 49 2d 31 33 2e 32 31 39 32 20 4a 2d 33     09 I-13.2192 J-3
    1936:	2e 39 36 39 32 20 0a 47 32 20 58 32 31 2e 35 30     .9692 .G2 X21.50
    1946:	39 20 59 33 38 2e 32 35 36 31 20 49 2d 33 32 2e     9 Y38.2561 I-32.
    1956:	33 37 20 4a 30 2e 33 33 31 39 20 0a 47 31 20 58     37 J0.3319 .G1 X
    1966:	35 2e 33 33 31 33 20 0a 47 33 20 58 35 2e 38 35     5.3313 .G3 X5.85
    1976:	34 39 20 59 33 35 2e 36 38 33 31 20 49 39 2e 39     49 Y35.6831 I9.9
    1986:	33 32 32 20 4a 30 2e 36 38 31 36 20 0a 47 33 20     322 J0.6816 .G3 
    1996:	58 37 2e 33 35 33 35 20 59 33 33 2e 34 32 37 37     X7.3535 Y33.4277
    19a6:	20 49 35 2e 37 35 33 32 20 4a 32 2e 31 39 37 31      I5.7532 J2.1971
    19b6:	20 0a 47 33 20 58 31 31 2e 38 38 38 31 20 59 33      .G3 X11.8881 Y3
    19c6:	31 2e 37 35 32 32 20 49 34 2e 31 34 20 4a 34 2e     1.7522 I4.14 J4.
    19d6:	32 33 30 35 20 0a 47 33 20 58 31 35 2e 33 34 30     2305 .G3 X15.340
    19e6:	32 20 59 33 32 2e 36 38 39 20 49 30 2e 33 34 30     2 Y32.689 I0.340
    19f6:	34 20 4a 35 2e 35 37 34 32 20 0a 47 33 20 58 31     4 J5.5742 .G3 X1
    1a06:	36 2e 37 32 30 36 20 59 33 34 2e 30 33 38 39 20     6.7206 Y34.0389 
    1a16:	49 2d 32 2e 39 33 32 39 20 4a 34 2e 33 37 39 39     I-2.9329 J4.3799
    1a26:	20 0a 47 33 20 58 31 37 2e 36 30 37 35 20 59 33      .G3 X17.6075 Y3
    1a36:	35 2e 36 37 39 37 20 49 2d 37 2e 30 38 31 36 20     5.6797 I-7.0816 
    1a46:	4a 34 2e 38 38 38 20 0a 47 30 20 5a 31 2e 35 00     J4.888 .G0 Z1.5.

00001a56 <tgModeStringControl>:
    1a56:	43 4f 4e 54 52 4f 4c 20 4d 4f 44 45 00              CONTROL MODE.

00001a63 <tgModeStringConfig>:
    1a63:	43 4f 4e 46 49 47 20 4d 4f 44 45 00                 CONFIG MODE.

00001a6f <tgModeStringGCode>:
    1a6f:	47 2d 43 4f 44 45 20 4d 4f 44 45 00                 G-CODE MODE.

00001a7b <tgModeStringDirect>:
    1a7b:	44 49 52 45 43 54 20 44 52 49 56 45 00              DIRECT DRIVE.

00001a88 <tgModeStrings>:
    1a88:	56 1a 63 1a 6f 1a 7b 1a                             V.c.o.{.

00001a90 <__c.3998>:
    1a90:	47 6f 74 20 61 20 4b 49 4c 4c 20 63 6f 6d 6d 61     Got a KILL comma
    1aa0:	6e 64 20 6f 72 20 6c 69 6d 69 74 20 73 77 69 74     nd or limit swit
    1ab0:	63 68 0a 00                                         ch..

00001ab4 <__c.3951>:
    1ab4:	45 6e 64 20 6f 66 20 63 6f 6d 6d 61 6e 64 20 66     End of command f
    1ac4:	69 6c 65 0a 00                                      ile..

00001ac9 <__c.3983>:
    1ac9:	0d 0a 45 6e 64 20 6f 66 20 66 69 6c 65 20 65 6e     ..End of file en
    1ad9:	63 6f 75 6e 74 65 72 65 64 0d 0a 00                 countered...

00001ae5 <__c.3929>:
    1ae5:	54 69 6e 79 47 20 5b 25 53 5d 2a 3e 20 0a 00        TinyG [%S]*> ..

00001af4 <__c.3924>:
    1af4:	54 69 6e 79 47 20 5b 25 53 5d 2a 3e 20 0a 00        TinyG [%S]*> ..

00001b03 <__c.3856>:
    1b03:	62 75 69 6c 64 20 31 39 38 00                       build 198.

00001b0d <__c.3854>:
    1b0d:	54 69 6e 79 47 20 2d 20 56 65 72 73 69 6f 6e 20     TinyG - Version 
    1b1d:	25 53 0a 00                                         %S..

00001b21 <pstr_inf>:
    1b21:	49 4e 46                                            INF

00001b24 <pstr_inity>:
    1b24:	49 4e 49 54 59                                      INITY

00001b29 <pstr_nan>:
    1b29:	4e 41 4e                                            NAN

00001b2c <pwr_m10>:
    1b2c:	cd cc cc 3d 0a d7 23 3c 17 b7 d1 38 77 cc 2b 32     ...=..#<...8w.+2
    1b3c:	95 95 e6 24 1f b1 4f 0a                             ...$..O.

00001b44 <pwr_p10>:
    1b44:	00 00 20 41 00 00 c8 42 00 40 1c 46 20 bc be 4c     .. A...B.@.F ..L
    1b54:	ca 1b 0e 5a ae c5 9d 74 00 40 7a 10 f3 5a 00 a0     ...Z...t.@z..Z..
    1b64:	72 4e 18 09 00 10 a5 d4 e8 00 00 e8 76 48 17 00     rN..........vH..
    1b74:	00 e4 0b 54 02 00 00 ca 9a 3b 00 00 00 e1 f5 05     ...T.....;......
    1b84:	00 00 80 96 98 00 00 00 40 42 0f 00 00 00 a0 86     ........@B......
    1b94:	01 00 00 00 10 27 00 00 00 00 e8 03 00 00 00 00     .....'..........
    1ba4:	64 00 00 00 00 00 0a 00 00 00 00 00 01 00 00 00     d...............
    1bb4:	00 00 2c 76 d8 88 dc 67 4f 08 23 df c1 df ae 59     ..,v...gO.#....Y
    1bc4:	e1 b1 b7 96 e5 e3 e4 53 c6 3a e6 51 99 76 96 e8     .......S.:.Q.v..
    1bd4:	e6 c2 84 26 eb 89 8c 9b 62 ed 40 7c 6f fc ef bc     ...&....b.@|o...
    1be4:	9c 9f 40 f2 ba a5 6f a5 f4 90 05 5a 2a f7 5c 93     ..@...o....Z*.\.
    1bf4:	6b 6c f9 67 6d c1 1b fc e0 e4 0d 47 fe f5 20 e6     kl.gm......G.. .
    1c04:	b5 00 d0 ed 90 2e 03 00 94 35 77 05 00 80 84 1e     .........5w.....
    1c14:	08 00 00 20 4e 0a 00 00 00 c8 0c 33 33 33 33 0f     ... N......3333.
    1c24:	98 6e 12 83 11 41 ef 8d 21 14 89 3b e6 55 16 cf     .n...A..!..;.U..
    1c34:	fe e6 db 18 d1 84 4b 38 1b f7 7c 1d 90 1d a4 bb     ......K8..|.....
    1c44:	e4 24 20 32 84 72 5e 22 81 00 c9 f1 24 ec a1 e5     .$ 2.r^"....$...
    1c54:	3d 27                                               ='

00001c56 <__ctors_end>:
    1c56:	11 24       	eor	r1, r1
    1c58:	1f be       	out	0x3f, r1	; 63
    1c5a:	cf ef       	ldi	r28, 0xFF	; 255
    1c5c:	df e5       	ldi	r29, 0x5F	; 95
    1c5e:	de bf       	out	0x3e, r29	; 62
    1c60:	cd bf       	out	0x3d, r28	; 61
    1c62:	00 e0       	ldi	r16, 0x00	; 0
    1c64:	0c bf       	out	0x3c, r16	; 60

00001c66 <__do_copy_data>:
    1c66:	11 e2       	ldi	r17, 0x21	; 33
    1c68:	a0 e0       	ldi	r26, 0x00	; 0
    1c6a:	b0 e2       	ldi	r27, 0x20	; 32
    1c6c:	e8 e9       	ldi	r30, 0x98	; 152
    1c6e:	fa e8       	ldi	r31, 0x8A	; 138
    1c70:	00 e0       	ldi	r16, 0x00	; 0
    1c72:	0b bf       	out	0x3b, r16	; 59
    1c74:	02 c0       	rjmp	.+4      	; 0x1c7a <__do_copy_data+0x14>
    1c76:	07 90       	elpm	r0, Z+
    1c78:	0d 92       	st	X+, r0
    1c7a:	ac 31       	cpi	r26, 0x1C	; 28
    1c7c:	b1 07       	cpc	r27, r17
    1c7e:	d9 f7       	brne	.-10     	; 0x1c76 <__do_copy_data+0x10>

00001c80 <__do_clear_bss>:
    1c80:	15 e2       	ldi	r17, 0x25	; 37
    1c82:	ac e1       	ldi	r26, 0x1C	; 28
    1c84:	b1 e2       	ldi	r27, 0x21	; 33
    1c86:	01 c0       	rjmp	.+2      	; 0x1c8a <.do_clear_bss_start>

00001c88 <.do_clear_bss_loop>:
    1c88:	1d 92       	st	X+, r1

00001c8a <.do_clear_bss_start>:
    1c8a:	a4 31       	cpi	r26, 0x14	; 20
    1c8c:	b1 07       	cpc	r27, r17
    1c8e:	e1 f7       	brne	.-8      	; 0x1c88 <.do_clear_bss_loop>
    1c90:	0e 94 4e 0e 	call	0x1c9c	; 0x1c9c <main>
    1c94:	0c 94 4a 45 	jmp	0x8a94	; 0x8a94 <_exit>

00001c98 <__bad_interrupt>:
    1c98:	0c 94 00 00 	jmp	0	; 0x0 <__vectors>

00001c9c <main>:
    1c9c:	f8 94       	cli
    1c9e:	0e 94 13 1a 	call	0x3426	; 0x3426 <xmega_init>
    1ca2:	0e 94 45 26 	call	0x4c8a	; 0x4c8a <xio_init>
    1ca6:	0e 94 38 16 	call	0x2c70	; 0x2c70 <cfg_init>
    1caa:	0e 94 a3 22 	call	0x4546	; 0x4546 <st_init>
    1cae:	0e 94 4c 31 	call	0x6298	; 0x6298 <ls_init>
    1cb2:	0e 94 d9 2f 	call	0x5fb2	; 0x5fb2 <mv_init>
    1cb6:	0e 94 87 1a 	call	0x350e	; 0x350e <mc_init>
    1cba:	0e 94 87 22 	call	0x450e	; 0x450e <spindle_init>
    1cbe:	0e 94 df 19 	call	0x33be	; 0x33be <en_init>
    1cc2:	0e 94 9d 0e 	call	0x1d3a	; 0x1d3a <gc_init>
    1cc6:	0e 94 d5 2f 	call	0x5faa	; 0x5faa <dd_init>
    1cca:	0e 94 b2 2f 	call	0x5f64	; 0x5f64 <tg_init>
    1cce:	0e 94 f9 25 	call	0x4bf2	; 0x4bf2 <PMIC_SetVectorLocationToApplication>
    1cd2:	e0 ea       	ldi	r30, 0xA0	; 160
    1cd4:	f0 e0       	ldi	r31, 0x00	; 0
    1cd6:	80 91 a2 00 	lds	r24, 0x00A2
    1cda:	81 60       	ori	r24, 0x01	; 1
    1cdc:	82 83       	std	Z+2, r24	; 0x02
    1cde:	80 91 a2 00 	lds	r24, 0x00A2
    1ce2:	82 60       	ori	r24, 0x02	; 2
    1ce4:	82 83       	std	Z+2, r24	; 0x02
    1ce6:	80 91 a2 00 	lds	r24, 0x00A2
    1cea:	84 60       	ori	r24, 0x04	; 4
    1cec:	82 83       	std	Z+2, r24	; 0x02
    1cee:	78 94       	sei
    1cf0:	0e 94 36 2f 	call	0x5e6c	; 0x5e6c <tg_controller>
    1cf4:	fd cf       	rjmp	.-6      	; 0x1cf0 <main+0x54>

00001cf6 <select_plane>:
    1cf6:	80 93 69 21 	sts	0x2169, r24
    1cfa:	60 93 6a 21 	sts	0x216A, r22
    1cfe:	40 93 6b 21 	sts	0x216B, r20
    1d02:	08 95       	ret

00001d04 <to_millimeters>:
    1d04:	ef 92       	push	r14
    1d06:	ff 92       	push	r15
    1d08:	0f 93       	push	r16
    1d0a:	1f 93       	push	r17
    1d0c:	7b 01       	movw	r14, r22
    1d0e:	8c 01       	movw	r16, r24
    1d10:	80 91 29 21 	lds	r24, 0x2129
    1d14:	88 23       	and	r24, r24
    1d16:	51 f0       	breq	.+20     	; 0x1d2c <to_millimeters+0x28>
    1d18:	c8 01       	movw	r24, r16
    1d1a:	b7 01       	movw	r22, r14
    1d1c:	25 e8       	ldi	r18, 0x85	; 133
    1d1e:	32 e4       	ldi	r19, 0x42	; 66
    1d20:	41 e2       	ldi	r20, 0x21	; 33
    1d22:	5d e3       	ldi	r21, 0x3D	; 61
    1d24:	0e 94 35 40 	call	0x806a	; 0x806a <__mulsf3>
    1d28:	7b 01       	movw	r14, r22
    1d2a:	8c 01       	movw	r16, r24
    1d2c:	b7 01       	movw	r22, r14
    1d2e:	c8 01       	movw	r24, r16
    1d30:	1f 91       	pop	r17
    1d32:	0f 91       	pop	r16
    1d34:	ff 90       	pop	r15
    1d36:	ef 90       	pop	r14
    1d38:	08 95       	ret

00001d3a <gc_init>:
    1d3a:	86 e5       	ldi	r24, 0x56	; 86
    1d3c:	ec e1       	ldi	r30, 0x1C	; 28
    1d3e:	f1 e2       	ldi	r31, 0x21	; 33
    1d40:	df 01       	movw	r26, r30
    1d42:	1d 92       	st	X+, r1
    1d44:	8a 95       	dec	r24
    1d46:	e9 f7       	brne	.-6      	; 0x1d42 <gc_init+0x8>
    1d48:	80 e0       	ldi	r24, 0x00	; 0
    1d4a:	90 e0       	ldi	r25, 0x00	; 0
    1d4c:	a0 e0       	ldi	r26, 0x00	; 0
    1d4e:	b0 e0       	ldi	r27, 0x00	; 0
    1d50:	80 93 2d 21 	sts	0x212D, r24
    1d54:	90 93 2e 21 	sts	0x212E, r25
    1d58:	a0 93 2f 21 	sts	0x212F, r26
    1d5c:	b0 93 30 21 	sts	0x2130, r27
    1d60:	80 93 31 21 	sts	0x2131, r24
    1d64:	90 93 32 21 	sts	0x2132, r25
    1d68:	a0 93 33 21 	sts	0x2133, r26
    1d6c:	b0 93 34 21 	sts	0x2134, r27
    1d70:	80 91 4a 24 	lds	r24, 0x244A
    1d74:	90 91 4b 24 	lds	r25, 0x244B
    1d78:	a0 91 4c 24 	lds	r26, 0x244C
    1d7c:	b0 91 4d 24 	lds	r27, 0x244D
    1d80:	80 93 35 21 	sts	0x2135, r24
    1d84:	90 93 36 21 	sts	0x2136, r25
    1d88:	a0 93 37 21 	sts	0x2137, r26
    1d8c:	b0 93 38 21 	sts	0x2138, r27
    1d90:	80 91 4e 24 	lds	r24, 0x244E
    1d94:	90 91 4f 24 	lds	r25, 0x244F
    1d98:	a0 91 50 24 	lds	r26, 0x2450
    1d9c:	b0 91 51 24 	lds	r27, 0x2451
    1da0:	80 93 39 21 	sts	0x2139, r24
    1da4:	90 93 3a 21 	sts	0x213A, r25
    1da8:	a0 93 3b 21 	sts	0x213B, r26
    1dac:	b0 93 3c 21 	sts	0x213C, r27
    1db0:	21 e0       	ldi	r18, 0x01	; 1
    1db2:	20 93 2a 21 	sts	0x212A, r18
    1db6:	80 e0       	ldi	r24, 0x00	; 0
    1db8:	90 e0       	ldi	r25, 0x00	; 0
    1dba:	a0 e8       	ldi	r26, 0x80	; 128
    1dbc:	bf eb       	ldi	r27, 0xBF	; 191
    1dbe:	80 93 41 21 	sts	0x2141, r24
    1dc2:	90 93 42 21 	sts	0x2142, r25
    1dc6:	a0 93 43 21 	sts	0x2143, r26
    1dca:	b0 93 44 21 	sts	0x2144, r27
    1dce:	10 92 2b 21 	sts	0x212B, r1
    1dd2:	10 92 70 21 	sts	0x2170, r1
    1dd6:	10 92 71 21 	sts	0x2171, r1
    1dda:	10 92 69 21 	sts	0x2169, r1
    1dde:	20 93 6a 21 	sts	0x216A, r18
    1de2:	82 e0       	ldi	r24, 0x02	; 2
    1de4:	80 93 6b 21 	sts	0x216B, r24
    1de8:	08 95       	ret

00001dea <_gc_next_statement>:
    1dea:	4f 92       	push	r4
    1dec:	5f 92       	push	r5
    1dee:	6f 92       	push	r6
    1df0:	7f 92       	push	r7
    1df2:	8f 92       	push	r8
    1df4:	9f 92       	push	r9
    1df6:	af 92       	push	r10
    1df8:	bf 92       	push	r11
    1dfa:	cf 92       	push	r12
    1dfc:	df 92       	push	r13
    1dfe:	ef 92       	push	r14
    1e00:	ff 92       	push	r15
    1e02:	0f 93       	push	r16
    1e04:	1f 93       	push	r17
    1e06:	df 93       	push	r29
    1e08:	cf 93       	push	r28
    1e0a:	0f 92       	push	r0
    1e0c:	0f 92       	push	r0
    1e0e:	cd b7       	in	r28, 0x3d	; 61
    1e10:	de b7       	in	r29, 0x3e	; 62
    1e12:	3b 01       	movw	r6, r22
    1e14:	2a 01       	movw	r4, r20
    1e16:	49 01       	movw	r8, r18
    1e18:	58 01       	movw	r10, r16
    1e1a:	d8 01       	movw	r26, r16
    1e1c:	ed 91       	ld	r30, X+
    1e1e:	fc 91       	ld	r31, X
    1e20:	e2 0f       	add	r30, r18
    1e22:	f3 1f       	adc	r31, r19
    1e24:	e0 81       	ld	r30, Z
    1e26:	ee 23       	and	r30, r30
    1e28:	41 f0       	breq	.+16     	; 0x1e3a <_gc_next_statement+0x50>
    1e2a:	dc 01       	movw	r26, r24
    1e2c:	ec 93       	st	X, r30
    1e2e:	e1 54       	subi	r30, 0x41	; 65
    1e30:	ea 31       	cpi	r30, 0x1A	; 26
    1e32:	30 f0       	brcs	.+12     	; 0x1e40 <_gc_next_statement+0x56>
    1e34:	88 e0       	ldi	r24, 0x08	; 8
    1e36:	80 93 1c 21 	sts	0x211C, r24
    1e3a:	20 e0       	ldi	r18, 0x00	; 0
    1e3c:	30 e0       	ldi	r19, 0x00	; 0
    1e3e:	35 c0       	rjmp	.+106    	; 0x1eaa <_gc_next_statement+0xc0>
    1e40:	f8 01       	movw	r30, r16
    1e42:	80 81       	ld	r24, Z
    1e44:	91 81       	ldd	r25, Z+1	; 0x01
    1e46:	01 96       	adiw	r24, 0x01	; 1
    1e48:	80 83       	st	Z, r24
    1e4a:	91 83       	std	Z+1, r25	; 0x01
    1e4c:	89 01       	movw	r16, r18
    1e4e:	08 0f       	add	r16, r24
    1e50:	19 1f       	adc	r17, r25
    1e52:	c8 01       	movw	r24, r16
    1e54:	be 01       	movw	r22, r28
    1e56:	6f 5f       	subi	r22, 0xFF	; 255
    1e58:	7f 4f       	sbci	r23, 0xFF	; 255
    1e5a:	0e 94 7e 41 	call	0x82fc	; 0x82fc <strtod>
    1e5e:	6b 01       	movw	r12, r22
    1e60:	7c 01       	movw	r14, r24
    1e62:	d3 01       	movw	r26, r6
    1e64:	6d 93       	st	X+, r22
    1e66:	7d 93       	st	X+, r23
    1e68:	8d 93       	st	X+, r24
    1e6a:	9c 93       	st	X, r25
    1e6c:	13 97       	sbiw	r26, 0x03	; 3
    1e6e:	89 81       	ldd	r24, Y+1	; 0x01
    1e70:	9a 81       	ldd	r25, Y+2	; 0x02
    1e72:	80 17       	cp	r24, r16
    1e74:	91 07       	cpc	r25, r17
    1e76:	11 f4       	brne	.+4      	; 0x1e7c <_gc_next_statement+0x92>
    1e78:	8c e0       	ldi	r24, 0x0C	; 12
    1e7a:	dd cf       	rjmp	.-70     	; 0x1e36 <_gc_next_statement+0x4c>
    1e7c:	88 19       	sub	r24, r8
    1e7e:	99 09       	sbc	r25, r9
    1e80:	f5 01       	movw	r30, r10
    1e82:	80 83       	st	Z, r24
    1e84:	91 83       	std	Z+1, r25	; 0x01
    1e86:	c7 01       	movw	r24, r14
    1e88:	b6 01       	movw	r22, r12
    1e8a:	0e 94 e3 40 	call	0x81c6	; 0x81c6 <trunc>
    1e8e:	9b 01       	movw	r18, r22
    1e90:	ac 01       	movw	r20, r24
    1e92:	c7 01       	movw	r24, r14
    1e94:	b6 01       	movw	r22, r12
    1e96:	0e 94 d3 3c 	call	0x79a6	; 0x79a6 <__subsf3>
    1e9a:	d2 01       	movw	r26, r4
    1e9c:	6d 93       	st	X+, r22
    1e9e:	7d 93       	st	X+, r23
    1ea0:	8d 93       	st	X+, r24
    1ea2:	9c 93       	st	X, r25
    1ea4:	13 97       	sbiw	r26, 0x03	; 3
    1ea6:	21 e0       	ldi	r18, 0x01	; 1
    1ea8:	30 e0       	ldi	r19, 0x00	; 0
    1eaa:	c9 01       	movw	r24, r18
    1eac:	0f 90       	pop	r0
    1eae:	0f 90       	pop	r0
    1eb0:	cf 91       	pop	r28
    1eb2:	df 91       	pop	r29
    1eb4:	1f 91       	pop	r17
    1eb6:	0f 91       	pop	r16
    1eb8:	ff 90       	pop	r15
    1eba:	ef 90       	pop	r14
    1ebc:	df 90       	pop	r13
    1ebe:	cf 90       	pop	r12
    1ec0:	bf 90       	pop	r11
    1ec2:	af 90       	pop	r10
    1ec4:	9f 90       	pop	r9
    1ec6:	8f 90       	pop	r8
    1ec8:	7f 90       	pop	r7
    1eca:	6f 90       	pop	r6
    1ecc:	5f 90       	pop	r5
    1ece:	4f 90       	pop	r4
    1ed0:	08 95       	ret

00001ed2 <theta>:
    1ed2:	af 92       	push	r10
    1ed4:	bf 92       	push	r11
    1ed6:	cf 92       	push	r12
    1ed8:	df 92       	push	r13
    1eda:	ef 92       	push	r14
    1edc:	ff 92       	push	r15
    1ede:	0f 93       	push	r16
    1ee0:	1f 93       	push	r17
    1ee2:	79 01       	movw	r14, r18
    1ee4:	8a 01       	movw	r16, r20
    1ee6:	5f 77       	andi	r21, 0x7F	; 127
    1ee8:	0e 94 7a 3d 	call	0x7af4	; 0x7af4 <__divsf3>
    1eec:	0e 94 38 3d 	call	0x7a70	; 0x7a70 <atan>
    1ef0:	5b 01       	movw	r10, r22
    1ef2:	6c 01       	movw	r12, r24
    1ef4:	c8 01       	movw	r24, r16
    1ef6:	b7 01       	movw	r22, r14
    1ef8:	20 e0       	ldi	r18, 0x00	; 0
    1efa:	30 e0       	ldi	r19, 0x00	; 0
    1efc:	40 e0       	ldi	r20, 0x00	; 0
    1efe:	50 e0       	ldi	r21, 0x00	; 0
    1f00:	0e 94 63 3f 	call	0x7ec6	; 0x7ec6 <__gesf2>
    1f04:	18 16       	cp	r1, r24
    1f06:	cc f0       	brlt	.+50     	; 0x1f3a <theta+0x68>
    1f08:	c6 01       	movw	r24, r12
    1f0a:	b5 01       	movw	r22, r10
    1f0c:	20 e0       	ldi	r18, 0x00	; 0
    1f0e:	30 e0       	ldi	r19, 0x00	; 0
    1f10:	40 e0       	ldi	r20, 0x00	; 0
    1f12:	50 e0       	ldi	r21, 0x00	; 0
    1f14:	0e 94 63 3f 	call	0x7ec6	; 0x7ec6 <__gesf2>
    1f18:	18 16       	cp	r1, r24
    1f1a:	2c f4       	brge	.+10     	; 0x1f26 <theta+0x54>
    1f1c:	6b ed       	ldi	r22, 0xDB	; 219
    1f1e:	7f e0       	ldi	r23, 0x0F	; 15
    1f20:	89 e4       	ldi	r24, 0x49	; 73
    1f22:	90 e4       	ldi	r25, 0x40	; 64
    1f24:	04 c0       	rjmp	.+8      	; 0x1f2e <theta+0x5c>
    1f26:	6b ed       	ldi	r22, 0xDB	; 219
    1f28:	7f e0       	ldi	r23, 0x0F	; 15
    1f2a:	89 e4       	ldi	r24, 0x49	; 73
    1f2c:	90 ec       	ldi	r25, 0xC0	; 192
    1f2e:	a6 01       	movw	r20, r12
    1f30:	95 01       	movw	r18, r10
    1f32:	0e 94 d3 3c 	call	0x79a6	; 0x79a6 <__subsf3>
    1f36:	5b 01       	movw	r10, r22
    1f38:	6c 01       	movw	r12, r24
    1f3a:	b5 01       	movw	r22, r10
    1f3c:	c6 01       	movw	r24, r12
    1f3e:	1f 91       	pop	r17
    1f40:	0f 91       	pop	r16
    1f42:	ff 90       	pop	r15
    1f44:	ef 90       	pop	r14
    1f46:	df 90       	pop	r13
    1f48:	cf 90       	pop	r12
    1f4a:	bf 90       	pop	r11
    1f4c:	af 90       	pop	r10
    1f4e:	08 95       	ret

00001f50 <gc_execute_block>:
    1f50:	2f 92       	push	r2
    1f52:	3f 92       	push	r3
    1f54:	4f 92       	push	r4
    1f56:	5f 92       	push	r5
    1f58:	6f 92       	push	r6
    1f5a:	7f 92       	push	r7
    1f5c:	8f 92       	push	r8
    1f5e:	9f 92       	push	r9
    1f60:	af 92       	push	r10
    1f62:	bf 92       	push	r11
    1f64:	cf 92       	push	r12
    1f66:	df 92       	push	r13
    1f68:	ef 92       	push	r14
    1f6a:	ff 92       	push	r15
    1f6c:	0f 93       	push	r16
    1f6e:	1f 93       	push	r17
    1f70:	df 93       	push	r29
    1f72:	cf 93       	push	r28
    1f74:	cd b7       	in	r28, 0x3d	; 61
    1f76:	de b7       	in	r29, 0x3e	; 62
    1f78:	68 97       	sbiw	r28, 0x18	; 24
    1f7a:	cd bf       	out	0x3d, r28	; 61
    1f7c:	de bf       	out	0x3e, r29	; 62
    1f7e:	4c 01       	movw	r8, r24
    1f80:	19 82       	std	Y+1, r1	; 0x01
    1f82:	1a 82       	std	Y+2, r1	; 0x02
    1f84:	e1 e5       	ldi	r30, 0x51	; 81
    1f86:	f1 e2       	ldi	r31, 0x21	; 33
    1f88:	8c e0       	ldi	r24, 0x0C	; 12
    1f8a:	df 01       	movw	r26, r30
    1f8c:	28 2f       	mov	r18, r24
    1f8e:	1d 92       	st	X+, r1
    1f90:	2a 95       	dec	r18
    1f92:	e9 f7       	brne	.-6      	; 0x1f8e <gc_execute_block+0x3e>
    1f94:	3c 96       	adiw	r30, 0x0c	; 12
    1f96:	df 01       	movw	r26, r30
    1f98:	1d 92       	st	X+, r1
    1f9a:	8a 95       	dec	r24
    1f9c:	e9 f7       	brne	.-6      	; 0x1f98 <gc_execute_block+0x48>
    1f9e:	10 92 1c 21 	sts	0x211C, r1
    1fa2:	10 92 2c 21 	sts	0x212C, r1
    1fa6:	6e 01       	movw	r12, r28
    1fa8:	08 94       	sec
    1faa:	c1 1c       	adc	r12, r1
    1fac:	d1 1c       	adc	r13, r1
    1fae:	ff 24       	eor	r15, r15
    1fb0:	f3 94       	inc	r15
    1fb2:	ba e0       	ldi	r27, 0x0A	; 10
    1fb4:	bb 2e       	mov	r11, r27
    1fb6:	a2 e0       	ldi	r26, 0x02	; 2
    1fb8:	ea 2e       	mov	r14, r26
    1fba:	77 24       	eor	r7, r7
    1fbc:	7a 94       	dec	r7
    1fbe:	f4 e0       	ldi	r31, 0x04	; 4
    1fc0:	6f 2e       	mov	r6, r31
    1fc2:	e3 e0       	ldi	r30, 0x03	; 3
    1fc4:	ae 2e       	mov	r10, r30
    1fc6:	02 c1       	rjmp	.+516    	; 0x21cc <gc_execute_block+0x27c>
    1fc8:	80 91 1d 21 	lds	r24, 0x211D
    1fcc:	8d 34       	cpi	r24, 0x4D	; 77
    1fce:	09 f4       	brne	.+2      	; 0x1fd2 <gc_execute_block+0x82>
    1fd0:	b6 c0       	rjmp	.+364    	; 0x213e <gc_execute_block+0x1ee>
    1fd2:	84 35       	cpi	r24, 0x54	; 84
    1fd4:	09 f4       	brne	.+2      	; 0x1fd8 <gc_execute_block+0x88>
    1fd6:	e8 c0       	rjmp	.+464    	; 0x21a8 <gc_execute_block+0x258>
    1fd8:	87 34       	cpi	r24, 0x47	; 71
    1fda:	09 f0       	breq	.+2      	; 0x1fde <gc_execute_block+0x8e>
    1fdc:	f3 c0       	rjmp	.+486    	; 0x21c4 <gc_execute_block+0x274>
    1fde:	60 91 1e 21 	lds	r22, 0x211E
    1fe2:	70 91 1f 21 	lds	r23, 0x211F
    1fe6:	80 91 20 21 	lds	r24, 0x2120
    1fea:	90 91 21 21 	lds	r25, 0x2121
    1fee:	0e 94 e2 3d 	call	0x7bc4	; 0x7bc4 <__fixsfsi>
    1ff2:	65 31       	cpi	r22, 0x15	; 21
    1ff4:	71 05       	cpc	r23, r1
    1ff6:	09 f4       	brne	.+2      	; 0x1ffa <gc_execute_block+0xaa>
    1ff8:	87 c0       	rjmp	.+270    	; 0x2108 <gc_execute_block+0x1b8>
    1ffa:	66 31       	cpi	r22, 0x16	; 22
    1ffc:	71 05       	cpc	r23, r1
    1ffe:	84 f5       	brge	.+96     	; 0x2060 <gc_execute_block+0x110>
    2000:	64 30       	cpi	r22, 0x04	; 4
    2002:	71 05       	cpc	r23, r1
    2004:	09 f4       	brne	.+2      	; 0x2008 <gc_execute_block+0xb8>
    2006:	65 c0       	rjmp	.+202    	; 0x20d2 <gc_execute_block+0x182>
    2008:	65 30       	cpi	r22, 0x05	; 5
    200a:	71 05       	cpc	r23, r1
    200c:	a4 f4       	brge	.+40     	; 0x2036 <gc_execute_block+0xe6>
    200e:	61 30       	cpi	r22, 0x01	; 1
    2010:	71 05       	cpc	r23, r1
    2012:	09 f4       	brne	.+2      	; 0x2016 <gc_execute_block+0xc6>
    2014:	55 c0       	rjmp	.+170    	; 0x20c0 <gc_execute_block+0x170>
    2016:	62 30       	cpi	r22, 0x02	; 2
    2018:	71 05       	cpc	r23, r1
    201a:	24 f4       	brge	.+8      	; 0x2024 <gc_execute_block+0xd4>
    201c:	67 2b       	or	r22, r23
    201e:	09 f4       	brne	.+2      	; 0x2022 <gc_execute_block+0xd2>
    2020:	4c c0       	rjmp	.+152    	; 0x20ba <gc_execute_block+0x16a>
    2022:	bf c0       	rjmp	.+382    	; 0x21a2 <gc_execute_block+0x252>
    2024:	62 30       	cpi	r22, 0x02	; 2
    2026:	71 05       	cpc	r23, r1
    2028:	09 f4       	brne	.+2      	; 0x202c <gc_execute_block+0xdc>
    202a:	4d c0       	rjmp	.+154    	; 0x20c6 <gc_execute_block+0x176>
    202c:	63 30       	cpi	r22, 0x03	; 3
    202e:	71 05       	cpc	r23, r1
    2030:	09 f0       	breq	.+2      	; 0x2034 <gc_execute_block+0xe4>
    2032:	b7 c0       	rjmp	.+366    	; 0x21a2 <gc_execute_block+0x252>
    2034:	4b c0       	rjmp	.+150    	; 0x20cc <gc_execute_block+0x17c>
    2036:	62 31       	cpi	r22, 0x12	; 18
    2038:	71 05       	cpc	r23, r1
    203a:	09 f4       	brne	.+2      	; 0x203e <gc_execute_block+0xee>
    203c:	54 c0       	rjmp	.+168    	; 0x20e6 <gc_execute_block+0x196>
    203e:	63 31       	cpi	r22, 0x13	; 19
    2040:	71 05       	cpc	r23, r1
    2042:	2c f4       	brge	.+10     	; 0x204e <gc_execute_block+0xfe>
    2044:	61 31       	cpi	r22, 0x11	; 17
    2046:	71 05       	cpc	r23, r1
    2048:	09 f0       	breq	.+2      	; 0x204c <gc_execute_block+0xfc>
    204a:	ab c0       	rjmp	.+342    	; 0x21a2 <gc_execute_block+0x252>
    204c:	45 c0       	rjmp	.+138    	; 0x20d8 <gc_execute_block+0x188>
    204e:	63 31       	cpi	r22, 0x13	; 19
    2050:	71 05       	cpc	r23, r1
    2052:	09 f4       	brne	.+2      	; 0x2056 <gc_execute_block+0x106>
    2054:	4f c0       	rjmp	.+158    	; 0x20f4 <gc_execute_block+0x1a4>
    2056:	64 31       	cpi	r22, 0x14	; 20
    2058:	71 05       	cpc	r23, r1
    205a:	09 f0       	breq	.+2      	; 0x205e <gc_execute_block+0x10e>
    205c:	a2 c0       	rjmp	.+324    	; 0x21a2 <gc_execute_block+0x252>
    205e:	51 c0       	rjmp	.+162    	; 0x2102 <gc_execute_block+0x1b2>
    2060:	6a 35       	cpi	r22, 0x5A	; 90
    2062:	71 05       	cpc	r23, r1
    2064:	09 f4       	brne	.+2      	; 0x2068 <gc_execute_block+0x118>
    2066:	5c c0       	rjmp	.+184    	; 0x2120 <gc_execute_block+0x1d0>
    2068:	6b 35       	cpi	r22, 0x5B	; 91
    206a:	71 05       	cpc	r23, r1
    206c:	ac f4       	brge	.+42     	; 0x2098 <gc_execute_block+0x148>
    206e:	6e 31       	cpi	r22, 0x1E	; 30
    2070:	71 05       	cpc	r23, r1
    2072:	09 f4       	brne	.+2      	; 0x2076 <gc_execute_block+0x126>
    2074:	4c c0       	rjmp	.+152    	; 0x210e <gc_execute_block+0x1be>
    2076:	6f 31       	cpi	r22, 0x1F	; 31
    2078:	71 05       	cpc	r23, r1
    207a:	2c f4       	brge	.+10     	; 0x2086 <gc_execute_block+0x136>
    207c:	6c 31       	cpi	r22, 0x1C	; 28
    207e:	71 05       	cpc	r23, r1
    2080:	09 f0       	breq	.+2      	; 0x2084 <gc_execute_block+0x134>
    2082:	8f c0       	rjmp	.+286    	; 0x21a2 <gc_execute_block+0x252>
    2084:	44 c0       	rjmp	.+136    	; 0x210e <gc_execute_block+0x1be>
    2086:	65 33       	cpi	r22, 0x35	; 53
    2088:	71 05       	cpc	r23, r1
    208a:	09 f4       	brne	.+2      	; 0x208e <gc_execute_block+0x13e>
    208c:	43 c0       	rjmp	.+134    	; 0x2114 <gc_execute_block+0x1c4>
    208e:	60 35       	cpi	r22, 0x50	; 80
    2090:	71 05       	cpc	r23, r1
    2092:	09 f0       	breq	.+2      	; 0x2096 <gc_execute_block+0x146>
    2094:	86 c0       	rjmp	.+268    	; 0x21a2 <gc_execute_block+0x252>
    2096:	41 c0       	rjmp	.+130    	; 0x211a <gc_execute_block+0x1ca>
    2098:	6c 35       	cpi	r22, 0x5C	; 92
    209a:	71 05       	cpc	r23, r1
    209c:	09 f4       	brne	.+2      	; 0x20a0 <gc_execute_block+0x150>
    209e:	46 c0       	rjmp	.+140    	; 0x212c <gc_execute_block+0x1dc>
    20a0:	6c 35       	cpi	r22, 0x5C	; 92
    20a2:	71 05       	cpc	r23, r1
    20a4:	0c f4       	brge	.+2      	; 0x20a8 <gc_execute_block+0x158>
    20a6:	3f c0       	rjmp	.+126    	; 0x2126 <gc_execute_block+0x1d6>
    20a8:	6d 35       	cpi	r22, 0x5D	; 93
    20aa:	71 05       	cpc	r23, r1
    20ac:	09 f4       	brne	.+2      	; 0x20b0 <gc_execute_block+0x160>
    20ae:	41 c0       	rjmp	.+130    	; 0x2132 <gc_execute_block+0x1e2>
    20b0:	6e 35       	cpi	r22, 0x5E	; 94
    20b2:	71 05       	cpc	r23, r1
    20b4:	09 f0       	breq	.+2      	; 0x20b8 <gc_execute_block+0x168>
    20b6:	75 c0       	rjmp	.+234    	; 0x21a2 <gc_execute_block+0x252>
    20b8:	3f c0       	rjmp	.+126    	; 0x2138 <gc_execute_block+0x1e8>
    20ba:	10 92 27 21 	sts	0x2127, r1
    20be:	82 c0       	rjmp	.+260    	; 0x21c4 <gc_execute_block+0x274>
    20c0:	f0 92 27 21 	sts	0x2127, r15
    20c4:	7f c0       	rjmp	.+254    	; 0x21c4 <gc_execute_block+0x274>
    20c6:	e0 92 27 21 	sts	0x2127, r14
    20ca:	7c c0       	rjmp	.+248    	; 0x21c4 <gc_execute_block+0x274>
    20cc:	a0 92 27 21 	sts	0x2127, r10
    20d0:	79 c0       	rjmp	.+242    	; 0x21c4 <gc_execute_block+0x274>
    20d2:	f0 92 71 21 	sts	0x2171, r15
    20d6:	76 c0       	rjmp	.+236    	; 0x21c4 <gc_execute_block+0x274>
    20d8:	10 92 69 21 	sts	0x2169, r1
    20dc:	f0 92 6a 21 	sts	0x216A, r15
    20e0:	e0 92 6b 21 	sts	0x216B, r14
    20e4:	6f c0       	rjmp	.+222    	; 0x21c4 <gc_execute_block+0x274>
    20e6:	10 92 69 21 	sts	0x2169, r1
    20ea:	e0 92 6a 21 	sts	0x216A, r14
    20ee:	f0 92 6b 21 	sts	0x216B, r15
    20f2:	68 c0       	rjmp	.+208    	; 0x21c4 <gc_execute_block+0x274>
    20f4:	f0 92 69 21 	sts	0x2169, r15
    20f8:	e0 92 6a 21 	sts	0x216A, r14
    20fc:	10 92 6b 21 	sts	0x216B, r1
    2100:	61 c0       	rjmp	.+194    	; 0x21c4 <gc_execute_block+0x274>
    2102:	f0 92 29 21 	sts	0x2129, r15
    2106:	5e c0       	rjmp	.+188    	; 0x21c4 <gc_execute_block+0x274>
    2108:	10 92 29 21 	sts	0x2129, r1
    210c:	5b c0       	rjmp	.+182    	; 0x21c4 <gc_execute_block+0x274>
    210e:	e0 92 71 21 	sts	0x2171, r14
    2112:	58 c0       	rjmp	.+176    	; 0x21c4 <gc_execute_block+0x274>
    2114:	f0 92 70 21 	sts	0x2170, r15
    2118:	55 c0       	rjmp	.+170    	; 0x21c4 <gc_execute_block+0x274>
    211a:	60 92 27 21 	sts	0x2127, r6
    211e:	52 c0       	rjmp	.+164    	; 0x21c4 <gc_execute_block+0x274>
    2120:	f0 92 2a 21 	sts	0x212A, r15
    2124:	4f c0       	rjmp	.+158    	; 0x21c4 <gc_execute_block+0x274>
    2126:	10 92 2a 21 	sts	0x212A, r1
    212a:	4c c0       	rjmp	.+152    	; 0x21c4 <gc_execute_block+0x274>
    212c:	f0 92 2c 21 	sts	0x212C, r15
    2130:	49 c0       	rjmp	.+146    	; 0x21c4 <gc_execute_block+0x274>
    2132:	f0 92 28 21 	sts	0x2128, r15
    2136:	46 c0       	rjmp	.+140    	; 0x21c4 <gc_execute_block+0x274>
    2138:	10 92 28 21 	sts	0x2128, r1
    213c:	43 c0       	rjmp	.+134    	; 0x21c4 <gc_execute_block+0x274>
    213e:	60 91 1e 21 	lds	r22, 0x211E
    2142:	70 91 1f 21 	lds	r23, 0x211F
    2146:	80 91 20 21 	lds	r24, 0x2120
    214a:	90 91 21 21 	lds	r25, 0x2121
    214e:	0e 94 e2 3d 	call	0x7bc4	; 0x7bc4 <__fixsfsi>
    2152:	63 30       	cpi	r22, 0x03	; 3
    2154:	71 05       	cpc	r23, r1
    2156:	e1 f0       	breq	.+56     	; 0x2190 <gc_execute_block+0x240>
    2158:	64 30       	cpi	r22, 0x04	; 4
    215a:	71 05       	cpc	r23, r1
    215c:	34 f4       	brge	.+12     	; 0x216a <gc_execute_block+0x21a>
    215e:	77 fd       	sbrc	r23, 7
    2160:	20 c0       	rjmp	.+64     	; 0x21a2 <gc_execute_block+0x252>
    2162:	62 30       	cpi	r22, 0x02	; 2
    2164:	71 05       	cpc	r23, r1
    2166:	74 f0       	brlt	.+28     	; 0x2184 <gc_execute_block+0x234>
    2168:	10 c0       	rjmp	.+32     	; 0x218a <gc_execute_block+0x23a>
    216a:	65 30       	cpi	r22, 0x05	; 5
    216c:	71 05       	cpc	r23, r1
    216e:	b1 f0       	breq	.+44     	; 0x219c <gc_execute_block+0x24c>
    2170:	65 30       	cpi	r22, 0x05	; 5
    2172:	71 05       	cpc	r23, r1
    2174:	84 f0       	brlt	.+32     	; 0x2196 <gc_execute_block+0x246>
    2176:	6e 31       	cpi	r22, 0x1E	; 30
    2178:	71 05       	cpc	r23, r1
    217a:	39 f0       	breq	.+14     	; 0x218a <gc_execute_block+0x23a>
    217c:	6c 33       	cpi	r22, 0x3C	; 60
    217e:	71 05       	cpc	r23, r1
    2180:	81 f4       	brne	.+32     	; 0x21a2 <gc_execute_block+0x252>
    2182:	03 c0       	rjmp	.+6      	; 0x218a <gc_execute_block+0x23a>
    2184:	f0 92 26 21 	sts	0x2126, r15
    2188:	1d c0       	rjmp	.+58     	; 0x21c4 <gc_execute_block+0x274>
    218a:	e0 92 26 21 	sts	0x2126, r14
    218e:	1a c0       	rjmp	.+52     	; 0x21c4 <gc_execute_block+0x274>
    2190:	f0 92 6d 21 	sts	0x216D, r15
    2194:	17 c0       	rjmp	.+46     	; 0x21c4 <gc_execute_block+0x274>
    2196:	70 92 6d 21 	sts	0x216D, r7
    219a:	14 c0       	rjmp	.+40     	; 0x21c4 <gc_execute_block+0x274>
    219c:	10 92 6d 21 	sts	0x216D, r1
    21a0:	11 c0       	rjmp	.+34     	; 0x21c4 <gc_execute_block+0x274>
    21a2:	b0 92 1c 21 	sts	0x211C, r11
    21a6:	0e c0       	rjmp	.+28     	; 0x21c4 <gc_execute_block+0x274>
    21a8:	60 91 1e 21 	lds	r22, 0x211E
    21ac:	70 91 1f 21 	lds	r23, 0x211F
    21b0:	80 91 20 21 	lds	r24, 0x2120
    21b4:	90 91 21 21 	lds	r25, 0x2121
    21b8:	0e 94 e3 40 	call	0x81c6	; 0x81c6 <trunc>
    21bc:	0e 94 e7 3d 	call	0x7bce	; 0x7bce <__fixunssfsi>
    21c0:	60 93 6c 21 	sts	0x216C, r22
    21c4:	80 91 1c 21 	lds	r24, 0x211C
    21c8:	88 23       	and	r24, r24
    21ca:	69 f4       	brne	.+26     	; 0x21e6 <gc_execute_block+0x296>
    21cc:	8d e1       	ldi	r24, 0x1D	; 29
    21ce:	91 e2       	ldi	r25, 0x21	; 33
    21d0:	6e e1       	ldi	r22, 0x1E	; 30
    21d2:	71 e2       	ldi	r23, 0x21	; 33
    21d4:	42 e2       	ldi	r20, 0x22	; 34
    21d6:	51 e2       	ldi	r21, 0x21	; 33
    21d8:	94 01       	movw	r18, r8
    21da:	86 01       	movw	r16, r12
    21dc:	0e 94 f5 0e 	call	0x1dea	; 0x1dea <_gc_next_statement>
    21e0:	89 2b       	or	r24, r25
    21e2:	09 f0       	breq	.+2      	; 0x21e6 <gc_execute_block+0x296>
    21e4:	f1 ce       	rjmp	.-542    	; 0x1fc8 <gc_execute_block+0x78>
    21e6:	80 91 1c 21 	lds	r24, 0x211C
    21ea:	88 23       	and	r24, r24
    21ec:	09 f0       	breq	.+2      	; 0x21f0 <gc_execute_block+0x2a0>
    21ee:	9d c3       	rjmp	.+1850   	; 0x292a <gc_execute_block+0x9da>
    21f0:	19 82       	std	Y+1, r1	; 0x01
    21f2:	1a 82       	std	Y+2, r1	; 0x02
    21f4:	ed e5       	ldi	r30, 0x5D	; 93
    21f6:	f1 e2       	ldi	r31, 0x21	; 33
    21f8:	8c e0       	ldi	r24, 0x0C	; 12
    21fa:	df 01       	movw	r26, r30
    21fc:	1d 92       	st	X+, r1
    21fe:	8a 95       	dec	r24
    2200:	e9 f7       	brne	.-6      	; 0x21fc <gc_execute_block+0x2ac>
    2202:	df 01       	movw	r26, r30
    2204:	1c 97       	sbiw	r26, 0x0c	; 12
    2206:	78 97       	sbiw	r30, 0x18	; 24
    2208:	8c e0       	ldi	r24, 0x0C	; 12
    220a:	01 90       	ld	r0, Z+
    220c:	0d 92       	st	X+, r0
    220e:	81 50       	subi	r24, 0x01	; 1
    2210:	e1 f7       	brne	.-8      	; 0x220a <gc_execute_block+0x2ba>
    2212:	c6 c0       	rjmp	.+396    	; 0x23a0 <gc_execute_block+0x450>
    2214:	c0 90 1e 21 	lds	r12, 0x211E
    2218:	d0 90 1f 21 	lds	r13, 0x211F
    221c:	e0 90 20 21 	lds	r14, 0x2120
    2220:	f0 90 21 21 	lds	r15, 0x2121
    2224:	80 91 29 21 	lds	r24, 0x2129
    2228:	88 23       	and	r24, r24
    222a:	19 f4       	brne	.+6      	; 0x2232 <gc_execute_block+0x2e2>
    222c:	a7 01       	movw	r20, r14
    222e:	96 01       	movw	r18, r12
    2230:	0a c0       	rjmp	.+20     	; 0x2246 <gc_execute_block+0x2f6>
    2232:	c7 01       	movw	r24, r14
    2234:	b6 01       	movw	r22, r12
    2236:	25 e8       	ldi	r18, 0x85	; 133
    2238:	32 e4       	ldi	r19, 0x42	; 66
    223a:	41 e2       	ldi	r20, 0x21	; 33
    223c:	5d e3       	ldi	r21, 0x3D	; 61
    223e:	0e 94 35 40 	call	0x806a	; 0x806a <__mulsf3>
    2242:	9b 01       	movw	r18, r22
    2244:	ac 01       	movw	r20, r24
    2246:	20 93 3d 21 	sts	0x213D, r18
    224a:	30 93 3e 21 	sts	0x213E, r19
    224e:	40 93 3f 21 	sts	0x213F, r20
    2252:	50 93 40 21 	sts	0x2140, r21
    2256:	00 91 1d 21 	lds	r16, 0x211D
    225a:	00 35       	cpi	r16, 0x50	; 80
    225c:	09 f4       	brne	.+2      	; 0x2260 <gc_execute_block+0x310>
    225e:	47 c0       	rjmp	.+142    	; 0x22ee <gc_execute_block+0x39e>
    2260:	01 35       	cpi	r16, 0x51	; 81
    2262:	58 f4       	brcc	.+22     	; 0x227a <gc_execute_block+0x32a>
    2264:	06 34       	cpi	r16, 0x46	; 70
    2266:	c1 f0       	breq	.+48     	; 0x2298 <gc_execute_block+0x348>
    2268:	06 34       	cpi	r16, 0x46	; 70
    226a:	08 f4       	brcc	.+2      	; 0x226e <gc_execute_block+0x31e>
    226c:	9f c0       	rjmp	.+318    	; 0x23ac <gc_execute_block+0x45c>
    226e:	80 2f       	mov	r24, r16
    2270:	89 54       	subi	r24, 0x49	; 73
    2272:	83 30       	cpi	r24, 0x03	; 3
    2274:	08 f0       	brcs	.+2      	; 0x2278 <gc_execute_block+0x328>
    2276:	9a c0       	rjmp	.+308    	; 0x23ac <gc_execute_block+0x45c>
    2278:	2d c0       	rjmp	.+90     	; 0x22d4 <gc_execute_block+0x384>
    227a:	03 35       	cpi	r16, 0x53	; 83
    227c:	09 f4       	brne	.+2      	; 0x2280 <gc_execute_block+0x330>
    227e:	4b c0       	rjmp	.+150    	; 0x2316 <gc_execute_block+0x3c6>
    2280:	04 35       	cpi	r16, 0x54	; 84
    2282:	20 f4       	brcc	.+8      	; 0x228c <gc_execute_block+0x33c>
    2284:	02 35       	cpi	r16, 0x52	; 82
    2286:	09 f0       	breq	.+2      	; 0x228a <gc_execute_block+0x33a>
    2288:	91 c0       	rjmp	.+290    	; 0x23ac <gc_execute_block+0x45c>
    228a:	3a c0       	rjmp	.+116    	; 0x2300 <gc_execute_block+0x3b0>
    228c:	80 2f       	mov	r24, r16
    228e:	88 55       	subi	r24, 0x58	; 88
    2290:	83 30       	cpi	r24, 0x03	; 3
    2292:	08 f0       	brcs	.+2      	; 0x2296 <gc_execute_block+0x346>
    2294:	8b c0       	rjmp	.+278    	; 0x23ac <gc_execute_block+0x45c>
    2296:	48 c0       	rjmp	.+144    	; 0x2328 <gc_execute_block+0x3d8>
    2298:	80 91 28 21 	lds	r24, 0x2128
    229c:	88 23       	and	r24, r24
    229e:	49 f0       	breq	.+18     	; 0x22b2 <gc_execute_block+0x362>
    22a0:	20 93 41 21 	sts	0x2141, r18
    22a4:	30 93 42 21 	sts	0x2142, r19
    22a8:	40 93 43 21 	sts	0x2143, r20
    22ac:	50 93 44 21 	sts	0x2144, r21
    22b0:	7d c0       	rjmp	.+250    	; 0x23ac <gc_execute_block+0x45c>
    22b2:	ca 01       	movw	r24, r20
    22b4:	b9 01       	movw	r22, r18
    22b6:	20 e0       	ldi	r18, 0x00	; 0
    22b8:	30 e0       	ldi	r19, 0x00	; 0
    22ba:	40 e7       	ldi	r20, 0x70	; 112
    22bc:	52 e4       	ldi	r21, 0x42	; 66
    22be:	0e 94 7a 3d 	call	0x7af4	; 0x7af4 <__divsf3>
    22c2:	60 93 35 21 	sts	0x2135, r22
    22c6:	70 93 36 21 	sts	0x2136, r23
    22ca:	80 93 37 21 	sts	0x2137, r24
    22ce:	90 93 38 21 	sts	0x2138, r25
    22d2:	6c c0       	rjmp	.+216    	; 0x23ac <gc_execute_block+0x45c>
    22d4:	e0 2f       	mov	r30, r16
    22d6:	f0 e0       	ldi	r31, 0x00	; 0
    22d8:	ee 0f       	add	r30, r30
    22da:	ff 1f       	adc	r31, r31
    22dc:	ee 0f       	add	r30, r30
    22de:	ff 1f       	adc	r31, r31
    22e0:	e7 5c       	subi	r30, 0xC7	; 199
    22e2:	ff 4d       	sbci	r31, 0xDF	; 223
    22e4:	20 83       	st	Z, r18
    22e6:	31 83       	std	Z+1, r19	; 0x01
    22e8:	42 83       	std	Z+2, r20	; 0x02
    22ea:	53 83       	std	Z+3, r21	; 0x03
    22ec:	5f c0       	rjmp	.+190    	; 0x23ac <gc_execute_block+0x45c>
    22ee:	c0 92 2d 21 	sts	0x212D, r12
    22f2:	d0 92 2e 21 	sts	0x212E, r13
    22f6:	e0 92 2f 21 	sts	0x212F, r14
    22fa:	f0 92 30 21 	sts	0x2130, r15
    22fe:	56 c0       	rjmp	.+172    	; 0x23ac <gc_execute_block+0x45c>
    2300:	20 93 31 21 	sts	0x2131, r18
    2304:	30 93 32 21 	sts	0x2132, r19
    2308:	40 93 33 21 	sts	0x2133, r20
    230c:	50 93 34 21 	sts	0x2134, r21
    2310:	70 92 2b 21 	sts	0x212B, r7
    2314:	4b c0       	rjmp	.+150    	; 0x23ac <gc_execute_block+0x45c>
    2316:	c7 01       	movw	r24, r14
    2318:	b6 01       	movw	r22, r12
    231a:	0e 94 e2 3d 	call	0x7bc4	; 0x7bc4 <__fixsfsi>
    231e:	60 93 6e 21 	sts	0x216E, r22
    2322:	70 93 6f 21 	sts	0x216F, r23
    2326:	42 c0       	rjmp	.+132    	; 0x23ac <gc_execute_block+0x45c>
    2328:	80 91 2c 21 	lds	r24, 0x212C
    232c:	88 23       	and	r24, r24
    232e:	69 f0       	breq	.+26     	; 0x234a <gc_execute_block+0x3fa>
    2330:	e0 2f       	mov	r30, r16
    2332:	f0 e0       	ldi	r31, 0x00	; 0
    2334:	ee 0f       	add	r30, r30
    2336:	ff 1f       	adc	r31, r31
    2338:	ee 0f       	add	r30, r30
    233a:	ff 1f       	adc	r31, r31
    233c:	e4 54       	subi	r30, 0x44	; 68
    233e:	f0 4e       	sbci	r31, 0xE0	; 224
    2340:	21 a7       	std	Z+41, r18	; 0x29
    2342:	32 a7       	std	Z+42, r19	; 0x2a
    2344:	43 a7       	std	Z+43, r20	; 0x2b
    2346:	54 a7       	std	Z+44, r21	; 0x2c
    2348:	31 c0       	rjmp	.+98     	; 0x23ac <gc_execute_block+0x45c>
    234a:	80 91 2a 21 	lds	r24, 0x212A
    234e:	88 23       	and	r24, r24
    2350:	21 f4       	brne	.+8      	; 0x235a <gc_execute_block+0x40a>
    2352:	80 91 70 21 	lds	r24, 0x2170
    2356:	88 23       	and	r24, r24
    2358:	69 f0       	breq	.+26     	; 0x2374 <gc_execute_block+0x424>
    235a:	e0 2f       	mov	r30, r16
    235c:	f0 e0       	ldi	r31, 0x00	; 0
    235e:	ee 0f       	add	r30, r30
    2360:	ff 1f       	adc	r31, r31
    2362:	ee 0f       	add	r30, r30
    2364:	ff 1f       	adc	r31, r31
    2366:	e4 54       	subi	r30, 0x44	; 68
    2368:	f0 4e       	sbci	r31, 0xE0	; 224
    236a:	25 ab       	std	Z+53, r18	; 0x35
    236c:	36 ab       	std	Z+54, r19	; 0x36
    236e:	47 ab       	std	Z+55, r20	; 0x37
    2370:	50 af       	std	Z+56, r21	; 0x38
    2372:	1c c0       	rjmp	.+56     	; 0x23ac <gc_execute_block+0x45c>
    2374:	10 e0       	ldi	r17, 0x00	; 0
    2376:	00 0f       	add	r16, r16
    2378:	11 1f       	adc	r17, r17
    237a:	00 0f       	add	r16, r16
    237c:	11 1f       	adc	r17, r17
    237e:	04 54       	subi	r16, 0x44	; 68
    2380:	10 4e       	sbci	r17, 0xE0	; 224
    2382:	f8 01       	movw	r30, r16
    2384:	65 a9       	ldd	r22, Z+53	; 0x35
    2386:	76 a9       	ldd	r23, Z+54	; 0x36
    2388:	87 a9       	ldd	r24, Z+55	; 0x37
    238a:	90 ad       	ldd	r25, Z+56	; 0x38
    238c:	0e 94 d4 3c 	call	0x79a8	; 0x79a8 <__addsf3>
    2390:	d8 01       	movw	r26, r16
    2392:	d5 96       	adiw	r26, 0x35	; 53
    2394:	6d 93       	st	X+, r22
    2396:	7d 93       	st	X+, r23
    2398:	8d 93       	st	X+, r24
    239a:	9c 93       	st	X, r25
    239c:	d8 97       	sbiw	r26, 0x38	; 56
    239e:	06 c0       	rjmp	.+12     	; 0x23ac <gc_execute_block+0x45c>
    23a0:	5e 01       	movw	r10, r28
    23a2:	08 94       	sec
    23a4:	a1 1c       	adc	r10, r1
    23a6:	b1 1c       	adc	r11, r1
    23a8:	77 24       	eor	r7, r7
    23aa:	73 94       	inc	r7
    23ac:	8d e1       	ldi	r24, 0x1D	; 29
    23ae:	91 e2       	ldi	r25, 0x21	; 33
    23b0:	6e e1       	ldi	r22, 0x1E	; 30
    23b2:	71 e2       	ldi	r23, 0x21	; 33
    23b4:	42 e2       	ldi	r20, 0x22	; 34
    23b6:	51 e2       	ldi	r21, 0x21	; 33
    23b8:	94 01       	movw	r18, r8
    23ba:	85 01       	movw	r16, r10
    23bc:	0e 94 f5 0e 	call	0x1dea	; 0x1dea <_gc_next_statement>
    23c0:	89 2b       	or	r24, r25
    23c2:	09 f0       	breq	.+2      	; 0x23c6 <gc_execute_block+0x476>
    23c4:	27 cf       	rjmp	.-434    	; 0x2214 <gc_execute_block+0x2c4>
    23c6:	80 91 1c 21 	lds	r24, 0x211C
    23ca:	88 23       	and	r24, r24
    23cc:	09 f0       	breq	.+2      	; 0x23d0 <gc_execute_block+0x480>
    23ce:	ad c2       	rjmp	.+1370   	; 0x292a <gc_execute_block+0x9da>
    23d0:	80 91 6d 21 	lds	r24, 0x216D
    23d4:	88 23       	and	r24, r24
    23d6:	71 f0       	breq	.+28     	; 0x23f4 <gc_execute_block+0x4a4>
    23d8:	40 91 6e 21 	lds	r20, 0x216E
    23dc:	50 91 6f 21 	lds	r21, 0x216F
    23e0:	66 27       	eor	r22, r22
    23e2:	57 fd       	sbrc	r21, 7
    23e4:	60 95       	com	r22
    23e6:	76 2f       	mov	r23, r22
    23e8:	99 27       	eor	r25, r25
    23ea:	87 fd       	sbrc	r24, 7
    23ec:	90 95       	com	r25
    23ee:	0e 94 8e 22 	call	0x451c	; 0x451c <spindle_run>
    23f2:	02 c0       	rjmp	.+4      	; 0x23f8 <gc_execute_block+0x4a8>
    23f4:	0e 94 9e 22 	call	0x453c	; 0x453c <spindle_stop>
    23f8:	80 91 71 21 	lds	r24, 0x2171
    23fc:	81 30       	cpi	r24, 0x01	; 1
    23fe:	41 f0       	breq	.+16     	; 0x2410 <gc_execute_block+0x4c0>
    2400:	81 30       	cpi	r24, 0x01	; 1
    2402:	c8 f0       	brcs	.+50     	; 0x2436 <gc_execute_block+0x4e6>
    2404:	82 30       	cpi	r24, 0x02	; 2
    2406:	09 f0       	breq	.+2      	; 0x240a <gc_execute_block+0x4ba>
    2408:	81 c2       	rjmp	.+1282   	; 0x290c <gc_execute_block+0x9bc>
    240a:	0e 94 7f 1a 	call	0x34fe	; 0x34fe <mc_go_home>
    240e:	7e c2       	rjmp	.+1276   	; 0x290c <gc_execute_block+0x9bc>
    2410:	60 91 2d 21 	lds	r22, 0x212D
    2414:	70 91 2e 21 	lds	r23, 0x212E
    2418:	80 91 2f 21 	lds	r24, 0x212F
    241c:	90 91 30 21 	lds	r25, 0x2130
    2420:	20 e0       	ldi	r18, 0x00	; 0
    2422:	30 e0       	ldi	r19, 0x00	; 0
    2424:	4a e7       	ldi	r20, 0x7A	; 122
    2426:	54 e4       	ldi	r21, 0x44	; 68
    2428:	0e 94 35 40 	call	0x806a	; 0x806a <__mulsf3>
    242c:	0e 94 e7 3d 	call	0x7bce	; 0x7bce <__fixunssfsi>
    2430:	0e 94 30 1a 	call	0x3460	; 0x3460 <mc_dwell>
    2434:	6b c2       	rjmp	.+1238   	; 0x290c <gc_execute_block+0x9bc>
    2436:	b0 91 27 21 	lds	r27, 0x2127
    243a:	b8 8f       	std	Y+24, r27	; 0x18
    243c:	b2 30       	cpi	r27, 0x02	; 2
    243e:	20 f0       	brcs	.+8      	; 0x2448 <gc_execute_block+0x4f8>
    2440:	b4 30       	cpi	r27, 0x04	; 4
    2442:	08 f0       	brcs	.+2      	; 0x2446 <gc_execute_block+0x4f6>
    2444:	63 c2       	rjmp	.+1222   	; 0x290c <gc_execute_block+0x9bc>
    2446:	31 c0       	rjmp	.+98     	; 0x24aa <gc_execute_block+0x55a>
    2448:	60 91 51 21 	lds	r22, 0x2151
    244c:	70 91 52 21 	lds	r23, 0x2152
    2450:	80 91 53 21 	lds	r24, 0x2153
    2454:	90 91 54 21 	lds	r25, 0x2154
    2458:	20 91 55 21 	lds	r18, 0x2155
    245c:	30 91 56 21 	lds	r19, 0x2156
    2460:	40 91 57 21 	lds	r20, 0x2157
    2464:	50 91 58 21 	lds	r21, 0x2158
    2468:	e0 90 59 21 	lds	r14, 0x2159
    246c:	f0 90 5a 21 	lds	r15, 0x215A
    2470:	00 91 5b 21 	lds	r16, 0x215B
    2474:	10 91 5c 21 	lds	r17, 0x215C
    2478:	80 90 28 21 	lds	r8, 0x2128
    247c:	88 20       	and	r8, r8
    247e:	49 f0       	breq	.+18     	; 0x2492 <gc_execute_block+0x542>
    2480:	a0 90 41 21 	lds	r10, 0x2141
    2484:	b0 90 42 21 	lds	r11, 0x2142
    2488:	c0 90 43 21 	lds	r12, 0x2143
    248c:	d0 90 44 21 	lds	r13, 0x2144
    2490:	08 c0       	rjmp	.+16     	; 0x24a2 <gc_execute_block+0x552>
    2492:	a0 90 35 21 	lds	r10, 0x2135
    2496:	b0 90 36 21 	lds	r11, 0x2136
    249a:	c0 90 37 21 	lds	r12, 0x2137
    249e:	d0 90 38 21 	lds	r13, 0x2138
    24a2:	99 24       	eor	r9, r9
    24a4:	0e 94 dc 1a 	call	0x35b8	; 0x35b8 <mc_line_nonblock>
    24a8:	16 c1       	rjmp	.+556    	; 0x26d6 <gc_execute_block+0x786>
    24aa:	80 91 2b 21 	lds	r24, 0x212B
    24ae:	88 23       	and	r24, r24
    24b0:	09 f4       	brne	.+2      	; 0x24b4 <gc_execute_block+0x564>
    24b2:	e8 c0       	rjmp	.+464    	; 0x2684 <gc_execute_block+0x734>
    24b4:	e0 91 69 21 	lds	r30, 0x2169
    24b8:	f0 e0       	ldi	r31, 0x00	; 0
    24ba:	ee 0f       	add	r30, r30
    24bc:	ff 1f       	adc	r31, r31
    24be:	ee 0f       	add	r30, r30
    24c0:	ff 1f       	adc	r31, r31
    24c2:	e4 5e       	subi	r30, 0xE4	; 228
    24c4:	fe 4d       	sbci	r31, 0xDE	; 222
    24c6:	65 a9       	ldd	r22, Z+53	; 0x35
    24c8:	76 a9       	ldd	r23, Z+54	; 0x36
    24ca:	87 a9       	ldd	r24, Z+55	; 0x37
    24cc:	90 ad       	ldd	r25, Z+56	; 0x38
    24ce:	21 a5       	ldd	r18, Z+41	; 0x29
    24d0:	32 a5       	ldd	r19, Z+42	; 0x2a
    24d2:	43 a5       	ldd	r20, Z+43	; 0x2b
    24d4:	54 a5       	ldd	r21, Z+44	; 0x2c
    24d6:	0e 94 d3 3c 	call	0x79a6	; 0x79a6 <__subsf3>
    24da:	6f 83       	std	Y+7, r22	; 0x07
    24dc:	78 87       	std	Y+8, r23	; 0x08
    24de:	89 87       	std	Y+9, r24	; 0x09
    24e0:	9a 87       	std	Y+10, r25	; 0x0a
    24e2:	e0 91 6a 21 	lds	r30, 0x216A
    24e6:	f0 e0       	ldi	r31, 0x00	; 0
    24e8:	ee 0f       	add	r30, r30
    24ea:	ff 1f       	adc	r31, r31
    24ec:	ee 0f       	add	r30, r30
    24ee:	ff 1f       	adc	r31, r31
    24f0:	e4 5e       	subi	r30, 0xE4	; 228
    24f2:	fe 4d       	sbci	r31, 0xDE	; 222
    24f4:	65 a9       	ldd	r22, Z+53	; 0x35
    24f6:	76 a9       	ldd	r23, Z+54	; 0x36
    24f8:	87 a9       	ldd	r24, Z+55	; 0x37
    24fa:	90 ad       	ldd	r25, Z+56	; 0x38
    24fc:	21 a5       	ldd	r18, Z+41	; 0x29
    24fe:	32 a5       	ldd	r19, Z+42	; 0x2a
    2500:	43 a5       	ldd	r20, Z+43	; 0x2b
    2502:	54 a5       	ldd	r21, Z+44	; 0x2c
    2504:	0e 94 d3 3c 	call	0x79a6	; 0x79a6 <__subsf3>
    2508:	1b 01       	movw	r2, r22
    250a:	2c 01       	movw	r4, r24
    250c:	10 92 5d 21 	sts	0x215D, r1
    2510:	10 92 5e 21 	sts	0x215E, r1
    2514:	60 90 31 21 	lds	r6, 0x2131
    2518:	70 90 32 21 	lds	r7, 0x2132
    251c:	80 90 33 21 	lds	r8, 0x2133
    2520:	90 90 34 21 	lds	r9, 0x2134
    2524:	c4 01       	movw	r24, r8
    2526:	b3 01       	movw	r22, r6
    2528:	20 e0       	ldi	r18, 0x00	; 0
    252a:	30 e0       	ldi	r19, 0x00	; 0
    252c:	40 e8       	ldi	r20, 0x80	; 128
    252e:	50 e4       	ldi	r21, 0x40	; 64
    2530:	0e 94 35 40 	call	0x806a	; 0x806a <__mulsf3>
    2534:	a4 01       	movw	r20, r8
    2536:	93 01       	movw	r18, r6
    2538:	0e 94 35 40 	call	0x806a	; 0x806a <__mulsf3>
    253c:	5b 01       	movw	r10, r22
    253e:	6c 01       	movw	r12, r24
    2540:	6f 81       	ldd	r22, Y+7	; 0x07
    2542:	78 85       	ldd	r23, Y+8	; 0x08
    2544:	89 85       	ldd	r24, Y+9	; 0x09
    2546:	9a 85       	ldd	r25, Y+10	; 0x0a
    2548:	9b 01       	movw	r18, r22
    254a:	ac 01       	movw	r20, r24
    254c:	0e 94 35 40 	call	0x806a	; 0x806a <__mulsf3>
    2550:	7b 01       	movw	r14, r22
    2552:	8c 01       	movw	r16, r24
    2554:	c2 01       	movw	r24, r4
    2556:	b1 01       	movw	r22, r2
    2558:	a2 01       	movw	r20, r4
    255a:	91 01       	movw	r18, r2
    255c:	0e 94 35 40 	call	0x806a	; 0x806a <__mulsf3>
    2560:	9b 01       	movw	r18, r22
    2562:	ac 01       	movw	r20, r24
    2564:	c8 01       	movw	r24, r16
    2566:	b7 01       	movw	r22, r14
    2568:	0e 94 d3 3c 	call	0x79a6	; 0x79a6 <__subsf3>
    256c:	9b 01       	movw	r18, r22
    256e:	ac 01       	movw	r20, r24
    2570:	c6 01       	movw	r24, r12
    2572:	b5 01       	movw	r22, r10
    2574:	0e 94 d3 3c 	call	0x79a6	; 0x79a6 <__subsf3>
    2578:	0e 94 a2 40 	call	0x8144	; 0x8144 <sqrt>
    257c:	7b 01       	movw	r14, r22
    257e:	8c 01       	movw	r16, r24
    2580:	6f 81       	ldd	r22, Y+7	; 0x07
    2582:	78 85       	ldd	r23, Y+8	; 0x08
    2584:	89 85       	ldd	r24, Y+9	; 0x09
    2586:	9a 85       	ldd	r25, Y+10	; 0x0a
    2588:	a2 01       	movw	r20, r4
    258a:	91 01       	movw	r18, r2
    258c:	0e 94 70 3f 	call	0x7ee0	; 0x7ee0 <hypot>
    2590:	9b 01       	movw	r18, r22
    2592:	ac 01       	movw	r20, r24
    2594:	17 fb       	bst	r17, 7
    2596:	10 95       	com	r17
    2598:	17 f9       	bld	r17, 7
    259a:	10 95       	com	r17
    259c:	c8 01       	movw	r24, r16
    259e:	b7 01       	movw	r22, r14
    25a0:	0e 94 7a 3d 	call	0x7af4	; 0x7af4 <__divsf3>
    25a4:	7b 01       	movw	r14, r22
    25a6:	8c 01       	movw	r16, r24
    25a8:	a8 01       	movw	r20, r16
    25aa:	97 01       	movw	r18, r14
    25ac:	0e 94 ea 40 	call	0x81d4	; 0x81d4 <__unordsf2>
    25b0:	88 23       	and	r24, r24
    25b2:	11 f0       	breq	.+4      	; 0x25b8 <gc_execute_block+0x668>
    25b4:	8d e0       	ldi	r24, 0x0D	; 13
    25b6:	8f c0       	rjmp	.+286    	; 0x26d6 <gc_execute_block+0x786>
    25b8:	e8 8d       	ldd	r30, Y+24	; 0x18
    25ba:	e3 30       	cpi	r30, 0x03	; 3
    25bc:	21 f4       	brne	.+8      	; 0x25c6 <gc_execute_block+0x676>
    25be:	17 fb       	bst	r17, 7
    25c0:	10 95       	com	r17
    25c2:	17 f9       	bld	r17, 7
    25c4:	10 95       	com	r17
    25c6:	c4 01       	movw	r24, r8
    25c8:	b3 01       	movw	r22, r6
    25ca:	20 e0       	ldi	r18, 0x00	; 0
    25cc:	30 e0       	ldi	r19, 0x00	; 0
    25ce:	40 e0       	ldi	r20, 0x00	; 0
    25d0:	50 e0       	ldi	r21, 0x00	; 0
    25d2:	0e 94 73 3d 	call	0x7ae6	; 0x7ae6 <__cmpsf2>
    25d6:	88 23       	and	r24, r24
    25d8:	24 f4       	brge	.+8      	; 0x25e2 <gc_execute_block+0x692>
    25da:	17 fb       	bst	r17, 7
    25dc:	10 95       	com	r17
    25de:	17 f9       	bld	r17, 7
    25e0:	10 95       	com	r17
    25e2:	80 91 69 21 	lds	r24, 0x2169
    25e6:	c8 2e       	mov	r12, r24
    25e8:	dd 24       	eor	r13, r13
    25ea:	cc 0c       	add	r12, r12
    25ec:	dd 1c       	adc	r13, r13
    25ee:	cc 0c       	add	r12, r12
    25f0:	dd 1c       	adc	r13, r13
    25f2:	2d e5       	ldi	r18, 0x5D	; 93
    25f4:	31 e2       	ldi	r19, 0x21	; 33
    25f6:	c2 0e       	add	r12, r18
    25f8:	d3 1e       	adc	r13, r19
    25fa:	c2 01       	movw	r24, r4
    25fc:	b1 01       	movw	r22, r2
    25fe:	a8 01       	movw	r20, r16
    2600:	97 01       	movw	r18, r14
    2602:	0e 94 35 40 	call	0x806a	; 0x806a <__mulsf3>
    2606:	9b 01       	movw	r18, r22
    2608:	ac 01       	movw	r20, r24
    260a:	6f 81       	ldd	r22, Y+7	; 0x07
    260c:	78 85       	ldd	r23, Y+8	; 0x08
    260e:	89 85       	ldd	r24, Y+9	; 0x09
    2610:	9a 85       	ldd	r25, Y+10	; 0x0a
    2612:	0e 94 d3 3c 	call	0x79a6	; 0x79a6 <__subsf3>
    2616:	20 e0       	ldi	r18, 0x00	; 0
    2618:	30 e0       	ldi	r19, 0x00	; 0
    261a:	40 e0       	ldi	r20, 0x00	; 0
    261c:	5f e3       	ldi	r21, 0x3F	; 63
    261e:	0e 94 35 40 	call	0x806a	; 0x806a <__mulsf3>
    2622:	d6 01       	movw	r26, r12
    2624:	6d 93       	st	X+, r22
    2626:	7d 93       	st	X+, r23
    2628:	8d 93       	st	X+, r24
    262a:	9c 93       	st	X, r25
    262c:	13 97       	sbiw	r26, 0x03	; 3
    262e:	80 91 6a 21 	lds	r24, 0x216A
    2632:	c8 2e       	mov	r12, r24
    2634:	dd 24       	eor	r13, r13
    2636:	cc 0c       	add	r12, r12
    2638:	dd 1c       	adc	r13, r13
    263a:	cc 0c       	add	r12, r12
    263c:	dd 1c       	adc	r13, r13
    263e:	ed e5       	ldi	r30, 0x5D	; 93
    2640:	f1 e2       	ldi	r31, 0x21	; 33
    2642:	ce 0e       	add	r12, r30
    2644:	df 1e       	adc	r13, r31
    2646:	6f 81       	ldd	r22, Y+7	; 0x07
    2648:	78 85       	ldd	r23, Y+8	; 0x08
    264a:	89 85       	ldd	r24, Y+9	; 0x09
    264c:	9a 85       	ldd	r25, Y+10	; 0x0a
    264e:	a8 01       	movw	r20, r16
    2650:	97 01       	movw	r18, r14
    2652:	0e 94 35 40 	call	0x806a	; 0x806a <__mulsf3>
    2656:	9b 01       	movw	r18, r22
    2658:	ac 01       	movw	r20, r24
    265a:	c2 01       	movw	r24, r4
    265c:	b1 01       	movw	r22, r2
    265e:	0e 94 d4 3c 	call	0x79a8	; 0x79a8 <__addsf3>
    2662:	20 e0       	ldi	r18, 0x00	; 0
    2664:	30 e0       	ldi	r19, 0x00	; 0
    2666:	40 e0       	ldi	r20, 0x00	; 0
    2668:	5f e3       	ldi	r21, 0x3F	; 63
    266a:	0e 94 35 40 	call	0x806a	; 0x806a <__mulsf3>
    266e:	d6 01       	movw	r26, r12
    2670:	6d 93       	st	X+, r22
    2672:	7d 93       	st	X+, r23
    2674:	8d 93       	st	X+, r24
    2676:	9c 93       	st	X, r25
    2678:	13 97       	sbiw	r26, 0x03	; 3
    267a:	80 91 1c 21 	lds	r24, 0x211C
    267e:	88 23       	and	r24, r24
    2680:	09 f0       	breq	.+2      	; 0x2684 <gc_execute_block+0x734>
    2682:	44 c1       	rjmp	.+648    	; 0x290c <gc_execute_block+0x9bc>
    2684:	e0 91 69 21 	lds	r30, 0x2169
    2688:	f0 e0       	ldi	r31, 0x00	; 0
    268a:	ee 0f       	add	r30, r30
    268c:	ff 1f       	adc	r31, r31
    268e:	ee 0f       	add	r30, r30
    2690:	ff 1f       	adc	r31, r31
    2692:	e3 5a       	subi	r30, 0xA3	; 163
    2694:	fe 4d       	sbci	r31, 0xDE	; 222
    2696:	60 81       	ld	r22, Z
    2698:	71 81       	ldd	r23, Z+1	; 0x01
    269a:	82 81       	ldd	r24, Z+2	; 0x02
    269c:	93 81       	ldd	r25, Z+3	; 0x03
    269e:	90 58       	subi	r25, 0x80	; 128
    26a0:	e0 91 6a 21 	lds	r30, 0x216A
    26a4:	f0 e0       	ldi	r31, 0x00	; 0
    26a6:	ee 0f       	add	r30, r30
    26a8:	ff 1f       	adc	r31, r31
    26aa:	ee 0f       	add	r30, r30
    26ac:	ff 1f       	adc	r31, r31
    26ae:	e3 5a       	subi	r30, 0xA3	; 163
    26b0:	fe 4d       	sbci	r31, 0xDE	; 222
    26b2:	20 81       	ld	r18, Z
    26b4:	31 81       	ldd	r19, Z+1	; 0x01
    26b6:	42 81       	ldd	r20, Z+2	; 0x02
    26b8:	53 81       	ldd	r21, Z+3	; 0x03
    26ba:	50 58       	subi	r21, 0x80	; 128
    26bc:	0e 94 69 0f 	call	0x1ed2	; 0x1ed2 <theta>
    26c0:	6f 87       	std	Y+15, r22	; 0x0f
    26c2:	78 8b       	std	Y+16, r23	; 0x10
    26c4:	89 8b       	std	Y+17, r24	; 0x11
    26c6:	9a 8b       	std	Y+18, r25	; 0x12
    26c8:	9b 01       	movw	r18, r22
    26ca:	ac 01       	movw	r20, r24
    26cc:	0e 94 ea 40 	call	0x81d4	; 0x81d4 <__unordsf2>
    26d0:	88 23       	and	r24, r24
    26d2:	21 f0       	breq	.+8      	; 0x26dc <gc_execute_block+0x78c>
    26d4:	8f e0       	ldi	r24, 0x0F	; 15
    26d6:	80 93 1c 21 	sts	0x211C, r24
    26da:	18 c1       	rjmp	.+560    	; 0x290c <gc_execute_block+0x9bc>
    26dc:	e0 91 69 21 	lds	r30, 0x2169
    26e0:	0e 2f       	mov	r16, r30
    26e2:	10 e0       	ldi	r17, 0x00	; 0
    26e4:	e0 91 6a 21 	lds	r30, 0x216A
    26e8:	ce 2e       	mov	r12, r30
    26ea:	dd 24       	eor	r13, r13
    26ec:	00 0f       	add	r16, r16
    26ee:	11 1f       	adc	r17, r17
    26f0:	00 0f       	add	r16, r16
    26f2:	11 1f       	adc	r17, r17
    26f4:	04 5e       	subi	r16, 0xE4	; 228
    26f6:	1e 4d       	sbci	r17, 0xDE	; 222
    26f8:	f8 01       	movw	r30, r16
    26fa:	ef 5b       	subi	r30, 0xBF	; 191
    26fc:	ff 4f       	sbci	r31, 0xFF	; 255
    26fe:	d8 01       	movw	r26, r16
    2700:	d5 96       	adiw	r26, 0x35	; 53
    2702:	6d 91       	ld	r22, X+
    2704:	7d 91       	ld	r23, X+
    2706:	8d 91       	ld	r24, X+
    2708:	9c 91       	ld	r25, X
    270a:	d8 97       	sbiw	r26, 0x38	; 56
    270c:	20 81       	ld	r18, Z
    270e:	31 81       	ldd	r19, Z+1	; 0x01
    2710:	42 81       	ldd	r20, Z+2	; 0x02
    2712:	53 81       	ldd	r21, Z+3	; 0x03
    2714:	0e 94 d3 3c 	call	0x79a6	; 0x79a6 <__subsf3>
    2718:	f8 01       	movw	r30, r16
    271a:	21 a5       	ldd	r18, Z+41	; 0x29
    271c:	32 a5       	ldd	r19, Z+42	; 0x2a
    271e:	43 a5       	ldd	r20, Z+43	; 0x2b
    2720:	54 a5       	ldd	r21, Z+44	; 0x2c
    2722:	0e 94 d3 3c 	call	0x79a6	; 0x79a6 <__subsf3>
    2726:	7b 01       	movw	r14, r22
    2728:	8c 01       	movw	r16, r24
    272a:	cc 0c       	add	r12, r12
    272c:	dd 1c       	adc	r13, r13
    272e:	cc 0c       	add	r12, r12
    2730:	dd 1c       	adc	r13, r13
    2732:	2c e1       	ldi	r18, 0x1C	; 28
    2734:	31 e2       	ldi	r19, 0x21	; 33
    2736:	c2 0e       	add	r12, r18
    2738:	d3 1e       	adc	r13, r19
    273a:	f6 01       	movw	r30, r12
    273c:	ef 5b       	subi	r30, 0xBF	; 191
    273e:	ff 4f       	sbci	r31, 0xFF	; 255
    2740:	d6 01       	movw	r26, r12
    2742:	d5 96       	adiw	r26, 0x35	; 53
    2744:	6d 91       	ld	r22, X+
    2746:	7d 91       	ld	r23, X+
    2748:	8d 91       	ld	r24, X+
    274a:	9c 91       	ld	r25, X
    274c:	d8 97       	sbiw	r26, 0x38	; 56
    274e:	20 81       	ld	r18, Z
    2750:	31 81       	ldd	r19, Z+1	; 0x01
    2752:	42 81       	ldd	r20, Z+2	; 0x02
    2754:	53 81       	ldd	r21, Z+3	; 0x03
    2756:	0e 94 d3 3c 	call	0x79a6	; 0x79a6 <__subsf3>
    275a:	f6 01       	movw	r30, r12
    275c:	21 a5       	ldd	r18, Z+41	; 0x29
    275e:	32 a5       	ldd	r19, Z+42	; 0x2a
    2760:	43 a5       	ldd	r20, Z+43	; 0x2b
    2762:	54 a5       	ldd	r21, Z+44	; 0x2c
    2764:	0e 94 d3 3c 	call	0x79a6	; 0x79a6 <__subsf3>
    2768:	9b 01       	movw	r18, r22
    276a:	ac 01       	movw	r20, r24
    276c:	c8 01       	movw	r24, r16
    276e:	b7 01       	movw	r22, r14
    2770:	0e 94 69 0f 	call	0x1ed2	; 0x1ed2 <theta>
    2774:	7b 01       	movw	r14, r22
    2776:	8c 01       	movw	r16, r24
    2778:	a8 01       	movw	r20, r16
    277a:	97 01       	movw	r18, r14
    277c:	0e 94 ea 40 	call	0x81d4	; 0x81d4 <__unordsf2>
    2780:	88 23       	and	r24, r24
    2782:	09 f0       	breq	.+2      	; 0x2786 <gc_execute_block+0x836>
    2784:	a7 cf       	rjmp	.-178    	; 0x26d4 <gc_execute_block+0x784>
    2786:	c8 01       	movw	r24, r16
    2788:	b7 01       	movw	r22, r14
    278a:	2f 85       	ldd	r18, Y+15	; 0x0f
    278c:	38 89       	ldd	r19, Y+16	; 0x10
    278e:	49 89       	ldd	r20, Y+17	; 0x11
    2790:	5a 89       	ldd	r21, Y+18	; 0x12
    2792:	0e 94 73 3d 	call	0x7ae6	; 0x7ae6 <__cmpsf2>
    2796:	88 23       	and	r24, r24
    2798:	54 f4       	brge	.+20     	; 0x27ae <gc_execute_block+0x85e>
    279a:	c8 01       	movw	r24, r16
    279c:	b7 01       	movw	r22, r14
    279e:	2b ed       	ldi	r18, 0xDB	; 219
    27a0:	3f e0       	ldi	r19, 0x0F	; 15
    27a2:	49 ec       	ldi	r20, 0xC9	; 201
    27a4:	50 e4       	ldi	r21, 0x40	; 64
    27a6:	0e 94 d4 3c 	call	0x79a8	; 0x79a8 <__addsf3>
    27aa:	7b 01       	movw	r14, r22
    27ac:	8c 01       	movw	r16, r24
    27ae:	c8 01       	movw	r24, r16
    27b0:	b7 01       	movw	r22, r14
    27b2:	2f 85       	ldd	r18, Y+15	; 0x0f
    27b4:	38 89       	ldd	r19, Y+16	; 0x10
    27b6:	49 89       	ldd	r20, Y+17	; 0x11
    27b8:	5a 89       	ldd	r21, Y+18	; 0x12
    27ba:	0e 94 d3 3c 	call	0x79a6	; 0x79a6 <__subsf3>
    27be:	6b 87       	std	Y+11, r22	; 0x0b
    27c0:	7c 87       	std	Y+12, r23	; 0x0c
    27c2:	8d 87       	std	Y+13, r24	; 0x0d
    27c4:	9e 87       	std	Y+14, r25	; 0x0e
    27c6:	80 91 27 21 	lds	r24, 0x2127
    27ca:	83 30       	cpi	r24, 0x03	; 3
    27cc:	71 f4       	brne	.+28     	; 0x27ea <gc_execute_block+0x89a>
    27ce:	6b 85       	ldd	r22, Y+11	; 0x0b
    27d0:	7c 85       	ldd	r23, Y+12	; 0x0c
    27d2:	8d 85       	ldd	r24, Y+13	; 0x0d
    27d4:	9e 85       	ldd	r25, Y+14	; 0x0e
    27d6:	2b ed       	ldi	r18, 0xDB	; 219
    27d8:	3f e0       	ldi	r19, 0x0F	; 15
    27da:	49 ec       	ldi	r20, 0xC9	; 201
    27dc:	50 e4       	ldi	r21, 0x40	; 64
    27de:	0e 94 d3 3c 	call	0x79a6	; 0x79a6 <__subsf3>
    27e2:	6b 87       	std	Y+11, r22	; 0x0b
    27e4:	7c 87       	std	Y+12, r23	; 0x0c
    27e6:	8d 87       	std	Y+13, r24	; 0x0d
    27e8:	9e 87       	std	Y+14, r25	; 0x0e
    27ea:	80 91 69 21 	lds	r24, 0x2169
    27ee:	28 2f       	mov	r18, r24
    27f0:	30 e0       	ldi	r19, 0x00	; 0
    27f2:	2d 83       	std	Y+5, r18	; 0x05
    27f4:	3e 83       	std	Y+6, r19	; 0x06
    27f6:	f9 01       	movw	r30, r18
    27f8:	ee 0f       	add	r30, r30
    27fa:	ff 1f       	adc	r31, r31
    27fc:	ee 0f       	add	r30, r30
    27fe:	ff 1f       	adc	r31, r31
    2800:	e3 5a       	subi	r30, 0xA3	; 163
    2802:	fe 4d       	sbci	r31, 0xDE	; 222
    2804:	e0 80       	ld	r14, Z
    2806:	f1 80       	ldd	r15, Z+1	; 0x01
    2808:	02 81       	ldd	r16, Z+2	; 0x02
    280a:	13 81       	ldd	r17, Z+3	; 0x03
    280c:	80 91 6a 21 	lds	r24, 0x216A
    2810:	a8 2f       	mov	r26, r24
    2812:	b0 e0       	ldi	r27, 0x00	; 0
    2814:	ab 83       	std	Y+3, r26	; 0x03
    2816:	bc 83       	std	Y+4, r27	; 0x04
    2818:	fd 01       	movw	r30, r26
    281a:	ee 0f       	add	r30, r30
    281c:	ff 1f       	adc	r31, r31
    281e:	ee 0f       	add	r30, r30
    2820:	ff 1f       	adc	r31, r31
    2822:	e3 5a       	subi	r30, 0xA3	; 163
    2824:	fe 4d       	sbci	r31, 0xDE	; 222
    2826:	20 81       	ld	r18, Z
    2828:	31 81       	ldd	r19, Z+1	; 0x01
    282a:	42 81       	ldd	r20, Z+2	; 0x02
    282c:	53 81       	ldd	r21, Z+3	; 0x03
    282e:	80 91 6b 21 	lds	r24, 0x216B
    2832:	28 2e       	mov	r2, r24
    2834:	33 24       	eor	r3, r3
    2836:	f1 01       	movw	r30, r2
    2838:	ee 0f       	add	r30, r30
    283a:	ff 1f       	adc	r31, r31
    283c:	ee 0f       	add	r30, r30
    283e:	ff 1f       	adc	r31, r31
    2840:	e4 5e       	subi	r30, 0xE4	; 228
    2842:	fe 4d       	sbci	r31, 0xDE	; 222
    2844:	85 a9       	ldd	r24, Z+53	; 0x35
    2846:	96 a9       	ldd	r25, Z+54	; 0x36
    2848:	a7 a9       	ldd	r26, Z+55	; 0x37
    284a:	b0 ad       	ldd	r27, Z+56	; 0x38
    284c:	8c 8b       	std	Y+20, r24	; 0x14
    284e:	9d 8b       	std	Y+21, r25	; 0x15
    2850:	ae 8b       	std	Y+22, r26	; 0x16
    2852:	bf 8b       	std	Y+23, r27	; 0x17
    2854:	a1 a4       	ldd	r10, Z+41	; 0x29
    2856:	b2 a4       	ldd	r11, Z+42	; 0x2a
    2858:	c3 a4       	ldd	r12, Z+43	; 0x2b
    285a:	d4 a4       	ldd	r13, Z+44	; 0x2c
    285c:	90 91 28 21 	lds	r25, 0x2128
    2860:	9b 8b       	std	Y+19, r25	; 0x13
    2862:	99 23       	and	r25, r25
    2864:	49 f0       	breq	.+18     	; 0x2878 <gc_execute_block+0x928>
    2866:	40 90 41 21 	lds	r4, 0x2141
    286a:	50 90 42 21 	lds	r5, 0x2142
    286e:	60 90 43 21 	lds	r6, 0x2143
    2872:	70 90 44 21 	lds	r7, 0x2144
    2876:	08 c0       	rjmp	.+16     	; 0x2888 <gc_execute_block+0x938>
    2878:	40 90 35 21 	lds	r4, 0x2135
    287c:	50 90 36 21 	lds	r5, 0x2136
    2880:	60 90 37 21 	lds	r6, 0x2137
    2884:	70 90 38 21 	lds	r7, 0x2138
    2888:	c8 01       	movw	r24, r16
    288a:	b7 01       	movw	r22, r14
    288c:	0e 94 70 3f 	call	0x7ee0	; 0x7ee0 <hypot>
    2890:	7b 01       	movw	r14, r22
    2892:	8c 01       	movw	r16, r24
    2894:	ad b7       	in	r26, 0x3d	; 61
    2896:	be b7       	in	r27, 0x3e	; 62
    2898:	1a 97       	sbiw	r26, 0x0a	; 10
    289a:	ad bf       	out	0x3d, r26	; 61
    289c:	be bf       	out	0x3e, r27	; 62
    289e:	8d b6       	in	r8, 0x3d	; 61
    28a0:	9e b6       	in	r9, 0x3e	; 62
    28a2:	08 94       	sec
    28a4:	81 1c       	adc	r8, r1
    28a6:	91 1c       	adc	r9, r1
    28a8:	6c 89       	ldd	r22, Y+20	; 0x14
    28aa:	7d 89       	ldd	r23, Y+21	; 0x15
    28ac:	8e 89       	ldd	r24, Y+22	; 0x16
    28ae:	9f 89       	ldd	r25, Y+23	; 0x17
    28b0:	a6 01       	movw	r20, r12
    28b2:	95 01       	movw	r18, r10
    28b4:	0e 94 d3 3c 	call	0x79a6	; 0x79a6 <__subsf3>
    28b8:	5b 01       	movw	r10, r22
    28ba:	6c 01       	movw	r12, r24
    28bc:	2b 81       	ldd	r18, Y+3	; 0x03
    28be:	3c 81       	ldd	r19, Y+4	; 0x04
    28c0:	f4 01       	movw	r30, r8
    28c2:	20 83       	st	Z, r18
    28c4:	31 83       	std	Z+1, r19	; 0x01
    28c6:	22 82       	std	Z+2, r2	; 0x02
    28c8:	33 82       	std	Z+3, r3	; 0x03
    28ca:	d4 01       	movw	r26, r8
    28cc:	14 96       	adiw	r26, 0x04	; 4
    28ce:	4d 92       	st	X+, r4
    28d0:	5d 92       	st	X+, r5
    28d2:	6d 92       	st	X+, r6
    28d4:	7c 92       	st	X, r7
    28d6:	17 97       	sbiw	r26, 0x07	; 7
    28d8:	eb 89       	ldd	r30, Y+19	; 0x13
    28da:	18 96       	adiw	r26, 0x08	; 8
    28dc:	ec 93       	st	X, r30
    28de:	18 97       	sbiw	r26, 0x08	; 8
    28e0:	19 96       	adiw	r26, 0x09	; 9
    28e2:	1c 92       	st	X, r1
    28e4:	6f 85       	ldd	r22, Y+15	; 0x0f
    28e6:	78 89       	ldd	r23, Y+16	; 0x10
    28e8:	89 89       	ldd	r24, Y+17	; 0x11
    28ea:	9a 89       	ldd	r25, Y+18	; 0x12
    28ec:	2b 85       	ldd	r18, Y+11	; 0x0b
    28ee:	3c 85       	ldd	r19, Y+12	; 0x0c
    28f0:	4d 85       	ldd	r20, Y+13	; 0x0d
    28f2:	5e 85       	ldd	r21, Y+14	; 0x0e
    28f4:	8d 80       	ldd	r8, Y+5	; 0x05
    28f6:	9e 80       	ldd	r9, Y+6	; 0x06
    28f8:	0e 94 6d 1e 	call	0x3cda	; 0x3cda <mc_arc_nonblock>
    28fc:	80 93 1c 21 	sts	0x211C, r24
    2900:	2d b7       	in	r18, 0x3d	; 61
    2902:	3e b7       	in	r19, 0x3e	; 62
    2904:	26 5f       	subi	r18, 0xF6	; 246
    2906:	3f 4f       	sbci	r19, 0xFF	; 255
    2908:	2d bf       	out	0x3d, r18	; 61
    290a:	3e bf       	out	0x3e, r19	; 62
    290c:	80 91 1c 21 	lds	r24, 0x211C
    2910:	88 23       	and	r24, r24
    2912:	11 f0       	breq	.+4      	; 0x2918 <gc_execute_block+0x9c8>
    2914:	82 30       	cpi	r24, 0x02	; 2
    2916:	49 f4       	brne	.+18     	; 0x292a <gc_execute_block+0x9da>
    2918:	e5 e4       	ldi	r30, 0x45	; 69
    291a:	f1 e2       	ldi	r31, 0x21	; 33
    291c:	df 01       	movw	r26, r30
    291e:	1c 96       	adiw	r26, 0x0c	; 12
    2920:	9c e0       	ldi	r25, 0x0C	; 12
    2922:	0d 90       	ld	r0, X+
    2924:	01 92       	st	Z+, r0
    2926:	91 50       	subi	r25, 0x01	; 1
    2928:	e1 f7       	brne	.-8      	; 0x2922 <gc_execute_block+0x9d2>
    292a:	68 96       	adiw	r28, 0x18	; 24
    292c:	cd bf       	out	0x3d, r28	; 61
    292e:	de bf       	out	0x3e, r29	; 62
    2930:	cf 91       	pop	r28
    2932:	df 91       	pop	r29
    2934:	1f 91       	pop	r17
    2936:	0f 91       	pop	r16
    2938:	ff 90       	pop	r15
    293a:	ef 90       	pop	r14
    293c:	df 90       	pop	r13
    293e:	cf 90       	pop	r12
    2940:	bf 90       	pop	r11
    2942:	af 90       	pop	r10
    2944:	9f 90       	pop	r9
    2946:	8f 90       	pop	r8
    2948:	7f 90       	pop	r7
    294a:	6f 90       	pop	r6
    294c:	5f 90       	pop	r5
    294e:	4f 90       	pop	r4
    2950:	3f 90       	pop	r3
    2952:	2f 90       	pop	r2
    2954:	08 95       	ret

00002956 <gc_gcode_parser>:
    2956:	cf 93       	push	r28
    2958:	df 93       	push	r29
    295a:	ec 01       	movw	r28, r24
    295c:	90 e0       	ldi	r25, 0x00	; 0
    295e:	20 e0       	ldi	r18, 0x00	; 0
    2960:	10 c0       	rjmp	.+32     	; 0x2982 <gc_gcode_parser+0x2c>
    2962:	e1 32       	cpi	r30, 0x21	; 33
    2964:	70 f0       	brcs	.+28     	; 0x2982 <gc_gcode_parser+0x2c>
    2966:	8e 2f       	mov	r24, r30
    2968:	81 56       	subi	r24, 0x61	; 97
    296a:	a9 2f       	mov	r26, r25
    296c:	b0 e0       	ldi	r27, 0x00	; 0
    296e:	9f 5f       	subi	r25, 0xFF	; 255
    2970:	8a 31       	cpi	r24, 0x1A	; 26
    2972:	20 f4       	brcc	.+8      	; 0x297c <gc_gcode_parser+0x26>
    2974:	ac 0f       	add	r26, r28
    2976:	bd 1f       	adc	r27, r29
    2978:	e0 52       	subi	r30, 0x20	; 32
    297a:	02 c0       	rjmp	.+4      	; 0x2980 <gc_gcode_parser+0x2a>
    297c:	ac 0f       	add	r26, r28
    297e:	bd 1f       	adc	r27, r29
    2980:	ec 93       	st	X, r30
    2982:	fe 01       	movw	r30, r28
    2984:	e2 0f       	add	r30, r18
    2986:	f1 1d       	adc	r31, r1
    2988:	e0 81       	ld	r30, Z
    298a:	2f 5f       	subi	r18, 0xFF	; 255
    298c:	ee 23       	and	r30, r30
    298e:	49 f7       	brne	.-46     	; 0x2962 <gc_gcode_parser+0xc>
    2990:	fe 01       	movw	r30, r28
    2992:	e9 0f       	add	r30, r25
    2994:	f1 1d       	adc	r31, r1
    2996:	10 82       	st	Z, r1
    2998:	88 81       	ld	r24, Y
    299a:	88 32       	cpi	r24, 0x28	; 40
    299c:	61 f0       	breq	.+24     	; 0x29b6 <gc_gcode_parser+0x60>
    299e:	81 35       	cpi	r24, 0x51	; 81
    29a0:	11 f4       	brne	.+4      	; 0x29a6 <gc_gcode_parser+0x50>
    29a2:	83 e0       	ldi	r24, 0x03	; 3
    29a4:	09 c0       	rjmp	.+18     	; 0x29b8 <gc_gcode_parser+0x62>
    29a6:	8f 32       	cpi	r24, 0x2F	; 47
    29a8:	31 f0       	breq	.+12     	; 0x29b6 <gc_gcode_parser+0x60>
    29aa:	ce 01       	movw	r24, r28
    29ac:	0e 94 a8 0f 	call	0x1f50	; 0x1f50 <gc_execute_block>
    29b0:	80 93 1c 21 	sts	0x211C, r24
    29b4:	01 c0       	rjmp	.+2      	; 0x29b8 <gc_gcode_parser+0x62>
    29b6:	80 e0       	ldi	r24, 0x00	; 0
    29b8:	df 91       	pop	r29
    29ba:	cf 91       	pop	r28
    29bc:	08 95       	ret

000029be <_cfg_computed>:
    29be:	cf 92       	push	r12
    29c0:	df 92       	push	r13
    29c2:	ef 92       	push	r14
    29c4:	ff 92       	push	r15
    29c6:	0f 93       	push	r16
    29c8:	1f 93       	push	r17
    29ca:	cf 93       	push	r28
    29cc:	df 93       	push	r29
    29ce:	c2 e5       	ldi	r28, 0x52	; 82
    29d0:	d4 e2       	ldi	r29, 0x24	; 36
    29d2:	68 81       	ld	r22, Y
    29d4:	70 e0       	ldi	r23, 0x00	; 0
    29d6:	88 27       	eor	r24, r24
    29d8:	77 fd       	sbrc	r23, 7
    29da:	80 95       	com	r24
    29dc:	98 2f       	mov	r25, r24
    29de:	0e 94 15 3e 	call	0x7c2a	; 0x7c2a <__floatsisf>
    29e2:	9b 01       	movw	r18, r22
    29e4:	ac 01       	movw	r20, r24
    29e6:	6f 81       	ldd	r22, Y+7	; 0x07
    29e8:	78 85       	ldd	r23, Y+8	; 0x08
    29ea:	89 85       	ldd	r24, Y+9	; 0x09
    29ec:	9a 85       	ldd	r25, Y+10	; 0x0a
    29ee:	0e 94 7a 3d 	call	0x7af4	; 0x7af4 <__divsf3>
    29f2:	9b 01       	movw	r18, r22
    29f4:	ac 01       	movw	r20, r24
    29f6:	60 e0       	ldi	r22, 0x00	; 0
    29f8:	70 e0       	ldi	r23, 0x00	; 0
    29fa:	84 eb       	ldi	r24, 0xB4	; 180
    29fc:	93 e4       	ldi	r25, 0x43	; 67
    29fe:	0e 94 7a 3d 	call	0x7af4	; 0x7af4 <__divsf3>
    2a02:	2b 85       	ldd	r18, Y+11	; 0x0b
    2a04:	3c 85       	ldd	r19, Y+12	; 0x0c
    2a06:	4d 85       	ldd	r20, Y+13	; 0x0d
    2a08:	5e 85       	ldd	r21, Y+14	; 0x0e
    2a0a:	0e 94 7a 3d 	call	0x7af4	; 0x7af4 <__divsf3>
    2a0e:	6b 8b       	std	Y+19, r22	; 0x13
    2a10:	7c 8b       	std	Y+20, r23	; 0x14
    2a12:	8d 8b       	std	Y+21, r24	; 0x15
    2a14:	9e 8b       	std	Y+22, r25	; 0x16
    2a16:	68 96       	adiw	r28, 0x18	; 24
    2a18:	84 e2       	ldi	r24, 0x24	; 36
    2a1a:	c2 3b       	cpi	r28, 0xB2	; 178
    2a1c:	d8 07       	cpc	r29, r24
    2a1e:	c9 f6       	brne	.-78     	; 0x29d2 <_cfg_computed+0x14>
    2a20:	00 91 52 24 	lds	r16, 0x2452
    2a24:	10 e0       	ldi	r17, 0x00	; 0
    2a26:	b8 01       	movw	r22, r16
    2a28:	88 27       	eor	r24, r24
    2a2a:	77 fd       	sbrc	r23, 7
    2a2c:	80 95       	com	r24
    2a2e:	98 2f       	mov	r25, r24
    2a30:	0e 94 15 3e 	call	0x7c2a	; 0x7c2a <__floatsisf>
    2a34:	9b 01       	movw	r18, r22
    2a36:	ac 01       	movw	r20, r24
    2a38:	60 91 59 24 	lds	r22, 0x2459
    2a3c:	70 91 5a 24 	lds	r23, 0x245A
    2a40:	80 91 5b 24 	lds	r24, 0x245B
    2a44:	90 91 5c 24 	lds	r25, 0x245C
    2a48:	0e 94 7a 3d 	call	0x7af4	; 0x7af4 <__divsf3>
    2a4c:	9b 01       	movw	r18, r22
    2a4e:	ac 01       	movw	r20, r24
    2a50:	60 e0       	ldi	r22, 0x00	; 0
    2a52:	70 e0       	ldi	r23, 0x00	; 0
    2a54:	84 eb       	ldi	r24, 0xB4	; 180
    2a56:	93 e4       	ldi	r25, 0x43	; 67
    2a58:	0e 94 7a 3d 	call	0x7af4	; 0x7af4 <__divsf3>
    2a5c:	6b 01       	movw	r12, r22
    2a5e:	7c 01       	movw	r14, r24
    2a60:	80 91 57 24 	lds	r24, 0x2457
    2a64:	90 91 58 24 	lds	r25, 0x2458
    2a68:	08 9f       	mul	r16, r24
    2a6a:	b0 01       	movw	r22, r0
    2a6c:	09 9f       	mul	r16, r25
    2a6e:	70 0d       	add	r23, r0
    2a70:	18 9f       	mul	r17, r24
    2a72:	70 0d       	add	r23, r0
    2a74:	11 24       	eor	r1, r1
    2a76:	80 e0       	ldi	r24, 0x00	; 0
    2a78:	90 e0       	ldi	r25, 0x00	; 0
    2a7a:	0e 94 13 3e 	call	0x7c26	; 0x7c26 <__floatunsisf>
    2a7e:	a7 01       	movw	r20, r14
    2a80:	96 01       	movw	r18, r12
    2a82:	0e 94 7a 3d 	call	0x7af4	; 0x7af4 <__divsf3>
    2a86:	60 93 4a 24 	sts	0x244A, r22
    2a8a:	70 93 4b 24 	sts	0x244B, r23
    2a8e:	80 93 4c 24 	sts	0x244C, r24
    2a92:	90 93 4d 24 	sts	0x244D, r25
    2a96:	80 91 55 24 	lds	r24, 0x2455
    2a9a:	90 91 56 24 	lds	r25, 0x2456
    2a9e:	08 9f       	mul	r16, r24
    2aa0:	b0 01       	movw	r22, r0
    2aa2:	09 9f       	mul	r16, r25
    2aa4:	70 0d       	add	r23, r0
    2aa6:	18 9f       	mul	r17, r24
    2aa8:	70 0d       	add	r23, r0
    2aaa:	11 24       	eor	r1, r1
    2aac:	80 e0       	ldi	r24, 0x00	; 0
    2aae:	90 e0       	ldi	r25, 0x00	; 0
    2ab0:	0e 94 13 3e 	call	0x7c26	; 0x7c26 <__floatunsisf>
    2ab4:	a7 01       	movw	r20, r14
    2ab6:	96 01       	movw	r18, r12
    2ab8:	0e 94 7a 3d 	call	0x7af4	; 0x7af4 <__divsf3>
    2abc:	60 93 4e 24 	sts	0x244E, r22
    2ac0:	70 93 4f 24 	sts	0x244F, r23
    2ac4:	80 93 50 24 	sts	0x2450, r24
    2ac8:	90 93 51 24 	sts	0x2451, r25
    2acc:	df 91       	pop	r29
    2ace:	cf 91       	pop	r28
    2ad0:	1f 91       	pop	r17
    2ad2:	0f 91       	pop	r16
    2ad4:	ff 90       	pop	r15
    2ad6:	ef 90       	pop	r14
    2ad8:	df 90       	pop	r13
    2ada:	cf 90       	pop	r12
    2adc:	08 95       	ret

00002ade <cfg_reset>:
    2ade:	e4 e4       	ldi	r30, 0x44	; 68
    2ae0:	f4 e2       	ldi	r31, 0x24	; 36
    2ae2:	84 e6       	ldi	r24, 0x64	; 100
    2ae4:	80 93 44 24 	sts	0x2444, r24
    2ae8:	8a e0       	ldi	r24, 0x0A	; 10
    2aea:	97 ed       	ldi	r25, 0xD7	; 215
    2aec:	a3 e2       	ldi	r26, 0x23	; 35
    2aee:	bc e3       	ldi	r27, 0x3C	; 60
    2af0:	80 93 46 24 	sts	0x2446, r24
    2af4:	90 93 47 24 	sts	0x2447, r25
    2af8:	a0 93 48 24 	sts	0x2448, r26
    2afc:	b0 93 49 24 	sts	0x2449, r27
    2b00:	8c ed       	ldi	r24, 0xDC	; 220
    2b02:	95 e0       	ldi	r25, 0x05	; 5
    2b04:	80 93 55 24 	sts	0x2455, r24
    2b08:	90 93 56 24 	sts	0x2456, r25
    2b0c:	80 93 6d 24 	sts	0x246D, r24
    2b10:	90 93 6e 24 	sts	0x246E, r25
    2b14:	80 93 85 24 	sts	0x2485, r24
    2b18:	90 93 86 24 	sts	0x2486, r25
    2b1c:	80 93 9d 24 	sts	0x249D, r24
    2b20:	90 93 9e 24 	sts	0x249E, r25
    2b24:	80 93 57 24 	sts	0x2457, r24
    2b28:	90 93 58 24 	sts	0x2458, r25
    2b2c:	80 93 6f 24 	sts	0x246F, r24
    2b30:	90 93 70 24 	sts	0x2470, r25
    2b34:	80 93 87 24 	sts	0x2487, r24
    2b38:	90 93 88 24 	sts	0x2488, r25
    2b3c:	80 93 9f 24 	sts	0x249F, r24
    2b40:	90 93 a0 24 	sts	0x24A0, r25
    2b44:	86 e6       	ldi	r24, 0x66	; 102
    2b46:	96 e6       	ldi	r25, 0x66	; 102
    2b48:	a6 ee       	ldi	r26, 0xE6	; 230
    2b4a:	bf e3       	ldi	r27, 0x3F	; 63
    2b4c:	80 93 59 24 	sts	0x2459, r24
    2b50:	90 93 5a 24 	sts	0x245A, r25
    2b54:	a0 93 5b 24 	sts	0x245B, r26
    2b58:	b0 93 5c 24 	sts	0x245C, r27
    2b5c:	80 93 71 24 	sts	0x2471, r24
    2b60:	90 93 72 24 	sts	0x2472, r25
    2b64:	a0 93 73 24 	sts	0x2473, r26
    2b68:	b0 93 74 24 	sts	0x2474, r27
    2b6c:	80 93 89 24 	sts	0x2489, r24
    2b70:	90 93 8a 24 	sts	0x248A, r25
    2b74:	a0 93 8b 24 	sts	0x248B, r26
    2b78:	b0 93 8c 24 	sts	0x248C, r27
    2b7c:	80 93 a1 24 	sts	0x24A1, r24
    2b80:	90 93 a2 24 	sts	0x24A2, r25
    2b84:	a0 93 a3 24 	sts	0x24A3, r26
    2b88:	b0 93 a4 24 	sts	0x24A4, r27
    2b8c:	8c e5       	ldi	r24, 0x5C	; 92
    2b8e:	9f e8       	ldi	r25, 0x8F	; 143
    2b90:	a2 ea       	ldi	r26, 0xA2	; 162
    2b92:	bf e3       	ldi	r27, 0x3F	; 63
    2b94:	80 93 5d 24 	sts	0x245D, r24
    2b98:	90 93 5e 24 	sts	0x245E, r25
    2b9c:	a0 93 5f 24 	sts	0x245F, r26
    2ba0:	b0 93 60 24 	sts	0x2460, r27
    2ba4:	80 93 75 24 	sts	0x2475, r24
    2ba8:	90 93 76 24 	sts	0x2476, r25
    2bac:	a0 93 77 24 	sts	0x2477, r26
    2bb0:	b0 93 78 24 	sts	0x2478, r27
    2bb4:	80 93 8d 24 	sts	0x248D, r24
    2bb8:	90 93 8e 24 	sts	0x248E, r25
    2bbc:	a0 93 8f 24 	sts	0x248F, r26
    2bc0:	b0 93 90 24 	sts	0x2490, r27
    2bc4:	80 93 a5 24 	sts	0x24A5, r24
    2bc8:	90 93 a6 24 	sts	0x24A6, r25
    2bcc:	a0 93 a7 24 	sts	0x24A7, r26
    2bd0:	b0 93 a8 24 	sts	0x24A8, r27
    2bd4:	80 e0       	ldi	r24, 0x00	; 0
    2bd6:	90 e0       	ldi	r25, 0x00	; 0
    2bd8:	a8 ec       	ldi	r26, 0xC8	; 200
    2bda:	b3 e4       	ldi	r27, 0x43	; 67
    2bdc:	80 93 61 24 	sts	0x2461, r24
    2be0:	90 93 62 24 	sts	0x2462, r25
    2be4:	a0 93 63 24 	sts	0x2463, r26
    2be8:	b0 93 64 24 	sts	0x2464, r27
    2bec:	80 93 79 24 	sts	0x2479, r24
    2bf0:	90 93 7a 24 	sts	0x247A, r25
    2bf4:	a0 93 7b 24 	sts	0x247B, r26
    2bf8:	b0 93 7c 24 	sts	0x247C, r27
    2bfc:	80 e0       	ldi	r24, 0x00	; 0
    2bfe:	90 e0       	ldi	r25, 0x00	; 0
    2c00:	a6 e9       	ldi	r26, 0x96	; 150
    2c02:	b3 e4       	ldi	r27, 0x43	; 67
    2c04:	80 93 91 24 	sts	0x2491, r24
    2c08:	90 93 92 24 	sts	0x2492, r25
    2c0c:	a0 93 93 24 	sts	0x2493, r26
    2c10:	b0 93 94 24 	sts	0x2494, r27
    2c14:	80 e0       	ldi	r24, 0x00	; 0
    2c16:	90 e0       	ldi	r25, 0x00	; 0
    2c18:	a0 e8       	ldi	r26, 0x80	; 128
    2c1a:	bf eb       	ldi	r27, 0xBF	; 191
    2c1c:	80 93 a9 24 	sts	0x24A9, r24
    2c20:	90 93 aa 24 	sts	0x24AA, r25
    2c24:	a0 93 ab 24 	sts	0x24AB, r26
    2c28:	b0 93 ac 24 	sts	0x24AC, r27
    2c2c:	88 e0       	ldi	r24, 0x08	; 8
    2c2e:	80 93 52 24 	sts	0x2452, r24
    2c32:	80 93 6a 24 	sts	0x246A, r24
    2c36:	86 af       	std	Z+62, r24	; 0x3e
    2c38:	80 93 9a 24 	sts	0x249A, r24
    2c3c:	10 92 54 24 	sts	0x2454, r1
    2c40:	81 e0       	ldi	r24, 0x01	; 1
    2c42:	80 93 6c 24 	sts	0x246C, r24
    2c46:	10 92 84 24 	sts	0x2484, r1
    2c4a:	10 92 9c 24 	sts	0x249C, r1
    2c4e:	80 93 69 24 	sts	0x2469, r24
    2c52:	85 af       	std	Z+61, r24	; 0x3d
    2c54:	80 93 99 24 	sts	0x2499, r24
    2c58:	10 92 b1 24 	sts	0x24B1, r1
    2c5c:	80 93 53 24 	sts	0x2453, r24
    2c60:	80 93 6b 24 	sts	0x246B, r24
    2c64:	87 af       	std	Z+63, r24	; 0x3f
    2c66:	80 93 9b 24 	sts	0x249B, r24
    2c6a:	0e 94 df 14 	call	0x29be	; 0x29be <_cfg_computed>
    2c6e:	08 95       	ret

00002c70 <cfg_init>:
    2c70:	0e 94 6f 15 	call	0x2ade	; 0x2ade <cfg_reset>
    2c74:	08 95       	ret

00002c76 <_cfg_print_status>:
    2c76:	87 30       	cpi	r24, 0x07	; 7
    2c78:	31 f1       	breq	.+76     	; 0x2cc6 <_cfg_print_status+0x50>
    2c7a:	88 30       	cpi	r24, 0x08	; 8
    2c7c:	30 f4       	brcc	.+12     	; 0x2c8a <_cfg_print_status+0x14>
    2c7e:	82 30       	cpi	r24, 0x02	; 2
    2c80:	59 f0       	breq	.+22     	; 0x2c98 <_cfg_print_status+0x22>
    2c82:	83 30       	cpi	r24, 0x03	; 3
    2c84:	09 f0       	breq	.+2      	; 0x2c88 <_cfg_print_status+0x12>
    2c86:	45 c0       	rjmp	.+138    	; 0x2d12 <_cfg_print_status+0x9c>
    2c88:	0c c0       	rjmp	.+24     	; 0x2ca2 <_cfg_print_status+0x2c>
    2c8a:	8d 30       	cpi	r24, 0x0D	; 13
    2c8c:	09 f1       	breq	.+66     	; 0x2cd0 <_cfg_print_status+0x5a>
    2c8e:	8f 30       	cpi	r24, 0x0F	; 15
    2c90:	81 f1       	breq	.+96     	; 0x2cf2 <_cfg_print_status+0x7c>
    2c92:	8c 30       	cpi	r24, 0x0C	; 12
    2c94:	f1 f5       	brne	.+124    	; 0x2d12 <_cfg_print_status+0x9c>
    2c96:	12 c0       	rjmp	.+36     	; 0x2cbc <_cfg_print_status+0x46>
    2c98:	00 d0       	rcall	.+0      	; 0x2c9a <_cfg_print_status+0x24>
    2c9a:	0f 92       	push	r0
    2c9c:	85 e1       	ldi	r24, 0x15	; 21
    2c9e:	94 e0       	ldi	r25, 0x04	; 4
    2ca0:	1b c0       	rjmp	.+54     	; 0x2cd8 <_cfg_print_status+0x62>
    2ca2:	0f 92       	push	r0
    2ca4:	0f 92       	push	r0
    2ca6:	8f ef       	ldi	r24, 0xFF	; 255
    2ca8:	93 e0       	ldi	r25, 0x03	; 3
    2caa:	ed b7       	in	r30, 0x3d	; 61
    2cac:	fe b7       	in	r31, 0x3e	; 62
    2cae:	81 83       	std	Z+1, r24	; 0x01
    2cb0:	92 83       	std	Z+2, r25	; 0x02
    2cb2:	0e 94 84 44 	call	0x8908	; 0x8908 <printf_P>
    2cb6:	0f 90       	pop	r0
    2cb8:	0f 90       	pop	r0
    2cba:	08 95       	ret
    2cbc:	00 d0       	rcall	.+0      	; 0x2cbe <_cfg_print_status+0x48>
    2cbe:	0f 92       	push	r0
    2cc0:	88 ee       	ldi	r24, 0xE8	; 232
    2cc2:	93 e0       	ldi	r25, 0x03	; 3
    2cc4:	09 c0       	rjmp	.+18     	; 0x2cd8 <_cfg_print_status+0x62>
    2cc6:	00 d0       	rcall	.+0      	; 0x2cc8 <_cfg_print_status+0x52>
    2cc8:	0f 92       	push	r0
    2cca:	8e ec       	ldi	r24, 0xCE	; 206
    2ccc:	93 e0       	ldi	r25, 0x03	; 3
    2cce:	04 c0       	rjmp	.+8      	; 0x2cd8 <_cfg_print_status+0x62>
    2cd0:	00 d0       	rcall	.+0      	; 0x2cd2 <_cfg_print_status+0x5c>
    2cd2:	0f 92       	push	r0
    2cd4:	84 eb       	ldi	r24, 0xB4	; 180
    2cd6:	93 e0       	ldi	r25, 0x03	; 3
    2cd8:	ed b7       	in	r30, 0x3d	; 61
    2cda:	fe b7       	in	r31, 0x3e	; 62
    2cdc:	81 83       	std	Z+1, r24	; 0x01
    2cde:	92 83       	std	Z+2, r25	; 0x02
    2ce0:	63 83       	std	Z+3, r22	; 0x03
    2ce2:	74 83       	std	Z+4, r23	; 0x04
    2ce4:	0e 94 84 44 	call	0x8908	; 0x8908 <printf_P>
    2ce8:	0f 90       	pop	r0
    2cea:	0f 90       	pop	r0
    2cec:	0f 90       	pop	r0
    2cee:	0f 90       	pop	r0
    2cf0:	08 95       	ret
    2cf2:	00 d0       	rcall	.+0      	; 0x2cf4 <_cfg_print_status+0x7e>
    2cf4:	0f 92       	push	r0
    2cf6:	89 e9       	ldi	r24, 0x99	; 153
    2cf8:	93 e0       	ldi	r25, 0x03	; 3
    2cfa:	ed b7       	in	r30, 0x3d	; 61
    2cfc:	fe b7       	in	r31, 0x3e	; 62
    2cfe:	81 83       	std	Z+1, r24	; 0x01
    2d00:	92 83       	std	Z+2, r25	; 0x02
    2d02:	63 83       	std	Z+3, r22	; 0x03
    2d04:	74 83       	std	Z+4, r23	; 0x04
    2d06:	0e 94 84 44 	call	0x8908	; 0x8908 <printf_P>
    2d0a:	0f 90       	pop	r0
    2d0c:	0f 90       	pop	r0
    2d0e:	0f 90       	pop	r0
    2d10:	0f 90       	pop	r0
    2d12:	08 95       	ret

00002d14 <_cfg_dump_axis>:
    2d14:	ef 92       	push	r14
    2d16:	ff 92       	push	r15
    2d18:	0f 93       	push	r16
    2d1a:	1f 93       	push	r17
    2d1c:	e8 2e       	mov	r14, r24
    2d1e:	ff 24       	eor	r15, r15
    2d20:	87 01       	movw	r16, r14
    2d22:	00 0f       	add	r16, r16
    2d24:	11 1f       	adc	r17, r17
    2d26:	f8 01       	movw	r30, r16
    2d28:	ed 5b       	subi	r30, 0xBD	; 189
    2d2a:	fd 4f       	sbci	r31, 0xFD	; 253
    2d2c:	25 91       	lpm	r18, Z+
    2d2e:	34 91       	lpm	r19, Z+
    2d30:	00 d0       	rcall	.+0      	; 0x2d32 <_cfg_dump_axis+0x1e>
    2d32:	0f 92       	push	r0
    2d34:	88 e3       	ldi	r24, 0x38	; 56
    2d36:	96 e0       	ldi	r25, 0x06	; 6
    2d38:	ad b7       	in	r26, 0x3d	; 61
    2d3a:	be b7       	in	r27, 0x3e	; 62
    2d3c:	11 96       	adiw	r26, 0x01	; 1
    2d3e:	8d 93       	st	X+, r24
    2d40:	9c 93       	st	X, r25
    2d42:	12 97       	sbiw	r26, 0x02	; 2
    2d44:	13 96       	adiw	r26, 0x03	; 3
    2d46:	2d 93       	st	X+, r18
    2d48:	3c 93       	st	X, r19
    2d4a:	14 97       	sbiw	r26, 0x04	; 4
    2d4c:	0e 94 84 44 	call	0x8908	; 0x8908 <printf_P>
    2d50:	80 e0       	ldi	r24, 0x00	; 0
    2d52:	96 e0       	ldi	r25, 0x06	; 6
    2d54:	ed b7       	in	r30, 0x3d	; 61
    2d56:	fe b7       	in	r31, 0x3e	; 62
    2d58:	81 83       	std	Z+1, r24	; 0x01
    2d5a:	92 83       	std	Z+2, r25	; 0x02
    2d5c:	0e 0d       	add	r16, r14
    2d5e:	1f 1d       	adc	r17, r15
    2d60:	83 e0       	ldi	r24, 0x03	; 3
    2d62:	00 0f       	add	r16, r16
    2d64:	11 1f       	adc	r17, r17
    2d66:	8a 95       	dec	r24
    2d68:	e1 f7       	brne	.-8      	; 0x2d62 <_cfg_dump_axis+0x4e>
    2d6a:	0c 5b       	subi	r16, 0xBC	; 188
    2d6c:	1b 4d       	sbci	r17, 0xDB	; 219
    2d6e:	d8 01       	movw	r26, r16
    2d70:	51 96       	adiw	r26, 0x11	; 17
    2d72:	8d 91       	ld	r24, X+
    2d74:	9c 91       	ld	r25, X
    2d76:	52 97       	sbiw	r26, 0x12	; 18
    2d78:	83 83       	std	Z+3, r24	; 0x03
    2d7a:	94 83       	std	Z+4, r25	; 0x04
    2d7c:	0e 94 84 44 	call	0x8908	; 0x8908 <printf_P>
    2d80:	88 ec       	ldi	r24, 0xC8	; 200
    2d82:	95 e0       	ldi	r25, 0x05	; 5
    2d84:	ed b7       	in	r30, 0x3d	; 61
    2d86:	fe b7       	in	r31, 0x3e	; 62
    2d88:	81 83       	std	Z+1, r24	; 0x01
    2d8a:	92 83       	std	Z+2, r25	; 0x02
    2d8c:	d8 01       	movw	r26, r16
    2d8e:	53 96       	adiw	r26, 0x13	; 19
    2d90:	8d 91       	ld	r24, X+
    2d92:	9c 91       	ld	r25, X
    2d94:	54 97       	sbiw	r26, 0x14	; 20
    2d96:	83 83       	std	Z+3, r24	; 0x03
    2d98:	94 83       	std	Z+4, r25	; 0x04
    2d9a:	0e 94 84 44 	call	0x8908	; 0x8908 <printf_P>
    2d9e:	ed b7       	in	r30, 0x3d	; 61
    2da0:	fe b7       	in	r31, 0x3e	; 62
    2da2:	31 96       	adiw	r30, 0x01	; 1
    2da4:	85 e9       	ldi	r24, 0x95	; 149
    2da6:	95 e0       	ldi	r25, 0x05	; 5
    2da8:	ad b7       	in	r26, 0x3d	; 61
    2daa:	be b7       	in	r27, 0x3e	; 62
    2dac:	11 96       	adiw	r26, 0x01	; 1
    2dae:	8d 93       	st	X+, r24
    2db0:	9c 93       	st	X, r25
    2db2:	12 97       	sbiw	r26, 0x02	; 2
    2db4:	d8 01       	movw	r26, r16
    2db6:	1e 96       	adiw	r26, 0x0e	; 14
    2db8:	8c 91       	ld	r24, X
    2dba:	82 83       	std	Z+2, r24	; 0x02
    2dbc:	13 82       	std	Z+3, r1	; 0x03
    2dbe:	0e 94 84 44 	call	0x8908	; 0x8908 <printf_P>
    2dc2:	0f 92       	push	r0
    2dc4:	0f 92       	push	r0
    2dc6:	8e e5       	ldi	r24, 0x5E	; 94
    2dc8:	95 e0       	ldi	r25, 0x05	; 5
    2dca:	ed b7       	in	r30, 0x3d	; 61
    2dcc:	fe b7       	in	r31, 0x3e	; 62
    2dce:	81 83       	std	Z+1, r24	; 0x01
    2dd0:	92 83       	std	Z+2, r25	; 0x02
    2dd2:	f8 01       	movw	r30, r16
    2dd4:	85 89       	ldd	r24, Z+21	; 0x15
    2dd6:	96 89       	ldd	r25, Z+22	; 0x16
    2dd8:	a7 89       	ldd	r26, Z+23	; 0x17
    2dda:	b0 8d       	ldd	r27, Z+24	; 0x18
    2ddc:	ed b7       	in	r30, 0x3d	; 61
    2dde:	fe b7       	in	r31, 0x3e	; 62
    2de0:	83 83       	std	Z+3, r24	; 0x03
    2de2:	94 83       	std	Z+4, r25	; 0x04
    2de4:	a5 83       	std	Z+5, r26	; 0x05
    2de6:	b6 83       	std	Z+6, r27	; 0x06
    2de8:	0e 94 84 44 	call	0x8908	; 0x8908 <printf_P>
    2dec:	8b e2       	ldi	r24, 0x2B	; 43
    2dee:	95 e0       	ldi	r25, 0x05	; 5
    2df0:	ad b7       	in	r26, 0x3d	; 61
    2df2:	be b7       	in	r27, 0x3e	; 62
    2df4:	11 96       	adiw	r26, 0x01	; 1
    2df6:	8d 93       	st	X+, r24
    2df8:	9c 93       	st	X, r25
    2dfa:	12 97       	sbiw	r26, 0x02	; 2
    2dfc:	f8 01       	movw	r30, r16
    2dfe:	81 8d       	ldd	r24, Z+25	; 0x19
    2e00:	92 8d       	ldd	r25, Z+26	; 0x1a
    2e02:	a3 8d       	ldd	r26, Z+27	; 0x1b
    2e04:	b4 8d       	ldd	r27, Z+28	; 0x1c
    2e06:	ed b7       	in	r30, 0x3d	; 61
    2e08:	fe b7       	in	r31, 0x3e	; 62
    2e0a:	83 83       	std	Z+3, r24	; 0x03
    2e0c:	94 83       	std	Z+4, r25	; 0x04
    2e0e:	a5 83       	std	Z+5, r26	; 0x05
    2e10:	b6 83       	std	Z+6, r27	; 0x06
    2e12:	0e 94 84 44 	call	0x8908	; 0x8908 <printf_P>
    2e16:	88 ef       	ldi	r24, 0xF8	; 248
    2e18:	94 e0       	ldi	r25, 0x04	; 4
    2e1a:	ad b7       	in	r26, 0x3d	; 61
    2e1c:	be b7       	in	r27, 0x3e	; 62
    2e1e:	11 96       	adiw	r26, 0x01	; 1
    2e20:	8d 93       	st	X+, r24
    2e22:	9c 93       	st	X, r25
    2e24:	12 97       	sbiw	r26, 0x02	; 2
    2e26:	f8 01       	movw	r30, r16
    2e28:	85 8d       	ldd	r24, Z+29	; 0x1d
    2e2a:	96 8d       	ldd	r25, Z+30	; 0x1e
    2e2c:	a7 8d       	ldd	r26, Z+31	; 0x1f
    2e2e:	b0 a1       	ldd	r27, Z+32	; 0x20
    2e30:	ed b7       	in	r30, 0x3d	; 61
    2e32:	fe b7       	in	r31, 0x3e	; 62
    2e34:	83 83       	std	Z+3, r24	; 0x03
    2e36:	94 83       	std	Z+4, r25	; 0x04
    2e38:	a5 83       	std	Z+5, r26	; 0x05
    2e3a:	b6 83       	std	Z+6, r27	; 0x06
    2e3c:	0e 94 84 44 	call	0x8908	; 0x8908 <printf_P>
    2e40:	0f 90       	pop	r0
    2e42:	0f 90       	pop	r0
    2e44:	ed b7       	in	r30, 0x3d	; 61
    2e46:	fe b7       	in	r31, 0x3e	; 62
    2e48:	31 96       	adiw	r30, 0x01	; 1
    2e4a:	87 ec       	ldi	r24, 0xC7	; 199
    2e4c:	94 e0       	ldi	r25, 0x04	; 4
    2e4e:	ad b7       	in	r26, 0x3d	; 61
    2e50:	be b7       	in	r27, 0x3e	; 62
    2e52:	11 96       	adiw	r26, 0x01	; 1
    2e54:	8d 93       	st	X+, r24
    2e56:	9c 93       	st	X, r25
    2e58:	12 97       	sbiw	r26, 0x02	; 2
    2e5a:	d8 01       	movw	r26, r16
    2e5c:	95 96       	adiw	r26, 0x25	; 37
    2e5e:	8c 91       	ld	r24, X
    2e60:	82 83       	std	Z+2, r24	; 0x02
    2e62:	13 82       	std	Z+3, r1	; 0x03
    2e64:	0e 94 84 44 	call	0x8908	; 0x8908 <printf_P>
    2e68:	ed b7       	in	r30, 0x3d	; 61
    2e6a:	fe b7       	in	r31, 0x3e	; 62
    2e6c:	31 96       	adiw	r30, 0x01	; 1
    2e6e:	86 e9       	ldi	r24, 0x96	; 150
    2e70:	94 e0       	ldi	r25, 0x04	; 4
    2e72:	ad b7       	in	r26, 0x3d	; 61
    2e74:	be b7       	in	r27, 0x3e	; 62
    2e76:	11 96       	adiw	r26, 0x01	; 1
    2e78:	8d 93       	st	X+, r24
    2e7a:	9c 93       	st	X, r25
    2e7c:	12 97       	sbiw	r26, 0x02	; 2
    2e7e:	d8 01       	movw	r26, r16
    2e80:	1f 96       	adiw	r26, 0x0f	; 15
    2e82:	8c 91       	ld	r24, X
    2e84:	82 83       	std	Z+2, r24	; 0x02
    2e86:	13 82       	std	Z+3, r1	; 0x03
    2e88:	0e 94 84 44 	call	0x8908	; 0x8908 <printf_P>
    2e8c:	ed b7       	in	r30, 0x3d	; 61
    2e8e:	fe b7       	in	r31, 0x3e	; 62
    2e90:	31 96       	adiw	r30, 0x01	; 1
    2e92:	86 e6       	ldi	r24, 0x66	; 102
    2e94:	94 e0       	ldi	r25, 0x04	; 4
    2e96:	ad b7       	in	r26, 0x3d	; 61
    2e98:	be b7       	in	r27, 0x3e	; 62
    2e9a:	11 96       	adiw	r26, 0x01	; 1
    2e9c:	8d 93       	st	X+, r24
    2e9e:	9c 93       	st	X, r25
    2ea0:	12 97       	sbiw	r26, 0x02	; 2
    2ea2:	d8 01       	movw	r26, r16
    2ea4:	50 96       	adiw	r26, 0x10	; 16
    2ea6:	8c 91       	ld	r24, X
    2ea8:	82 83       	std	Z+2, r24	; 0x02
    2eaa:	13 82       	std	Z+3, r1	; 0x03
    2eac:	0e 94 84 44 	call	0x8908	; 0x8908 <printf_P>
    2eb0:	0f 92       	push	r0
    2eb2:	0f 92       	push	r0
    2eb4:	82 e3       	ldi	r24, 0x32	; 50
    2eb6:	94 e0       	ldi	r25, 0x04	; 4
    2eb8:	ed b7       	in	r30, 0x3d	; 61
    2eba:	fe b7       	in	r31, 0x3e	; 62
    2ebc:	81 83       	std	Z+1, r24	; 0x01
    2ebe:	92 83       	std	Z+2, r25	; 0x02
    2ec0:	f8 01       	movw	r30, r16
    2ec2:	81 a1       	ldd	r24, Z+33	; 0x21
    2ec4:	92 a1       	ldd	r25, Z+34	; 0x22
    2ec6:	a3 a1       	ldd	r26, Z+35	; 0x23
    2ec8:	b4 a1       	ldd	r27, Z+36	; 0x24
    2eca:	ed b7       	in	r30, 0x3d	; 61
    2ecc:	fe b7       	in	r31, 0x3e	; 62
    2ece:	83 83       	std	Z+3, r24	; 0x03
    2ed0:	94 83       	std	Z+4, r25	; 0x04
    2ed2:	a5 83       	std	Z+5, r26	; 0x05
    2ed4:	b6 83       	std	Z+6, r27	; 0x06
    2ed6:	0e 94 84 44 	call	0x8908	; 0x8908 <printf_P>
    2eda:	8d b7       	in	r24, 0x3d	; 61
    2edc:	9e b7       	in	r25, 0x3e	; 62
    2ede:	06 96       	adiw	r24, 0x06	; 6
    2ee0:	8d bf       	out	0x3d, r24	; 61
    2ee2:	9e bf       	out	0x3e, r25	; 62
    2ee4:	1f 91       	pop	r17
    2ee6:	0f 91       	pop	r16
    2ee8:	ff 90       	pop	r15
    2eea:	ef 90       	pop	r14
    2eec:	08 95       	ret

00002eee <cfg_dump>:
    2eee:	1f 93       	push	r17
    2ef0:	00 d0       	rcall	.+0      	; 0x2ef2 <cfg_dump+0x4>
    2ef2:	0f 92       	push	r0
    2ef4:	ed b7       	in	r30, 0x3d	; 61
    2ef6:	fe b7       	in	r31, 0x3e	; 62
    2ef8:	31 96       	adiw	r30, 0x01	; 1
    2efa:	8c ef       	ldi	r24, 0xFC	; 252
    2efc:	96 e0       	ldi	r25, 0x06	; 6
    2efe:	ad b7       	in	r26, 0x3d	; 61
    2f00:	be b7       	in	r27, 0x3e	; 62
    2f02:	11 96       	adiw	r26, 0x01	; 1
    2f04:	8d 93       	st	X+, r24
    2f06:	9c 93       	st	X, r25
    2f08:	12 97       	sbiw	r26, 0x02	; 2
    2f0a:	80 91 44 24 	lds	r24, 0x2444
    2f0e:	82 83       	std	Z+2, r24	; 0x02
    2f10:	13 82       	std	Z+3, r1	; 0x03
    2f12:	0e 94 84 44 	call	0x8908	; 0x8908 <printf_P>
    2f16:	0f 90       	pop	r0
    2f18:	0f 90       	pop	r0
    2f1a:	85 ed       	ldi	r24, 0xD5	; 213
    2f1c:	96 e0       	ldi	r25, 0x06	; 6
    2f1e:	ed b7       	in	r30, 0x3d	; 61
    2f20:	fe b7       	in	r31, 0x3e	; 62
    2f22:	81 83       	std	Z+1, r24	; 0x01
    2f24:	92 83       	std	Z+2, r25	; 0x02
    2f26:	0e 94 84 44 	call	0x8908	; 0x8908 <printf_P>
    2f2a:	00 d0       	rcall	.+0      	; 0x2f2c <cfg_dump+0x3e>
    2f2c:	0f 92       	push	r0
    2f2e:	8b ea       	ldi	r24, 0xAB	; 171
    2f30:	96 e0       	ldi	r25, 0x06	; 6
    2f32:	ad b7       	in	r26, 0x3d	; 61
    2f34:	be b7       	in	r27, 0x3e	; 62
    2f36:	11 96       	adiw	r26, 0x01	; 1
    2f38:	8d 93       	st	X+, r24
    2f3a:	9c 93       	st	X, r25
    2f3c:	12 97       	sbiw	r26, 0x02	; 2
    2f3e:	80 91 46 24 	lds	r24, 0x2446
    2f42:	90 91 47 24 	lds	r25, 0x2447
    2f46:	a0 91 48 24 	lds	r26, 0x2448
    2f4a:	b0 91 49 24 	lds	r27, 0x2449
    2f4e:	ed b7       	in	r30, 0x3d	; 61
    2f50:	fe b7       	in	r31, 0x3e	; 62
    2f52:	83 83       	std	Z+3, r24	; 0x03
    2f54:	94 83       	std	Z+4, r25	; 0x04
    2f56:	a5 83       	std	Z+5, r26	; 0x05
    2f58:	b6 83       	std	Z+6, r27	; 0x06
    2f5a:	0e 94 84 44 	call	0x8908	; 0x8908 <printf_P>
    2f5e:	81 e8       	ldi	r24, 0x81	; 129
    2f60:	96 e0       	ldi	r25, 0x06	; 6
    2f62:	ad b7       	in	r26, 0x3d	; 61
    2f64:	be b7       	in	r27, 0x3e	; 62
    2f66:	11 96       	adiw	r26, 0x01	; 1
    2f68:	8d 93       	st	X+, r24
    2f6a:	9c 93       	st	X, r25
    2f6c:	12 97       	sbiw	r26, 0x02	; 2
    2f6e:	80 91 4e 24 	lds	r24, 0x244E
    2f72:	90 91 4f 24 	lds	r25, 0x244F
    2f76:	a0 91 50 24 	lds	r26, 0x2450
    2f7a:	b0 91 51 24 	lds	r27, 0x2451
    2f7e:	ed b7       	in	r30, 0x3d	; 61
    2f80:	fe b7       	in	r31, 0x3e	; 62
    2f82:	83 83       	std	Z+3, r24	; 0x03
    2f84:	94 83       	std	Z+4, r25	; 0x04
    2f86:	a5 83       	std	Z+5, r26	; 0x05
    2f88:	b6 83       	std	Z+6, r27	; 0x06
    2f8a:	0e 94 84 44 	call	0x8908	; 0x8908 <printf_P>
    2f8e:	86 e5       	ldi	r24, 0x56	; 86
    2f90:	96 e0       	ldi	r25, 0x06	; 6
    2f92:	ad b7       	in	r26, 0x3d	; 61
    2f94:	be b7       	in	r27, 0x3e	; 62
    2f96:	11 96       	adiw	r26, 0x01	; 1
    2f98:	8d 93       	st	X+, r24
    2f9a:	9c 93       	st	X, r25
    2f9c:	12 97       	sbiw	r26, 0x02	; 2
    2f9e:	80 91 4a 24 	lds	r24, 0x244A
    2fa2:	90 91 4b 24 	lds	r25, 0x244B
    2fa6:	a0 91 4c 24 	lds	r26, 0x244C
    2faa:	b0 91 4d 24 	lds	r27, 0x244D
    2fae:	ed b7       	in	r30, 0x3d	; 61
    2fb0:	fe b7       	in	r31, 0x3e	; 62
    2fb2:	83 83       	std	Z+3, r24	; 0x03
    2fb4:	94 83       	std	Z+4, r25	; 0x04
    2fb6:	a5 83       	std	Z+5, r26	; 0x05
    2fb8:	b6 83       	std	Z+6, r27	; 0x06
    2fba:	0e 94 84 44 	call	0x8908	; 0x8908 <printf_P>
    2fbe:	10 e0       	ldi	r17, 0x00	; 0
    2fc0:	8d b7       	in	r24, 0x3d	; 61
    2fc2:	9e b7       	in	r25, 0x3e	; 62
    2fc4:	06 96       	adiw	r24, 0x06	; 6
    2fc6:	8d bf       	out	0x3d, r24	; 61
    2fc8:	9e bf       	out	0x3e, r25	; 62
    2fca:	81 2f       	mov	r24, r17
    2fcc:	0e 94 8a 16 	call	0x2d14	; 0x2d14 <_cfg_dump_axis>
    2fd0:	1f 5f       	subi	r17, 0xFF	; 255
    2fd2:	14 30       	cpi	r17, 0x04	; 4
    2fd4:	d1 f7       	brne	.-12     	; 0x2fca <cfg_dump+0xdc>
    2fd6:	1f 91       	pop	r17
    2fd8:	08 95       	ret

00002fda <cfg_write>:
    2fda:	80 e0       	ldi	r24, 0x00	; 0
    2fdc:	90 e0       	ldi	r25, 0x00	; 0
    2fde:	64 e4       	ldi	r22, 0x44	; 68
    2fe0:	74 e2       	ldi	r23, 0x24	; 36
    2fe2:	4e e6       	ldi	r20, 0x6E	; 110
    2fe4:	50 e0       	ldi	r21, 0x00	; 0
    2fe6:	0e 94 56 2b 	call	0x56ac	; 0x56ac <memcpy_to_eeprom_with_checksum>
    2fea:	08 95       	ret

00002fec <cfg_read>:
    2fec:	80 e0       	ldi	r24, 0x00	; 0
    2fee:	90 e0       	ldi	r25, 0x00	; 0
    2ff0:	0e 94 a8 2a 	call	0x5550	; 0x5550 <eeprom_get_char>
    2ff4:	84 36       	cpi	r24, 0x64	; 100
    2ff6:	19 f0       	breq	.+6      	; 0x2ffe <cfg_read+0x12>
    2ff8:	20 e0       	ldi	r18, 0x00	; 0
    2ffa:	30 e0       	ldi	r19, 0x00	; 0
    2ffc:	0d c0       	rjmp	.+26     	; 0x3018 <cfg_read+0x2c>
    2ffe:	84 e4       	ldi	r24, 0x44	; 68
    3000:	94 e2       	ldi	r25, 0x24	; 36
    3002:	60 e0       	ldi	r22, 0x00	; 0
    3004:	70 e0       	ldi	r23, 0x00	; 0
    3006:	4e e6       	ldi	r20, 0x6E	; 110
    3008:	50 e0       	ldi	r21, 0x00	; 0
    300a:	0e 94 b2 2a 	call	0x5564	; 0x5564 <memcpy_from_eeprom_with_checksum>
    300e:	00 97       	sbiw	r24, 0x00	; 0
    3010:	11 f0       	breq	.+4      	; 0x3016 <cfg_read+0x2a>
    3012:	81 e0       	ldi	r24, 0x01	; 1
    3014:	90 e0       	ldi	r25, 0x00	; 0
    3016:	9c 01       	movw	r18, r24
    3018:	c9 01       	movw	r24, r18
    301a:	08 95       	ret

0000301c <cfg_parse>:
    301c:	cf 92       	push	r12
    301e:	df 92       	push	r13
    3020:	ef 92       	push	r14
    3022:	ff 92       	push	r15
    3024:	1f 93       	push	r17
    3026:	df 93       	push	r29
    3028:	cf 93       	push	r28
    302a:	0f 92       	push	r0
    302c:	0f 92       	push	r0
    302e:	cd b7       	in	r28, 0x3d	; 61
    3030:	de b7       	in	r29, 0x3e	; 62
    3032:	7c 01       	movw	r14, r24
    3034:	19 82       	std	Y+1, r1	; 0x01
    3036:	1a 82       	std	Y+2, r1	; 0x02
    3038:	cc 24       	eor	r12, r12
    303a:	dd 24       	eor	r13, r13
    303c:	30 e0       	ldi	r19, 0x00	; 0
    303e:	20 e0       	ldi	r18, 0x00	; 0
    3040:	2b c0       	rjmp	.+86     	; 0x3098 <cfg_parse+0x7c>
    3042:	9d 33       	cpi	r25, 0x3D	; 61
    3044:	49 f4       	brne	.+18     	; 0x3058 <cfg_parse+0x3c>
    3046:	f7 01       	movw	r30, r14
    3048:	e2 0f       	add	r30, r18
    304a:	f1 1d       	adc	r31, r1
    304c:	10 82       	st	Z, r1
    304e:	2f 5f       	subi	r18, 0xFF	; 255
    3050:	67 01       	movw	r12, r14
    3052:	c2 0e       	add	r12, r18
    3054:	d1 1c       	adc	r13, r1
    3056:	20 c0       	rjmp	.+64     	; 0x3098 <cfg_parse+0x7c>
    3058:	9d 32       	cpi	r25, 0x2D	; 45
    305a:	c9 f0       	breq	.+50     	; 0x308e <cfg_parse+0x72>
    305c:	9b 32       	cpi	r25, 0x2B	; 43
    305e:	b9 f0       	breq	.+46     	; 0x308e <cfg_parse+0x72>
    3060:	9e 32       	cpi	r25, 0x2E	; 46
    3062:	a9 f0       	breq	.+42     	; 0x308e <cfg_parse+0x72>
    3064:	9f 33       	cpi	r25, 0x3F	; 63
    3066:	99 f0       	breq	.+38     	; 0x308e <cfg_parse+0x72>
    3068:	98 32       	cpi	r25, 0x28	; 40
    306a:	89 f0       	breq	.+34     	; 0x308e <cfg_parse+0x72>
    306c:	89 2f       	mov	r24, r25
    306e:	81 56       	subi	r24, 0x61	; 97
    3070:	8a 31       	cpi	r24, 0x1A	; 26
    3072:	28 f4       	brcc	.+10     	; 0x307e <cfg_parse+0x62>
    3074:	f7 01       	movw	r30, r14
    3076:	e2 0f       	add	r30, r18
    3078:	f1 1d       	adc	r31, r1
    307a:	90 52       	subi	r25, 0x20	; 32
    307c:	0b c0       	rjmp	.+22     	; 0x3094 <cfg_parse+0x78>
    307e:	89 2f       	mov	r24, r25
    3080:	81 54       	subi	r24, 0x41	; 65
    3082:	8a 31       	cpi	r24, 0x1A	; 26
    3084:	20 f0       	brcs	.+8      	; 0x308e <cfg_parse+0x72>
    3086:	89 2f       	mov	r24, r25
    3088:	80 53       	subi	r24, 0x30	; 48
    308a:	8a 30       	cpi	r24, 0x0A	; 10
    308c:	28 f4       	brcc	.+10     	; 0x3098 <cfg_parse+0x7c>
    308e:	f7 01       	movw	r30, r14
    3090:	e2 0f       	add	r30, r18
    3092:	f1 1d       	adc	r31, r1
    3094:	90 83       	st	Z, r25
    3096:	2f 5f       	subi	r18, 0xFF	; 255
    3098:	f7 01       	movw	r30, r14
    309a:	e3 0f       	add	r30, r19
    309c:	f1 1d       	adc	r31, r1
    309e:	90 81       	ld	r25, Z
    30a0:	3f 5f       	subi	r19, 0xFF	; 255
    30a2:	99 23       	and	r25, r25
    30a4:	71 f6       	brne	.-100    	; 0x3042 <cfg_parse+0x26>
    30a6:	f7 01       	movw	r30, r14
    30a8:	e2 0f       	add	r30, r18
    30aa:	f1 1d       	adc	r31, r1
    30ac:	10 82       	st	Z, r1
    30ae:	2f 5f       	subi	r18, 0xFF	; 255
    30b0:	c7 01       	movw	r24, r14
    30b2:	82 0f       	add	r24, r18
    30b4:	91 1d       	adc	r25, r1
    30b6:	89 83       	std	Y+1, r24	; 0x01
    30b8:	9a 83       	std	Y+2, r25	; 0x02
    30ba:	10 92 45 24 	sts	0x2445, r1
    30be:	f7 01       	movw	r30, r14
    30c0:	80 81       	ld	r24, Z
    30c2:	81 35       	cpi	r24, 0x51	; 81
    30c4:	d1 f0       	breq	.+52     	; 0x30fa <cfg_parse+0xde>
    30c6:	82 35       	cpi	r24, 0x52	; 82
    30c8:	60 f4       	brcc	.+24     	; 0x30e2 <cfg_parse+0xc6>
    30ca:	81 34       	cpi	r24, 0x41	; 65
    30cc:	59 f1       	breq	.+86     	; 0x3124 <cfg_parse+0x108>
    30ce:	82 34       	cpi	r24, 0x42	; 66
    30d0:	28 f4       	brcc	.+10     	; 0x30dc <cfg_parse+0xc0>
    30d2:	88 32       	cpi	r24, 0x28	; 40
    30d4:	11 f1       	breq	.+68     	; 0x311a <cfg_parse+0xfe>
    30d6:	8f 33       	cpi	r24, 0x3F	; 63
    30d8:	39 f5       	brne	.+78     	; 0x3128 <cfg_parse+0x10c>
    30da:	0c c0       	rjmp	.+24     	; 0x30f4 <cfg_parse+0xd8>
    30dc:	8d 34       	cpi	r24, 0x4D	; 77
    30de:	21 f5       	brne	.+72     	; 0x3128 <cfg_parse+0x10c>
    30e0:	0e c0       	rjmp	.+28     	; 0x30fe <cfg_parse+0xe2>
    30e2:	89 35       	cpi	r24, 0x59	; 89
    30e4:	29 f0       	breq	.+10     	; 0x30f0 <cfg_parse+0xd4>
    30e6:	8a 35       	cpi	r24, 0x5A	; 90
    30e8:	d9 f0       	breq	.+54     	; 0x3120 <cfg_parse+0x104>
    30ea:	88 35       	cpi	r24, 0x58	; 88
    30ec:	e9 f4       	brne	.+58     	; 0x3128 <cfg_parse+0x10c>
    30ee:	1f c0       	rjmp	.+62     	; 0x312e <cfg_parse+0x112>
    30f0:	11 e0       	ldi	r17, 0x01	; 1
    30f2:	1e c0       	rjmp	.+60     	; 0x3130 <cfg_parse+0x114>
    30f4:	0e 94 77 17 	call	0x2eee	; 0x2eee <cfg_dump>
    30f8:	10 c0       	rjmp	.+32     	; 0x311a <cfg_parse+0xfe>
    30fa:	83 e0       	ldi	r24, 0x03	; 3
    30fc:	16 c0       	rjmp	.+44     	; 0x312a <cfg_parse+0x10e>
    30fe:	c6 01       	movw	r24, r12
    3100:	be 01       	movw	r22, r28
    3102:	6f 5f       	subi	r22, 0xFF	; 255
    3104:	7f 4f       	sbci	r23, 0xFF	; 255
    3106:	0e 94 7e 41 	call	0x82fc	; 0x82fc <strtod>
    310a:	60 93 46 24 	sts	0x2446, r22
    310e:	70 93 47 24 	sts	0x2447, r23
    3112:	80 93 48 24 	sts	0x2448, r24
    3116:	90 93 49 24 	sts	0x2449, r25
    311a:	10 92 45 24 	sts	0x2445, r1
    311e:	07 c0       	rjmp	.+14     	; 0x312e <cfg_parse+0x112>
    3120:	12 e0       	ldi	r17, 0x02	; 2
    3122:	06 c0       	rjmp	.+12     	; 0x3130 <cfg_parse+0x114>
    3124:	13 e0       	ldi	r17, 0x03	; 3
    3126:	04 c0       	rjmp	.+8      	; 0x3130 <cfg_parse+0x114>
    3128:	87 e0       	ldi	r24, 0x07	; 7
    312a:	80 93 45 24 	sts	0x2445, r24
    312e:	10 e0       	ldi	r17, 0x00	; 0
    3130:	80 91 45 24 	lds	r24, 0x2445
    3134:	88 23       	and	r24, r24
    3136:	09 f0       	breq	.+2      	; 0x313a <cfg_parse+0x11e>
    3138:	ee c0       	rjmp	.+476    	; 0x3316 <cfg_parse+0x2fa>
    313a:	10 92 45 24 	sts	0x2445, r1
    313e:	f7 01       	movw	r30, r14
    3140:	81 81       	ldd	r24, Z+1	; 0x01
    3142:	8c 34       	cpi	r24, 0x4C	; 76
    3144:	09 f4       	brne	.+2      	; 0x3148 <cfg_parse+0x12c>
    3146:	b8 c0       	rjmp	.+368    	; 0x32b8 <cfg_parse+0x29c>
    3148:	8d 34       	cpi	r24, 0x4D	; 77
    314a:	30 f4       	brcc	.+12     	; 0x3158 <cfg_parse+0x13c>
    314c:	84 34       	cpi	r24, 0x44	; 68
    314e:	a9 f1       	breq	.+106    	; 0x31ba <cfg_parse+0x19e>
    3150:	86 34       	cpi	r24, 0x46	; 70
    3152:	09 f0       	breq	.+2      	; 0x3156 <cfg_parse+0x13a>
    3154:	dd c0       	rjmp	.+442    	; 0x3310 <cfg_parse+0x2f4>
    3156:	1d c0       	rjmp	.+58     	; 0x3192 <cfg_parse+0x176>
    3158:	80 35       	cpi	r24, 0x50	; 80
    315a:	09 f4       	brne	.+2      	; 0x315e <cfg_parse+0x142>
    315c:	47 c0       	rjmp	.+142    	; 0x31ec <cfg_parse+0x1d0>
    315e:	83 35       	cpi	r24, 0x53	; 83
    3160:	21 f0       	breq	.+8      	; 0x316a <cfg_parse+0x14e>
    3162:	8d 34       	cpi	r24, 0x4D	; 77
    3164:	09 f0       	breq	.+2      	; 0x3168 <cfg_parse+0x14c>
    3166:	d4 c0       	rjmp	.+424    	; 0x3310 <cfg_parse+0x2f4>
    3168:	58 c0       	rjmp	.+176    	; 0x321a <cfg_parse+0x1fe>
    316a:	c6 01       	movw	r24, r12
    316c:	0e 94 ec 42 	call	0x85d8	; 0x85d8 <atoi>
    3170:	21 2f       	mov	r18, r17
    3172:	30 e0       	ldi	r19, 0x00	; 0
    3174:	f9 01       	movw	r30, r18
    3176:	ee 0f       	add	r30, r30
    3178:	ff 1f       	adc	r31, r31
    317a:	e2 0f       	add	r30, r18
    317c:	f3 1f       	adc	r31, r19
    317e:	53 e0       	ldi	r21, 0x03	; 3
    3180:	ee 0f       	add	r30, r30
    3182:	ff 1f       	adc	r31, r31
    3184:	5a 95       	dec	r21
    3186:	e1 f7       	brne	.-8      	; 0x3180 <cfg_parse+0x164>
    3188:	ec 5b       	subi	r30, 0xBC	; 188
    318a:	fb 4d       	sbci	r31, 0xDB	; 219
    318c:	81 8b       	std	Z+17, r24	; 0x11
    318e:	92 8b       	std	Z+18, r25	; 0x12
    3190:	c2 c0       	rjmp	.+388    	; 0x3316 <cfg_parse+0x2fa>
    3192:	c6 01       	movw	r24, r12
    3194:	0e 94 ec 42 	call	0x85d8	; 0x85d8 <atoi>
    3198:	21 2f       	mov	r18, r17
    319a:	30 e0       	ldi	r19, 0x00	; 0
    319c:	f9 01       	movw	r30, r18
    319e:	ee 0f       	add	r30, r30
    31a0:	ff 1f       	adc	r31, r31
    31a2:	e2 0f       	add	r30, r18
    31a4:	f3 1f       	adc	r31, r19
    31a6:	23 e0       	ldi	r18, 0x03	; 3
    31a8:	ee 0f       	add	r30, r30
    31aa:	ff 1f       	adc	r31, r31
    31ac:	2a 95       	dec	r18
    31ae:	e1 f7       	brne	.-8      	; 0x31a8 <cfg_parse+0x18c>
    31b0:	ec 5b       	subi	r30, 0xBC	; 188
    31b2:	fb 4d       	sbci	r31, 0xDB	; 219
    31b4:	83 8b       	std	Z+19, r24	; 0x13
    31b6:	94 8b       	std	Z+20, r25	; 0x14
    31b8:	ae c0       	rjmp	.+348    	; 0x3316 <cfg_parse+0x2fa>
    31ba:	c6 01       	movw	r24, r12
    31bc:	be 01       	movw	r22, r28
    31be:	6f 5f       	subi	r22, 0xFF	; 255
    31c0:	7f 4f       	sbci	r23, 0xFF	; 255
    31c2:	0e 94 7e 41 	call	0x82fc	; 0x82fc <strtod>
    31c6:	21 2f       	mov	r18, r17
    31c8:	30 e0       	ldi	r19, 0x00	; 0
    31ca:	f9 01       	movw	r30, r18
    31cc:	ee 0f       	add	r30, r30
    31ce:	ff 1f       	adc	r31, r31
    31d0:	e2 0f       	add	r30, r18
    31d2:	f3 1f       	adc	r31, r19
    31d4:	b3 e0       	ldi	r27, 0x03	; 3
    31d6:	ee 0f       	add	r30, r30
    31d8:	ff 1f       	adc	r31, r31
    31da:	ba 95       	dec	r27
    31dc:	e1 f7       	brne	.-8      	; 0x31d6 <cfg_parse+0x1ba>
    31de:	ec 5b       	subi	r30, 0xBC	; 188
    31e0:	fb 4d       	sbci	r31, 0xDB	; 219
    31e2:	65 8b       	std	Z+21, r22	; 0x15
    31e4:	76 8b       	std	Z+22, r23	; 0x16
    31e6:	87 8b       	std	Z+23, r24	; 0x17
    31e8:	90 8f       	std	Z+24, r25	; 0x18
    31ea:	95 c0       	rjmp	.+298    	; 0x3316 <cfg_parse+0x2fa>
    31ec:	c6 01       	movw	r24, r12
    31ee:	0e 94 ec 42 	call	0x85d8	; 0x85d8 <atoi>
    31f2:	68 2f       	mov	r22, r24
    31f4:	81 2f       	mov	r24, r17
    31f6:	90 e0       	ldi	r25, 0x00	; 0
    31f8:	fc 01       	movw	r30, r24
    31fa:	ee 0f       	add	r30, r30
    31fc:	ff 1f       	adc	r31, r31
    31fe:	e8 0f       	add	r30, r24
    3200:	f9 1f       	adc	r31, r25
    3202:	73 e0       	ldi	r23, 0x03	; 3
    3204:	ee 0f       	add	r30, r30
    3206:	ff 1f       	adc	r31, r31
    3208:	7a 95       	dec	r23
    320a:	e1 f7       	brne	.-8      	; 0x3204 <cfg_parse+0x1e8>
    320c:	ec 5b       	subi	r30, 0xBC	; 188
    320e:	fb 4d       	sbci	r31, 0xDB	; 219
    3210:	60 8b       	std	Z+16, r22	; 0x10
    3212:	81 2f       	mov	r24, r17
    3214:	0e 94 10 23 	call	0x4620	; 0x4620 <st_set_polarity>
    3218:	7e c0       	rjmp	.+252    	; 0x3316 <cfg_parse+0x2fa>
    321a:	f7 01       	movw	r30, r14
    321c:	82 81       	ldd	r24, Z+2	; 0x02
    321e:	89 34       	cpi	r24, 0x49	; 73
    3220:	99 f4       	brne	.+38     	; 0x3248 <cfg_parse+0x22c>
    3222:	c6 01       	movw	r24, r12
    3224:	0e 94 ec 42 	call	0x85d8	; 0x85d8 <atoi>
    3228:	21 2f       	mov	r18, r17
    322a:	30 e0       	ldi	r19, 0x00	; 0
    322c:	f9 01       	movw	r30, r18
    322e:	ee 0f       	add	r30, r30
    3230:	ff 1f       	adc	r31, r31
    3232:	e2 0f       	add	r30, r18
    3234:	f3 1f       	adc	r31, r19
    3236:	53 e0       	ldi	r21, 0x03	; 3
    3238:	ee 0f       	add	r30, r30
    323a:	ff 1f       	adc	r31, r31
    323c:	5a 95       	dec	r21
    323e:	e1 f7       	brne	.-8      	; 0x3238 <cfg_parse+0x21c>
    3240:	ec 5b       	subi	r30, 0xBC	; 188
    3242:	fb 4d       	sbci	r31, 0xDB	; 219
    3244:	86 87       	std	Z+14, r24	; 0x0e
    3246:	67 c0       	rjmp	.+206    	; 0x3316 <cfg_parse+0x2fa>
    3248:	f7 01       	movw	r30, r14
    324a:	83 81       	ldd	r24, Z+3	; 0x03
    324c:	82 35       	cpi	r24, 0x52	; 82
    324e:	c9 f4       	brne	.+50     	; 0x3282 <cfg_parse+0x266>
    3250:	c6 01       	movw	r24, r12
    3252:	be 01       	movw	r22, r28
    3254:	6f 5f       	subi	r22, 0xFF	; 255
    3256:	7f 4f       	sbci	r23, 0xFF	; 255
    3258:	0e 94 7e 41 	call	0x82fc	; 0x82fc <strtod>
    325c:	21 2f       	mov	r18, r17
    325e:	30 e0       	ldi	r19, 0x00	; 0
    3260:	f9 01       	movw	r30, r18
    3262:	ee 0f       	add	r30, r30
    3264:	ff 1f       	adc	r31, r31
    3266:	e2 0f       	add	r30, r18
    3268:	f3 1f       	adc	r31, r19
    326a:	13 e0       	ldi	r17, 0x03	; 3
    326c:	ee 0f       	add	r30, r30
    326e:	ff 1f       	adc	r31, r31
    3270:	1a 95       	dec	r17
    3272:	e1 f7       	brne	.-8      	; 0x326c <cfg_parse+0x250>
    3274:	ec 5b       	subi	r30, 0xBC	; 188
    3276:	fb 4d       	sbci	r31, 0xDB	; 219
    3278:	61 8f       	std	Z+25, r22	; 0x19
    327a:	72 8f       	std	Z+26, r23	; 0x1a
    327c:	83 8f       	std	Z+27, r24	; 0x1b
    327e:	94 8f       	std	Z+28, r25	; 0x1c
    3280:	4a c0       	rjmp	.+148    	; 0x3316 <cfg_parse+0x2fa>
    3282:	84 35       	cpi	r24, 0x54	; 84
    3284:	c9 f4       	brne	.+50     	; 0x32b8 <cfg_parse+0x29c>
    3286:	c6 01       	movw	r24, r12
    3288:	be 01       	movw	r22, r28
    328a:	6f 5f       	subi	r22, 0xFF	; 255
    328c:	7f 4f       	sbci	r23, 0xFF	; 255
    328e:	0e 94 7e 41 	call	0x82fc	; 0x82fc <strtod>
    3292:	21 2f       	mov	r18, r17
    3294:	30 e0       	ldi	r19, 0x00	; 0
    3296:	f9 01       	movw	r30, r18
    3298:	ee 0f       	add	r30, r30
    329a:	ff 1f       	adc	r31, r31
    329c:	e2 0f       	add	r30, r18
    329e:	f3 1f       	adc	r31, r19
    32a0:	a3 e0       	ldi	r26, 0x03	; 3
    32a2:	ee 0f       	add	r30, r30
    32a4:	ff 1f       	adc	r31, r31
    32a6:	aa 95       	dec	r26
    32a8:	e1 f7       	brne	.-8      	; 0x32a2 <cfg_parse+0x286>
    32aa:	ec 5b       	subi	r30, 0xBC	; 188
    32ac:	fb 4d       	sbci	r31, 0xDB	; 219
    32ae:	65 8f       	std	Z+29, r22	; 0x1d
    32b0:	76 8f       	std	Z+30, r23	; 0x1e
    32b2:	87 8f       	std	Z+31, r24	; 0x1f
    32b4:	90 a3       	std	Z+32, r25	; 0x20
    32b6:	2f c0       	rjmp	.+94     	; 0x3316 <cfg_parse+0x2fa>
    32b8:	f7 01       	movw	r30, r14
    32ba:	82 81       	ldd	r24, Z+2	; 0x02
    32bc:	8f 34       	cpi	r24, 0x4F	; 79
    32be:	99 f4       	brne	.+38     	; 0x32e6 <cfg_parse+0x2ca>
    32c0:	c6 01       	movw	r24, r12
    32c2:	0e 94 ec 42 	call	0x85d8	; 0x85d8 <atoi>
    32c6:	21 2f       	mov	r18, r17
    32c8:	30 e0       	ldi	r19, 0x00	; 0
    32ca:	f9 01       	movw	r30, r18
    32cc:	ee 0f       	add	r30, r30
    32ce:	ff 1f       	adc	r31, r31
    32d0:	e2 0f       	add	r30, r18
    32d2:	f3 1f       	adc	r31, r19
    32d4:	53 e0       	ldi	r21, 0x03	; 3
    32d6:	ee 0f       	add	r30, r30
    32d8:	ff 1f       	adc	r31, r31
    32da:	5a 95       	dec	r21
    32dc:	e1 f7       	brne	.-8      	; 0x32d6 <cfg_parse+0x2ba>
    32de:	ec 5b       	subi	r30, 0xBC	; 188
    32e0:	fb 4d       	sbci	r31, 0xDB	; 219
    32e2:	87 87       	std	Z+15, r24	; 0x0f
    32e4:	18 c0       	rjmp	.+48     	; 0x3316 <cfg_parse+0x2fa>
    32e6:	89 34       	cpi	r24, 0x49	; 73
    32e8:	99 f4       	brne	.+38     	; 0x3310 <cfg_parse+0x2f4>
    32ea:	c6 01       	movw	r24, r12
    32ec:	0e 94 ec 42 	call	0x85d8	; 0x85d8 <atoi>
    32f0:	21 2f       	mov	r18, r17
    32f2:	30 e0       	ldi	r19, 0x00	; 0
    32f4:	f9 01       	movw	r30, r18
    32f6:	ee 0f       	add	r30, r30
    32f8:	ff 1f       	adc	r31, r31
    32fa:	e2 0f       	add	r30, r18
    32fc:	f3 1f       	adc	r31, r19
    32fe:	23 e0       	ldi	r18, 0x03	; 3
    3300:	ee 0f       	add	r30, r30
    3302:	ff 1f       	adc	r31, r31
    3304:	2a 95       	dec	r18
    3306:	e1 f7       	brne	.-8      	; 0x3300 <cfg_parse+0x2e4>
    3308:	ec 5b       	subi	r30, 0xBC	; 188
    330a:	fb 4d       	sbci	r31, 0xDB	; 219
    330c:	85 a3       	std	Z+37, r24	; 0x25
    330e:	03 c0       	rjmp	.+6      	; 0x3316 <cfg_parse+0x2fa>
    3310:	87 e0       	ldi	r24, 0x07	; 7
    3312:	80 93 45 24 	sts	0x2445, r24
    3316:	80 91 45 24 	lds	r24, 0x2445
    331a:	b7 01       	movw	r22, r14
    331c:	0e 94 3b 16 	call	0x2c76	; 0x2c76 <_cfg_print_status>
    3320:	80 91 45 24 	lds	r24, 0x2445
    3324:	90 e0       	ldi	r25, 0x00	; 0
    3326:	0f 90       	pop	r0
    3328:	0f 90       	pop	r0
    332a:	cf 91       	pop	r28
    332c:	df 91       	pop	r29
    332e:	1f 91       	pop	r17
    3330:	ff 90       	pop	r15
    3332:	ef 90       	pop	r14
    3334:	df 90       	pop	r13
    3336:	cf 90       	pop	r12
    3338:	08 95       	ret

0000333a <cfg_test>:
    333a:	ef 92       	push	r14
    333c:	ff 92       	push	r15
    333e:	0f 93       	push	r16
    3340:	1f 93       	push	r17
    3342:	df 93       	push	r29
    3344:	cf 93       	push	r28
    3346:	cd b7       	in	r28, 0x3d	; 61
    3348:	de b7       	in	r29, 0x3e	; 62
    334a:	a8 97       	sbiw	r28, 0x28	; 40
    334c:	cd bf       	out	0x3d, r28	; 61
    334e:	de bf       	out	0x3e, r29	; 62
    3350:	0b e4       	ldi	r16, 0x4B	; 75
    3352:	12 e0       	ldi	r17, 0x02	; 2
    3354:	a0 e0       	ldi	r26, 0x00	; 0
    3356:	b0 e0       	ldi	r27, 0x00	; 0
    3358:	7e 01       	movw	r14, r28
    335a:	08 94       	sec
    335c:	e1 1c       	adc	r14, r1
    335e:	f1 1c       	adc	r15, r1
    3360:	02 c0       	rjmp	.+4      	; 0x3366 <cfg_test+0x2c>
    3362:	0f 5f       	subi	r16, 0xFF	; 255
    3364:	1f 4f       	sbci	r17, 0xFF	; 255
    3366:	f8 01       	movw	r30, r16
    3368:	84 91       	lpm	r24, Z+
    336a:	88 23       	and	r24, r24
    336c:	89 f4       	brne	.+34     	; 0x3390 <cfg_test+0x56>
    336e:	ce 01       	movw	r24, r28
    3370:	01 96       	adiw	r24, 0x01	; 1
    3372:	a8 0f       	add	r26, r24
    3374:	b9 1f       	adc	r27, r25
    3376:	1c 92       	st	X, r1
    3378:	0e 94 0e 18 	call	0x301c	; 0x301c <cfg_parse>
    337c:	a8 96       	adiw	r28, 0x28	; 40
    337e:	cd bf       	out	0x3d, r28	; 61
    3380:	de bf       	out	0x3e, r29	; 62
    3382:	cf 91       	pop	r28
    3384:	df 91       	pop	r29
    3386:	1f 91       	pop	r17
    3388:	0f 91       	pop	r16
    338a:	ff 90       	pop	r15
    338c:	ef 90       	pop	r14
    338e:	08 95       	ret
    3390:	8d 30       	cpi	r24, 0x0D	; 13
    3392:	21 f0       	breq	.+8      	; 0x339c <cfg_test+0x62>
    3394:	8a 30       	cpi	r24, 0x0A	; 10
    3396:	11 f0       	breq	.+4      	; 0x339c <cfg_test+0x62>
    3398:	8b 33       	cpi	r24, 0x3B	; 59
    339a:	49 f4       	brne	.+18     	; 0x33ae <cfg_test+0x74>
    339c:	ae 0d       	add	r26, r14
    339e:	bf 1d       	adc	r27, r15
    33a0:	1c 92       	st	X, r1
    33a2:	c7 01       	movw	r24, r14
    33a4:	0e 94 0e 18 	call	0x301c	; 0x301c <cfg_parse>
    33a8:	a0 e0       	ldi	r26, 0x00	; 0
    33aa:	b0 e0       	ldi	r27, 0x00	; 0
    33ac:	da cf       	rjmp	.-76     	; 0x3362 <cfg_test+0x28>
    33ae:	81 32       	cpi	r24, 0x21	; 33
    33b0:	c0 f2       	brcs	.-80     	; 0x3362 <cfg_test+0x28>
    33b2:	f7 01       	movw	r30, r14
    33b4:	ea 0f       	add	r30, r26
    33b6:	fb 1f       	adc	r31, r27
    33b8:	80 83       	st	Z, r24
    33ba:	11 96       	adiw	r26, 0x01	; 1
    33bc:	d2 cf       	rjmp	.-92     	; 0x3362 <cfg_test+0x28>

000033be <en_init>:

#include "encoder.h"

void en_init(void) {

}
    33be:	08 95       	ret

000033c0 <xmega_init_clocks>:
    33c0:	0f 93       	push	r16
    33c2:	df 93       	push	r29
    33c4:	cf 93       	push	r28
    33c6:	0f 92       	push	r0
    33c8:	cd b7       	in	r28, 0x3d	; 61
    33ca:	de b7       	in	r29, 0x3e	; 62
    33cc:	8b e4       	ldi	r24, 0x4B	; 75
    33ce:	e0 e5       	ldi	r30, 0x50	; 80
    33d0:	f0 e0       	ldi	r31, 0x00	; 0
    33d2:	82 83       	std	Z+2, r24	; 0x02
    33d4:	88 e0       	ldi	r24, 0x08	; 8
    33d6:	80 93 50 00 	sts	0x0050, r24
    33da:	80 91 51 00 	lds	r24, 0x0051
    33de:	83 ff       	sbrs	r24, 3
    33e0:	fc cf       	rjmp	.-8      	; 0x33da <xmega_init_clocks+0x1a>
    33e2:	84 ec       	ldi	r24, 0xC4	; 196
    33e4:	e0 e5       	ldi	r30, 0x50	; 80
    33e6:	f0 e0       	ldi	r31, 0x00	; 0
    33e8:	85 83       	std	Z+5, r24	; 0x05
    33ea:	88 e1       	ldi	r24, 0x18	; 24
    33ec:	80 93 50 00 	sts	0x0050, r24
    33f0:	80 91 51 00 	lds	r24, 0x0051
    33f4:	84 ff       	sbrs	r24, 4
    33f6:	fc cf       	rjmp	.-8      	; 0x33f0 <xmega_init_clocks+0x30>
    33f8:	8f b7       	in	r24, 0x3f	; 63
    33fa:	89 83       	std	Y+1, r24	; 0x01
    33fc:	f8 94       	cli
    33fe:	1b be       	out	0x3b, r1	; 59
    3400:	24 e0       	ldi	r18, 0x04	; 4
    3402:	80 e4       	ldi	r24, 0x40	; 64
    3404:	90 e0       	ldi	r25, 0x00	; 0
    3406:	fc 01       	movw	r30, r24
    3408:	08 ed       	ldi	r16, 0xD8	; 216
    340a:	04 bf       	out	0x34, r16	; 52
    340c:	20 83       	st	Z, r18
    340e:	89 81       	ldd	r24, Y+1	; 0x01
    3410:	8f bf       	out	0x3f, r24	; 63
    3412:	80 91 50 00 	lds	r24, 0x0050
    3416:	8e 7f       	andi	r24, 0xFE	; 254
    3418:	80 93 50 00 	sts	0x0050, r24
    341c:	0f 90       	pop	r0
    341e:	cf 91       	pop	r28
    3420:	df 91       	pop	r29
    3422:	0f 91       	pop	r16
    3424:	08 95       	ret

00003426 <xmega_init>:
    3426:	0e 94 e0 19 	call	0x33c0	; 0x33c0 <xmega_init_clocks>
    342a:	08 95       	ret

0000342c <CCPWrite>:
    342c:	0f 93       	push	r16
    342e:	df 93       	push	r29
    3430:	cf 93       	push	r28
    3432:	0f 92       	push	r0
    3434:	cd b7       	in	r28, 0x3d	; 61
    3436:	de b7       	in	r29, 0x3e	; 62
    3438:	2f b7       	in	r18, 0x3f	; 63
    343a:	29 83       	std	Y+1, r18	; 0x01
    343c:	f8 94       	cli
    343e:	1b be       	out	0x3b, r1	; 59
    3440:	fc 01       	movw	r30, r24
    3442:	08 ed       	ldi	r16, 0xD8	; 216
    3444:	04 bf       	out	0x34, r16	; 52
    3446:	60 83       	st	Z, r22
    3448:	89 81       	ldd	r24, Y+1	; 0x01
    344a:	8f bf       	out	0x3f, r24	; 63
    344c:	0f 90       	pop	r0
    344e:	cf 91       	pop	r28
    3450:	df 91       	pop	r29
    3452:	0f 91       	pop	r16
    3454:	08 95       	ret

00003456 <mc_motion_stop>:
    3456:	10 92 72 21 	sts	0x2172, r1
    345a:	10 92 b4 24 	sts	0x24B4, r1
    345e:	08 95       	ret

00003460 <mc_dwell>:
    3460:	af 92       	push	r10
    3462:	bf 92       	push	r11
    3464:	cf 92       	push	r12
    3466:	df 92       	push	r13
    3468:	ef 92       	push	r14
    346a:	ff 92       	push	r15
    346c:	0f 93       	push	r16
    346e:	1f 93       	push	r17
    3470:	0e 94 13 3e 	call	0x7c26	; 0x7c26 <__floatunsisf>
    3474:	5b 01       	movw	r10, r22
    3476:	6c 01       	movw	r12, r24
 */
void
_delay_ms(double __ms)
{
	uint16_t __ticks;
	double __tmp = ((F_CPU) / 4e3) * __ms;
    3478:	20 e0       	ldi	r18, 0x00	; 0
    347a:	30 e0       	ldi	r19, 0x00	; 0
    347c:	4a ef       	ldi	r20, 0xFA	; 250
    347e:	55 e4       	ldi	r21, 0x45	; 69
    3480:	0e 94 35 40 	call	0x806a	; 0x806a <__mulsf3>
    3484:	7b 01       	movw	r14, r22
    3486:	8c 01       	movw	r16, r24
	if (__tmp < 1.0)
    3488:	20 e0       	ldi	r18, 0x00	; 0
    348a:	30 e0       	ldi	r19, 0x00	; 0
    348c:	40 e8       	ldi	r20, 0x80	; 128
    348e:	5f e3       	ldi	r21, 0x3F	; 63
    3490:	0e 94 73 3d 	call	0x7ae6	; 0x7ae6 <__cmpsf2>
    3494:	88 23       	and	r24, r24
    3496:	1c f4       	brge	.+6      	; 0x349e <mc_dwell+0x3e>
    3498:	61 e0       	ldi	r22, 0x01	; 1
    349a:	70 e0       	ldi	r23, 0x00	; 0
    349c:	24 c0       	rjmp	.+72     	; 0x34e6 <mc_dwell+0x86>
		__ticks = 1;
	else if (__tmp > 65535)
    349e:	c8 01       	movw	r24, r16
    34a0:	b7 01       	movw	r22, r14
    34a2:	20 e0       	ldi	r18, 0x00	; 0
    34a4:	3f ef       	ldi	r19, 0xFF	; 255
    34a6:	4f e7       	ldi	r20, 0x7F	; 127
    34a8:	57 e4       	ldi	r21, 0x47	; 71
    34aa:	0e 94 63 3f 	call	0x7ec6	; 0x7ec6 <__gesf2>
    34ae:	18 16       	cp	r1, r24
    34b0:	b4 f4       	brge	.+44     	; 0x34de <mc_dwell+0x7e>
	{
		//	__ticks = requested delay in 1/10 ms
		__ticks = (uint16_t) (__ms * 10.0);
    34b2:	c6 01       	movw	r24, r12
    34b4:	b5 01       	movw	r22, r10
    34b6:	20 e0       	ldi	r18, 0x00	; 0
    34b8:	30 e0       	ldi	r19, 0x00	; 0
    34ba:	40 e2       	ldi	r20, 0x20	; 32
    34bc:	51 e4       	ldi	r21, 0x41	; 65
    34be:	0e 94 35 40 	call	0x806a	; 0x806a <__mulsf3>
    34c2:	0e 94 e7 3d 	call	0x7bce	; 0x7bce <__fixunssfsi>
    milliseconds can be achieved.
 */
void
_delay_loop_2(uint16_t __count)
{
	__asm__ volatile (
    34c6:	80 e2       	ldi	r24, 0x20	; 32
    34c8:	93 e0       	ldi	r25, 0x03	; 3
    34ca:	05 c0       	rjmp	.+10     	; 0x34d6 <mc_dwell+0x76>
    34cc:	fc 01       	movw	r30, r24
    34ce:	31 97       	sbiw	r30, 0x01	; 1
    34d0:	f1 f7       	brne	.-4      	; 0x34ce <mc_dwell+0x6e>
		while(__ticks)
		{
			// wait 1/10 ms
			_delay_loop_2(((F_CPU) / 4e3) / 10);
			__ticks --;
    34d2:	61 50       	subi	r22, 0x01	; 1
    34d4:	70 40       	sbci	r23, 0x00	; 0
		__ticks = 1;
	else if (__tmp > 65535)
	{
		//	__ticks = requested delay in 1/10 ms
		__ticks = (uint16_t) (__ms * 10.0);
		while(__ticks)
    34d6:	61 15       	cp	r22, r1
    34d8:	71 05       	cpc	r23, r1
    34da:	c1 f7       	brne	.-16     	; 0x34cc <mc_dwell+0x6c>
    34dc:	07 c0       	rjmp	.+14     	; 0x34ec <mc_dwell+0x8c>
			__ticks --;
		}
		return;
	}
	else
		__ticks = (uint16_t)__tmp;
    34de:	c8 01       	movw	r24, r16
    34e0:	b7 01       	movw	r22, r14
    34e2:	0e 94 e7 3d 	call	0x7bce	; 0x7bce <__fixunssfsi>
    34e6:	cb 01       	movw	r24, r22
    34e8:	01 97       	sbiw	r24, 0x01	; 1
    34ea:	f1 f7       	brne	.-4      	; 0x34e8 <mc_dwell+0x88>
    34ec:	1f 91       	pop	r17
    34ee:	0f 91       	pop	r16
    34f0:	ff 90       	pop	r15
    34f2:	ef 90       	pop	r14
    34f4:	df 90       	pop	r13
    34f6:	cf 90       	pop	r12
    34f8:	bf 90       	pop	r11
    34fa:	af 90       	pop	r10
    34fc:	08 95       	ret

000034fe <mc_go_home>:
    34fe:	8c e0       	ldi	r24, 0x0C	; 12
    3500:	e3 e7       	ldi	r30, 0x73	; 115
    3502:	f1 e2       	ldi	r31, 0x21	; 33
    3504:	df 01       	movw	r26, r30
    3506:	1d 92       	st	X+, r1
    3508:	8a 95       	dec	r24
    350a:	e9 f7       	brne	.-6      	; 0x3506 <mc_go_home+0x8>
    350c:	08 95       	ret

0000350e <mc_init>:
    350e:	8c e0       	ldi	r24, 0x0C	; 12
    3510:	e3 e7       	ldi	r30, 0x73	; 115
    3512:	f1 e2       	ldi	r31, 0x21	; 33
    3514:	df 01       	movw	r26, r30
    3516:	1d 92       	st	X+, r1
    3518:	8a 95       	dec	r24
    351a:	e9 f7       	brne	.-6      	; 0x3516 <mc_init+0x8>
    351c:	10 92 72 21 	sts	0x2172, r1
    3520:	10 92 b4 24 	sts	0x24B4, r1
    3524:	08 95       	ret

00003526 <mc_line_continuation>:
    3526:	af 92       	push	r10
    3528:	bf 92       	push	r11
    352a:	cf 92       	push	r12
    352c:	df 92       	push	r13
    352e:	ef 92       	push	r14
    3530:	ff 92       	push	r15
    3532:	0f 93       	push	r16
    3534:	1f 93       	push	r17
    3536:	80 91 72 21 	lds	r24, 0x2172
    353a:	88 23       	and	r24, r24
    353c:	19 f4       	brne	.+6      	; 0x3544 <mc_line_continuation+0x1e>
    353e:	21 e0       	ldi	r18, 0x01	; 1
    3540:	30 e0       	ldi	r19, 0x00	; 0
    3542:	30 c0       	rjmp	.+96     	; 0x35a4 <mc_line_continuation+0x7e>
    3544:	82 e0       	ldi	r24, 0x02	; 2
    3546:	80 93 72 21 	sts	0x2172, r24
    354a:	0e 94 00 30 	call	0x6000	; 0x6000 <mv_test_move_buffer_full>
    354e:	88 23       	and	r24, r24
    3550:	19 f0       	breq	.+6      	; 0x3558 <mc_line_continuation+0x32>
    3552:	22 e0       	ldi	r18, 0x02	; 2
    3554:	30 e0       	ldi	r19, 0x00	; 0
    3556:	26 c0       	rjmp	.+76     	; 0x35a4 <mc_line_continuation+0x7e>
    3558:	60 91 8b 21 	lds	r22, 0x218B
    355c:	70 91 8c 21 	lds	r23, 0x218C
    3560:	80 91 8d 21 	lds	r24, 0x218D
    3564:	90 91 8e 21 	lds	r25, 0x218E
    3568:	20 91 8f 21 	lds	r18, 0x218F
    356c:	30 91 90 21 	lds	r19, 0x2190
    3570:	40 91 91 21 	lds	r20, 0x2191
    3574:	50 91 92 21 	lds	r21, 0x2192
    3578:	e0 90 93 21 	lds	r14, 0x2193
    357c:	f0 90 94 21 	lds	r15, 0x2194
    3580:	00 91 95 21 	lds	r16, 0x2195
    3584:	10 91 96 21 	lds	r17, 0x2196
    3588:	a0 90 97 21 	lds	r10, 0x2197
    358c:	b0 90 98 21 	lds	r11, 0x2198
    3590:	c0 90 99 21 	lds	r12, 0x2199
    3594:	d0 90 9a 21 	lds	r13, 0x219A
    3598:	0e 94 2c 30 	call	0x6058	; 0x6058 <mv_queue_move_buffer>
    359c:	10 92 72 21 	sts	0x2172, r1
    35a0:	20 e0       	ldi	r18, 0x00	; 0
    35a2:	30 e0       	ldi	r19, 0x00	; 0
    35a4:	c9 01       	movw	r24, r18
    35a6:	1f 91       	pop	r17
    35a8:	0f 91       	pop	r16
    35aa:	ff 90       	pop	r15
    35ac:	ef 90       	pop	r14
    35ae:	df 90       	pop	r13
    35b0:	cf 90       	pop	r12
    35b2:	bf 90       	pop	r11
    35b4:	af 90       	pop	r10
    35b6:	08 95       	ret

000035b8 <mc_line_nonblock>:
    35b8:	2f 92       	push	r2
    35ba:	3f 92       	push	r3
    35bc:	4f 92       	push	r4
    35be:	5f 92       	push	r5
    35c0:	6f 92       	push	r6
    35c2:	7f 92       	push	r7
    35c4:	8f 92       	push	r8
    35c6:	9f 92       	push	r9
    35c8:	af 92       	push	r10
    35ca:	bf 92       	push	r11
    35cc:	cf 92       	push	r12
    35ce:	df 92       	push	r13
    35d0:	ef 92       	push	r14
    35d2:	ff 92       	push	r15
    35d4:	0f 93       	push	r16
    35d6:	1f 93       	push	r17
    35d8:	df 93       	push	r29
    35da:	cf 93       	push	r28
    35dc:	cd b7       	in	r28, 0x3d	; 61
    35de:	de b7       	in	r29, 0x3e	; 62
    35e0:	64 97       	sbiw	r28, 0x14	; 20
    35e2:	cd bf       	out	0x3d, r28	; 61
    35e4:	de bf       	out	0x3e, r29	; 62
    35e6:	2d 87       	std	Y+13, r18	; 0x0d
    35e8:	3e 87       	std	Y+14, r19	; 0x0e
    35ea:	4f 87       	std	Y+15, r20	; 0x0f
    35ec:	58 8b       	std	Y+16, r21	; 0x10
    35ee:	a9 8a       	std	Y+17, r10	; 0x11
    35f0:	ba 8a       	std	Y+18, r11	; 0x12
    35f2:	cb 8a       	std	Y+19, r12	; 0x13
    35f4:	dc 8a       	std	Y+20, r13	; 0x14
    35f6:	20 91 65 24 	lds	r18, 0x2465
    35fa:	30 91 66 24 	lds	r19, 0x2466
    35fe:	40 91 67 24 	lds	r20, 0x2467
    3602:	50 91 68 24 	lds	r21, 0x2468
    3606:	29 87       	std	Y+9, r18	; 0x09
    3608:	3a 87       	std	Y+10, r19	; 0x0a
    360a:	4b 87       	std	Y+11, r20	; 0x0b
    360c:	5c 87       	std	Y+12, r21	; 0x0c
    360e:	0e 94 35 40 	call	0x806a	; 0x806a <__mulsf3>
    3612:	0e 94 05 40 	call	0x800a	; 0x800a <lround>
    3616:	2b 01       	movw	r4, r22
    3618:	3c 01       	movw	r6, r24
    361a:	40 92 7f 21 	sts	0x217F, r4
    361e:	50 92 80 21 	sts	0x2180, r5
    3622:	60 92 81 21 	sts	0x2181, r6
    3626:	70 92 82 21 	sts	0x2182, r7
    362a:	80 91 7d 24 	lds	r24, 0x247D
    362e:	90 91 7e 24 	lds	r25, 0x247E
    3632:	a0 91 7f 24 	lds	r26, 0x247F
    3636:	b0 91 80 24 	lds	r27, 0x2480
    363a:	8d 83       	std	Y+5, r24	; 0x05
    363c:	9e 83       	std	Y+6, r25	; 0x06
    363e:	af 83       	std	Y+7, r26	; 0x07
    3640:	b8 87       	std	Y+8, r27	; 0x08
    3642:	6d 85       	ldd	r22, Y+13	; 0x0d
    3644:	7e 85       	ldd	r23, Y+14	; 0x0e
    3646:	8f 85       	ldd	r24, Y+15	; 0x0f
    3648:	98 89       	ldd	r25, Y+16	; 0x10
    364a:	2d 81       	ldd	r18, Y+5	; 0x05
    364c:	3e 81       	ldd	r19, Y+6	; 0x06
    364e:	4f 81       	ldd	r20, Y+7	; 0x07
    3650:	58 85       	ldd	r21, Y+8	; 0x08
    3652:	0e 94 35 40 	call	0x806a	; 0x806a <__mulsf3>
    3656:	0e 94 05 40 	call	0x800a	; 0x800a <lround>
    365a:	5b 01       	movw	r10, r22
    365c:	6c 01       	movw	r12, r24
    365e:	a0 92 83 21 	sts	0x2183, r10
    3662:	b0 92 84 21 	sts	0x2184, r11
    3666:	c0 92 85 21 	sts	0x2185, r12
    366a:	d0 92 86 21 	sts	0x2186, r13
    366e:	20 91 95 24 	lds	r18, 0x2495
    3672:	30 91 96 24 	lds	r19, 0x2496
    3676:	40 91 97 24 	lds	r20, 0x2497
    367a:	50 91 98 24 	lds	r21, 0x2498
    367e:	29 83       	std	Y+1, r18	; 0x01
    3680:	3a 83       	std	Y+2, r19	; 0x02
    3682:	4b 83       	std	Y+3, r20	; 0x03
    3684:	5c 83       	std	Y+4, r21	; 0x04
    3686:	c8 01       	movw	r24, r16
    3688:	b7 01       	movw	r22, r14
    368a:	0e 94 35 40 	call	0x806a	; 0x806a <__mulsf3>
    368e:	0e 94 05 40 	call	0x800a	; 0x800a <lround>
    3692:	9b 01       	movw	r18, r22
    3694:	ac 01       	movw	r20, r24
    3696:	20 93 87 21 	sts	0x2187, r18
    369a:	30 93 88 21 	sts	0x2188, r19
    369e:	40 93 89 21 	sts	0x2189, r20
    36a2:	50 93 8a 21 	sts	0x218A, r21
    36a6:	80 91 73 21 	lds	r24, 0x2173
    36aa:	90 91 74 21 	lds	r25, 0x2174
    36ae:	a0 91 75 21 	lds	r26, 0x2175
    36b2:	b0 91 76 21 	lds	r27, 0x2176
    36b6:	83 01       	movw	r16, r6
    36b8:	72 01       	movw	r14, r4
    36ba:	e8 1a       	sub	r14, r24
    36bc:	f9 0a       	sbc	r15, r25
    36be:	0a 0b       	sbc	r16, r26
    36c0:	1b 0b       	sbc	r17, r27
    36c2:	e0 92 8b 21 	sts	0x218B, r14
    36c6:	f0 92 8c 21 	sts	0x218C, r15
    36ca:	00 93 8d 21 	sts	0x218D, r16
    36ce:	10 93 8e 21 	sts	0x218E, r17
    36d2:	80 91 77 21 	lds	r24, 0x2177
    36d6:	90 91 78 21 	lds	r25, 0x2178
    36da:	a0 91 79 21 	lds	r26, 0x2179
    36de:	b0 91 7a 21 	lds	r27, 0x217A
    36e2:	a8 1a       	sub	r10, r24
    36e4:	b9 0a       	sbc	r11, r25
    36e6:	ca 0a       	sbc	r12, r26
    36e8:	db 0a       	sbc	r13, r27
    36ea:	a0 92 8f 21 	sts	0x218F, r10
    36ee:	b0 92 90 21 	sts	0x2190, r11
    36f2:	c0 92 91 21 	sts	0x2191, r12
    36f6:	d0 92 92 21 	sts	0x2192, r13
    36fa:	80 91 7b 21 	lds	r24, 0x217B
    36fe:	90 91 7c 21 	lds	r25, 0x217C
    3702:	a0 91 7d 21 	lds	r26, 0x217D
    3706:	b0 91 7e 21 	lds	r27, 0x217E
    370a:	19 01       	movw	r2, r18
    370c:	2a 01       	movw	r4, r20
    370e:	28 1a       	sub	r2, r24
    3710:	39 0a       	sbc	r3, r25
    3712:	4a 0a       	sbc	r4, r26
    3714:	5b 0a       	sbc	r5, r27
    3716:	20 92 93 21 	sts	0x2193, r2
    371a:	30 92 94 21 	sts	0x2194, r3
    371e:	40 92 95 21 	sts	0x2195, r4
    3722:	50 92 96 21 	sts	0x2196, r5
    3726:	89 28       	or	r8, r9
    3728:	59 f0       	breq	.+22     	; 0x3740 <mc_line_nonblock+0x188>
    372a:	60 ec       	ldi	r22, 0xC0	; 192
    372c:	71 ee       	ldi	r23, 0xE1	; 225
    372e:	84 e6       	ldi	r24, 0x64	; 100
    3730:	9c e4       	ldi	r25, 0x4C	; 76
    3732:	29 89       	ldd	r18, Y+17	; 0x11
    3734:	3a 89       	ldd	r19, Y+18	; 0x12
    3736:	4b 89       	ldd	r20, Y+19	; 0x13
    3738:	5c 89       	ldd	r21, Y+20	; 0x14
    373a:	0e 94 7a 3d 	call	0x7af4	; 0x7af4 <__divsf3>
    373e:	4a c0       	rjmp	.+148    	; 0x37d4 <mc_line_nonblock+0x21c>
    3740:	c8 01       	movw	r24, r16
    3742:	b7 01       	movw	r22, r14
    3744:	0e 94 15 3e 	call	0x7c2a	; 0x7c2a <__floatsisf>
    3748:	29 85       	ldd	r18, Y+9	; 0x09
    374a:	3a 85       	ldd	r19, Y+10	; 0x0a
    374c:	4b 85       	ldd	r20, Y+11	; 0x0b
    374e:	5c 85       	ldd	r21, Y+12	; 0x0c
    3750:	0e 94 7a 3d 	call	0x7af4	; 0x7af4 <__divsf3>
    3754:	0e 94 e0 40 	call	0x81c0	; 0x81c0 <square>
    3758:	3b 01       	movw	r6, r22
    375a:	4c 01       	movw	r8, r24
    375c:	c6 01       	movw	r24, r12
    375e:	b5 01       	movw	r22, r10
    3760:	0e 94 15 3e 	call	0x7c2a	; 0x7c2a <__floatsisf>
    3764:	2d 81       	ldd	r18, Y+5	; 0x05
    3766:	3e 81       	ldd	r19, Y+6	; 0x06
    3768:	4f 81       	ldd	r20, Y+7	; 0x07
    376a:	58 85       	ldd	r21, Y+8	; 0x08
    376c:	0e 94 7a 3d 	call	0x7af4	; 0x7af4 <__divsf3>
    3770:	0e 94 e0 40 	call	0x81c0	; 0x81c0 <square>
    3774:	5b 01       	movw	r10, r22
    3776:	6c 01       	movw	r12, r24
    3778:	c2 01       	movw	r24, r4
    377a:	b1 01       	movw	r22, r2
    377c:	0e 94 15 3e 	call	0x7c2a	; 0x7c2a <__floatsisf>
    3780:	29 81       	ldd	r18, Y+1	; 0x01
    3782:	3a 81       	ldd	r19, Y+2	; 0x02
    3784:	4b 81       	ldd	r20, Y+3	; 0x03
    3786:	5c 81       	ldd	r21, Y+4	; 0x04
    3788:	0e 94 7a 3d 	call	0x7af4	; 0x7af4 <__divsf3>
    378c:	0e 94 e0 40 	call	0x81c0	; 0x81c0 <square>
    3790:	7b 01       	movw	r14, r22
    3792:	8c 01       	movw	r16, r24
    3794:	c4 01       	movw	r24, r8
    3796:	b3 01       	movw	r22, r6
    3798:	a6 01       	movw	r20, r12
    379a:	95 01       	movw	r18, r10
    379c:	0e 94 d4 3c 	call	0x79a8	; 0x79a8 <__addsf3>
    37a0:	a8 01       	movw	r20, r16
    37a2:	97 01       	movw	r18, r14
    37a4:	0e 94 d4 3c 	call	0x79a8	; 0x79a8 <__addsf3>
    37a8:	0e 94 a2 40 	call	0x8144	; 0x8144 <sqrt>
    37ac:	60 93 9b 21 	sts	0x219B, r22
    37b0:	70 93 9c 21 	sts	0x219C, r23
    37b4:	80 93 9d 21 	sts	0x219D, r24
    37b8:	90 93 9e 21 	sts	0x219E, r25
    37bc:	29 89       	ldd	r18, Y+17	; 0x11
    37be:	3a 89       	ldd	r19, Y+18	; 0x12
    37c0:	4b 89       	ldd	r20, Y+19	; 0x13
    37c2:	5c 89       	ldd	r21, Y+20	; 0x14
    37c4:	0e 94 7a 3d 	call	0x7af4	; 0x7af4 <__divsf3>
    37c8:	20 e0       	ldi	r18, 0x00	; 0
    37ca:	34 e2       	ldi	r19, 0x24	; 36
    37cc:	44 e7       	ldi	r20, 0x74	; 116
    37ce:	59 e4       	ldi	r21, 0x49	; 73
    37d0:	0e 94 35 40 	call	0x806a	; 0x806a <__mulsf3>
    37d4:	0e 94 05 40 	call	0x800a	; 0x800a <lround>
    37d8:	60 93 97 21 	sts	0x2197, r22
    37dc:	70 93 98 21 	sts	0x2198, r23
    37e0:	80 93 99 21 	sts	0x2199, r24
    37e4:	90 93 9a 21 	sts	0x219A, r25
    37e8:	81 e0       	ldi	r24, 0x01	; 1
    37ea:	80 93 72 21 	sts	0x2172, r24
    37ee:	e3 e7       	ldi	r30, 0x73	; 115
    37f0:	f1 e2       	ldi	r31, 0x21	; 33
    37f2:	df 01       	movw	r26, r30
    37f4:	1c 96       	adiw	r26, 0x0c	; 12
    37f6:	8c e0       	ldi	r24, 0x0C	; 12
    37f8:	0d 90       	ld	r0, X+
    37fa:	01 92       	st	Z+, r0
    37fc:	81 50       	subi	r24, 0x01	; 1
    37fe:	e1 f7       	brne	.-8      	; 0x37f8 <mc_line_nonblock+0x240>
    3800:	0e 94 93 1a 	call	0x3526	; 0x3526 <mc_line_continuation>
    3804:	64 96       	adiw	r28, 0x14	; 20
    3806:	cd bf       	out	0x3d, r28	; 61
    3808:	de bf       	out	0x3e, r29	; 62
    380a:	cf 91       	pop	r28
    380c:	df 91       	pop	r29
    380e:	1f 91       	pop	r17
    3810:	0f 91       	pop	r16
    3812:	ff 90       	pop	r15
    3814:	ef 90       	pop	r14
    3816:	df 90       	pop	r13
    3818:	cf 90       	pop	r12
    381a:	bf 90       	pop	r11
    381c:	af 90       	pop	r10
    381e:	9f 90       	pop	r9
    3820:	8f 90       	pop	r8
    3822:	7f 90       	pop	r7
    3824:	6f 90       	pop	r6
    3826:	5f 90       	pop	r5
    3828:	4f 90       	pop	r4
    382a:	3f 90       	pop	r3
    382c:	2f 90       	pop	r2
    382e:	08 95       	ret

00003830 <mc_line>:
    3830:	2f 92       	push	r2
    3832:	3f 92       	push	r3
    3834:	4f 92       	push	r4
    3836:	5f 92       	push	r5
    3838:	6f 92       	push	r6
    383a:	7f 92       	push	r7
    383c:	8f 92       	push	r8
    383e:	9f 92       	push	r9
    3840:	af 92       	push	r10
    3842:	bf 92       	push	r11
    3844:	cf 92       	push	r12
    3846:	df 92       	push	r13
    3848:	ef 92       	push	r14
    384a:	ff 92       	push	r15
    384c:	0f 93       	push	r16
    384e:	1f 93       	push	r17
    3850:	df 93       	push	r29
    3852:	cf 93       	push	r28
    3854:	cd b7       	in	r28, 0x3d	; 61
    3856:	de b7       	in	r29, 0x3e	; 62
    3858:	6c 97       	sbiw	r28, 0x1c	; 28
    385a:	cd bf       	out	0x3d, r28	; 61
    385c:	de bf       	out	0x3e, r29	; 62
    385e:	2d 8b       	std	Y+21, r18	; 0x15
    3860:	3e 8b       	std	Y+22, r19	; 0x16
    3862:	4f 8b       	std	Y+23, r20	; 0x17
    3864:	58 8f       	std	Y+24, r21	; 0x18
    3866:	a9 8e       	std	Y+25, r10	; 0x19
    3868:	ba 8e       	std	Y+26, r11	; 0x1a
    386a:	cb 8e       	std	Y+27, r12	; 0x1b
    386c:	dc 8e       	std	Y+28, r13	; 0x1c
    386e:	20 91 65 24 	lds	r18, 0x2465
    3872:	30 91 66 24 	lds	r19, 0x2466
    3876:	40 91 67 24 	lds	r20, 0x2467
    387a:	50 91 68 24 	lds	r21, 0x2468
    387e:	29 8b       	std	Y+17, r18	; 0x11
    3880:	3a 8b       	std	Y+18, r19	; 0x12
    3882:	4b 8b       	std	Y+19, r20	; 0x13
    3884:	5c 8b       	std	Y+20, r21	; 0x14
    3886:	0e 94 35 40 	call	0x806a	; 0x806a <__mulsf3>
    388a:	0e 94 05 40 	call	0x800a	; 0x800a <lround>
    388e:	2b 01       	movw	r4, r22
    3890:	3c 01       	movw	r6, r24
    3892:	40 92 7f 21 	sts	0x217F, r4
    3896:	50 92 80 21 	sts	0x2180, r5
    389a:	60 92 81 21 	sts	0x2181, r6
    389e:	70 92 82 21 	sts	0x2182, r7
    38a2:	80 91 7d 24 	lds	r24, 0x247D
    38a6:	90 91 7e 24 	lds	r25, 0x247E
    38aa:	a0 91 7f 24 	lds	r26, 0x247F
    38ae:	b0 91 80 24 	lds	r27, 0x2480
    38b2:	8d 87       	std	Y+13, r24	; 0x0d
    38b4:	9e 87       	std	Y+14, r25	; 0x0e
    38b6:	af 87       	std	Y+15, r26	; 0x0f
    38b8:	b8 8b       	std	Y+16, r27	; 0x10
    38ba:	6d 89       	ldd	r22, Y+21	; 0x15
    38bc:	7e 89       	ldd	r23, Y+22	; 0x16
    38be:	8f 89       	ldd	r24, Y+23	; 0x17
    38c0:	98 8d       	ldd	r25, Y+24	; 0x18
    38c2:	2d 85       	ldd	r18, Y+13	; 0x0d
    38c4:	3e 85       	ldd	r19, Y+14	; 0x0e
    38c6:	4f 85       	ldd	r20, Y+15	; 0x0f
    38c8:	58 89       	ldd	r21, Y+16	; 0x10
    38ca:	0e 94 35 40 	call	0x806a	; 0x806a <__mulsf3>
    38ce:	0e 94 05 40 	call	0x800a	; 0x800a <lround>
    38d2:	5b 01       	movw	r10, r22
    38d4:	6c 01       	movw	r12, r24
    38d6:	a0 92 83 21 	sts	0x2183, r10
    38da:	b0 92 84 21 	sts	0x2184, r11
    38de:	c0 92 85 21 	sts	0x2185, r12
    38e2:	d0 92 86 21 	sts	0x2186, r13
    38e6:	20 91 95 24 	lds	r18, 0x2495
    38ea:	30 91 96 24 	lds	r19, 0x2496
    38ee:	40 91 97 24 	lds	r20, 0x2497
    38f2:	50 91 98 24 	lds	r21, 0x2498
    38f6:	29 87       	std	Y+9, r18	; 0x09
    38f8:	3a 87       	std	Y+10, r19	; 0x0a
    38fa:	4b 87       	std	Y+11, r20	; 0x0b
    38fc:	5c 87       	std	Y+12, r21	; 0x0c
    38fe:	c8 01       	movw	r24, r16
    3900:	b7 01       	movw	r22, r14
    3902:	0e 94 35 40 	call	0x806a	; 0x806a <__mulsf3>
    3906:	0e 94 05 40 	call	0x800a	; 0x800a <lround>
    390a:	9b 01       	movw	r18, r22
    390c:	ac 01       	movw	r20, r24
    390e:	20 93 87 21 	sts	0x2187, r18
    3912:	30 93 88 21 	sts	0x2188, r19
    3916:	40 93 89 21 	sts	0x2189, r20
    391a:	50 93 8a 21 	sts	0x218A, r21
    391e:	80 91 73 21 	lds	r24, 0x2173
    3922:	90 91 74 21 	lds	r25, 0x2174
    3926:	a0 91 75 21 	lds	r26, 0x2175
    392a:	b0 91 76 21 	lds	r27, 0x2176
    392e:	83 01       	movw	r16, r6
    3930:	72 01       	movw	r14, r4
    3932:	e8 1a       	sub	r14, r24
    3934:	f9 0a       	sbc	r15, r25
    3936:	0a 0b       	sbc	r16, r26
    3938:	1b 0b       	sbc	r17, r27
    393a:	ed 82       	std	Y+5, r14	; 0x05
    393c:	fe 82       	std	Y+6, r15	; 0x06
    393e:	0f 83       	std	Y+7, r16	; 0x07
    3940:	18 87       	std	Y+8, r17	; 0x08
    3942:	e0 92 8b 21 	sts	0x218B, r14
    3946:	f0 92 8c 21 	sts	0x218C, r15
    394a:	00 93 8d 21 	sts	0x218D, r16
    394e:	10 93 8e 21 	sts	0x218E, r17
    3952:	80 91 77 21 	lds	r24, 0x2177
    3956:	90 91 78 21 	lds	r25, 0x2178
    395a:	a0 91 79 21 	lds	r26, 0x2179
    395e:	b0 91 7a 21 	lds	r27, 0x217A
    3962:	86 01       	movw	r16, r12
    3964:	75 01       	movw	r14, r10
    3966:	e8 1a       	sub	r14, r24
    3968:	f9 0a       	sbc	r15, r25
    396a:	0a 0b       	sbc	r16, r26
    396c:	1b 0b       	sbc	r17, r27
    396e:	e9 82       	std	Y+1, r14	; 0x01
    3970:	fa 82       	std	Y+2, r15	; 0x02
    3972:	0b 83       	std	Y+3, r16	; 0x03
    3974:	1c 83       	std	Y+4, r17	; 0x04
    3976:	e0 92 8f 21 	sts	0x218F, r14
    397a:	f0 92 90 21 	sts	0x2190, r15
    397e:	00 93 91 21 	sts	0x2191, r16
    3982:	10 93 92 21 	sts	0x2192, r17
    3986:	80 91 7b 21 	lds	r24, 0x217B
    398a:	90 91 7c 21 	lds	r25, 0x217C
    398e:	a0 91 7d 21 	lds	r26, 0x217D
    3992:	b0 91 7e 21 	lds	r27, 0x217E
    3996:	19 01       	movw	r2, r18
    3998:	2a 01       	movw	r4, r20
    399a:	28 1a       	sub	r2, r24
    399c:	39 0a       	sbc	r3, r25
    399e:	4a 0a       	sbc	r4, r26
    39a0:	5b 0a       	sbc	r5, r27
    39a2:	20 92 93 21 	sts	0x2193, r2
    39a6:	30 92 94 21 	sts	0x2194, r3
    39aa:	40 92 95 21 	sts	0x2195, r4
    39ae:	50 92 96 21 	sts	0x2196, r5
    39b2:	89 28       	or	r8, r9
    39b4:	59 f0       	breq	.+22     	; 0x39cc <mc_line+0x19c>
    39b6:	60 ec       	ldi	r22, 0xC0	; 192
    39b8:	71 ee       	ldi	r23, 0xE1	; 225
    39ba:	84 e6       	ldi	r24, 0x64	; 100
    39bc:	9c e4       	ldi	r25, 0x4C	; 76
    39be:	29 8d       	ldd	r18, Y+25	; 0x19
    39c0:	3a 8d       	ldd	r19, Y+26	; 0x1a
    39c2:	4b 8d       	ldd	r20, Y+27	; 0x1b
    39c4:	5c 8d       	ldd	r21, Y+28	; 0x1c
    39c6:	0e 94 7a 3d 	call	0x7af4	; 0x7af4 <__divsf3>
    39ca:	4e c0       	rjmp	.+156    	; 0x3a68 <mc_line+0x238>
    39cc:	6d 81       	ldd	r22, Y+5	; 0x05
    39ce:	7e 81       	ldd	r23, Y+6	; 0x06
    39d0:	8f 81       	ldd	r24, Y+7	; 0x07
    39d2:	98 85       	ldd	r25, Y+8	; 0x08
    39d4:	0e 94 15 3e 	call	0x7c2a	; 0x7c2a <__floatsisf>
    39d8:	29 89       	ldd	r18, Y+17	; 0x11
    39da:	3a 89       	ldd	r19, Y+18	; 0x12
    39dc:	4b 89       	ldd	r20, Y+19	; 0x13
    39de:	5c 89       	ldd	r21, Y+20	; 0x14
    39e0:	0e 94 7a 3d 	call	0x7af4	; 0x7af4 <__divsf3>
    39e4:	0e 94 e0 40 	call	0x81c0	; 0x81c0 <square>
    39e8:	3b 01       	movw	r6, r22
    39ea:	4c 01       	movw	r8, r24
    39ec:	69 81       	ldd	r22, Y+1	; 0x01
    39ee:	7a 81       	ldd	r23, Y+2	; 0x02
    39f0:	8b 81       	ldd	r24, Y+3	; 0x03
    39f2:	9c 81       	ldd	r25, Y+4	; 0x04
    39f4:	0e 94 15 3e 	call	0x7c2a	; 0x7c2a <__floatsisf>
    39f8:	2d 85       	ldd	r18, Y+13	; 0x0d
    39fa:	3e 85       	ldd	r19, Y+14	; 0x0e
    39fc:	4f 85       	ldd	r20, Y+15	; 0x0f
    39fe:	58 89       	ldd	r21, Y+16	; 0x10
    3a00:	0e 94 7a 3d 	call	0x7af4	; 0x7af4 <__divsf3>
    3a04:	0e 94 e0 40 	call	0x81c0	; 0x81c0 <square>
    3a08:	5b 01       	movw	r10, r22
    3a0a:	6c 01       	movw	r12, r24
    3a0c:	c2 01       	movw	r24, r4
    3a0e:	b1 01       	movw	r22, r2
    3a10:	0e 94 15 3e 	call	0x7c2a	; 0x7c2a <__floatsisf>
    3a14:	29 85       	ldd	r18, Y+9	; 0x09
    3a16:	3a 85       	ldd	r19, Y+10	; 0x0a
    3a18:	4b 85       	ldd	r20, Y+11	; 0x0b
    3a1a:	5c 85       	ldd	r21, Y+12	; 0x0c
    3a1c:	0e 94 7a 3d 	call	0x7af4	; 0x7af4 <__divsf3>
    3a20:	0e 94 e0 40 	call	0x81c0	; 0x81c0 <square>
    3a24:	7b 01       	movw	r14, r22
    3a26:	8c 01       	movw	r16, r24
    3a28:	c4 01       	movw	r24, r8
    3a2a:	b3 01       	movw	r22, r6
    3a2c:	a6 01       	movw	r20, r12
    3a2e:	95 01       	movw	r18, r10
    3a30:	0e 94 d4 3c 	call	0x79a8	; 0x79a8 <__addsf3>
    3a34:	a8 01       	movw	r20, r16
    3a36:	97 01       	movw	r18, r14
    3a38:	0e 94 d4 3c 	call	0x79a8	; 0x79a8 <__addsf3>
    3a3c:	0e 94 a2 40 	call	0x8144	; 0x8144 <sqrt>
    3a40:	60 93 9b 21 	sts	0x219B, r22
    3a44:	70 93 9c 21 	sts	0x219C, r23
    3a48:	80 93 9d 21 	sts	0x219D, r24
    3a4c:	90 93 9e 21 	sts	0x219E, r25
    3a50:	29 8d       	ldd	r18, Y+25	; 0x19
    3a52:	3a 8d       	ldd	r19, Y+26	; 0x1a
    3a54:	4b 8d       	ldd	r20, Y+27	; 0x1b
    3a56:	5c 8d       	ldd	r21, Y+28	; 0x1c
    3a58:	0e 94 7a 3d 	call	0x7af4	; 0x7af4 <__divsf3>
    3a5c:	20 e0       	ldi	r18, 0x00	; 0
    3a5e:	34 e2       	ldi	r19, 0x24	; 36
    3a60:	44 e7       	ldi	r20, 0x74	; 116
    3a62:	59 e4       	ldi	r21, 0x49	; 73
    3a64:	0e 94 35 40 	call	0x806a	; 0x806a <__mulsf3>
    3a68:	0e 94 05 40 	call	0x800a	; 0x800a <lround>
    3a6c:	60 93 97 21 	sts	0x2197, r22
    3a70:	70 93 98 21 	sts	0x2198, r23
    3a74:	80 93 99 21 	sts	0x2199, r24
    3a78:	90 93 9a 21 	sts	0x219A, r25
    3a7c:	a0 90 97 21 	lds	r10, 0x2197
    3a80:	b0 90 98 21 	lds	r11, 0x2198
    3a84:	c0 90 99 21 	lds	r12, 0x2199
    3a88:	d0 90 9a 21 	lds	r13, 0x219A
    3a8c:	6d 81       	ldd	r22, Y+5	; 0x05
    3a8e:	7e 81       	ldd	r23, Y+6	; 0x06
    3a90:	8f 81       	ldd	r24, Y+7	; 0x07
    3a92:	98 85       	ldd	r25, Y+8	; 0x08
    3a94:	29 81       	ldd	r18, Y+1	; 0x01
    3a96:	3a 81       	ldd	r19, Y+2	; 0x02
    3a98:	4b 81       	ldd	r20, Y+3	; 0x03
    3a9a:	5c 81       	ldd	r21, Y+4	; 0x04
    3a9c:	82 01       	movw	r16, r4
    3a9e:	71 01       	movw	r14, r2
    3aa0:	0e 94 2c 30 	call	0x6058	; 0x6058 <mv_queue_move_buffer>
    3aa4:	e3 e7       	ldi	r30, 0x73	; 115
    3aa6:	f1 e2       	ldi	r31, 0x21	; 33
    3aa8:	df 01       	movw	r26, r30
    3aaa:	1c 96       	adiw	r26, 0x0c	; 12
    3aac:	8c e0       	ldi	r24, 0x0C	; 12
    3aae:	0d 90       	ld	r0, X+
    3ab0:	01 92       	st	Z+, r0
    3ab2:	81 50       	subi	r24, 0x01	; 1
    3ab4:	e1 f7       	brne	.-8      	; 0x3aae <mc_line+0x27e>
    3ab6:	80 e0       	ldi	r24, 0x00	; 0
    3ab8:	90 e0       	ldi	r25, 0x00	; 0
    3aba:	6c 96       	adiw	r28, 0x1c	; 28
    3abc:	cd bf       	out	0x3d, r28	; 61
    3abe:	de bf       	out	0x3e, r29	; 62
    3ac0:	cf 91       	pop	r28
    3ac2:	df 91       	pop	r29
    3ac4:	1f 91       	pop	r17
    3ac6:	0f 91       	pop	r16
    3ac8:	ff 90       	pop	r15
    3aca:	ef 90       	pop	r14
    3acc:	df 90       	pop	r13
    3ace:	cf 90       	pop	r12
    3ad0:	bf 90       	pop	r11
    3ad2:	af 90       	pop	r10
    3ad4:	9f 90       	pop	r9
    3ad6:	8f 90       	pop	r8
    3ad8:	7f 90       	pop	r7
    3ada:	6f 90       	pop	r6
    3adc:	5f 90       	pop	r5
    3ade:	4f 90       	pop	r4
    3ae0:	3f 90       	pop	r3
    3ae2:	2f 90       	pop	r2
    3ae4:	08 95       	ret

00003ae6 <mc_arc_continuation>:
    3ae6:	8f 92       	push	r8
    3ae8:	9f 92       	push	r9
    3aea:	af 92       	push	r10
    3aec:	bf 92       	push	r11
    3aee:	cf 92       	push	r12
    3af0:	df 92       	push	r13
    3af2:	ef 92       	push	r14
    3af4:	ff 92       	push	r15
    3af6:	0f 93       	push	r16
    3af8:	1f 93       	push	r17
    3afa:	80 91 b4 24 	lds	r24, 0x24B4
    3afe:	88 23       	and	r24, r24
    3b00:	19 f4       	brne	.+6      	; 0x3b08 <mc_arc_continuation+0x22>
    3b02:	21 e0       	ldi	r18, 0x01	; 1
    3b04:	30 e0       	ldi	r19, 0x00	; 0
    3b06:	dd c0       	rjmp	.+442    	; 0x3cc2 <mc_arc_continuation+0x1dc>
    3b08:	81 30       	cpi	r24, 0x01	; 1
    3b0a:	09 f0       	breq	.+2      	; 0x3b0e <mc_arc_continuation+0x28>
    3b0c:	ca c0       	rjmp	.+404    	; 0x3ca2 <mc_arc_continuation+0x1bc>
    3b0e:	10 92 b7 24 	sts	0x24B7, r1
    3b12:	10 92 b8 24 	sts	0x24B8, r1
    3b16:	82 e0       	ldi	r24, 0x02	; 2
    3b18:	80 93 b4 24 	sts	0x24B4, r24
    3b1c:	c2 c0       	rjmp	.+388    	; 0x3ca2 <mc_arc_continuation+0x1bc>
    3b1e:	0e 94 00 30 	call	0x6000	; 0x6000 <mv_test_move_buffer_full>
    3b22:	88 23       	and	r24, r24
    3b24:	19 f0       	breq	.+6      	; 0x3b2c <mc_arc_continuation+0x46>
    3b26:	22 e0       	ldi	r18, 0x02	; 2
    3b28:	30 e0       	ldi	r19, 0x00	; 0
    3b2a:	cb c0       	rjmp	.+406    	; 0x3cc2 <mc_arc_continuation+0x1dc>
    3b2c:	80 91 b7 24 	lds	r24, 0x24B7
    3b30:	90 91 b8 24 	lds	r25, 0x24B8
    3b34:	01 96       	adiw	r24, 0x01	; 1
    3b36:	80 93 b7 24 	sts	0x24B7, r24
    3b3a:	90 93 b8 24 	sts	0x24B8, r25
    3b3e:	60 91 d9 24 	lds	r22, 0x24D9
    3b42:	70 91 da 24 	lds	r23, 0x24DA
    3b46:	80 91 db 24 	lds	r24, 0x24DB
    3b4a:	90 91 dc 24 	lds	r25, 0x24DC
    3b4e:	20 91 e5 24 	lds	r18, 0x24E5
    3b52:	30 91 e6 24 	lds	r19, 0x24E6
    3b56:	40 91 e7 24 	lds	r20, 0x24E7
    3b5a:	50 91 e8 24 	lds	r21, 0x24E8
    3b5e:	0e 94 d4 3c 	call	0x79a8	; 0x79a8 <__addsf3>
    3b62:	7b 01       	movw	r14, r22
    3b64:	8c 01       	movw	r16, r24
    3b66:	cb 01       	movw	r24, r22
    3b68:	d8 01       	movw	r26, r16
    3b6a:	80 93 d9 24 	sts	0x24D9, r24
    3b6e:	90 93 da 24 	sts	0x24DA, r25
    3b72:	a0 93 db 24 	sts	0x24DB, r26
    3b76:	b0 93 dc 24 	sts	0x24DC, r27
    3b7a:	b7 01       	movw	r22, r14
    3b7c:	c8 01       	movw	r24, r16
    3b7e:	0e 94 98 40 	call	0x8130	; 0x8130 <sin>
    3b82:	80 90 dd 24 	lds	r8, 0x24DD
    3b86:	90 90 de 24 	lds	r9, 0x24DE
    3b8a:	a0 90 df 24 	lds	r10, 0x24DF
    3b8e:	b0 90 e0 24 	lds	r11, 0x24E0
    3b92:	c0 90 bb 24 	lds	r12, 0x24BB
    3b96:	d0 90 bc 24 	lds	r13, 0x24BC
    3b9a:	cc 0c       	add	r12, r12
    3b9c:	dd 1c       	adc	r13, r13
    3b9e:	cc 0c       	add	r12, r12
    3ba0:	dd 1c       	adc	r13, r13
    3ba2:	24 eb       	ldi	r18, 0xB4	; 180
    3ba4:	34 e2       	ldi	r19, 0x24	; 36
    3ba6:	c2 0e       	add	r12, r18
    3ba8:	d3 1e       	adc	r13, r19
    3baa:	a5 01       	movw	r20, r10
    3bac:	94 01       	movw	r18, r8
    3bae:	0e 94 35 40 	call	0x806a	; 0x806a <__mulsf3>
    3bb2:	9b 01       	movw	r18, r22
    3bb4:	ac 01       	movw	r20, r24
    3bb6:	60 91 d1 24 	lds	r22, 0x24D1
    3bba:	70 91 d2 24 	lds	r23, 0x24D2
    3bbe:	80 91 d3 24 	lds	r24, 0x24D3
    3bc2:	90 91 d4 24 	lds	r25, 0x24D4
    3bc6:	0e 94 d4 3c 	call	0x79a8	; 0x79a8 <__addsf3>
    3bca:	f6 01       	movw	r30, r12
    3bcc:	65 87       	std	Z+13, r22	; 0x0d
    3bce:	76 87       	std	Z+14, r23	; 0x0e
    3bd0:	87 87       	std	Z+15, r24	; 0x0f
    3bd2:	90 8b       	std	Z+16, r25	; 0x10
    3bd4:	b7 01       	movw	r22, r14
    3bd6:	c8 01       	movw	r24, r16
    3bd8:	0e 94 77 3d 	call	0x7aee	; 0x7aee <cos>
    3bdc:	00 91 bd 24 	lds	r16, 0x24BD
    3be0:	10 91 be 24 	lds	r17, 0x24BE
    3be4:	00 0f       	add	r16, r16
    3be6:	11 1f       	adc	r17, r17
    3be8:	00 0f       	add	r16, r16
    3bea:	11 1f       	adc	r17, r17
    3bec:	0c 54       	subi	r16, 0x4C	; 76
    3bee:	1b 4d       	sbci	r17, 0xDB	; 219
    3bf0:	a5 01       	movw	r20, r10
    3bf2:	94 01       	movw	r18, r8
    3bf4:	0e 94 35 40 	call	0x806a	; 0x806a <__mulsf3>
    3bf8:	9b 01       	movw	r18, r22
    3bfa:	ac 01       	movw	r20, r24
    3bfc:	60 91 d5 24 	lds	r22, 0x24D5
    3c00:	70 91 d6 24 	lds	r23, 0x24D6
    3c04:	80 91 d7 24 	lds	r24, 0x24D7
    3c08:	90 91 d8 24 	lds	r25, 0x24D8
    3c0c:	0e 94 d4 3c 	call	0x79a8	; 0x79a8 <__addsf3>
    3c10:	f8 01       	movw	r30, r16
    3c12:	65 87       	std	Z+13, r22	; 0x0d
    3c14:	76 87       	std	Z+14, r23	; 0x0e
    3c16:	87 87       	std	Z+15, r24	; 0x0f
    3c18:	90 8b       	std	Z+16, r25	; 0x10
    3c1a:	00 91 bf 24 	lds	r16, 0x24BF
    3c1e:	10 91 c0 24 	lds	r17, 0x24C0
    3c22:	00 0f       	add	r16, r16
    3c24:	11 1f       	adc	r17, r17
    3c26:	00 0f       	add	r16, r16
    3c28:	11 1f       	adc	r17, r17
    3c2a:	0c 54       	subi	r16, 0x4C	; 76
    3c2c:	1b 4d       	sbci	r17, 0xDB	; 219
    3c2e:	f8 01       	movw	r30, r16
    3c30:	65 85       	ldd	r22, Z+13	; 0x0d
    3c32:	76 85       	ldd	r23, Z+14	; 0x0e
    3c34:	87 85       	ldd	r24, Z+15	; 0x0f
    3c36:	90 89       	ldd	r25, Z+16	; 0x10
    3c38:	20 91 e9 24 	lds	r18, 0x24E9
    3c3c:	30 91 ea 24 	lds	r19, 0x24EA
    3c40:	40 91 eb 24 	lds	r20, 0x24EB
    3c44:	50 91 ec 24 	lds	r21, 0x24EC
    3c48:	0e 94 d4 3c 	call	0x79a8	; 0x79a8 <__addsf3>
    3c4c:	f8 01       	movw	r30, r16
    3c4e:	65 87       	std	Z+13, r22	; 0x0d
    3c50:	76 87       	std	Z+14, r23	; 0x0e
    3c52:	87 87       	std	Z+15, r24	; 0x0f
    3c54:	90 8b       	std	Z+16, r25	; 0x10
    3c56:	60 91 c1 24 	lds	r22, 0x24C1
    3c5a:	70 91 c2 24 	lds	r23, 0x24C2
    3c5e:	80 91 c3 24 	lds	r24, 0x24C3
    3c62:	90 91 c4 24 	lds	r25, 0x24C4
    3c66:	20 91 c5 24 	lds	r18, 0x24C5
    3c6a:	30 91 c6 24 	lds	r19, 0x24C6
    3c6e:	40 91 c7 24 	lds	r20, 0x24C7
    3c72:	50 91 c8 24 	lds	r21, 0x24C8
    3c76:	e0 90 c9 24 	lds	r14, 0x24C9
    3c7a:	f0 90 ca 24 	lds	r15, 0x24CA
    3c7e:	00 91 cb 24 	lds	r16, 0x24CB
    3c82:	10 91 cc 24 	lds	r17, 0x24CC
    3c86:	a0 90 e1 24 	lds	r10, 0x24E1
    3c8a:	b0 90 e2 24 	lds	r11, 0x24E2
    3c8e:	c0 90 e3 24 	lds	r12, 0x24E3
    3c92:	d0 90 e4 24 	lds	r13, 0x24E4
    3c96:	80 90 b9 24 	lds	r8, 0x24B9
    3c9a:	90 90 ba 24 	lds	r9, 0x24BA
    3c9e:	0e 94 18 1c 	call	0x3830	; 0x3830 <mc_line>
    3ca2:	20 91 b7 24 	lds	r18, 0x24B7
    3ca6:	30 91 b8 24 	lds	r19, 0x24B8
    3caa:	80 91 b5 24 	lds	r24, 0x24B5
    3cae:	90 91 b6 24 	lds	r25, 0x24B6
    3cb2:	82 17       	cp	r24, r18
    3cb4:	93 07       	cpc	r25, r19
    3cb6:	0c f0       	brlt	.+2      	; 0x3cba <mc_arc_continuation+0x1d4>
    3cb8:	32 cf       	rjmp	.-412    	; 0x3b1e <mc_arc_continuation+0x38>
    3cba:	10 92 b4 24 	sts	0x24B4, r1
    3cbe:	20 e0       	ldi	r18, 0x00	; 0
    3cc0:	30 e0       	ldi	r19, 0x00	; 0
    3cc2:	c9 01       	movw	r24, r18
    3cc4:	1f 91       	pop	r17
    3cc6:	0f 91       	pop	r16
    3cc8:	ff 90       	pop	r15
    3cca:	ef 90       	pop	r14
    3ccc:	df 90       	pop	r13
    3cce:	cf 90       	pop	r12
    3cd0:	bf 90       	pop	r11
    3cd2:	af 90       	pop	r10
    3cd4:	9f 90       	pop	r9
    3cd6:	8f 90       	pop	r8
    3cd8:	08 95       	ret

00003cda <mc_arc_nonblock>:
    3cda:	2f 92       	push	r2
    3cdc:	3f 92       	push	r3
    3cde:	4f 92       	push	r4
    3ce0:	5f 92       	push	r5
    3ce2:	6f 92       	push	r6
    3ce4:	7f 92       	push	r7
    3ce6:	8f 92       	push	r8
    3ce8:	9f 92       	push	r9
    3cea:	af 92       	push	r10
    3cec:	bf 92       	push	r11
    3cee:	cf 92       	push	r12
    3cf0:	df 92       	push	r13
    3cf2:	ef 92       	push	r14
    3cf4:	ff 92       	push	r15
    3cf6:	0f 93       	push	r16
    3cf8:	1f 93       	push	r17
    3cfa:	df 93       	push	r29
    3cfc:	cf 93       	push	r28
    3cfe:	cd b7       	in	r28, 0x3d	; 61
    3d00:	de b7       	in	r29, 0x3e	; 62
    3d02:	28 97       	sbiw	r28, 0x08	; 8
    3d04:	cd bf       	out	0x3d, r28	; 61
    3d06:	de bf       	out	0x3e, r29	; 62
    3d08:	69 83       	std	Y+1, r22	; 0x01
    3d0a:	7a 83       	std	Y+2, r23	; 0x02
    3d0c:	8b 83       	std	Y+3, r24	; 0x03
    3d0e:	9c 83       	std	Y+4, r25	; 0x04
    3d10:	29 01       	movw	r4, r18
    3d12:	3a 01       	movw	r6, r20
    3d14:	ed 82       	std	Y+5, r14	; 0x05
    3d16:	fe 82       	std	Y+6, r15	; 0x06
    3d18:	0f 83       	std	Y+7, r16	; 0x07
    3d1a:	18 87       	std	Y+8, r17	; 0x08
    3d1c:	2e 8c       	ldd	r2, Y+30	; 0x1e
    3d1e:	3f 8c       	ldd	r3, Y+31	; 0x1f
    3d20:	60 93 d9 24 	sts	0x24D9, r22
    3d24:	70 93 da 24 	sts	0x24DA, r23
    3d28:	80 93 db 24 	sts	0x24DB, r24
    3d2c:	90 93 dc 24 	sts	0x24DC, r25
    3d30:	e0 92 dd 24 	sts	0x24DD, r14
    3d34:	f0 92 de 24 	sts	0x24DE, r15
    3d38:	00 93 df 24 	sts	0x24DF, r16
    3d3c:	10 93 e0 24 	sts	0x24E0, r17
    3d40:	20 93 ed 24 	sts	0x24ED, r18
    3d44:	30 93 ee 24 	sts	0x24EE, r19
    3d48:	40 93 ef 24 	sts	0x24EF, r20
    3d4c:	50 93 f0 24 	sts	0x24F0, r21
    3d50:	a0 92 f1 24 	sts	0x24F1, r10
    3d54:	b0 92 f2 24 	sts	0x24F2, r11
    3d58:	c0 92 f3 24 	sts	0x24F3, r12
    3d5c:	d0 92 f4 24 	sts	0x24F4, r13
    3d60:	8a a1       	ldd	r24, Y+34	; 0x22
    3d62:	9b a1       	ldd	r25, Y+35	; 0x23
    3d64:	ac a1       	ldd	r26, Y+36	; 0x24
    3d66:	bd a1       	ldd	r27, Y+37	; 0x25
    3d68:	80 93 e1 24 	sts	0x24E1, r24
    3d6c:	90 93 e2 24 	sts	0x24E2, r25
    3d70:	a0 93 e3 24 	sts	0x24E3, r26
    3d74:	b0 93 e4 24 	sts	0x24E4, r27
    3d78:	ae a1       	ldd	r26, Y+38	; 0x26
    3d7a:	bf a1       	ldd	r27, Y+39	; 0x27
    3d7c:	a0 93 b9 24 	sts	0x24B9, r26
    3d80:	b0 93 ba 24 	sts	0x24BA, r27
    3d84:	80 92 bb 24 	sts	0x24BB, r8
    3d88:	90 92 bc 24 	sts	0x24BC, r9
    3d8c:	20 92 bd 24 	sts	0x24BD, r2
    3d90:	30 92 be 24 	sts	0x24BE, r3
    3d94:	e8 a1       	ldd	r30, Y+32	; 0x20
    3d96:	f9 a1       	ldd	r31, Y+33	; 0x21
    3d98:	e0 93 bf 24 	sts	0x24BF, r30
    3d9c:	f0 93 c0 24 	sts	0x24C0, r31
    3da0:	ca 01       	movw	r24, r20
    3da2:	b9 01       	movw	r22, r18
    3da4:	a8 01       	movw	r20, r16
    3da6:	97 01       	movw	r18, r14
    3da8:	0e 94 35 40 	call	0x806a	; 0x806a <__mulsf3>
    3dac:	7b 01       	movw	r14, r22
    3dae:	8c 01       	movw	r16, r24
    3db0:	c6 01       	movw	r24, r12
    3db2:	b5 01       	movw	r22, r10
    3db4:	0e 94 e2 3d 	call	0x7bc4	; 0x7bc4 <__fixsfsi>
    3db8:	97 ff       	sbrs	r25, 7
    3dba:	07 c0       	rjmp	.+14     	; 0x3dca <mc_arc_nonblock+0xf0>
    3dbc:	90 95       	com	r25
    3dbe:	80 95       	com	r24
    3dc0:	70 95       	com	r23
    3dc2:	61 95       	neg	r22
    3dc4:	7f 4f       	sbci	r23, 0xFF	; 255
    3dc6:	8f 4f       	sbci	r24, 0xFF	; 255
    3dc8:	9f 4f       	sbci	r25, 0xFF	; 255
    3dca:	0e 94 15 3e 	call	0x7c2a	; 0x7c2a <__floatsisf>
    3dce:	9b 01       	movw	r18, r22
    3dd0:	ac 01       	movw	r20, r24
    3dd2:	c8 01       	movw	r24, r16
    3dd4:	b7 01       	movw	r22, r14
    3dd6:	0e 94 70 3f 	call	0x7ee0	; 0x7ee0 <hypot>
    3dda:	7b 01       	movw	r14, r22
    3ddc:	8c 01       	movw	r16, r24
    3dde:	60 93 cd 24 	sts	0x24CD, r22
    3de2:	70 93 ce 24 	sts	0x24CE, r23
    3de6:	80 93 cf 24 	sts	0x24CF, r24
    3dea:	90 93 d0 24 	sts	0x24D0, r25
    3dee:	2a e0       	ldi	r18, 0x0A	; 10
    3df0:	37 ed       	ldi	r19, 0xD7	; 215
    3df2:	43 e2       	ldi	r20, 0x23	; 35
    3df4:	5c e3       	ldi	r21, 0x3C	; 60
    3df6:	0e 94 73 3d 	call	0x7ae6	; 0x7ae6 <__cmpsf2>
    3dfa:	88 23       	and	r24, r24
    3dfc:	1c f4       	brge	.+6      	; 0x3e04 <mc_arc_nonblock+0x12a>
    3dfe:	2f e0       	ldi	r18, 0x0F	; 15
    3e00:	30 e0       	ldi	r19, 0x00	; 0
    3e02:	fb c0       	rjmp	.+502    	; 0x3ffa <mc_arc_nonblock+0x320>
    3e04:	c8 01       	movw	r24, r16
    3e06:	b7 01       	movw	r22, r14
    3e08:	20 91 46 24 	lds	r18, 0x2446
    3e0c:	30 91 47 24 	lds	r19, 0x2447
    3e10:	40 91 48 24 	lds	r20, 0x2448
    3e14:	50 91 49 24 	lds	r21, 0x2449
    3e18:	0e 94 7a 3d 	call	0x7af4	; 0x7af4 <__divsf3>
    3e1c:	0e 94 60 3d 	call	0x7ac0	; 0x7ac0 <ceil>
    3e20:	0e 94 e2 3d 	call	0x7bc4	; 0x7bc4 <__fixsfsi>
    3e24:	8b 01       	movw	r16, r22
    3e26:	60 93 b5 24 	sts	0x24B5, r22
    3e2a:	70 93 b6 24 	sts	0x24B6, r23
    3e2e:	8e a1       	ldd	r24, Y+38	; 0x26
    3e30:	9f a1       	ldd	r25, Y+39	; 0x27
    3e32:	89 2b       	or	r24, r25
    3e34:	b9 f0       	breq	.+46     	; 0x3e64 <mc_arc_nonblock+0x18a>
    3e36:	b8 01       	movw	r22, r16
    3e38:	88 27       	eor	r24, r24
    3e3a:	77 fd       	sbrc	r23, 7
    3e3c:	80 95       	com	r24
    3e3e:	98 2f       	mov	r25, r24
    3e40:	0e 94 15 3e 	call	0x7c2a	; 0x7c2a <__floatsisf>
    3e44:	9b 01       	movw	r18, r22
    3e46:	ac 01       	movw	r20, r24
    3e48:	6a a1       	ldd	r22, Y+34	; 0x22
    3e4a:	7b a1       	ldd	r23, Y+35	; 0x23
    3e4c:	8c a1       	ldd	r24, Y+36	; 0x24
    3e4e:	9d a1       	ldd	r25, Y+37	; 0x25
    3e50:	0e 94 35 40 	call	0x806a	; 0x806a <__mulsf3>
    3e54:	60 93 e1 24 	sts	0x24E1, r22
    3e58:	70 93 e2 24 	sts	0x24E2, r23
    3e5c:	80 93 e3 24 	sts	0x24E3, r24
    3e60:	90 93 e4 24 	sts	0x24E4, r25
    3e64:	b8 01       	movw	r22, r16
    3e66:	88 27       	eor	r24, r24
    3e68:	77 fd       	sbrc	r23, 7
    3e6a:	80 95       	com	r24
    3e6c:	98 2f       	mov	r25, r24
    3e6e:	0e 94 15 3e 	call	0x7c2a	; 0x7c2a <__floatsisf>
    3e72:	7b 01       	movw	r14, r22
    3e74:	8c 01       	movw	r16, r24
    3e76:	c3 01       	movw	r24, r6
    3e78:	b2 01       	movw	r22, r4
    3e7a:	a8 01       	movw	r20, r16
    3e7c:	97 01       	movw	r18, r14
    3e7e:	0e 94 7a 3d 	call	0x7af4	; 0x7af4 <__divsf3>
    3e82:	60 93 e5 24 	sts	0x24E5, r22
    3e86:	70 93 e6 24 	sts	0x24E6, r23
    3e8a:	80 93 e7 24 	sts	0x24E7, r24
    3e8e:	90 93 e8 24 	sts	0x24E8, r25
    3e92:	c6 01       	movw	r24, r12
    3e94:	b5 01       	movw	r22, r10
    3e96:	a8 01       	movw	r20, r16
    3e98:	97 01       	movw	r18, r14
    3e9a:	0e 94 7a 3d 	call	0x7af4	; 0x7af4 <__divsf3>
    3e9e:	60 93 e9 24 	sts	0x24E9, r22
    3ea2:	70 93 ea 24 	sts	0x24EA, r23
    3ea6:	80 93 eb 24 	sts	0x24EB, r24
    3eaa:	90 93 ec 24 	sts	0x24EC, r25
    3eae:	69 81       	ldd	r22, Y+1	; 0x01
    3eb0:	7a 81       	ldd	r23, Y+2	; 0x02
    3eb2:	8b 81       	ldd	r24, Y+3	; 0x03
    3eb4:	9c 81       	ldd	r25, Y+4	; 0x04
    3eb6:	0e 94 98 40 	call	0x8130	; 0x8130 <sin>
    3eba:	5b 01       	movw	r10, r22
    3ebc:	6c 01       	movw	r12, r24
    3ebe:	f4 01       	movw	r30, r8
    3ec0:	ee 0f       	add	r30, r30
    3ec2:	ff 1f       	adc	r31, r31
    3ec4:	ee 0f       	add	r30, r30
    3ec6:	ff 1f       	adc	r31, r31
    3ec8:	ee 58       	subi	r30, 0x8E	; 142
    3eca:	fe 4d       	sbci	r31, 0xDE	; 222
    3ecc:	61 81       	ldd	r22, Z+1	; 0x01
    3ece:	72 81       	ldd	r23, Z+2	; 0x02
    3ed0:	83 81       	ldd	r24, Z+3	; 0x03
    3ed2:	94 81       	ldd	r25, Z+4	; 0x04
    3ed4:	0e 94 15 3e 	call	0x7c2a	; 0x7c2a <__floatsisf>
    3ed8:	f4 01       	movw	r30, r8
    3eda:	ee 0f       	add	r30, r30
    3edc:	ff 1f       	adc	r31, r31
    3ede:	e8 0d       	add	r30, r8
    3ee0:	f9 1d       	adc	r31, r9
    3ee2:	13 e0       	ldi	r17, 0x03	; 3
    3ee4:	ee 0f       	add	r30, r30
    3ee6:	ff 1f       	adc	r31, r31
    3ee8:	1a 95       	dec	r17
    3eea:	e1 f7       	brne	.-8      	; 0x3ee4 <mc_arc_nonblock+0x20a>
    3eec:	ec 5b       	subi	r30, 0xBC	; 188
    3eee:	fb 4d       	sbci	r31, 0xDB	; 219
    3ef0:	21 a1       	ldd	r18, Z+33	; 0x21
    3ef2:	32 a1       	ldd	r19, Z+34	; 0x22
    3ef4:	43 a1       	ldd	r20, Z+35	; 0x23
    3ef6:	54 a1       	ldd	r21, Z+36	; 0x24
    3ef8:	0e 94 7a 3d 	call	0x7af4	; 0x7af4 <__divsf3>
    3efc:	7b 01       	movw	r14, r22
    3efe:	8c 01       	movw	r16, r24
    3f00:	c6 01       	movw	r24, r12
    3f02:	b5 01       	movw	r22, r10
    3f04:	2d 81       	ldd	r18, Y+5	; 0x05
    3f06:	3e 81       	ldd	r19, Y+6	; 0x06
    3f08:	4f 81       	ldd	r20, Y+7	; 0x07
    3f0a:	58 85       	ldd	r21, Y+8	; 0x08
    3f0c:	0e 94 35 40 	call	0x806a	; 0x806a <__mulsf3>
    3f10:	9b 01       	movw	r18, r22
    3f12:	ac 01       	movw	r20, r24
    3f14:	c8 01       	movw	r24, r16
    3f16:	b7 01       	movw	r22, r14
    3f18:	0e 94 d3 3c 	call	0x79a6	; 0x79a6 <__subsf3>
    3f1c:	60 93 d1 24 	sts	0x24D1, r22
    3f20:	70 93 d2 24 	sts	0x24D2, r23
    3f24:	80 93 d3 24 	sts	0x24D3, r24
    3f28:	90 93 d4 24 	sts	0x24D4, r25
    3f2c:	69 81       	ldd	r22, Y+1	; 0x01
    3f2e:	7a 81       	ldd	r23, Y+2	; 0x02
    3f30:	8b 81       	ldd	r24, Y+3	; 0x03
    3f32:	9c 81       	ldd	r25, Y+4	; 0x04
    3f34:	0e 94 77 3d 	call	0x7aee	; 0x7aee <cos>
    3f38:	5b 01       	movw	r10, r22
    3f3a:	6c 01       	movw	r12, r24
    3f3c:	f1 01       	movw	r30, r2
    3f3e:	ee 0f       	add	r30, r30
    3f40:	ff 1f       	adc	r31, r31
    3f42:	ee 0f       	add	r30, r30
    3f44:	ff 1f       	adc	r31, r31
    3f46:	ee 58       	subi	r30, 0x8E	; 142
    3f48:	fe 4d       	sbci	r31, 0xDE	; 222
    3f4a:	61 81       	ldd	r22, Z+1	; 0x01
    3f4c:	72 81       	ldd	r23, Z+2	; 0x02
    3f4e:	83 81       	ldd	r24, Z+3	; 0x03
    3f50:	94 81       	ldd	r25, Z+4	; 0x04
    3f52:	0e 94 15 3e 	call	0x7c2a	; 0x7c2a <__floatsisf>
    3f56:	f1 01       	movw	r30, r2
    3f58:	ee 0f       	add	r30, r30
    3f5a:	ff 1f       	adc	r31, r31
    3f5c:	e2 0d       	add	r30, r2
    3f5e:	f3 1d       	adc	r31, r3
    3f60:	53 e0       	ldi	r21, 0x03	; 3
    3f62:	ee 0f       	add	r30, r30
    3f64:	ff 1f       	adc	r31, r31
    3f66:	5a 95       	dec	r21
    3f68:	e1 f7       	brne	.-8      	; 0x3f62 <mc_arc_nonblock+0x288>
    3f6a:	ec 5b       	subi	r30, 0xBC	; 188
    3f6c:	fb 4d       	sbci	r31, 0xDB	; 219
    3f6e:	21 a1       	ldd	r18, Z+33	; 0x21
    3f70:	32 a1       	ldd	r19, Z+34	; 0x22
    3f72:	43 a1       	ldd	r20, Z+35	; 0x23
    3f74:	54 a1       	ldd	r21, Z+36	; 0x24
    3f76:	0e 94 7a 3d 	call	0x7af4	; 0x7af4 <__divsf3>
    3f7a:	7b 01       	movw	r14, r22
    3f7c:	8c 01       	movw	r16, r24
    3f7e:	c6 01       	movw	r24, r12
    3f80:	b5 01       	movw	r22, r10
    3f82:	2d 81       	ldd	r18, Y+5	; 0x05
    3f84:	3e 81       	ldd	r19, Y+6	; 0x06
    3f86:	4f 81       	ldd	r20, Y+7	; 0x07
    3f88:	58 85       	ldd	r21, Y+8	; 0x08
    3f8a:	0e 94 35 40 	call	0x806a	; 0x806a <__mulsf3>
    3f8e:	9b 01       	movw	r18, r22
    3f90:	ac 01       	movw	r20, r24
    3f92:	c8 01       	movw	r24, r16
    3f94:	b7 01       	movw	r22, r14
    3f96:	0e 94 d3 3c 	call	0x79a6	; 0x79a6 <__subsf3>
    3f9a:	60 93 d5 24 	sts	0x24D5, r22
    3f9e:	70 93 d6 24 	sts	0x24D6, r23
    3fa2:	80 93 d7 24 	sts	0x24D7, r24
    3fa6:	90 93 d8 24 	sts	0x24D8, r25
    3faa:	e8 a1       	ldd	r30, Y+32	; 0x20
    3fac:	f9 a1       	ldd	r31, Y+33	; 0x21
    3fae:	ee 0f       	add	r30, r30
    3fb0:	ff 1f       	adc	r31, r31
    3fb2:	ee 0f       	add	r30, r30
    3fb4:	ff 1f       	adc	r31, r31
    3fb6:	8f 01       	movw	r16, r30
    3fb8:	0c 54       	subi	r16, 0x4C	; 76
    3fba:	1b 4d       	sbci	r17, 0xDB	; 219
    3fbc:	ee 58       	subi	r30, 0x8E	; 142
    3fbe:	fe 4d       	sbci	r31, 0xDE	; 222
    3fc0:	61 81       	ldd	r22, Z+1	; 0x01
    3fc2:	72 81       	ldd	r23, Z+2	; 0x02
    3fc4:	83 81       	ldd	r24, Z+3	; 0x03
    3fc6:	94 81       	ldd	r25, Z+4	; 0x04
    3fc8:	0e 94 15 3e 	call	0x7c2a	; 0x7c2a <__floatsisf>
    3fcc:	20 91 95 24 	lds	r18, 0x2495
    3fd0:	30 91 96 24 	lds	r19, 0x2496
    3fd4:	40 91 97 24 	lds	r20, 0x2497
    3fd8:	50 91 98 24 	lds	r21, 0x2498
    3fdc:	0e 94 7a 3d 	call	0x7af4	; 0x7af4 <__divsf3>
    3fe0:	d8 01       	movw	r26, r16
    3fe2:	1d 96       	adiw	r26, 0x0d	; 13
    3fe4:	6d 93       	st	X+, r22
    3fe6:	7d 93       	st	X+, r23
    3fe8:	8d 93       	st	X+, r24
    3fea:	9c 93       	st	X, r25
    3fec:	50 97       	sbiw	r26, 0x10	; 16
    3fee:	81 e0       	ldi	r24, 0x01	; 1
    3ff0:	80 93 b4 24 	sts	0x24B4, r24
    3ff4:	0e 94 73 1d 	call	0x3ae6	; 0x3ae6 <mc_arc_continuation>
    3ff8:	9c 01       	movw	r18, r24
    3ffa:	c9 01       	movw	r24, r18
    3ffc:	28 96       	adiw	r28, 0x08	; 8
    3ffe:	cd bf       	out	0x3d, r28	; 61
    4000:	de bf       	out	0x3e, r29	; 62
    4002:	cf 91       	pop	r28
    4004:	df 91       	pop	r29
    4006:	1f 91       	pop	r17
    4008:	0f 91       	pop	r16
    400a:	ff 90       	pop	r15
    400c:	ef 90       	pop	r14
    400e:	df 90       	pop	r13
    4010:	cf 90       	pop	r12
    4012:	bf 90       	pop	r11
    4014:	af 90       	pop	r10
    4016:	9f 90       	pop	r9
    4018:	8f 90       	pop	r8
    401a:	7f 90       	pop	r7
    401c:	6f 90       	pop	r6
    401e:	5f 90       	pop	r5
    4020:	4f 90       	pop	r4
    4022:	3f 90       	pop	r3
    4024:	2f 90       	pop	r2
    4026:	08 95       	ret

00004028 <mc_arc>:
    4028:	2f 92       	push	r2
    402a:	3f 92       	push	r3
    402c:	4f 92       	push	r4
    402e:	5f 92       	push	r5
    4030:	6f 92       	push	r6
    4032:	7f 92       	push	r7
    4034:	8f 92       	push	r8
    4036:	9f 92       	push	r9
    4038:	af 92       	push	r10
    403a:	bf 92       	push	r11
    403c:	cf 92       	push	r12
    403e:	df 92       	push	r13
    4040:	ef 92       	push	r14
    4042:	ff 92       	push	r15
    4044:	0f 93       	push	r16
    4046:	1f 93       	push	r17
    4048:	df 93       	push	r29
    404a:	cf 93       	push	r28
    404c:	cd b7       	in	r28, 0x3d	; 61
    404e:	de b7       	in	r29, 0x3e	; 62
    4050:	28 97       	sbiw	r28, 0x08	; 8
    4052:	cd bf       	out	0x3d, r28	; 61
    4054:	de bf       	out	0x3e, r29	; 62
    4056:	69 83       	std	Y+1, r22	; 0x01
    4058:	7a 83       	std	Y+2, r23	; 0x02
    405a:	8b 83       	std	Y+3, r24	; 0x03
    405c:	9c 83       	std	Y+4, r25	; 0x04
    405e:	29 01       	movw	r4, r18
    4060:	3a 01       	movw	r6, r20
    4062:	ed 82       	std	Y+5, r14	; 0x05
    4064:	fe 82       	std	Y+6, r15	; 0x06
    4066:	0f 83       	std	Y+7, r16	; 0x07
    4068:	18 87       	std	Y+8, r17	; 0x08
    406a:	2e 8c       	ldd	r2, Y+30	; 0x1e
    406c:	3f 8c       	ldd	r3, Y+31	; 0x1f
    406e:	60 93 d9 24 	sts	0x24D9, r22
    4072:	70 93 da 24 	sts	0x24DA, r23
    4076:	80 93 db 24 	sts	0x24DB, r24
    407a:	90 93 dc 24 	sts	0x24DC, r25
    407e:	e0 92 dd 24 	sts	0x24DD, r14
    4082:	f0 92 de 24 	sts	0x24DE, r15
    4086:	00 93 df 24 	sts	0x24DF, r16
    408a:	10 93 e0 24 	sts	0x24E0, r17
    408e:	20 93 ed 24 	sts	0x24ED, r18
    4092:	30 93 ee 24 	sts	0x24EE, r19
    4096:	40 93 ef 24 	sts	0x24EF, r20
    409a:	50 93 f0 24 	sts	0x24F0, r21
    409e:	a0 92 f1 24 	sts	0x24F1, r10
    40a2:	b0 92 f2 24 	sts	0x24F2, r11
    40a6:	c0 92 f3 24 	sts	0x24F3, r12
    40aa:	d0 92 f4 24 	sts	0x24F4, r13
    40ae:	8a a1       	ldd	r24, Y+34	; 0x22
    40b0:	9b a1       	ldd	r25, Y+35	; 0x23
    40b2:	ac a1       	ldd	r26, Y+36	; 0x24
    40b4:	bd a1       	ldd	r27, Y+37	; 0x25
    40b6:	80 93 e1 24 	sts	0x24E1, r24
    40ba:	90 93 e2 24 	sts	0x24E2, r25
    40be:	a0 93 e3 24 	sts	0x24E3, r26
    40c2:	b0 93 e4 24 	sts	0x24E4, r27
    40c6:	ae a1       	ldd	r26, Y+38	; 0x26
    40c8:	bf a1       	ldd	r27, Y+39	; 0x27
    40ca:	a0 93 b9 24 	sts	0x24B9, r26
    40ce:	b0 93 ba 24 	sts	0x24BA, r27
    40d2:	80 92 bb 24 	sts	0x24BB, r8
    40d6:	90 92 bc 24 	sts	0x24BC, r9
    40da:	20 92 bd 24 	sts	0x24BD, r2
    40de:	30 92 be 24 	sts	0x24BE, r3
    40e2:	e8 a1       	ldd	r30, Y+32	; 0x20
    40e4:	f9 a1       	ldd	r31, Y+33	; 0x21
    40e6:	e0 93 bf 24 	sts	0x24BF, r30
    40ea:	f0 93 c0 24 	sts	0x24C0, r31
    40ee:	ca 01       	movw	r24, r20
    40f0:	b9 01       	movw	r22, r18
    40f2:	a8 01       	movw	r20, r16
    40f4:	97 01       	movw	r18, r14
    40f6:	0e 94 35 40 	call	0x806a	; 0x806a <__mulsf3>
    40fa:	7b 01       	movw	r14, r22
    40fc:	8c 01       	movw	r16, r24
    40fe:	c6 01       	movw	r24, r12
    4100:	b5 01       	movw	r22, r10
    4102:	0e 94 e2 3d 	call	0x7bc4	; 0x7bc4 <__fixsfsi>
    4106:	97 ff       	sbrs	r25, 7
    4108:	07 c0       	rjmp	.+14     	; 0x4118 <mc_arc+0xf0>
    410a:	90 95       	com	r25
    410c:	80 95       	com	r24
    410e:	70 95       	com	r23
    4110:	61 95       	neg	r22
    4112:	7f 4f       	sbci	r23, 0xFF	; 255
    4114:	8f 4f       	sbci	r24, 0xFF	; 255
    4116:	9f 4f       	sbci	r25, 0xFF	; 255
    4118:	0e 94 15 3e 	call	0x7c2a	; 0x7c2a <__floatsisf>
    411c:	9b 01       	movw	r18, r22
    411e:	ac 01       	movw	r20, r24
    4120:	c8 01       	movw	r24, r16
    4122:	b7 01       	movw	r22, r14
    4124:	0e 94 70 3f 	call	0x7ee0	; 0x7ee0 <hypot>
    4128:	7b 01       	movw	r14, r22
    412a:	8c 01       	movw	r16, r24
    412c:	60 93 cd 24 	sts	0x24CD, r22
    4130:	70 93 ce 24 	sts	0x24CE, r23
    4134:	80 93 cf 24 	sts	0x24CF, r24
    4138:	90 93 d0 24 	sts	0x24D0, r25
    413c:	2a e0       	ldi	r18, 0x0A	; 10
    413e:	37 ed       	ldi	r19, 0xD7	; 215
    4140:	43 e2       	ldi	r20, 0x23	; 35
    4142:	5c e3       	ldi	r21, 0x3C	; 60
    4144:	0e 94 73 3d 	call	0x7ae6	; 0x7ae6 <__cmpsf2>
    4148:	88 23       	and	r24, r24
    414a:	1c f4       	brge	.+6      	; 0x4152 <mc_arc+0x12a>
    414c:	2f e0       	ldi	r18, 0x0F	; 15
    414e:	30 e0       	ldi	r19, 0x00	; 0
    4150:	c7 c1       	rjmp	.+910    	; 0x44e0 <mc_arc+0x4b8>
    4152:	c8 01       	movw	r24, r16
    4154:	b7 01       	movw	r22, r14
    4156:	20 91 46 24 	lds	r18, 0x2446
    415a:	30 91 47 24 	lds	r19, 0x2447
    415e:	40 91 48 24 	lds	r20, 0x2448
    4162:	50 91 49 24 	lds	r21, 0x2449
    4166:	0e 94 7a 3d 	call	0x7af4	; 0x7af4 <__divsf3>
    416a:	0e 94 60 3d 	call	0x7ac0	; 0x7ac0 <ceil>
    416e:	0e 94 e2 3d 	call	0x7bc4	; 0x7bc4 <__fixsfsi>
    4172:	8b 01       	movw	r16, r22
    4174:	60 93 b5 24 	sts	0x24B5, r22
    4178:	70 93 b6 24 	sts	0x24B6, r23
    417c:	2e a1       	ldd	r18, Y+38	; 0x26
    417e:	3f a1       	ldd	r19, Y+39	; 0x27
    4180:	23 2b       	or	r18, r19
    4182:	b9 f0       	breq	.+46     	; 0x41b2 <mc_arc+0x18a>
    4184:	b8 01       	movw	r22, r16
    4186:	88 27       	eor	r24, r24
    4188:	77 fd       	sbrc	r23, 7
    418a:	80 95       	com	r24
    418c:	98 2f       	mov	r25, r24
    418e:	0e 94 15 3e 	call	0x7c2a	; 0x7c2a <__floatsisf>
    4192:	9b 01       	movw	r18, r22
    4194:	ac 01       	movw	r20, r24
    4196:	6a a1       	ldd	r22, Y+34	; 0x22
    4198:	7b a1       	ldd	r23, Y+35	; 0x23
    419a:	8c a1       	ldd	r24, Y+36	; 0x24
    419c:	9d a1       	ldd	r25, Y+37	; 0x25
    419e:	0e 94 35 40 	call	0x806a	; 0x806a <__mulsf3>
    41a2:	60 93 e1 24 	sts	0x24E1, r22
    41a6:	70 93 e2 24 	sts	0x24E2, r23
    41aa:	80 93 e3 24 	sts	0x24E3, r24
    41ae:	90 93 e4 24 	sts	0x24E4, r25
    41b2:	b8 01       	movw	r22, r16
    41b4:	88 27       	eor	r24, r24
    41b6:	77 fd       	sbrc	r23, 7
    41b8:	80 95       	com	r24
    41ba:	98 2f       	mov	r25, r24
    41bc:	0e 94 15 3e 	call	0x7c2a	; 0x7c2a <__floatsisf>
    41c0:	7b 01       	movw	r14, r22
    41c2:	8c 01       	movw	r16, r24
    41c4:	c3 01       	movw	r24, r6
    41c6:	b2 01       	movw	r22, r4
    41c8:	a8 01       	movw	r20, r16
    41ca:	97 01       	movw	r18, r14
    41cc:	0e 94 7a 3d 	call	0x7af4	; 0x7af4 <__divsf3>
    41d0:	60 93 e5 24 	sts	0x24E5, r22
    41d4:	70 93 e6 24 	sts	0x24E6, r23
    41d8:	80 93 e7 24 	sts	0x24E7, r24
    41dc:	90 93 e8 24 	sts	0x24E8, r25
    41e0:	c6 01       	movw	r24, r12
    41e2:	b5 01       	movw	r22, r10
    41e4:	a8 01       	movw	r20, r16
    41e6:	97 01       	movw	r18, r14
    41e8:	0e 94 7a 3d 	call	0x7af4	; 0x7af4 <__divsf3>
    41ec:	60 93 e9 24 	sts	0x24E9, r22
    41f0:	70 93 ea 24 	sts	0x24EA, r23
    41f4:	80 93 eb 24 	sts	0x24EB, r24
    41f8:	90 93 ec 24 	sts	0x24EC, r25
    41fc:	69 81       	ldd	r22, Y+1	; 0x01
    41fe:	7a 81       	ldd	r23, Y+2	; 0x02
    4200:	8b 81       	ldd	r24, Y+3	; 0x03
    4202:	9c 81       	ldd	r25, Y+4	; 0x04
    4204:	0e 94 98 40 	call	0x8130	; 0x8130 <sin>
    4208:	5b 01       	movw	r10, r22
    420a:	6c 01       	movw	r12, r24
    420c:	f4 01       	movw	r30, r8
    420e:	ee 0f       	add	r30, r30
    4210:	ff 1f       	adc	r31, r31
    4212:	ee 0f       	add	r30, r30
    4214:	ff 1f       	adc	r31, r31
    4216:	ee 58       	subi	r30, 0x8E	; 142
    4218:	fe 4d       	sbci	r31, 0xDE	; 222
    421a:	61 81       	ldd	r22, Z+1	; 0x01
    421c:	72 81       	ldd	r23, Z+2	; 0x02
    421e:	83 81       	ldd	r24, Z+3	; 0x03
    4220:	94 81       	ldd	r25, Z+4	; 0x04
    4222:	0e 94 15 3e 	call	0x7c2a	; 0x7c2a <__floatsisf>
    4226:	f4 01       	movw	r30, r8
    4228:	ee 0f       	add	r30, r30
    422a:	ff 1f       	adc	r31, r31
    422c:	e8 0d       	add	r30, r8
    422e:	f9 1d       	adc	r31, r9
    4230:	13 e0       	ldi	r17, 0x03	; 3
    4232:	ee 0f       	add	r30, r30
    4234:	ff 1f       	adc	r31, r31
    4236:	1a 95       	dec	r17
    4238:	e1 f7       	brne	.-8      	; 0x4232 <mc_arc+0x20a>
    423a:	ec 5b       	subi	r30, 0xBC	; 188
    423c:	fb 4d       	sbci	r31, 0xDB	; 219
    423e:	21 a1       	ldd	r18, Z+33	; 0x21
    4240:	32 a1       	ldd	r19, Z+34	; 0x22
    4242:	43 a1       	ldd	r20, Z+35	; 0x23
    4244:	54 a1       	ldd	r21, Z+36	; 0x24
    4246:	0e 94 7a 3d 	call	0x7af4	; 0x7af4 <__divsf3>
    424a:	7b 01       	movw	r14, r22
    424c:	8c 01       	movw	r16, r24
    424e:	c6 01       	movw	r24, r12
    4250:	b5 01       	movw	r22, r10
    4252:	2d 81       	ldd	r18, Y+5	; 0x05
    4254:	3e 81       	ldd	r19, Y+6	; 0x06
    4256:	4f 81       	ldd	r20, Y+7	; 0x07
    4258:	58 85       	ldd	r21, Y+8	; 0x08
    425a:	0e 94 35 40 	call	0x806a	; 0x806a <__mulsf3>
    425e:	9b 01       	movw	r18, r22
    4260:	ac 01       	movw	r20, r24
    4262:	c8 01       	movw	r24, r16
    4264:	b7 01       	movw	r22, r14
    4266:	0e 94 d3 3c 	call	0x79a6	; 0x79a6 <__subsf3>
    426a:	60 93 d1 24 	sts	0x24D1, r22
    426e:	70 93 d2 24 	sts	0x24D2, r23
    4272:	80 93 d3 24 	sts	0x24D3, r24
    4276:	90 93 d4 24 	sts	0x24D4, r25
    427a:	69 81       	ldd	r22, Y+1	; 0x01
    427c:	7a 81       	ldd	r23, Y+2	; 0x02
    427e:	8b 81       	ldd	r24, Y+3	; 0x03
    4280:	9c 81       	ldd	r25, Y+4	; 0x04
    4282:	0e 94 77 3d 	call	0x7aee	; 0x7aee <cos>
    4286:	5b 01       	movw	r10, r22
    4288:	6c 01       	movw	r12, r24
    428a:	f1 01       	movw	r30, r2
    428c:	ee 0f       	add	r30, r30
    428e:	ff 1f       	adc	r31, r31
    4290:	ee 0f       	add	r30, r30
    4292:	ff 1f       	adc	r31, r31
    4294:	ee 58       	subi	r30, 0x8E	; 142
    4296:	fe 4d       	sbci	r31, 0xDE	; 222
    4298:	61 81       	ldd	r22, Z+1	; 0x01
    429a:	72 81       	ldd	r23, Z+2	; 0x02
    429c:	83 81       	ldd	r24, Z+3	; 0x03
    429e:	94 81       	ldd	r25, Z+4	; 0x04
    42a0:	0e 94 15 3e 	call	0x7c2a	; 0x7c2a <__floatsisf>
    42a4:	f1 01       	movw	r30, r2
    42a6:	ee 0f       	add	r30, r30
    42a8:	ff 1f       	adc	r31, r31
    42aa:	e2 0d       	add	r30, r2
    42ac:	f3 1d       	adc	r31, r3
    42ae:	53 e0       	ldi	r21, 0x03	; 3
    42b0:	ee 0f       	add	r30, r30
    42b2:	ff 1f       	adc	r31, r31
    42b4:	5a 95       	dec	r21
    42b6:	e1 f7       	brne	.-8      	; 0x42b0 <mc_arc+0x288>
    42b8:	ec 5b       	subi	r30, 0xBC	; 188
    42ba:	fb 4d       	sbci	r31, 0xDB	; 219
    42bc:	21 a1       	ldd	r18, Z+33	; 0x21
    42be:	32 a1       	ldd	r19, Z+34	; 0x22
    42c0:	43 a1       	ldd	r20, Z+35	; 0x23
    42c2:	54 a1       	ldd	r21, Z+36	; 0x24
    42c4:	0e 94 7a 3d 	call	0x7af4	; 0x7af4 <__divsf3>
    42c8:	7b 01       	movw	r14, r22
    42ca:	8c 01       	movw	r16, r24
    42cc:	c6 01       	movw	r24, r12
    42ce:	b5 01       	movw	r22, r10
    42d0:	2d 81       	ldd	r18, Y+5	; 0x05
    42d2:	3e 81       	ldd	r19, Y+6	; 0x06
    42d4:	4f 81       	ldd	r20, Y+7	; 0x07
    42d6:	58 85       	ldd	r21, Y+8	; 0x08
    42d8:	0e 94 35 40 	call	0x806a	; 0x806a <__mulsf3>
    42dc:	9b 01       	movw	r18, r22
    42de:	ac 01       	movw	r20, r24
    42e0:	c8 01       	movw	r24, r16
    42e2:	b7 01       	movw	r22, r14
    42e4:	0e 94 d3 3c 	call	0x79a6	; 0x79a6 <__subsf3>
    42e8:	60 93 d5 24 	sts	0x24D5, r22
    42ec:	70 93 d6 24 	sts	0x24D6, r23
    42f0:	80 93 d7 24 	sts	0x24D7, r24
    42f4:	90 93 d8 24 	sts	0x24D8, r25
    42f8:	e8 a1       	ldd	r30, Y+32	; 0x20
    42fa:	f9 a1       	ldd	r31, Y+33	; 0x21
    42fc:	ee 0f       	add	r30, r30
    42fe:	ff 1f       	adc	r31, r31
    4300:	ee 0f       	add	r30, r30
    4302:	ff 1f       	adc	r31, r31
    4304:	8f 01       	movw	r16, r30
    4306:	0c 54       	subi	r16, 0x4C	; 76
    4308:	1b 4d       	sbci	r17, 0xDB	; 219
    430a:	ee 58       	subi	r30, 0x8E	; 142
    430c:	fe 4d       	sbci	r31, 0xDE	; 222
    430e:	61 81       	ldd	r22, Z+1	; 0x01
    4310:	72 81       	ldd	r23, Z+2	; 0x02
    4312:	83 81       	ldd	r24, Z+3	; 0x03
    4314:	94 81       	ldd	r25, Z+4	; 0x04
    4316:	0e 94 15 3e 	call	0x7c2a	; 0x7c2a <__floatsisf>
    431a:	20 91 95 24 	lds	r18, 0x2495
    431e:	30 91 96 24 	lds	r19, 0x2496
    4322:	40 91 97 24 	lds	r20, 0x2497
    4326:	50 91 98 24 	lds	r21, 0x2498
    432a:	0e 94 7a 3d 	call	0x7af4	; 0x7af4 <__divsf3>
    432e:	d8 01       	movw	r26, r16
    4330:	1d 96       	adiw	r26, 0x0d	; 13
    4332:	6d 93       	st	X+, r22
    4334:	7d 93       	st	X+, r23
    4336:	8d 93       	st	X+, r24
    4338:	9c 93       	st	X, r25
    433a:	50 97       	sbiw	r26, 0x10	; 16
    433c:	10 92 b7 24 	sts	0x24B7, r1
    4340:	10 92 b8 24 	sts	0x24B8, r1
    4344:	bf c0       	rjmp	.+382    	; 0x44c4 <mc_arc+0x49c>
    4346:	60 91 d9 24 	lds	r22, 0x24D9
    434a:	70 91 da 24 	lds	r23, 0x24DA
    434e:	80 91 db 24 	lds	r24, 0x24DB
    4352:	90 91 dc 24 	lds	r25, 0x24DC
    4356:	20 91 e5 24 	lds	r18, 0x24E5
    435a:	30 91 e6 24 	lds	r19, 0x24E6
    435e:	40 91 e7 24 	lds	r20, 0x24E7
    4362:	50 91 e8 24 	lds	r21, 0x24E8
    4366:	0e 94 d4 3c 	call	0x79a8	; 0x79a8 <__addsf3>
    436a:	7b 01       	movw	r14, r22
    436c:	8c 01       	movw	r16, r24
    436e:	cb 01       	movw	r24, r22
    4370:	d8 01       	movw	r26, r16
    4372:	80 93 d9 24 	sts	0x24D9, r24
    4376:	90 93 da 24 	sts	0x24DA, r25
    437a:	a0 93 db 24 	sts	0x24DB, r26
    437e:	b0 93 dc 24 	sts	0x24DC, r27
    4382:	b7 01       	movw	r22, r14
    4384:	c8 01       	movw	r24, r16
    4386:	0e 94 98 40 	call	0x8130	; 0x8130 <sin>
    438a:	80 90 dd 24 	lds	r8, 0x24DD
    438e:	90 90 de 24 	lds	r9, 0x24DE
    4392:	a0 90 df 24 	lds	r10, 0x24DF
    4396:	b0 90 e0 24 	lds	r11, 0x24E0
    439a:	c0 90 bb 24 	lds	r12, 0x24BB
    439e:	d0 90 bc 24 	lds	r13, 0x24BC
    43a2:	cc 0c       	add	r12, r12
    43a4:	dd 1c       	adc	r13, r13
    43a6:	cc 0c       	add	r12, r12
    43a8:	dd 1c       	adc	r13, r13
    43aa:	e4 eb       	ldi	r30, 0xB4	; 180
    43ac:	f4 e2       	ldi	r31, 0x24	; 36
    43ae:	ce 0e       	add	r12, r30
    43b0:	df 1e       	adc	r13, r31
    43b2:	a5 01       	movw	r20, r10
    43b4:	94 01       	movw	r18, r8
    43b6:	0e 94 35 40 	call	0x806a	; 0x806a <__mulsf3>
    43ba:	9b 01       	movw	r18, r22
    43bc:	ac 01       	movw	r20, r24
    43be:	60 91 d1 24 	lds	r22, 0x24D1
    43c2:	70 91 d2 24 	lds	r23, 0x24D2
    43c6:	80 91 d3 24 	lds	r24, 0x24D3
    43ca:	90 91 d4 24 	lds	r25, 0x24D4
    43ce:	0e 94 d4 3c 	call	0x79a8	; 0x79a8 <__addsf3>
    43d2:	d6 01       	movw	r26, r12
    43d4:	1d 96       	adiw	r26, 0x0d	; 13
    43d6:	6d 93       	st	X+, r22
    43d8:	7d 93       	st	X+, r23
    43da:	8d 93       	st	X+, r24
    43dc:	9c 93       	st	X, r25
    43de:	50 97       	sbiw	r26, 0x10	; 16
    43e0:	b7 01       	movw	r22, r14
    43e2:	c8 01       	movw	r24, r16
    43e4:	0e 94 77 3d 	call	0x7aee	; 0x7aee <cos>
    43e8:	00 91 bd 24 	lds	r16, 0x24BD
    43ec:	10 91 be 24 	lds	r17, 0x24BE
    43f0:	00 0f       	add	r16, r16
    43f2:	11 1f       	adc	r17, r17
    43f4:	00 0f       	add	r16, r16
    43f6:	11 1f       	adc	r17, r17
    43f8:	0c 54       	subi	r16, 0x4C	; 76
    43fa:	1b 4d       	sbci	r17, 0xDB	; 219
    43fc:	a5 01       	movw	r20, r10
    43fe:	94 01       	movw	r18, r8
    4400:	0e 94 35 40 	call	0x806a	; 0x806a <__mulsf3>
    4404:	9b 01       	movw	r18, r22
    4406:	ac 01       	movw	r20, r24
    4408:	60 91 d5 24 	lds	r22, 0x24D5
    440c:	70 91 d6 24 	lds	r23, 0x24D6
    4410:	80 91 d7 24 	lds	r24, 0x24D7
    4414:	90 91 d8 24 	lds	r25, 0x24D8
    4418:	0e 94 d4 3c 	call	0x79a8	; 0x79a8 <__addsf3>
    441c:	f8 01       	movw	r30, r16
    441e:	65 87       	std	Z+13, r22	; 0x0d
    4420:	76 87       	std	Z+14, r23	; 0x0e
    4422:	87 87       	std	Z+15, r24	; 0x0f
    4424:	90 8b       	std	Z+16, r25	; 0x10
    4426:	00 91 bf 24 	lds	r16, 0x24BF
    442a:	10 91 c0 24 	lds	r17, 0x24C0
    442e:	00 0f       	add	r16, r16
    4430:	11 1f       	adc	r17, r17
    4432:	00 0f       	add	r16, r16
    4434:	11 1f       	adc	r17, r17
    4436:	0c 54       	subi	r16, 0x4C	; 76
    4438:	1b 4d       	sbci	r17, 0xDB	; 219
    443a:	d8 01       	movw	r26, r16
    443c:	1d 96       	adiw	r26, 0x0d	; 13
    443e:	6d 91       	ld	r22, X+
    4440:	7d 91       	ld	r23, X+
    4442:	8d 91       	ld	r24, X+
    4444:	9c 91       	ld	r25, X
    4446:	50 97       	sbiw	r26, 0x10	; 16
    4448:	20 91 e9 24 	lds	r18, 0x24E9
    444c:	30 91 ea 24 	lds	r19, 0x24EA
    4450:	40 91 eb 24 	lds	r20, 0x24EB
    4454:	50 91 ec 24 	lds	r21, 0x24EC
    4458:	0e 94 d4 3c 	call	0x79a8	; 0x79a8 <__addsf3>
    445c:	f8 01       	movw	r30, r16
    445e:	65 87       	std	Z+13, r22	; 0x0d
    4460:	76 87       	std	Z+14, r23	; 0x0e
    4462:	87 87       	std	Z+15, r24	; 0x0f
    4464:	90 8b       	std	Z+16, r25	; 0x10
    4466:	60 91 c1 24 	lds	r22, 0x24C1
    446a:	70 91 c2 24 	lds	r23, 0x24C2
    446e:	80 91 c3 24 	lds	r24, 0x24C3
    4472:	90 91 c4 24 	lds	r25, 0x24C4
    4476:	20 91 c5 24 	lds	r18, 0x24C5
    447a:	30 91 c6 24 	lds	r19, 0x24C6
    447e:	40 91 c7 24 	lds	r20, 0x24C7
    4482:	50 91 c8 24 	lds	r21, 0x24C8
    4486:	e0 90 c9 24 	lds	r14, 0x24C9
    448a:	f0 90 ca 24 	lds	r15, 0x24CA
    448e:	00 91 cb 24 	lds	r16, 0x24CB
    4492:	10 91 cc 24 	lds	r17, 0x24CC
    4496:	a0 90 e1 24 	lds	r10, 0x24E1
    449a:	b0 90 e2 24 	lds	r11, 0x24E2
    449e:	c0 90 e3 24 	lds	r12, 0x24E3
    44a2:	d0 90 e4 24 	lds	r13, 0x24E4
    44a6:	80 90 b9 24 	lds	r8, 0x24B9
    44aa:	90 90 ba 24 	lds	r9, 0x24BA
    44ae:	0e 94 18 1c 	call	0x3830	; 0x3830 <mc_line>
    44b2:	80 91 b7 24 	lds	r24, 0x24B7
    44b6:	90 91 b8 24 	lds	r25, 0x24B8
    44ba:	01 96       	adiw	r24, 0x01	; 1
    44bc:	80 93 b7 24 	sts	0x24B7, r24
    44c0:	90 93 b8 24 	sts	0x24B8, r25
    44c4:	20 91 b7 24 	lds	r18, 0x24B7
    44c8:	30 91 b8 24 	lds	r19, 0x24B8
    44cc:	80 91 b5 24 	lds	r24, 0x24B5
    44d0:	90 91 b6 24 	lds	r25, 0x24B6
    44d4:	82 17       	cp	r24, r18
    44d6:	93 07       	cpc	r25, r19
    44d8:	0c f0       	brlt	.+2      	; 0x44dc <mc_arc+0x4b4>
    44da:	35 cf       	rjmp	.-406    	; 0x4346 <mc_arc+0x31e>
    44dc:	20 e0       	ldi	r18, 0x00	; 0
    44de:	30 e0       	ldi	r19, 0x00	; 0
    44e0:	c9 01       	movw	r24, r18
    44e2:	28 96       	adiw	r28, 0x08	; 8
    44e4:	cd bf       	out	0x3d, r28	; 61
    44e6:	de bf       	out	0x3e, r29	; 62
    44e8:	cf 91       	pop	r28
    44ea:	df 91       	pop	r29
    44ec:	1f 91       	pop	r17
    44ee:	0f 91       	pop	r16
    44f0:	ff 90       	pop	r15
    44f2:	ef 90       	pop	r14
    44f4:	df 90       	pop	r13
    44f6:	cf 90       	pop	r12
    44f8:	bf 90       	pop	r11
    44fa:	af 90       	pop	r10
    44fc:	9f 90       	pop	r9
    44fe:	8f 90       	pop	r8
    4500:	7f 90       	pop	r7
    4502:	6f 90       	pop	r6
    4504:	5f 90       	pop	r5
    4506:	4f 90       	pop	r4
    4508:	3f 90       	pop	r3
    450a:	2f 90       	pop	r2
    450c:	08 95       	ret

0000450e <spindle_init>:
    450e:	e0 e6       	ldi	r30, 0x60	; 96
    4510:	f6 e0       	ldi	r31, 0x06	; 6
    4512:	80 e4       	ldi	r24, 0x40	; 64
    4514:	81 83       	std	Z+1, r24	; 0x01
    4516:	80 e8       	ldi	r24, 0x80	; 128
    4518:	81 83       	std	Z+1, r24	; 0x01
    451a:	08 95       	ret

0000451c <spindle_run>:
    451c:	97 fd       	sbrc	r25, 7
    451e:	05 c0       	rjmp	.+10     	; 0x452a <spindle_run+0xe>
    4520:	80 e8       	ldi	r24, 0x80	; 128
    4522:	e0 e6       	ldi	r30, 0x60	; 96
    4524:	f6 e0       	ldi	r31, 0x06	; 6
    4526:	85 83       	std	Z+5, r24	; 0x05
    4528:	04 c0       	rjmp	.+8      	; 0x4532 <spindle_run+0x16>
    452a:	80 e8       	ldi	r24, 0x80	; 128
    452c:	e0 e6       	ldi	r30, 0x60	; 96
    452e:	f6 e0       	ldi	r31, 0x06	; 6
    4530:	86 83       	std	Z+6, r24	; 0x06
    4532:	80 e4       	ldi	r24, 0x40	; 64
    4534:	e0 e6       	ldi	r30, 0x60	; 96
    4536:	f6 e0       	ldi	r31, 0x06	; 6
    4538:	85 83       	std	Z+5, r24	; 0x05
    453a:	08 95       	ret

0000453c <spindle_stop>:
    453c:	80 e4       	ldi	r24, 0x40	; 64
    453e:	e0 e6       	ldi	r30, 0x60	; 96
    4540:	f6 e0       	ldi	r31, 0x06	; 6
    4542:	86 83       	std	Z+6, r24	; 0x06
    4544:	08 95       	ret

00004546 <st_init>:
    4546:	cf 93       	push	r28
    4548:	df 93       	push	r29
    454a:	10 92 05 24 	sts	0x2405, r1
    454e:	10 92 04 24 	sts	0x2404, r1
    4552:	80 e0       	ldi	r24, 0x00	; 0
    4554:	96 e0       	ldi	r25, 0x06	; 6
    4556:	80 93 13 24 	sts	0x2413, r24
    455a:	90 93 14 24 	sts	0x2414, r25
    455e:	80 ea       	ldi	r24, 0xA0	; 160
    4560:	96 e0       	ldi	r25, 0x06	; 6
    4562:	80 93 22 24 	sts	0x2422, r24
    4566:	90 93 23 24 	sts	0x2423, r25
    456a:	80 e8       	ldi	r24, 0x80	; 128
    456c:	96 e0       	ldi	r25, 0x06	; 6
    456e:	80 93 31 24 	sts	0x2431, r24
    4572:	90 93 32 24 	sts	0x2432, r25
    4576:	80 e6       	ldi	r24, 0x60	; 96
    4578:	96 e0       	ldi	r25, 0x06	; 6
    457a:	80 93 40 24 	sts	0x2440, r24
    457e:	90 93 41 24 	sts	0x2441, r25
    4582:	80 e0       	ldi	r24, 0x00	; 0
    4584:	98 e0       	ldi	r25, 0x08	; 8
    4586:	80 93 15 24 	sts	0x2415, r24
    458a:	90 93 16 24 	sts	0x2416, r25
    458e:	80 e0       	ldi	r24, 0x00	; 0
    4590:	99 e0       	ldi	r25, 0x09	; 9
    4592:	80 93 24 24 	sts	0x2424, r24
    4596:	90 93 25 24 	sts	0x2425, r25
    459a:	80 e0       	ldi	r24, 0x00	; 0
    459c:	9a e0       	ldi	r25, 0x0A	; 10
    459e:	80 93 33 24 	sts	0x2433, r24
    45a2:	90 93 34 24 	sts	0x2434, r25
    45a6:	80 e0       	ldi	r24, 0x00	; 0
    45a8:	9b e0       	ldi	r25, 0x0B	; 11
    45aa:	80 93 42 24 	sts	0x2442, r24
    45ae:	90 93 43 24 	sts	0x2443, r25
    45b2:	c4 e5       	ldi	r28, 0x54	; 84
    45b4:	d4 e2       	ldi	r29, 0x24	; 36
    45b6:	a2 e1       	ldi	r26, 0x12	; 18
    45b8:	b4 e2       	ldi	r27, 0x24	; 36
    45ba:	3f e3       	ldi	r19, 0x3F	; 63
    45bc:	24 e0       	ldi	r18, 0x04	; 4
    45be:	93 e0       	ldi	r25, 0x03	; 3
    45c0:	88 81       	ld	r24, Y
    45c2:	8c 93       	st	X, r24
    45c4:	11 96       	adiw	r26, 0x01	; 1
    45c6:	ed 91       	ld	r30, X+
    45c8:	fc 91       	ld	r31, X
    45ca:	12 97       	sbiw	r26, 0x02	; 2
    45cc:	30 83       	st	Z, r19
    45ce:	11 96       	adiw	r26, 0x01	; 1
    45d0:	ed 91       	ld	r30, X+
    45d2:	fc 91       	ld	r31, X
    45d4:	12 97       	sbiw	r26, 0x02	; 2
    45d6:	14 82       	std	Z+4, r1	; 0x04
    45d8:	11 96       	adiw	r26, 0x01	; 1
    45da:	ed 91       	ld	r30, X+
    45dc:	fc 91       	ld	r31, X
    45de:	12 97       	sbiw	r26, 0x02	; 2
    45e0:	84 81       	ldd	r24, Z+4	; 0x04
    45e2:	88 61       	ori	r24, 0x18	; 24
    45e4:	84 83       	std	Z+4, r24	; 0x04
    45e6:	11 96       	adiw	r26, 0x01	; 1
    45e8:	ed 91       	ld	r30, X+
    45ea:	fc 91       	ld	r31, X
    45ec:	12 97       	sbiw	r26, 0x02	; 2
    45ee:	25 83       	std	Z+5, r18	; 0x05
    45f0:	13 96       	adiw	r26, 0x03	; 3
    45f2:	ed 91       	ld	r30, X+
    45f4:	fc 91       	ld	r31, X
    45f6:	14 97       	sbiw	r26, 0x04	; 4
    45f8:	10 82       	st	Z, r1
    45fa:	13 96       	adiw	r26, 0x03	; 3
    45fc:	ed 91       	ld	r30, X+
    45fe:	fc 91       	ld	r31, X
    4600:	14 97       	sbiw	r26, 0x04	; 4
    4602:	11 82       	std	Z+1, r1	; 0x01
    4604:	13 96       	adiw	r26, 0x03	; 3
    4606:	ed 91       	ld	r30, X+
    4608:	fc 91       	ld	r31, X
    460a:	14 97       	sbiw	r26, 0x04	; 4
    460c:	96 83       	std	Z+6, r25	; 0x06
    460e:	68 96       	adiw	r28, 0x18	; 24
    4610:	1f 96       	adiw	r26, 0x0f	; 15
    4612:	84 e2       	ldi	r24, 0x24	; 36
    4614:	c4 3b       	cpi	r28, 0xB4	; 180
    4616:	d8 07       	cpc	r29, r24
    4618:	99 f6       	brne	.-90     	; 0x45c0 <st_init+0x7a>
    461a:	df 91       	pop	r29
    461c:	cf 91       	pop	r28
    461e:	08 95       	ret

00004620 <st_set_polarity>:
    4620:	90 e0       	ldi	r25, 0x00	; 0
    4622:	fc 01       	movw	r30, r24
    4624:	24 e0       	ldi	r18, 0x04	; 4
    4626:	ee 0f       	add	r30, r30
    4628:	ff 1f       	adc	r31, r31
    462a:	2a 95       	dec	r18
    462c:	e1 f7       	brne	.-8      	; 0x4626 <st_set_polarity+0x6>
    462e:	e8 1b       	sub	r30, r24
    4630:	f9 0b       	sbc	r31, r25
    4632:	ec 5f       	subi	r30, 0xFC	; 252
    4634:	fb 4d       	sbci	r31, 0xDB	; 219
    4636:	66 87       	std	Z+14, r22	; 0x0e
    4638:	08 95       	ret

0000463a <st_motor_test>:
    463a:	80 e0       	ldi	r24, 0x00	; 0
    463c:	90 e1       	ldi	r25, 0x10	; 16
    463e:	a0 e0       	ldi	r26, 0x00	; 0
    4640:	b0 e0       	ldi	r27, 0x00	; 0
    4642:	80 93 08 24 	sts	0x2408, r24
    4646:	90 93 09 24 	sts	0x2409, r25
    464a:	a0 93 0a 24 	sts	0x240A, r26
    464e:	b0 93 0b 24 	sts	0x240B, r27
    4652:	e0 91 15 24 	lds	r30, 0x2415
    4656:	f0 91 16 24 	lds	r31, 0x2416
    465a:	80 e0       	ldi	r24, 0x00	; 0
    465c:	90 e1       	ldi	r25, 0x10	; 16
    465e:	86 a3       	std	Z+38, r24	; 0x26
    4660:	97 a3       	std	Z+39, r25	; 0x27
    4662:	21 e0       	ldi	r18, 0x01	; 1
    4664:	20 83       	st	Z, r18
    4666:	80 e0       	ldi	r24, 0x00	; 0
    4668:	98 e0       	ldi	r25, 0x08	; 8
    466a:	a0 e0       	ldi	r26, 0x00	; 0
    466c:	b0 e0       	ldi	r27, 0x00	; 0
    466e:	80 93 17 24 	sts	0x2417, r24
    4672:	90 93 18 24 	sts	0x2418, r25
    4676:	a0 93 19 24 	sts	0x2419, r26
    467a:	b0 93 1a 24 	sts	0x241A, r27
    467e:	e0 91 24 24 	lds	r30, 0x2424
    4682:	f0 91 25 24 	lds	r31, 0x2425
    4686:	80 e0       	ldi	r24, 0x00	; 0
    4688:	90 e2       	ldi	r25, 0x20	; 32
    468a:	86 a3       	std	Z+38, r24	; 0x26
    468c:	97 a3       	std	Z+39, r25	; 0x27
    468e:	20 83       	st	Z, r18
    4690:	80 e0       	ldi	r24, 0x00	; 0
    4692:	96 e0       	ldi	r25, 0x06	; 6
    4694:	a0 e0       	ldi	r26, 0x00	; 0
    4696:	b0 e0       	ldi	r27, 0x00	; 0
    4698:	80 93 26 24 	sts	0x2426, r24
    469c:	90 93 27 24 	sts	0x2427, r25
    46a0:	a0 93 28 24 	sts	0x2428, r26
    46a4:	b0 93 29 24 	sts	0x2429, r27
    46a8:	e0 91 33 24 	lds	r30, 0x2433
    46ac:	f0 91 34 24 	lds	r31, 0x2434
    46b0:	80 e0       	ldi	r24, 0x00	; 0
    46b2:	90 e3       	ldi	r25, 0x30	; 48
    46b4:	86 a3       	std	Z+38, r24	; 0x26
    46b6:	97 a3       	std	Z+39, r25	; 0x27
    46b8:	20 83       	st	Z, r18
    46ba:	80 e0       	ldi	r24, 0x00	; 0
    46bc:	94 e0       	ldi	r25, 0x04	; 4
    46be:	a0 e0       	ldi	r26, 0x00	; 0
    46c0:	b0 e0       	ldi	r27, 0x00	; 0
    46c2:	80 93 35 24 	sts	0x2435, r24
    46c6:	90 93 36 24 	sts	0x2436, r25
    46ca:	a0 93 37 24 	sts	0x2437, r26
    46ce:	b0 93 38 24 	sts	0x2438, r27
    46d2:	e0 91 42 24 	lds	r30, 0x2442
    46d6:	f0 91 43 24 	lds	r31, 0x2443
    46da:	80 e0       	ldi	r24, 0x00	; 0
    46dc:	90 e4       	ldi	r25, 0x40	; 64
    46de:	86 a3       	std	Z+38, r24	; 0x26
    46e0:	97 a3       	std	Z+39, r25	; 0x27
    46e2:	20 83       	st	Z, r18
    46e4:	e5 e0       	ldi	r30, 0x05	; 5
    46e6:	f4 e2       	ldi	r31, 0x24	; 36
    46e8:	80 81       	ld	r24, Z
    46ea:	8f 60       	ori	r24, 0x0F	; 15
    46ec:	80 83       	st	Z, r24
    46ee:	08 95       	ret

000046f0 <st_terminate>:
    46f0:	f8 94       	cli
    46f2:	0e 94 21 30 	call	0x6042	; 0x6042 <mv_flush>
    46f6:	78 94       	sei
    46f8:	08 95       	ret

000046fa <st_stop_steppers>:
    46fa:	f8 94       	cli
    46fc:	e0 91 15 24 	lds	r30, 0x2415
    4700:	f0 91 16 24 	lds	r31, 0x2416
    4704:	10 82       	st	Z, r1
    4706:	e0 91 24 24 	lds	r30, 0x2424
    470a:	f0 91 25 24 	lds	r31, 0x2425
    470e:	10 82       	st	Z, r1
    4710:	e0 91 33 24 	lds	r30, 0x2433
    4714:	f0 91 34 24 	lds	r31, 0x2434
    4718:	10 82       	st	Z, r1
    471a:	e0 91 42 24 	lds	r30, 0x2442
    471e:	f0 91 43 24 	lds	r31, 0x2443
    4722:	10 82       	st	Z, r1
    4724:	0e 94 21 30 	call	0x6042	; 0x6042 <mv_flush>
    4728:	10 92 05 24 	sts	0x2405, r1
    472c:	78 94       	sei
    472e:	08 95       	ret

00004730 <st_execute_move>:
    4730:	cf 93       	push	r28
    4732:	df 93       	push	r29
    4734:	80 91 04 24 	lds	r24, 0x2404
    4738:	88 23       	and	r24, r24
    473a:	09 f0       	breq	.+2      	; 0x473e <st_execute_move+0xe>
    473c:	b6 c0       	rjmp	.+364    	; 0x48aa <st_execute_move+0x17a>
    473e:	81 e0       	ldi	r24, 0x01	; 1
    4740:	80 93 04 24 	sts	0x2404, r24
    4744:	80 91 05 24 	lds	r24, 0x2405
    4748:	88 23       	and	r24, r24
    474a:	09 f0       	breq	.+2      	; 0x474e <st_execute_move+0x1e>
    474c:	ac c0       	rjmp	.+344    	; 0x48a6 <st_execute_move+0x176>
    474e:	0e 94 de 2f 	call	0x5fbc	; 0x5fbc <mv_dequeue_move_buffer>
    4752:	80 93 06 24 	sts	0x2406, r24
    4756:	90 93 07 24 	sts	0x2407, r25
    475a:	89 2b       	or	r24, r25
    475c:	09 f4       	brne	.+2      	; 0x4760 <st_execute_move+0x30>
    475e:	a3 c0       	rjmp	.+326    	; 0x48a6 <st_execute_move+0x176>
    4760:	c8 e0       	ldi	r28, 0x08	; 8
    4762:	d4 e2       	ldi	r29, 0x24	; 36
    4764:	20 e0       	ldi	r18, 0x00	; 0
    4766:	30 e0       	ldi	r19, 0x00	; 0
    4768:	54 e0       	ldi	r21, 0x04	; 4
    476a:	42 e0       	ldi	r20, 0x02	; 2
    476c:	ed 85       	ldd	r30, Y+13	; 0x0d
    476e:	fe 85       	ldd	r31, Y+14	; 0x0e
    4770:	10 82       	st	Z, r1
    4772:	e0 91 06 24 	lds	r30, 0x2406
    4776:	f0 91 07 24 	lds	r31, 0x2407
    477a:	c9 01       	movw	r24, r18
    477c:	73 e0       	ldi	r23, 0x03	; 3
    477e:	88 0f       	add	r24, r24
    4780:	99 1f       	adc	r25, r25
    4782:	7a 95       	dec	r23
    4784:	e1 f7       	brne	.-8      	; 0x477e <st_execute_move+0x4e>
    4786:	82 0f       	add	r24, r18
    4788:	93 1f       	adc	r25, r19
    478a:	e8 0f       	add	r30, r24
    478c:	f9 1f       	adc	r31, r25
    478e:	80 81       	ld	r24, Z
    4790:	91 81       	ldd	r25, Z+1	; 0x01
    4792:	a2 81       	ldd	r26, Z+2	; 0x02
    4794:	b3 81       	ldd	r27, Z+3	; 0x03
    4796:	00 97       	sbiw	r24, 0x00	; 0
    4798:	a1 05       	cpc	r26, r1
    479a:	b1 05       	cpc	r27, r1
    479c:	b1 f1       	breq	.+108    	; 0x480a <st_execute_move+0xda>
    479e:	90 85       	ldd	r25, Z+8	; 0x08
    47a0:	8a 85       	ldd	r24, Y+10	; 0x0a
    47a2:	eb 85       	ldd	r30, Y+11	; 0x0b
    47a4:	fc 85       	ldd	r31, Y+12	; 0x0c
    47a6:	98 17       	cp	r25, r24
    47a8:	11 f0       	breq	.+4      	; 0x47ae <st_execute_move+0x7e>
    47aa:	45 83       	std	Z+5, r20	; 0x05
    47ac:	01 c0       	rjmp	.+2      	; 0x47b0 <st_execute_move+0x80>
    47ae:	46 83       	std	Z+6, r20	; 0x06
    47b0:	e0 91 06 24 	lds	r30, 0x2406
    47b4:	f0 91 07 24 	lds	r31, 0x2407
    47b8:	c9 01       	movw	r24, r18
    47ba:	63 e0       	ldi	r22, 0x03	; 3
    47bc:	88 0f       	add	r24, r24
    47be:	99 1f       	adc	r25, r25
    47c0:	6a 95       	dec	r22
    47c2:	e1 f7       	brne	.-8      	; 0x47bc <st_execute_move+0x8c>
    47c4:	82 0f       	add	r24, r18
    47c6:	93 1f       	adc	r25, r19
    47c8:	e8 0f       	add	r30, r24
    47ca:	f9 1f       	adc	r31, r25
    47cc:	80 81       	ld	r24, Z
    47ce:	91 81       	ldd	r25, Z+1	; 0x01
    47d0:	a2 81       	ldd	r26, Z+2	; 0x02
    47d2:	b3 81       	ldd	r27, Z+3	; 0x03
    47d4:	88 83       	st	Y, r24
    47d6:	99 83       	std	Y+1, r25	; 0x01
    47d8:	aa 83       	std	Y+2, r26	; 0x02
    47da:	bb 83       	std	Y+3, r27	; 0x03
    47dc:	86 81       	ldd	r24, Z+6	; 0x06
    47de:	97 81       	ldd	r25, Z+7	; 0x07
    47e0:	8e 83       	std	Y+6, r24	; 0x06
    47e2:	9f 83       	std	Y+7, r25	; 0x07
    47e4:	86 81       	ldd	r24, Z+6	; 0x06
    47e6:	97 81       	ldd	r25, Z+7	; 0x07
    47e8:	88 87       	std	Y+8, r24	; 0x08
    47ea:	99 87       	std	Y+9, r25	; 0x09
    47ec:	84 81       	ldd	r24, Z+4	; 0x04
    47ee:	95 81       	ldd	r25, Z+5	; 0x05
    47f0:	8c 83       	std	Y+4, r24	; 0x04
    47f2:	9d 83       	std	Y+5, r25	; 0x05
    47f4:	ad 85       	ldd	r26, Y+13	; 0x0d
    47f6:	be 85       	ldd	r27, Y+14	; 0x0e
    47f8:	84 81       	ldd	r24, Z+4	; 0x04
    47fa:	95 81       	ldd	r25, Z+5	; 0x05
    47fc:	96 96       	adiw	r26, 0x26	; 38
    47fe:	8d 93       	st	X+, r24
    4800:	9c 93       	st	X, r25
    4802:	97 97       	sbiw	r26, 0x27	; 39
    4804:	eb 85       	ldd	r30, Y+11	; 0x0b
    4806:	fc 85       	ldd	r31, Y+12	; 0x0c
    4808:	56 83       	std	Z+6, r21	; 0x06
    480a:	2f 5f       	subi	r18, 0xFF	; 255
    480c:	3f 4f       	sbci	r19, 0xFF	; 255
    480e:	2f 96       	adiw	r28, 0x0f	; 15
    4810:	23 30       	cpi	r18, 0x03	; 3
    4812:	31 05       	cpc	r19, r1
    4814:	09 f0       	breq	.+2      	; 0x4818 <st_execute_move+0xe8>
    4816:	aa cf       	rjmp	.-172    	; 0x476c <st_execute_move+0x3c>
    4818:	10 92 05 24 	sts	0x2405, r1
    481c:	80 91 08 24 	lds	r24, 0x2408
    4820:	90 91 09 24 	lds	r25, 0x2409
    4824:	a0 91 0a 24 	lds	r26, 0x240A
    4828:	b0 91 0b 24 	lds	r27, 0x240B
    482c:	00 97       	sbiw	r24, 0x00	; 0
    482e:	a1 05       	cpc	r26, r1
    4830:	b1 05       	cpc	r27, r1
    4832:	59 f0       	breq	.+22     	; 0x484a <st_execute_move+0x11a>
    4834:	e0 91 15 24 	lds	r30, 0x2415
    4838:	f0 91 16 24 	lds	r31, 0x2416
    483c:	81 e0       	ldi	r24, 0x01	; 1
    483e:	80 83       	st	Z, r24
    4840:	80 91 05 24 	lds	r24, 0x2405
    4844:	88 60       	ori	r24, 0x08	; 8
    4846:	80 93 05 24 	sts	0x2405, r24
    484a:	80 91 17 24 	lds	r24, 0x2417
    484e:	90 91 18 24 	lds	r25, 0x2418
    4852:	a0 91 19 24 	lds	r26, 0x2419
    4856:	b0 91 1a 24 	lds	r27, 0x241A
    485a:	00 97       	sbiw	r24, 0x00	; 0
    485c:	a1 05       	cpc	r26, r1
    485e:	b1 05       	cpc	r27, r1
    4860:	59 f0       	breq	.+22     	; 0x4878 <st_execute_move+0x148>
    4862:	e0 91 24 24 	lds	r30, 0x2424
    4866:	f0 91 25 24 	lds	r31, 0x2425
    486a:	81 e0       	ldi	r24, 0x01	; 1
    486c:	80 83       	st	Z, r24
    486e:	80 91 05 24 	lds	r24, 0x2405
    4872:	84 60       	ori	r24, 0x04	; 4
    4874:	80 93 05 24 	sts	0x2405, r24
    4878:	80 91 26 24 	lds	r24, 0x2426
    487c:	90 91 27 24 	lds	r25, 0x2427
    4880:	a0 91 28 24 	lds	r26, 0x2428
    4884:	b0 91 29 24 	lds	r27, 0x2429
    4888:	00 97       	sbiw	r24, 0x00	; 0
    488a:	a1 05       	cpc	r26, r1
    488c:	b1 05       	cpc	r27, r1
    488e:	59 f0       	breq	.+22     	; 0x48a6 <st_execute_move+0x176>
    4890:	e0 91 33 24 	lds	r30, 0x2433
    4894:	f0 91 34 24 	lds	r31, 0x2434
    4898:	81 e0       	ldi	r24, 0x01	; 1
    489a:	80 83       	st	Z, r24
    489c:	80 91 05 24 	lds	r24, 0x2405
    48a0:	82 60       	ori	r24, 0x02	; 2
    48a2:	80 93 05 24 	sts	0x2405, r24
    48a6:	10 92 04 24 	sts	0x2404, r1
    48aa:	df 91       	pop	r29
    48ac:	cf 91       	pop	r28
    48ae:	08 95       	ret

000048b0 <_st_fake_move>:
    48b0:	10 92 04 24 	sts	0x2404, r1
    48b4:	0e 94 98 23 	call	0x4730	; 0x4730 <st_execute_move>
    48b8:	08 95       	ret

000048ba <__vector_108>:
    48ba:	1f 92       	push	r1
    48bc:	0f 92       	push	r0
    48be:	0f b6       	in	r0, 0x3f	; 63
    48c0:	0f 92       	push	r0
    48c2:	0b b6       	in	r0, 0x3b	; 59
    48c4:	0f 92       	push	r0
    48c6:	11 24       	eor	r1, r1
    48c8:	2f 93       	push	r18
    48ca:	3f 93       	push	r19
    48cc:	4f 93       	push	r20
    48ce:	5f 93       	push	r21
    48d0:	6f 93       	push	r22
    48d2:	7f 93       	push	r23
    48d4:	8f 93       	push	r24
    48d6:	9f 93       	push	r25
    48d8:	af 93       	push	r26
    48da:	bf 93       	push	r27
    48dc:	ef 93       	push	r30
    48de:	ff 93       	push	r31
    48e0:	80 91 3d 24 	lds	r24, 0x243D
    48e4:	90 91 3e 24 	lds	r25, 0x243E
    48e8:	01 97       	sbiw	r24, 0x01	; 1
    48ea:	80 93 3d 24 	sts	0x243D, r24
    48ee:	90 93 3e 24 	sts	0x243E, r25
    48f2:	89 2b       	or	r24, r25
    48f4:	a1 f5       	brne	.+104    	; 0x495e <__vector_108+0xa4>
    48f6:	e0 e6       	ldi	r30, 0x60	; 96
    48f8:	f6 e0       	ldi	r31, 0x06	; 6
    48fa:	81 e0       	ldi	r24, 0x01	; 1
    48fc:	85 83       	std	Z+5, r24	; 0x05
    48fe:	80 91 35 24 	lds	r24, 0x2435
    4902:	90 91 36 24 	lds	r25, 0x2436
    4906:	a0 91 37 24 	lds	r26, 0x2437
    490a:	b0 91 38 24 	lds	r27, 0x2438
    490e:	01 97       	sbiw	r24, 0x01	; 1
    4910:	a1 09       	sbc	r26, r1
    4912:	b1 09       	sbc	r27, r1
    4914:	80 93 35 24 	sts	0x2435, r24
    4918:	90 93 36 24 	sts	0x2436, r25
    491c:	a0 93 37 24 	sts	0x2437, r26
    4920:	b0 93 38 24 	sts	0x2438, r27
    4924:	00 97       	sbiw	r24, 0x00	; 0
    4926:	a1 05       	cpc	r26, r1
    4928:	b1 05       	cpc	r27, r1
    492a:	69 f4       	brne	.+26     	; 0x4946 <__vector_108+0x8c>
    492c:	10 92 00 0b 	sts	0x0B00, r1
    4930:	84 e0       	ldi	r24, 0x04	; 4
    4932:	85 83       	std	Z+5, r24	; 0x05
    4934:	80 91 05 24 	lds	r24, 0x2405
    4938:	8e 7f       	andi	r24, 0xFE	; 254
    493a:	80 93 05 24 	sts	0x2405, r24
    493e:	88 23       	and	r24, r24
    4940:	11 f4       	brne	.+4      	; 0x4946 <__vector_108+0x8c>
    4942:	0e 94 98 23 	call	0x4730	; 0x4730 <st_execute_move>
    4946:	80 91 3b 24 	lds	r24, 0x243B
    494a:	90 91 3c 24 	lds	r25, 0x243C
    494e:	80 93 3d 24 	sts	0x243D, r24
    4952:	90 93 3e 24 	sts	0x243E, r25
    4956:	81 e0       	ldi	r24, 0x01	; 1
    4958:	e0 e6       	ldi	r30, 0x60	; 96
    495a:	f6 e0       	ldi	r31, 0x06	; 6
    495c:	86 83       	std	Z+6, r24	; 0x06
    495e:	ff 91       	pop	r31
    4960:	ef 91       	pop	r30
    4962:	bf 91       	pop	r27
    4964:	af 91       	pop	r26
    4966:	9f 91       	pop	r25
    4968:	8f 91       	pop	r24
    496a:	7f 91       	pop	r23
    496c:	6f 91       	pop	r22
    496e:	5f 91       	pop	r21
    4970:	4f 91       	pop	r20
    4972:	3f 91       	pop	r19
    4974:	2f 91       	pop	r18
    4976:	0f 90       	pop	r0
    4978:	0b be       	out	0x3b, r0	; 59
    497a:	0f 90       	pop	r0
    497c:	0f be       	out	0x3f, r0	; 63
    497e:	0f 90       	pop	r0
    4980:	1f 90       	pop	r1
    4982:	18 95       	reti

00004984 <__vector_47>:
    4984:	1f 92       	push	r1
    4986:	0f 92       	push	r0
    4988:	0f b6       	in	r0, 0x3f	; 63
    498a:	0f 92       	push	r0
    498c:	0b b6       	in	r0, 0x3b	; 59
    498e:	0f 92       	push	r0
    4990:	11 24       	eor	r1, r1
    4992:	2f 93       	push	r18
    4994:	3f 93       	push	r19
    4996:	4f 93       	push	r20
    4998:	5f 93       	push	r21
    499a:	6f 93       	push	r22
    499c:	7f 93       	push	r23
    499e:	8f 93       	push	r24
    49a0:	9f 93       	push	r25
    49a2:	af 93       	push	r26
    49a4:	bf 93       	push	r27
    49a6:	ef 93       	push	r30
    49a8:	ff 93       	push	r31
    49aa:	80 91 2e 24 	lds	r24, 0x242E
    49ae:	90 91 2f 24 	lds	r25, 0x242F
    49b2:	01 97       	sbiw	r24, 0x01	; 1
    49b4:	80 93 2e 24 	sts	0x242E, r24
    49b8:	90 93 2f 24 	sts	0x242F, r25
    49bc:	89 2b       	or	r24, r25
    49be:	a1 f5       	brne	.+104    	; 0x4a28 <__vector_47+0xa4>
    49c0:	e0 e8       	ldi	r30, 0x80	; 128
    49c2:	f6 e0       	ldi	r31, 0x06	; 6
    49c4:	81 e0       	ldi	r24, 0x01	; 1
    49c6:	85 83       	std	Z+5, r24	; 0x05
    49c8:	80 91 26 24 	lds	r24, 0x2426
    49cc:	90 91 27 24 	lds	r25, 0x2427
    49d0:	a0 91 28 24 	lds	r26, 0x2428
    49d4:	b0 91 29 24 	lds	r27, 0x2429
    49d8:	01 97       	sbiw	r24, 0x01	; 1
    49da:	a1 09       	sbc	r26, r1
    49dc:	b1 09       	sbc	r27, r1
    49de:	80 93 26 24 	sts	0x2426, r24
    49e2:	90 93 27 24 	sts	0x2427, r25
    49e6:	a0 93 28 24 	sts	0x2428, r26
    49ea:	b0 93 29 24 	sts	0x2429, r27
    49ee:	00 97       	sbiw	r24, 0x00	; 0
    49f0:	a1 05       	cpc	r26, r1
    49f2:	b1 05       	cpc	r27, r1
    49f4:	69 f4       	brne	.+26     	; 0x4a10 <__vector_47+0x8c>
    49f6:	10 92 00 0a 	sts	0x0A00, r1
    49fa:	84 e0       	ldi	r24, 0x04	; 4
    49fc:	85 83       	std	Z+5, r24	; 0x05
    49fe:	80 91 05 24 	lds	r24, 0x2405
    4a02:	8d 7f       	andi	r24, 0xFD	; 253
    4a04:	80 93 05 24 	sts	0x2405, r24
    4a08:	88 23       	and	r24, r24
    4a0a:	11 f4       	brne	.+4      	; 0x4a10 <__vector_47+0x8c>
    4a0c:	0e 94 98 23 	call	0x4730	; 0x4730 <st_execute_move>
    4a10:	80 91 2c 24 	lds	r24, 0x242C
    4a14:	90 91 2d 24 	lds	r25, 0x242D
    4a18:	80 93 2e 24 	sts	0x242E, r24
    4a1c:	90 93 2f 24 	sts	0x242F, r25
    4a20:	81 e0       	ldi	r24, 0x01	; 1
    4a22:	e0 e8       	ldi	r30, 0x80	; 128
    4a24:	f6 e0       	ldi	r31, 0x06	; 6
    4a26:	86 83       	std	Z+6, r24	; 0x06
    4a28:	ff 91       	pop	r31
    4a2a:	ef 91       	pop	r30
    4a2c:	bf 91       	pop	r27
    4a2e:	af 91       	pop	r26
    4a30:	9f 91       	pop	r25
    4a32:	8f 91       	pop	r24
    4a34:	7f 91       	pop	r23
    4a36:	6f 91       	pop	r22
    4a38:	5f 91       	pop	r21
    4a3a:	4f 91       	pop	r20
    4a3c:	3f 91       	pop	r19
    4a3e:	2f 91       	pop	r18
    4a40:	0f 90       	pop	r0
    4a42:	0b be       	out	0x3b, r0	; 59
    4a44:	0f 90       	pop	r0
    4a46:	0f be       	out	0x3f, r0	; 63
    4a48:	0f 90       	pop	r0
    4a4a:	1f 90       	pop	r1
    4a4c:	18 95       	reti

00004a4e <__vector_77>:
    4a4e:	1f 92       	push	r1
    4a50:	0f 92       	push	r0
    4a52:	0f b6       	in	r0, 0x3f	; 63
    4a54:	0f 92       	push	r0
    4a56:	0b b6       	in	r0, 0x3b	; 59
    4a58:	0f 92       	push	r0
    4a5a:	11 24       	eor	r1, r1
    4a5c:	2f 93       	push	r18
    4a5e:	3f 93       	push	r19
    4a60:	4f 93       	push	r20
    4a62:	5f 93       	push	r21
    4a64:	6f 93       	push	r22
    4a66:	7f 93       	push	r23
    4a68:	8f 93       	push	r24
    4a6a:	9f 93       	push	r25
    4a6c:	af 93       	push	r26
    4a6e:	bf 93       	push	r27
    4a70:	ef 93       	push	r30
    4a72:	ff 93       	push	r31
    4a74:	80 91 1f 24 	lds	r24, 0x241F
    4a78:	90 91 20 24 	lds	r25, 0x2420
    4a7c:	01 97       	sbiw	r24, 0x01	; 1
    4a7e:	80 93 1f 24 	sts	0x241F, r24
    4a82:	90 93 20 24 	sts	0x2420, r25
    4a86:	89 2b       	or	r24, r25
    4a88:	a1 f5       	brne	.+104    	; 0x4af2 <__vector_77+0xa4>
    4a8a:	e0 ea       	ldi	r30, 0xA0	; 160
    4a8c:	f6 e0       	ldi	r31, 0x06	; 6
    4a8e:	81 e0       	ldi	r24, 0x01	; 1
    4a90:	85 83       	std	Z+5, r24	; 0x05
    4a92:	80 91 17 24 	lds	r24, 0x2417
    4a96:	90 91 18 24 	lds	r25, 0x2418
    4a9a:	a0 91 19 24 	lds	r26, 0x2419
    4a9e:	b0 91 1a 24 	lds	r27, 0x241A
    4aa2:	01 97       	sbiw	r24, 0x01	; 1
    4aa4:	a1 09       	sbc	r26, r1
    4aa6:	b1 09       	sbc	r27, r1
    4aa8:	80 93 17 24 	sts	0x2417, r24
    4aac:	90 93 18 24 	sts	0x2418, r25
    4ab0:	a0 93 19 24 	sts	0x2419, r26
    4ab4:	b0 93 1a 24 	sts	0x241A, r27
    4ab8:	00 97       	sbiw	r24, 0x00	; 0
    4aba:	a1 05       	cpc	r26, r1
    4abc:	b1 05       	cpc	r27, r1
    4abe:	69 f4       	brne	.+26     	; 0x4ada <__vector_77+0x8c>
    4ac0:	10 92 00 09 	sts	0x0900, r1
    4ac4:	84 e0       	ldi	r24, 0x04	; 4
    4ac6:	85 83       	std	Z+5, r24	; 0x05
    4ac8:	80 91 05 24 	lds	r24, 0x2405
    4acc:	8b 7f       	andi	r24, 0xFB	; 251
    4ace:	80 93 05 24 	sts	0x2405, r24
    4ad2:	88 23       	and	r24, r24
    4ad4:	11 f4       	brne	.+4      	; 0x4ada <__vector_77+0x8c>
    4ad6:	0e 94 98 23 	call	0x4730	; 0x4730 <st_execute_move>
    4ada:	80 91 1d 24 	lds	r24, 0x241D
    4ade:	90 91 1e 24 	lds	r25, 0x241E
    4ae2:	80 93 1f 24 	sts	0x241F, r24
    4ae6:	90 93 20 24 	sts	0x2420, r25
    4aea:	81 e0       	ldi	r24, 0x01	; 1
    4aec:	e0 ea       	ldi	r30, 0xA0	; 160
    4aee:	f6 e0       	ldi	r31, 0x06	; 6
    4af0:	86 83       	std	Z+6, r24	; 0x06
    4af2:	ff 91       	pop	r31
    4af4:	ef 91       	pop	r30
    4af6:	bf 91       	pop	r27
    4af8:	af 91       	pop	r26
    4afa:	9f 91       	pop	r25
    4afc:	8f 91       	pop	r24
    4afe:	7f 91       	pop	r23
    4b00:	6f 91       	pop	r22
    4b02:	5f 91       	pop	r21
    4b04:	4f 91       	pop	r20
    4b06:	3f 91       	pop	r19
    4b08:	2f 91       	pop	r18
    4b0a:	0f 90       	pop	r0
    4b0c:	0b be       	out	0x3b, r0	; 59
    4b0e:	0f 90       	pop	r0
    4b10:	0f be       	out	0x3f, r0	; 63
    4b12:	0f 90       	pop	r0
    4b14:	1f 90       	pop	r1
    4b16:	18 95       	reti

00004b18 <__vector_14>:
    4b18:	1f 92       	push	r1
    4b1a:	0f 92       	push	r0
    4b1c:	0f b6       	in	r0, 0x3f	; 63
    4b1e:	0f 92       	push	r0
    4b20:	0b b6       	in	r0, 0x3b	; 59
    4b22:	0f 92       	push	r0
    4b24:	11 24       	eor	r1, r1
    4b26:	2f 93       	push	r18
    4b28:	3f 93       	push	r19
    4b2a:	4f 93       	push	r20
    4b2c:	5f 93       	push	r21
    4b2e:	6f 93       	push	r22
    4b30:	7f 93       	push	r23
    4b32:	8f 93       	push	r24
    4b34:	9f 93       	push	r25
    4b36:	af 93       	push	r26
    4b38:	bf 93       	push	r27
    4b3a:	ef 93       	push	r30
    4b3c:	ff 93       	push	r31
    4b3e:	80 91 10 24 	lds	r24, 0x2410
    4b42:	90 91 11 24 	lds	r25, 0x2411
    4b46:	01 97       	sbiw	r24, 0x01	; 1
    4b48:	80 93 10 24 	sts	0x2410, r24
    4b4c:	90 93 11 24 	sts	0x2411, r25
    4b50:	89 2b       	or	r24, r25
    4b52:	a1 f5       	brne	.+104    	; 0x4bbc <__vector_14+0xa4>
    4b54:	e0 e0       	ldi	r30, 0x00	; 0
    4b56:	f6 e0       	ldi	r31, 0x06	; 6
    4b58:	81 e0       	ldi	r24, 0x01	; 1
    4b5a:	85 83       	std	Z+5, r24	; 0x05
    4b5c:	80 91 08 24 	lds	r24, 0x2408
    4b60:	90 91 09 24 	lds	r25, 0x2409
    4b64:	a0 91 0a 24 	lds	r26, 0x240A
    4b68:	b0 91 0b 24 	lds	r27, 0x240B
    4b6c:	01 97       	sbiw	r24, 0x01	; 1
    4b6e:	a1 09       	sbc	r26, r1
    4b70:	b1 09       	sbc	r27, r1
    4b72:	80 93 08 24 	sts	0x2408, r24
    4b76:	90 93 09 24 	sts	0x2409, r25
    4b7a:	a0 93 0a 24 	sts	0x240A, r26
    4b7e:	b0 93 0b 24 	sts	0x240B, r27
    4b82:	00 97       	sbiw	r24, 0x00	; 0
    4b84:	a1 05       	cpc	r26, r1
    4b86:	b1 05       	cpc	r27, r1
    4b88:	69 f4       	brne	.+26     	; 0x4ba4 <__vector_14+0x8c>
    4b8a:	10 92 00 08 	sts	0x0800, r1
    4b8e:	84 e0       	ldi	r24, 0x04	; 4
    4b90:	85 83       	std	Z+5, r24	; 0x05
    4b92:	80 91 05 24 	lds	r24, 0x2405
    4b96:	87 7f       	andi	r24, 0xF7	; 247
    4b98:	80 93 05 24 	sts	0x2405, r24
    4b9c:	88 23       	and	r24, r24
    4b9e:	11 f4       	brne	.+4      	; 0x4ba4 <__vector_14+0x8c>
    4ba0:	0e 94 98 23 	call	0x4730	; 0x4730 <st_execute_move>
    4ba4:	80 91 0e 24 	lds	r24, 0x240E
    4ba8:	90 91 0f 24 	lds	r25, 0x240F
    4bac:	80 93 10 24 	sts	0x2410, r24
    4bb0:	90 93 11 24 	sts	0x2411, r25
    4bb4:	81 e0       	ldi	r24, 0x01	; 1
    4bb6:	e0 e0       	ldi	r30, 0x00	; 0
    4bb8:	f6 e0       	ldi	r31, 0x06	; 6
    4bba:	86 83       	std	Z+6, r24	; 0x06
    4bbc:	ff 91       	pop	r31
    4bbe:	ef 91       	pop	r30
    4bc0:	bf 91       	pop	r27
    4bc2:	af 91       	pop	r26
    4bc4:	9f 91       	pop	r25
    4bc6:	8f 91       	pop	r24
    4bc8:	7f 91       	pop	r23
    4bca:	6f 91       	pop	r22
    4bcc:	5f 91       	pop	r21
    4bce:	4f 91       	pop	r20
    4bd0:	3f 91       	pop	r19
    4bd2:	2f 91       	pop	r18
    4bd4:	0f 90       	pop	r0
    4bd6:	0b be       	out	0x3b, r0	; 59
    4bd8:	0f 90       	pop	r0
    4bda:	0f be       	out	0x3f, r0	; 63
    4bdc:	0f 90       	pop	r0
    4bde:	1f 90       	pop	r1
    4be0:	18 95       	reti

00004be2 <PMIC_SetVectorLocationToBoot>:
    4be2:	e0 ea       	ldi	r30, 0xA0	; 160
    4be4:	f0 e0       	ldi	r31, 0x00	; 0
    4be6:	82 81       	ldd	r24, Z+2	; 0x02
    4be8:	80 64       	ori	r24, 0x40	; 64
    4bea:	98 ed       	ldi	r25, 0xD8	; 216
    4bec:	94 bf       	out	0x34, r25	; 52
    4bee:	82 83       	std	Z+2, r24	; 0x02
    4bf0:	08 95       	ret

00004bf2 <PMIC_SetVectorLocationToApplication>:
    4bf2:	e0 ea       	ldi	r30, 0xA0	; 160
    4bf4:	f0 e0       	ldi	r31, 0x00	; 0
    4bf6:	82 81       	ldd	r24, Z+2	; 0x02
    4bf8:	8f 7b       	andi	r24, 0xBF	; 191
    4bfa:	98 ed       	ldi	r25, 0xD8	; 216
    4bfc:	94 bf       	out	0x34, r25	; 52
    4bfe:	82 83       	std	Z+2, r24	; 0x02
    4c00:	08 95       	ret

00004c02 <xio_null_signal>:
    4c02:	81 e0       	ldi	r24, 0x01	; 1
    4c04:	90 e0       	ldi	r25, 0x00	; 0
    4c06:	08 95       	ret

00004c08 <xio_null_line>:
    4c08:	80 e0       	ldi	r24, 0x00	; 0
    4c0a:	90 e0       	ldi	r25, 0x00	; 0
    4c0c:	08 95       	ret

00004c0e <xio_fget_ln>:
    4c0e:	81 30       	cpi	r24, 0x01	; 1
    4c10:	51 f0       	breq	.+20     	; 0x4c26 <xio_fget_ln+0x18>
    4c12:	81 30       	cpi	r24, 0x01	; 1
    4c14:	28 f0       	brcs	.+10     	; 0x4c20 <xio_fget_ln+0x12>
    4c16:	84 30       	cpi	r24, 0x04	; 4
    4c18:	59 f0       	breq	.+22     	; 0x4c30 <xio_fget_ln+0x22>
    4c1a:	20 e1       	ldi	r18, 0x10	; 16
    4c1c:	30 e0       	ldi	r19, 0x00	; 0
    4c1e:	0d c0       	rjmp	.+26     	; 0x4c3a <xio_fget_ln+0x2c>
    4c20:	20 e0       	ldi	r18, 0x00	; 0
    4c22:	30 e0       	ldi	r19, 0x00	; 0
    4c24:	0a c0       	rjmp	.+20     	; 0x4c3a <xio_fget_ln+0x2c>
    4c26:	cb 01       	movw	r24, r22
    4c28:	64 2f       	mov	r22, r20
    4c2a:	0e 94 9e 29 	call	0x533c	; 0x533c <xio_usb_readln>
    4c2e:	04 c0       	rjmp	.+8      	; 0x4c38 <xio_fget_ln+0x2a>
    4c30:	cb 01       	movw	r24, r22
    4c32:	64 2f       	mov	r22, r20
    4c34:	0e 94 5a 2d 	call	0x5ab4	; 0x5ab4 <xio_pgm_readln>
    4c38:	9c 01       	movw	r18, r24
    4c3a:	c9 01       	movw	r24, r18
    4c3c:	08 95       	ret

00004c3e <xio_control>:
    4c3e:	81 30       	cpi	r24, 0x01	; 1
    4c40:	41 f0       	breq	.+16     	; 0x4c52 <xio_control+0x14>
    4c42:	81 30       	cpi	r24, 0x01	; 1
    4c44:	20 f0       	brcs	.+8      	; 0x4c4e <xio_control+0x10>
    4c46:	84 30       	cpi	r24, 0x04	; 4
    4c48:	49 f0       	breq	.+18     	; 0x4c5c <xio_control+0x1e>
    4c4a:	80 e1       	ldi	r24, 0x10	; 16
    4c4c:	08 95       	ret
    4c4e:	80 e0       	ldi	r24, 0x00	; 0
    4c50:	08 95       	ret
    4c52:	cb 01       	movw	r24, r22
    4c54:	ba 01       	movw	r22, r20
    4c56:	0e 94 32 27 	call	0x4e64	; 0x4e64 <xio_usb_control>
    4c5a:	08 95       	ret
    4c5c:	cb 01       	movw	r24, r22
    4c5e:	ba 01       	movw	r22, r20
    4c60:	0e 94 eb 2c 	call	0x59d6	; 0x59d6 <xio_pgm_control>
    4c64:	08 95       	ret

00004c66 <xio_dev_init>:
    4c66:	81 30       	cpi	r24, 0x01	; 1
    4c68:	31 f0       	breq	.+12     	; 0x4c76 <xio_dev_init+0x10>
    4c6a:	81 30       	cpi	r24, 0x01	; 1
    4c6c:	38 f0       	brcs	.+14     	; 0x4c7c <xio_dev_init+0x16>
    4c6e:	84 30       	cpi	r24, 0x04	; 4
    4c70:	39 f0       	breq	.+14     	; 0x4c80 <xio_dev_init+0x1a>
    4c72:	80 e1       	ldi	r24, 0x10	; 16
    4c74:	08 95       	ret
    4c76:	cb 01       	movw	r24, r22
    4c78:	0e 94 6c 26 	call	0x4cd8	; 0x4cd8 <xio_usb_init>
    4c7c:	80 e0       	ldi	r24, 0x00	; 0
    4c7e:	08 95       	ret
    4c80:	cb 01       	movw	r24, r22
    4c82:	0e 94 49 2c 	call	0x5892	; 0x5892 <xio_pgm_init>
    4c86:	80 e0       	ldi	r24, 0x00	; 0
    4c88:	08 95       	ret

00004c8a <xio_init>:
    4c8a:	85 e0       	ldi	r24, 0x05	; 5
    4c8c:	90 e5       	ldi	r25, 0x50	; 80
    4c8e:	0e 94 6c 26 	call	0x4cd8	; 0x4cd8 <xio_usb_init>
    4c92:	80 e0       	ldi	r24, 0x00	; 0
    4c94:	90 e1       	ldi	r25, 0x10	; 16
    4c96:	0e 94 49 2c 	call	0x5892	; 0x5892 <xio_pgm_init>
    4c9a:	80 e0       	ldi	r24, 0x00	; 0
    4c9c:	90 e2       	ldi	r25, 0x20	; 32
    4c9e:	80 93 b2 24 	sts	0x24B2, r24
    4ca2:	90 93 b3 24 	sts	0x24B3, r25
    4ca6:	80 93 0c 25 	sts	0x250C, r24
    4caa:	90 93 0d 25 	sts	0x250D, r25
    4cae:	80 93 0e 25 	sts	0x250E, r24
    4cb2:	90 93 0f 25 	sts	0x250F, r25
    4cb6:	80 93 10 25 	sts	0x2510, r24
    4cba:	90 93 11 25 	sts	0x2511, r25
    4cbe:	0f 92       	push	r0
    4cc0:	0f 92       	push	r0
    4cc2:	8a e3       	ldi	r24, 0x3A	; 58
    4cc4:	97 e0       	ldi	r25, 0x07	; 7
    4cc6:	ed b7       	in	r30, 0x3d	; 61
    4cc8:	fe b7       	in	r31, 0x3e	; 62
    4cca:	81 83       	std	Z+1, r24	; 0x01
    4ccc:	92 83       	std	Z+2, r25	; 0x02
    4cce:	0e 94 84 44 	call	0x8908	; 0x8908 <printf_P>
    4cd2:	0f 90       	pop	r0
    4cd4:	0f 90       	pop	r0
    4cd6:	08 95       	ret

00004cd8 <xio_usb_init>:
    4cd8:	9c 01       	movw	r18, r24
    4cda:	e8 2f       	mov	r30, r24
    4cdc:	ef 70       	andi	r30, 0x0F	; 15
    4cde:	87 e3       	ldi	r24, 0x37	; 55
    4ce0:	90 e0       	ldi	r25, 0x00	; 0
    4ce2:	80 93 9f 21 	sts	0x219F, r24
    4ce6:	90 93 a0 21 	sts	0x21A0, r25
    4cea:	26 ff       	sbrs	r18, 6
    4cec:	06 c0       	rjmp	.+12     	; 0x4cfa <xio_usb_init+0x22>
    4cee:	87 e3       	ldi	r24, 0x37	; 55
    4cf0:	90 e0       	ldi	r25, 0x00	; 0
    4cf2:	80 93 9f 21 	sts	0x219F, r24
    4cf6:	90 93 a0 21 	sts	0x21A0, r25
    4cfa:	27 ff       	sbrs	r18, 7
    4cfc:	06 c0       	rjmp	.+12     	; 0x4d0a <xio_usb_init+0x32>
    4cfe:	83 e3       	ldi	r24, 0x33	; 51
    4d00:	90 e0       	ldi	r25, 0x00	; 0
    4d02:	80 93 9f 21 	sts	0x219F, r24
    4d06:	90 93 a0 21 	sts	0x21A0, r25
    4d0a:	30 ff       	sbrs	r19, 0
    4d0c:	09 c0       	rjmp	.+18     	; 0x4d20 <xio_usb_init+0x48>
    4d0e:	80 91 9f 21 	lds	r24, 0x219F
    4d12:	90 91 a0 21 	lds	r25, 0x21A0
    4d16:	80 61       	ori	r24, 0x10	; 16
    4d18:	80 93 9f 21 	sts	0x219F, r24
    4d1c:	90 93 a0 21 	sts	0x21A0, r25
    4d20:	31 ff       	sbrs	r19, 1
    4d22:	09 c0       	rjmp	.+18     	; 0x4d36 <xio_usb_init+0x5e>
    4d24:	80 91 9f 21 	lds	r24, 0x219F
    4d28:	90 91 a0 21 	lds	r25, 0x21A0
    4d2c:	8f 7e       	andi	r24, 0xEF	; 239
    4d2e:	80 93 9f 21 	sts	0x219F, r24
    4d32:	90 93 a0 21 	sts	0x21A0, r25
    4d36:	32 ff       	sbrs	r19, 2
    4d38:	09 c0       	rjmp	.+18     	; 0x4d4c <xio_usb_init+0x74>
    4d3a:	80 91 9f 21 	lds	r24, 0x219F
    4d3e:	90 91 a0 21 	lds	r25, 0x21A0
    4d42:	80 62       	ori	r24, 0x20	; 32
    4d44:	80 93 9f 21 	sts	0x219F, r24
    4d48:	90 93 a0 21 	sts	0x21A0, r25
    4d4c:	33 ff       	sbrs	r19, 3
    4d4e:	09 c0       	rjmp	.+18     	; 0x4d62 <xio_usb_init+0x8a>
    4d50:	80 91 9f 21 	lds	r24, 0x219F
    4d54:	90 91 a0 21 	lds	r25, 0x21A0
    4d58:	8f 7d       	andi	r24, 0xDF	; 223
    4d5a:	80 93 9f 21 	sts	0x219F, r24
    4d5e:	90 93 a0 21 	sts	0x21A0, r25
    4d62:	34 ff       	sbrs	r19, 4
    4d64:	09 c0       	rjmp	.+18     	; 0x4d78 <xio_usb_init+0xa0>
    4d66:	80 91 9f 21 	lds	r24, 0x219F
    4d6a:	90 91 a0 21 	lds	r25, 0x21A0
    4d6e:	80 64       	ori	r24, 0x40	; 64
    4d70:	80 93 9f 21 	sts	0x219F, r24
    4d74:	90 93 a0 21 	sts	0x21A0, r25
    4d78:	35 ff       	sbrs	r19, 5
    4d7a:	09 c0       	rjmp	.+18     	; 0x4d8e <xio_usb_init+0xb6>
    4d7c:	80 91 9f 21 	lds	r24, 0x219F
    4d80:	90 91 a0 21 	lds	r25, 0x21A0
    4d84:	8f 7b       	andi	r24, 0xBF	; 191
    4d86:	80 93 9f 21 	sts	0x219F, r24
    4d8a:	90 93 a0 21 	sts	0x21A0, r25
    4d8e:	36 ff       	sbrs	r19, 6
    4d90:	09 c0       	rjmp	.+18     	; 0x4da4 <xio_usb_init+0xcc>
    4d92:	80 91 9f 21 	lds	r24, 0x219F
    4d96:	90 91 a0 21 	lds	r25, 0x21A0
    4d9a:	80 68       	ori	r24, 0x80	; 128
    4d9c:	80 93 9f 21 	sts	0x219F, r24
    4da0:	90 93 a0 21 	sts	0x21A0, r25
    4da4:	37 ff       	sbrs	r19, 7
    4da6:	09 c0       	rjmp	.+18     	; 0x4dba <xio_usb_init+0xe2>
    4da8:	80 91 9f 21 	lds	r24, 0x219F
    4dac:	90 91 a0 21 	lds	r25, 0x21A0
    4db0:	8f 77       	andi	r24, 0x7F	; 127
    4db2:	80 93 9f 21 	sts	0x219F, r24
    4db6:	90 93 a0 21 	sts	0x21A0, r25
    4dba:	10 92 a1 21 	sts	0x21A1, r1
    4dbe:	81 ea       	ldi	r24, 0xA1	; 161
    4dc0:	91 e2       	ldi	r25, 0x21	; 33
    4dc2:	80 93 0c 20 	sts	0x200C, r24
    4dc6:	90 93 0d 20 	sts	0x200D, r25
    4dca:	81 e0       	ldi	r24, 0x01	; 1
    4dcc:	80 93 ac 21 	sts	0x21AC, r24
    4dd0:	80 93 ab 21 	sts	0x21AB, r24
    4dd4:	80 93 ae 21 	sts	0x21AE, r24
    4dd8:	80 93 ad 21 	sts	0x21AD, r24
    4ddc:	82 e0       	ldi	r24, 0x02	; 2
    4dde:	80 93 a4 21 	sts	0x21A4, r24
    4de2:	81 e0       	ldi	r24, 0x01	; 1
    4de4:	96 e2       	ldi	r25, 0x26	; 38
    4de6:	80 93 a7 21 	sts	0x21A7, r24
    4dea:	90 93 a8 21 	sts	0x21A8, r25
    4dee:	84 e0       	ldi	r24, 0x04	; 4
    4df0:	96 e2       	ldi	r25, 0x26	; 38
    4df2:	80 93 a9 21 	sts	0x21A9, r24
    4df6:	90 93 aa 21 	sts	0x21AA, r25
    4dfa:	80 ea       	ldi	r24, 0xA0	; 160
    4dfc:	98 e0       	ldi	r25, 0x08	; 8
    4dfe:	80 93 d4 21 	sts	0x21D4, r24
    4e02:	90 93 d5 21 	sts	0x21D5, r25
    4e06:	80 e4       	ldi	r24, 0x40	; 64
    4e08:	96 e0       	ldi	r25, 0x06	; 6
    4e0a:	80 93 d6 21 	sts	0x21D6, r24
    4e0e:	90 93 d7 21 	sts	0x21D7, r25
    4e12:	ee 23       	and	r30, r30
    4e14:	09 f4       	brne	.+2      	; 0x4e18 <xio_usb_init+0x140>
    4e16:	e5 e0       	ldi	r30, 0x05	; 5
    4e18:	8e 2f       	mov	r24, r30
    4e1a:	90 e0       	ldi	r25, 0x00	; 0
    4e1c:	fc 01       	movw	r30, r24
    4e1e:	ec 5d       	subi	r30, 0xDC	; 220
    4e20:	f8 4f       	sbci	r31, 0xF8	; 248
    4e22:	e4 91       	lpm	r30, Z+
    4e24:	a0 ea       	ldi	r26, 0xA0	; 160
    4e26:	b8 e0       	ldi	r27, 0x08	; 8
    4e28:	16 96       	adiw	r26, 0x06	; 6
    4e2a:	ec 93       	st	X, r30
    4e2c:	16 97       	sbiw	r26, 0x06	; 6
    4e2e:	81 5d       	subi	r24, 0xD1	; 209
    4e30:	98 4f       	sbci	r25, 0xF8	; 248
    4e32:	fc 01       	movw	r30, r24
    4e34:	84 91       	lpm	r24, Z+
    4e36:	17 96       	adiw	r26, 0x07	; 7
    4e38:	8c 93       	st	X, r24
    4e3a:	17 97       	sbiw	r26, 0x07	; 7
    4e3c:	88 e1       	ldi	r24, 0x18	; 24
    4e3e:	14 96       	adiw	r26, 0x04	; 4
    4e40:	8c 93       	st	X, r24
    4e42:	14 97       	sbiw	r26, 0x04	; 4
    4e44:	81 e2       	ldi	r24, 0x21	; 33
    4e46:	13 96       	adiw	r26, 0x03	; 3
    4e48:	8c 93       	st	X, r24
    4e4a:	e0 e4       	ldi	r30, 0x40	; 64
    4e4c:	f6 e0       	ldi	r31, 0x06	; 6
    4e4e:	84 e0       	ldi	r24, 0x04	; 4
    4e50:	82 83       	std	Z+2, r24	; 0x02
    4e52:	88 e0       	ldi	r24, 0x08	; 8
    4e54:	81 83       	std	Z+1, r24	; 0x01
    4e56:	85 83       	std	Z+5, r24	; 0x05
    4e58:	81 e0       	ldi	r24, 0x01	; 1
    4e5a:	82 83       	std	Z+2, r24	; 0x02
    4e5c:	82 e0       	ldi	r24, 0x02	; 2
    4e5e:	81 83       	std	Z+1, r24	; 0x01
    4e60:	85 83       	std	Z+5, r24	; 0x05
    4e62:	08 95       	ret

00004e64 <xio_usb_control>:
    4e64:	ac 01       	movw	r20, r24
    4e66:	84 ff       	sbrs	r24, 4
    4e68:	05 c0       	rjmp	.+10     	; 0x4e74 <xio_usb_control+0x10>
    4e6a:	60 93 a7 21 	sts	0x21A7, r22
    4e6e:	70 93 a8 21 	sts	0x21A8, r23
    4e72:	8b c0       	rjmp	.+278    	; 0x4f8a <xio_usb_control+0x126>
    4e74:	85 ff       	sbrs	r24, 5
    4e76:	05 c0       	rjmp	.+10     	; 0x4e82 <xio_usb_control+0x1e>
    4e78:	60 93 a9 21 	sts	0x21A9, r22
    4e7c:	70 93 aa 21 	sts	0x21AA, r23
    4e80:	84 c0       	rjmp	.+264    	; 0x4f8a <xio_usb_control+0x126>
    4e82:	8f 70       	andi	r24, 0x0F	; 15
    4e84:	90 70       	andi	r25, 0x00	; 0
    4e86:	00 97       	sbiw	r24, 0x00	; 0
    4e88:	91 f0       	breq	.+36     	; 0x4eae <xio_usb_control+0x4a>
    4e8a:	a0 91 d4 21 	lds	r26, 0x21D4
    4e8e:	b0 91 d5 21 	lds	r27, 0x21D5
    4e92:	9c 01       	movw	r18, r24
    4e94:	2c 5d       	subi	r18, 0xDC	; 220
    4e96:	38 4f       	sbci	r19, 0xF8	; 248
    4e98:	f9 01       	movw	r30, r18
    4e9a:	24 91       	lpm	r18, Z+
    4e9c:	16 96       	adiw	r26, 0x06	; 6
    4e9e:	2c 93       	st	X, r18
    4ea0:	16 97       	sbiw	r26, 0x06	; 6
    4ea2:	81 5d       	subi	r24, 0xD1	; 209
    4ea4:	98 4f       	sbci	r25, 0xF8	; 248
    4ea6:	fc 01       	movw	r30, r24
    4ea8:	84 91       	lpm	r24, Z+
    4eaa:	17 96       	adiw	r26, 0x07	; 7
    4eac:	8c 93       	st	X, r24
    4eae:	46 ff       	sbrs	r20, 6
    4eb0:	09 c0       	rjmp	.+18     	; 0x4ec4 <xio_usb_control+0x60>
    4eb2:	80 91 9f 21 	lds	r24, 0x219F
    4eb6:	90 91 a0 21 	lds	r25, 0x21A0
    4eba:	84 60       	ori	r24, 0x04	; 4
    4ebc:	80 93 9f 21 	sts	0x219F, r24
    4ec0:	90 93 a0 21 	sts	0x21A0, r25
    4ec4:	47 ff       	sbrs	r20, 7
    4ec6:	09 c0       	rjmp	.+18     	; 0x4eda <xio_usb_control+0x76>
    4ec8:	80 91 9f 21 	lds	r24, 0x219F
    4ecc:	90 91 a0 21 	lds	r25, 0x21A0
    4ed0:	8b 7f       	andi	r24, 0xFB	; 251
    4ed2:	80 93 9f 21 	sts	0x219F, r24
    4ed6:	90 93 a0 21 	sts	0x21A0, r25
    4eda:	50 ff       	sbrs	r21, 0
    4edc:	09 c0       	rjmp	.+18     	; 0x4ef0 <xio_usb_control+0x8c>
    4ede:	80 91 9f 21 	lds	r24, 0x219F
    4ee2:	90 91 a0 21 	lds	r25, 0x21A0
    4ee6:	80 61       	ori	r24, 0x10	; 16
    4ee8:	80 93 9f 21 	sts	0x219F, r24
    4eec:	90 93 a0 21 	sts	0x21A0, r25
    4ef0:	51 ff       	sbrs	r21, 1
    4ef2:	09 c0       	rjmp	.+18     	; 0x4f06 <xio_usb_control+0xa2>
    4ef4:	80 91 9f 21 	lds	r24, 0x219F
    4ef8:	90 91 a0 21 	lds	r25, 0x21A0
    4efc:	8f 7e       	andi	r24, 0xEF	; 239
    4efe:	80 93 9f 21 	sts	0x219F, r24
    4f02:	90 93 a0 21 	sts	0x21A0, r25
    4f06:	52 ff       	sbrs	r21, 2
    4f08:	09 c0       	rjmp	.+18     	; 0x4f1c <xio_usb_control+0xb8>
    4f0a:	80 91 9f 21 	lds	r24, 0x219F
    4f0e:	90 91 a0 21 	lds	r25, 0x21A0
    4f12:	80 62       	ori	r24, 0x20	; 32
    4f14:	80 93 9f 21 	sts	0x219F, r24
    4f18:	90 93 a0 21 	sts	0x21A0, r25
    4f1c:	53 ff       	sbrs	r21, 3
    4f1e:	09 c0       	rjmp	.+18     	; 0x4f32 <xio_usb_control+0xce>
    4f20:	80 91 9f 21 	lds	r24, 0x219F
    4f24:	90 91 a0 21 	lds	r25, 0x21A0
    4f28:	8f 7d       	andi	r24, 0xDF	; 223
    4f2a:	80 93 9f 21 	sts	0x219F, r24
    4f2e:	90 93 a0 21 	sts	0x21A0, r25
    4f32:	54 ff       	sbrs	r21, 4
    4f34:	09 c0       	rjmp	.+18     	; 0x4f48 <xio_usb_control+0xe4>
    4f36:	80 91 9f 21 	lds	r24, 0x219F
    4f3a:	90 91 a0 21 	lds	r25, 0x21A0
    4f3e:	80 64       	ori	r24, 0x40	; 64
    4f40:	80 93 9f 21 	sts	0x219F, r24
    4f44:	90 93 a0 21 	sts	0x21A0, r25
    4f48:	55 ff       	sbrs	r21, 5
    4f4a:	09 c0       	rjmp	.+18     	; 0x4f5e <xio_usb_control+0xfa>
    4f4c:	80 91 9f 21 	lds	r24, 0x219F
    4f50:	90 91 a0 21 	lds	r25, 0x21A0
    4f54:	8f 7b       	andi	r24, 0xBF	; 191
    4f56:	80 93 9f 21 	sts	0x219F, r24
    4f5a:	90 93 a0 21 	sts	0x21A0, r25
    4f5e:	56 ff       	sbrs	r21, 6
    4f60:	09 c0       	rjmp	.+18     	; 0x4f74 <xio_usb_control+0x110>
    4f62:	80 91 9f 21 	lds	r24, 0x219F
    4f66:	90 91 a0 21 	lds	r25, 0x21A0
    4f6a:	80 68       	ori	r24, 0x80	; 128
    4f6c:	80 93 9f 21 	sts	0x219F, r24
    4f70:	90 93 a0 21 	sts	0x21A0, r25
    4f74:	57 ff       	sbrs	r21, 7
    4f76:	09 c0       	rjmp	.+18     	; 0x4f8a <xio_usb_control+0x126>
    4f78:	80 91 9f 21 	lds	r24, 0x219F
    4f7c:	90 91 a0 21 	lds	r25, 0x21A0
    4f80:	8f 77       	andi	r24, 0x7F	; 127
    4f82:	80 93 9f 21 	sts	0x219F, r24
    4f86:	90 93 a0 21 	sts	0x21A0, r25
    4f8a:	80 e0       	ldi	r24, 0x00	; 0
    4f8c:	08 95       	ret

00004f8e <__vector_25>:
    4f8e:	1f 92       	push	r1
    4f90:	0f 92       	push	r0
    4f92:	0f b6       	in	r0, 0x3f	; 63
    4f94:	0f 92       	push	r0
    4f96:	0b b6       	in	r0, 0x3b	; 59
    4f98:	0f 92       	push	r0
    4f9a:	11 24       	eor	r1, r1
    4f9c:	8f 93       	push	r24
    4f9e:	9f 93       	push	r25
    4fa0:	af 93       	push	r26
    4fa2:	bf 93       	push	r27
    4fa4:	ef 93       	push	r30
    4fa6:	ff 93       	push	r31
    4fa8:	80 91 ac 21 	lds	r24, 0x21AC
    4fac:	81 50       	subi	r24, 0x01	; 1
    4fae:	80 93 ac 21 	sts	0x21AC, r24
    4fb2:	80 91 ac 21 	lds	r24, 0x21AC
    4fb6:	88 23       	and	r24, r24
    4fb8:	19 f4       	brne	.+6      	; 0x4fc0 <__vector_25+0x32>
    4fba:	81 e1       	ldi	r24, 0x11	; 17
    4fbc:	80 93 ac 21 	sts	0x21AC, r24
    4fc0:	90 91 ac 21 	lds	r25, 0x21AC
    4fc4:	80 91 ab 21 	lds	r24, 0x21AB
    4fc8:	98 17       	cp	r25, r24
    4fca:	61 f0       	breq	.+24     	; 0x4fe4 <__vector_25+0x56>
    4fcc:	e0 91 ac 21 	lds	r30, 0x21AC
    4fd0:	f0 e0       	ldi	r31, 0x00	; 0
    4fd2:	a0 91 d4 21 	lds	r26, 0x21D4
    4fd6:	b0 91 d5 21 	lds	r27, 0x21D5
    4fda:	8c 91       	ld	r24, X
    4fdc:	e1 56       	subi	r30, 0x61	; 97
    4fde:	fe 4d       	sbci	r31, 0xDE	; 222
    4fe0:	81 8b       	std	Z+17, r24	; 0x11
    4fe2:	0c c0       	rjmp	.+24     	; 0x4ffc <__vector_25+0x6e>
    4fe4:	80 91 ac 21 	lds	r24, 0x21AC
    4fe8:	8f 5f       	subi	r24, 0xFF	; 255
    4fea:	80 93 ac 21 	sts	0x21AC, r24
    4fee:	80 91 ac 21 	lds	r24, 0x21AC
    4ff2:	82 31       	cpi	r24, 0x12	; 18
    4ff4:	18 f0       	brcs	.+6      	; 0x4ffc <__vector_25+0x6e>
    4ff6:	81 e0       	ldi	r24, 0x01	; 1
    4ff8:	80 93 ac 21 	sts	0x21AC, r24
    4ffc:	ff 91       	pop	r31
    4ffe:	ef 91       	pop	r30
    5000:	bf 91       	pop	r27
    5002:	af 91       	pop	r26
    5004:	9f 91       	pop	r25
    5006:	8f 91       	pop	r24
    5008:	0f 90       	pop	r0
    500a:	0b be       	out	0x3b, r0	; 59
    500c:	0f 90       	pop	r0
    500e:	0f be       	out	0x3f, r0	; 63
    5010:	0f 90       	pop	r0
    5012:	1f 90       	pop	r1
    5014:	18 95       	reti

00005016 <xio_usb_queue_RX_char>:
    5016:	28 2f       	mov	r18, r24
    5018:	80 91 ac 21 	lds	r24, 0x21AC
    501c:	81 50       	subi	r24, 0x01	; 1
    501e:	80 93 ac 21 	sts	0x21AC, r24
    5022:	80 91 ac 21 	lds	r24, 0x21AC
    5026:	88 23       	and	r24, r24
    5028:	19 f4       	brne	.+6      	; 0x5030 <xio_usb_queue_RX_char+0x1a>
    502a:	81 e1       	ldi	r24, 0x11	; 17
    502c:	80 93 ac 21 	sts	0x21AC, r24
    5030:	90 91 ac 21 	lds	r25, 0x21AC
    5034:	80 91 ab 21 	lds	r24, 0x21AB
    5038:	98 17       	cp	r25, r24
    503a:	39 f0       	breq	.+14     	; 0x504a <xio_usb_queue_RX_char+0x34>
    503c:	e0 91 ac 21 	lds	r30, 0x21AC
    5040:	f0 e0       	ldi	r31, 0x00	; 0
    5042:	e1 56       	subi	r30, 0x61	; 97
    5044:	fe 4d       	sbci	r31, 0xDE	; 222
    5046:	21 8b       	std	Z+17, r18	; 0x11
    5048:	08 95       	ret
    504a:	80 91 ac 21 	lds	r24, 0x21AC
    504e:	8f 5f       	subi	r24, 0xFF	; 255
    5050:	80 93 ac 21 	sts	0x21AC, r24
    5054:	80 91 ac 21 	lds	r24, 0x21AC
    5058:	82 31       	cpi	r24, 0x12	; 18
    505a:	18 f0       	brcs	.+6      	; 0x5062 <xio_usb_queue_RX_char+0x4c>
    505c:	81 e0       	ldi	r24, 0x01	; 1
    505e:	80 93 ac 21 	sts	0x21AC, r24
    5062:	08 95       	ret

00005064 <xio_usb_queue_RX_string>:
    5064:	1f 93       	push	r17
    5066:	cf 93       	push	r28
    5068:	df 93       	push	r29
    506a:	ec 01       	movw	r28, r24
    506c:	10 e0       	ldi	r17, 0x00	; 0
    506e:	02 c0       	rjmp	.+4      	; 0x5074 <xio_usb_queue_RX_string+0x10>
    5070:	0e 94 0b 28 	call	0x5016	; 0x5016 <xio_usb_queue_RX_char>
    5074:	fe 01       	movw	r30, r28
    5076:	e1 0f       	add	r30, r17
    5078:	f1 1d       	adc	r31, r1
    507a:	80 81       	ld	r24, Z
    507c:	1f 5f       	subi	r17, 0xFF	; 255
    507e:	88 23       	and	r24, r24
    5080:	b9 f7       	brne	.-18     	; 0x5070 <xio_usb_queue_RX_string+0xc>
    5082:	df 91       	pop	r29
    5084:	cf 91       	pop	r28
    5086:	1f 91       	pop	r17
    5088:	08 95       	ret

0000508a <__vector_26>:
    508a:	1f 92       	push	r1
    508c:	0f 92       	push	r0
    508e:	0f b6       	in	r0, 0x3f	; 63
    5090:	0f 92       	push	r0
    5092:	0b b6       	in	r0, 0x3b	; 59
    5094:	0f 92       	push	r0
    5096:	11 24       	eor	r1, r1
    5098:	8f 93       	push	r24
    509a:	9f 93       	push	r25
    509c:	af 93       	push	r26
    509e:	bf 93       	push	r27
    50a0:	ef 93       	push	r30
    50a2:	ff 93       	push	r31
    50a4:	90 91 ae 21 	lds	r25, 0x21AE
    50a8:	80 91 ad 21 	lds	r24, 0x21AD
    50ac:	98 17       	cp	r25, r24
    50ae:	39 f4       	brne	.+14     	; 0x50be <__vector_26+0x34>
    50b0:	e0 91 d4 21 	lds	r30, 0x21D4
    50b4:	f0 91 d5 21 	lds	r31, 0x21D5
    50b8:	80 e2       	ldi	r24, 0x20	; 32
    50ba:	83 83       	std	Z+3, r24	; 0x03
    50bc:	1e c0       	rjmp	.+60     	; 0x50fa <__vector_26+0x70>
    50be:	80 91 9f 21 	lds	r24, 0x219F
    50c2:	90 91 a0 21 	lds	r25, 0x21A0
    50c6:	93 fd       	sbrc	r25, 3
    50c8:	18 c0       	rjmp	.+48     	; 0x50fa <__vector_26+0x70>
    50ca:	80 91 ad 21 	lds	r24, 0x21AD
    50ce:	81 50       	subi	r24, 0x01	; 1
    50d0:	80 93 ad 21 	sts	0x21AD, r24
    50d4:	80 91 ad 21 	lds	r24, 0x21AD
    50d8:	88 23       	and	r24, r24
    50da:	19 f4       	brne	.+6      	; 0x50e2 <__vector_26+0x58>
    50dc:	81 e1       	ldi	r24, 0x11	; 17
    50de:	80 93 ad 21 	sts	0x21AD, r24
    50e2:	e0 91 d4 21 	lds	r30, 0x21D4
    50e6:	f0 91 d5 21 	lds	r31, 0x21D5
    50ea:	a0 91 ad 21 	lds	r26, 0x21AD
    50ee:	b0 e0       	ldi	r27, 0x00	; 0
    50f0:	a1 56       	subi	r26, 0x61	; 97
    50f2:	be 4d       	sbci	r27, 0xDE	; 222
    50f4:	93 96       	adiw	r26, 0x23	; 35
    50f6:	8c 91       	ld	r24, X
    50f8:	80 83       	st	Z, r24
    50fa:	ff 91       	pop	r31
    50fc:	ef 91       	pop	r30
    50fe:	bf 91       	pop	r27
    5100:	af 91       	pop	r26
    5102:	9f 91       	pop	r25
    5104:	8f 91       	pop	r24
    5106:	0f 90       	pop	r0
    5108:	0b be       	out	0x3b, r0	; 59
    510a:	0f 90       	pop	r0
    510c:	0f be       	out	0x3f, r0	; 63
    510e:	0f 90       	pop	r0
    5110:	1f 90       	pop	r1
    5112:	18 95       	reti

00005114 <xio_usb_putc>:
    5114:	48 2f       	mov	r20, r24
    5116:	20 91 9f 21 	lds	r18, 0x219F
    511a:	30 91 a0 21 	lds	r19, 0x21A0
    511e:	d9 01       	movw	r26, r18
    5120:	a4 70       	andi	r26, 0x04	; 4
    5122:	b0 70       	andi	r27, 0x00	; 0
    5124:	b9 01       	movw	r22, r18
    5126:	60 72       	andi	r22, 0x20	; 32
    5128:	70 70       	andi	r23, 0x00	; 0
    512a:	90 91 ae 21 	lds	r25, 0x21AE
    512e:	91 50       	subi	r25, 0x01	; 1
    5130:	c1 f4       	brne	.+48     	; 0x5162 <xio_usb_putc+0x4e>
    5132:	91 e1       	ldi	r25, 0x11	; 17
    5134:	16 c0       	rjmp	.+44     	; 0x5162 <xio_usb_putc+0x4e>
    5136:	10 97       	sbiw	r26, 0x00	; 0
    5138:	61 f0       	breq	.+24     	; 0x5152 <xio_usb_putc+0x3e>
    513a:	80 91 48 00 	lds	r24, 0x0048
    513e:	81 60       	ori	r24, 0x01	; 1
    5140:	80 93 48 00 	sts	0x0048, r24
    5144:	88 95       	sleep
    5146:	80 91 48 00 	lds	r24, 0x0048
    514a:	8e 7f       	andi	r24, 0xFE	; 254
    514c:	80 93 48 00 	sts	0x0048, r24
    5150:	08 c0       	rjmp	.+16     	; 0x5162 <xio_usb_putc+0x4e>
    5152:	90 93 af 21 	sts	0x21AF, r25
    5156:	83 e0       	ldi	r24, 0x03	; 3
    5158:	80 93 a1 21 	sts	0x21A1, r24
    515c:	2f ef       	ldi	r18, 0xFF	; 255
    515e:	3f ef       	ldi	r19, 0xFF	; 255
    5160:	54 c0       	rjmp	.+168    	; 0x520a <xio_usb_putc+0xf6>
    5162:	80 91 ad 21 	lds	r24, 0x21AD
    5166:	98 17       	cp	r25, r24
    5168:	31 f3       	breq	.-52     	; 0x5136 <xio_usb_putc+0x22>
    516a:	90 93 ae 21 	sts	0x21AE, r25
    516e:	e0 91 ae 21 	lds	r30, 0x21AE
    5172:	f0 e0       	ldi	r31, 0x00	; 0
    5174:	e1 56       	subi	r30, 0x61	; 97
    5176:	fe 4d       	sbci	r31, 0xDE	; 222
    5178:	43 a3       	std	Z+35, r20	; 0x23
    517a:	61 15       	cp	r22, r1
    517c:	71 05       	cpc	r23, r1
    517e:	21 f0       	breq	.+8      	; 0x5188 <xio_usb_putc+0x74>
    5180:	4a 30       	cpi	r20, 0x0A	; 10
    5182:	11 f4       	brne	.+4      	; 0x5188 <xio_usb_putc+0x74>
    5184:	4d e0       	ldi	r20, 0x0D	; 13
    5186:	d1 cf       	rjmp	.-94     	; 0x512a <xio_usb_putc+0x16>
    5188:	90 93 af 21 	sts	0x21AF, r25
    518c:	a0 91 d4 21 	lds	r26, 0x21D4
    5190:	b0 91 d5 21 	lds	r27, 0x21D5
    5194:	11 96       	adiw	r26, 0x01	; 1
    5196:	8c 91       	ld	r24, X
    5198:	11 97       	sbiw	r26, 0x01	; 1
    519a:	85 ff       	sbrs	r24, 5
    519c:	27 c0       	rjmp	.+78     	; 0x51ec <xio_usb_putc+0xd8>
    519e:	90 91 ae 21 	lds	r25, 0x21AE
    51a2:	80 91 ad 21 	lds	r24, 0x21AD
    51a6:	98 17       	cp	r25, r24
    51a8:	71 f1       	breq	.+92     	; 0x5206 <xio_usb_putc+0xf2>
    51aa:	38 60       	ori	r19, 0x08	; 8
    51ac:	20 93 9f 21 	sts	0x219F, r18
    51b0:	30 93 a0 21 	sts	0x21A0, r19
    51b4:	80 91 ad 21 	lds	r24, 0x21AD
    51b8:	81 50       	subi	r24, 0x01	; 1
    51ba:	80 93 ad 21 	sts	0x21AD, r24
    51be:	80 91 ad 21 	lds	r24, 0x21AD
    51c2:	88 23       	and	r24, r24
    51c4:	19 f4       	brne	.+6      	; 0x51cc <xio_usb_putc+0xb8>
    51c6:	81 e1       	ldi	r24, 0x11	; 17
    51c8:	80 93 ad 21 	sts	0x21AD, r24
    51cc:	e0 91 ad 21 	lds	r30, 0x21AD
    51d0:	f0 e0       	ldi	r31, 0x00	; 0
    51d2:	e1 56       	subi	r30, 0x61	; 97
    51d4:	fe 4d       	sbci	r31, 0xDE	; 222
    51d6:	83 a1       	ldd	r24, Z+35	; 0x23
    51d8:	8c 93       	st	X, r24
    51da:	80 91 9f 21 	lds	r24, 0x219F
    51de:	90 91 a0 21 	lds	r25, 0x21A0
    51e2:	97 7f       	andi	r25, 0xF7	; 247
    51e4:	80 93 9f 21 	sts	0x219F, r24
    51e8:	90 93 a0 21 	sts	0x21A0, r25
    51ec:	e0 91 d4 21 	lds	r30, 0x21D4
    51f0:	f0 91 d5 21 	lds	r31, 0x21D5
    51f4:	81 e2       	ldi	r24, 0x21	; 33
    51f6:	83 83       	std	Z+3, r24	; 0x03
    51f8:	80 91 a2 00 	lds	r24, 0x00A2
    51fc:	81 60       	ori	r24, 0x01	; 1
    51fe:	e0 ea       	ldi	r30, 0xA0	; 160
    5200:	f0 e0       	ldi	r31, 0x00	; 0
    5202:	82 83       	std	Z+2, r24	; 0x02
    5204:	78 94       	sei
    5206:	20 e0       	ldi	r18, 0x00	; 0
    5208:	30 e0       	ldi	r19, 0x00	; 0
    520a:	c9 01       	movw	r24, r18
    520c:	08 95       	ret

0000520e <xio_usb_getc>:
    520e:	20 91 9f 21 	lds	r18, 0x219F
    5212:	30 91 a0 21 	lds	r19, 0x21A0
    5216:	24 70       	andi	r18, 0x04	; 4
    5218:	30 70       	andi	r19, 0x00	; 0
    521a:	15 c0       	rjmp	.+42     	; 0x5246 <xio_usb_getc+0x38>
    521c:	21 15       	cp	r18, r1
    521e:	31 05       	cpc	r19, r1
    5220:	61 f0       	breq	.+24     	; 0x523a <xio_usb_getc+0x2c>
    5222:	80 91 48 00 	lds	r24, 0x0048
    5226:	81 60       	ori	r24, 0x01	; 1
    5228:	80 93 48 00 	sts	0x0048, r24
    522c:	88 95       	sleep
    522e:	80 91 48 00 	lds	r24, 0x0048
    5232:	8e 7f       	andi	r24, 0xFE	; 254
    5234:	80 93 48 00 	sts	0x0048, r24
    5238:	06 c0       	rjmp	.+12     	; 0x5246 <xio_usb_getc+0x38>
    523a:	83 e0       	ldi	r24, 0x03	; 3
    523c:	80 93 a1 21 	sts	0x21A1, r24
    5240:	2f ef       	ldi	r18, 0xFF	; 255
    5242:	3f ef       	ldi	r19, 0xFF	; 255
    5244:	26 c0       	rjmp	.+76     	; 0x5292 <xio_usb_getc+0x84>
    5246:	90 91 ac 21 	lds	r25, 0x21AC
    524a:	80 91 ab 21 	lds	r24, 0x21AB
    524e:	98 17       	cp	r25, r24
    5250:	29 f3       	breq	.-54     	; 0x521c <xio_usb_getc+0xe>
    5252:	80 91 ab 21 	lds	r24, 0x21AB
    5256:	81 50       	subi	r24, 0x01	; 1
    5258:	80 93 ab 21 	sts	0x21AB, r24
    525c:	80 91 ab 21 	lds	r24, 0x21AB
    5260:	88 23       	and	r24, r24
    5262:	19 f4       	brne	.+6      	; 0x526a <xio_usb_getc+0x5c>
    5264:	81 e1       	ldi	r24, 0x11	; 17
    5266:	80 93 ab 21 	sts	0x21AB, r24
    526a:	e0 91 ab 21 	lds	r30, 0x21AB
    526e:	f0 e0       	ldi	r31, 0x00	; 0
    5270:	e1 56       	subi	r30, 0x61	; 97
    5272:	fe 4d       	sbci	r31, 0xDE	; 222
    5274:	81 89       	ldd	r24, Z+17	; 0x11
    5276:	8f 77       	andi	r24, 0x7F	; 127
    5278:	80 93 a2 21 	sts	0x21A2, r24
    527c:	90 e0       	ldi	r25, 0x00	; 0
    527e:	88 0f       	add	r24, r24
    5280:	99 1f       	adc	r25, r25
    5282:	8a 59       	subi	r24, 0x9A	; 154
    5284:	97 4f       	sbci	r25, 0xF7	; 247
    5286:	fc 01       	movw	r30, r24
    5288:	25 91       	lpm	r18, Z+
    528a:	34 91       	lpm	r19, Z+
    528c:	f9 01       	movw	r30, r18
    528e:	19 95       	eicall
    5290:	9c 01       	movw	r18, r24
    5292:	c9 01       	movw	r24, r18
    5294:	08 95       	ret

00005296 <_getc_char>:
    5296:	80 91 9f 21 	lds	r24, 0x219F
    529a:	84 ff       	sbrs	r24, 4
    529c:	08 c0       	rjmp	.+16     	; 0x52ae <_getc_char+0x18>
    529e:	60 91 0e 25 	lds	r22, 0x250E
    52a2:	70 91 0f 25 	lds	r23, 0x250F
    52a6:	80 91 a2 21 	lds	r24, 0x21A2
    52aa:	0e 94 8a 28 	call	0x5114	; 0x5114 <xio_usb_putc>
    52ae:	80 91 a2 21 	lds	r24, 0x21A2
    52b2:	90 e0       	ldi	r25, 0x00	; 0
    52b4:	08 95       	ret

000052b6 <_getc_NEWLINE>:
    52b6:	90 91 9f 21 	lds	r25, 0x219F
    52ba:	96 ff       	sbrs	r25, 6
    52bc:	03 c0       	rjmp	.+6      	; 0x52c4 <_getc_NEWLINE+0xe>
    52be:	8a e0       	ldi	r24, 0x0A	; 10
    52c0:	80 93 a2 21 	sts	0x21A2, r24
    52c4:	94 ff       	sbrs	r25, 4
    52c6:	08 c0       	rjmp	.+16     	; 0x52d8 <_getc_NEWLINE+0x22>
    52c8:	60 91 0e 25 	lds	r22, 0x250E
    52cc:	70 91 0f 25 	lds	r23, 0x250F
    52d0:	80 91 a2 21 	lds	r24, 0x21A2
    52d4:	0e 94 8a 28 	call	0x5114	; 0x5114 <xio_usb_putc>
    52d8:	80 91 a2 21 	lds	r24, 0x21A2
    52dc:	90 e0       	ldi	r25, 0x00	; 0
    52de:	08 95       	ret

000052e0 <_getc_SEMICOLON>:
    52e0:	80 91 9f 21 	lds	r24, 0x219F
    52e4:	87 ff       	sbrs	r24, 7
    52e6:	03 c0       	rjmp	.+6      	; 0x52ee <_getc_SEMICOLON+0xe>
    52e8:	0e 94 5b 29 	call	0x52b6	; 0x52b6 <_getc_NEWLINE>
    52ec:	08 95       	ret
    52ee:	0e 94 4b 29 	call	0x5296	; 0x5296 <_getc_char>
    52f2:	08 95       	ret

000052f4 <_getc_DELETE>:
    52f4:	8a e0       	ldi	r24, 0x0A	; 10
    52f6:	80 93 a1 21 	sts	0x21A1, r24
    52fa:	8f ef       	ldi	r24, 0xFF	; 255
    52fc:	9f ef       	ldi	r25, 0xFF	; 255
    52fe:	08 95       	ret

00005300 <_getc_KILL>:
    5300:	84 e0       	ldi	r24, 0x04	; 4
    5302:	80 93 a1 21 	sts	0x21A1, r24
    5306:	8f ef       	ldi	r24, 0xFF	; 255
    5308:	9f ef       	ldi	r25, 0xFF	; 255
    530a:	08 95       	ret

0000530c <_getc_PAUSE>:
    530c:	86 e0       	ldi	r24, 0x06	; 6
    530e:	80 93 a1 21 	sts	0x21A1, r24
    5312:	8f ef       	ldi	r24, 0xFF	; 255
    5314:	9f ef       	ldi	r25, 0xFF	; 255
    5316:	08 95       	ret

00005318 <_getc_RESUME>:
    5318:	87 e0       	ldi	r24, 0x07	; 7
    531a:	80 93 a1 21 	sts	0x21A1, r24
    531e:	8f ef       	ldi	r24, 0xFF	; 255
    5320:	9f ef       	ldi	r25, 0xFF	; 255
    5322:	08 95       	ret

00005324 <_getc_SHIFTOUT>:
    5324:	88 e0       	ldi	r24, 0x08	; 8
    5326:	80 93 a1 21 	sts	0x21A1, r24
    532a:	8f ef       	ldi	r24, 0xFF	; 255
    532c:	9f ef       	ldi	r25, 0xFF	; 255
    532e:	08 95       	ret

00005330 <_getc_SHIFTIN>:
    5330:	89 e0       	ldi	r24, 0x09	; 9
    5332:	80 93 a1 21 	sts	0x21A1, r24
    5336:	8f ef       	ldi	r24, 0xFF	; 255
    5338:	9f ef       	ldi	r25, 0xFF	; 255
    533a:	08 95       	ret

0000533c <xio_usb_readln>:
    533c:	20 91 9f 21 	lds	r18, 0x219F
    5340:	30 91 a0 21 	lds	r19, 0x21A0
    5344:	36 fd       	sbrc	r19, 6
    5346:	0d c0       	rjmp	.+26     	; 0x5362 <xio_usb_readln+0x26>
    5348:	10 92 a3 21 	sts	0x21A3, r1
    534c:	60 93 a4 21 	sts	0x21A4, r22
    5350:	80 93 a5 21 	sts	0x21A5, r24
    5354:	90 93 a6 21 	sts	0x21A6, r25
    5358:	30 64       	ori	r19, 0x40	; 64
    535a:	20 93 9f 21 	sts	0x219F, r18
    535e:	30 93 a0 21 	sts	0x21A0, r19
    5362:	90 91 ac 21 	lds	r25, 0x21AC
    5366:	80 91 ab 21 	lds	r24, 0x21AB
    536a:	98 17       	cp	r25, r24
    536c:	19 f4       	brne	.+6      	; 0x5374 <xio_usb_readln+0x38>
    536e:	22 e0       	ldi	r18, 0x02	; 2
    5370:	30 e0       	ldi	r19, 0x00	; 0
    5372:	20 c0       	rjmp	.+64     	; 0x53b4 <xio_usb_readln+0x78>
    5374:	80 91 ab 21 	lds	r24, 0x21AB
    5378:	81 50       	subi	r24, 0x01	; 1
    537a:	80 93 ab 21 	sts	0x21AB, r24
    537e:	80 91 ab 21 	lds	r24, 0x21AB
    5382:	88 23       	and	r24, r24
    5384:	19 f4       	brne	.+6      	; 0x538c <xio_usb_readln+0x50>
    5386:	81 e1       	ldi	r24, 0x11	; 17
    5388:	80 93 ab 21 	sts	0x21AB, r24
    538c:	e0 91 ab 21 	lds	r30, 0x21AB
    5390:	f0 e0       	ldi	r31, 0x00	; 0
    5392:	e1 56       	subi	r30, 0x61	; 97
    5394:	fe 4d       	sbci	r31, 0xDE	; 222
    5396:	81 89       	ldd	r24, Z+17	; 0x11
    5398:	8f 77       	andi	r24, 0x7F	; 127
    539a:	80 93 a2 21 	sts	0x21A2, r24
    539e:	90 e0       	ldi	r25, 0x00	; 0
    53a0:	88 0f       	add	r24, r24
    53a2:	99 1f       	adc	r25, r25
    53a4:	8a 59       	subi	r24, 0x9A	; 154
    53a6:	98 4f       	sbci	r25, 0xF8	; 248
    53a8:	fc 01       	movw	r30, r24
    53aa:	25 91       	lpm	r18, Z+
    53ac:	34 91       	lpm	r19, Z+
    53ae:	f9 01       	movw	r30, r18
    53b0:	19 95       	eicall
    53b2:	9c 01       	movw	r18, r24
    53b4:	c9 01       	movw	r24, r18
    53b6:	08 95       	ret

000053b8 <_readln_char>:
    53b8:	90 91 a3 21 	lds	r25, 0x21A3
    53bc:	20 91 a4 21 	lds	r18, 0x21A4
    53c0:	e0 91 a5 21 	lds	r30, 0x21A5
    53c4:	f0 91 a6 21 	lds	r31, 0x21A6
    53c8:	29 17       	cp	r18, r25
    53ca:	48 f4       	brcc	.+18     	; 0x53de <_readln_char+0x26>
    53cc:	81 e0       	ldi	r24, 0x01	; 1
    53ce:	80 93 a1 21 	sts	0x21A1, r24
    53d2:	e2 0f       	add	r30, r18
    53d4:	f1 1d       	adc	r31, r1
    53d6:	10 82       	st	Z, r1
    53d8:	26 e0       	ldi	r18, 0x06	; 6
    53da:	30 e0       	ldi	r19, 0x00	; 0
    53dc:	16 c0       	rjmp	.+44     	; 0x540a <_readln_char+0x52>
    53de:	e9 0f       	add	r30, r25
    53e0:	f1 1d       	adc	r31, r1
    53e2:	80 91 a2 21 	lds	r24, 0x21A2
    53e6:	80 83       	st	Z, r24
    53e8:	9f 5f       	subi	r25, 0xFF	; 255
    53ea:	90 93 a3 21 	sts	0x21A3, r25
    53ee:	80 91 9f 21 	lds	r24, 0x219F
    53f2:	84 ff       	sbrs	r24, 4
    53f4:	08 c0       	rjmp	.+16     	; 0x5406 <_readln_char+0x4e>
    53f6:	60 91 0e 25 	lds	r22, 0x250E
    53fa:	70 91 0f 25 	lds	r23, 0x250F
    53fe:	80 91 a2 21 	lds	r24, 0x21A2
    5402:	0e 94 8a 28 	call	0x5114	; 0x5114 <xio_usb_putc>
    5406:	22 e0       	ldi	r18, 0x02	; 2
    5408:	30 e0       	ldi	r19, 0x00	; 0
    540a:	c9 01       	movw	r24, r18
    540c:	08 95       	ret

0000540e <_readln_NEWLINE>:
    540e:	81 e0       	ldi	r24, 0x01	; 1
    5410:	80 93 a1 21 	sts	0x21A1, r24
    5414:	80 91 a3 21 	lds	r24, 0x21A3
    5418:	e0 91 a5 21 	lds	r30, 0x21A5
    541c:	f0 91 a6 21 	lds	r31, 0x21A6
    5420:	e8 0f       	add	r30, r24
    5422:	f1 1d       	adc	r31, r1
    5424:	10 82       	st	Z, r1
    5426:	20 91 9f 21 	lds	r18, 0x219F
    542a:	30 91 a0 21 	lds	r19, 0x21A0
    542e:	c9 01       	movw	r24, r18
    5430:	9f 7b       	andi	r25, 0xBF	; 191
    5432:	80 93 9f 21 	sts	0x219F, r24
    5436:	90 93 a0 21 	sts	0x21A0, r25
    543a:	24 ff       	sbrs	r18, 4
    543c:	07 c0       	rjmp	.+14     	; 0x544c <_readln_NEWLINE+0x3e>
    543e:	60 91 0e 25 	lds	r22, 0x250E
    5442:	70 91 0f 25 	lds	r23, 0x250F
    5446:	8a e0       	ldi	r24, 0x0A	; 10
    5448:	0e 94 8a 28 	call	0x5114	; 0x5114 <xio_usb_putc>
    544c:	e0 91 a9 21 	lds	r30, 0x21A9
    5450:	f0 91 aa 21 	lds	r31, 0x21AA
    5454:	80 91 a5 21 	lds	r24, 0x21A5
    5458:	90 91 a6 21 	lds	r25, 0x21A6
    545c:	19 95       	eicall
    545e:	08 95       	ret

00005460 <_readln_SEMICOLON>:
    5460:	80 91 9f 21 	lds	r24, 0x219F
    5464:	87 ff       	sbrs	r24, 7
    5466:	03 c0       	rjmp	.+6      	; 0x546e <_readln_SEMICOLON+0xe>
    5468:	0e 94 07 2a 	call	0x540e	; 0x540e <_readln_NEWLINE>
    546c:	08 95       	ret
    546e:	0e 94 dc 29 	call	0x53b8	; 0x53b8 <_readln_char>
    5472:	08 95       	ret

00005474 <_readln_DELETE>:
    5474:	80 91 a3 21 	lds	r24, 0x21A3
    5478:	81 50       	subi	r24, 0x01	; 1
    547a:	80 93 a3 21 	sts	0x21A3, r24
    547e:	80 91 9f 21 	lds	r24, 0x219F
    5482:	84 ff       	sbrs	r24, 4
    5484:	08 c0       	rjmp	.+16     	; 0x5496 <_readln_DELETE+0x22>
    5486:	60 91 0e 25 	lds	r22, 0x250E
    548a:	70 91 0f 25 	lds	r23, 0x250F
    548e:	80 91 a2 21 	lds	r24, 0x21A2
    5492:	0e 94 8a 28 	call	0x5114	; 0x5114 <xio_usb_putc>
    5496:	82 e0       	ldi	r24, 0x02	; 2
    5498:	90 e0       	ldi	r25, 0x00	; 0
    549a:	08 95       	ret

0000549c <_readln_KILL>:
    549c:	84 e0       	ldi	r24, 0x04	; 4
    549e:	80 93 a1 21 	sts	0x21A1, r24
    54a2:	e0 91 a7 21 	lds	r30, 0x21A7
    54a6:	f0 91 a8 21 	lds	r31, 0x21A8
    54aa:	19 95       	eicall
    54ac:	08 95       	ret

000054ae <_readln_PAUSE>:
    54ae:	86 e0       	ldi	r24, 0x06	; 6
    54b0:	80 93 a1 21 	sts	0x21A1, r24
    54b4:	e0 91 a7 21 	lds	r30, 0x21A7
    54b8:	f0 91 a8 21 	lds	r31, 0x21A8
    54bc:	19 95       	eicall
    54be:	08 95       	ret

000054c0 <_readln_RESUME>:
    54c0:	87 e0       	ldi	r24, 0x07	; 7
    54c2:	80 93 a1 21 	sts	0x21A1, r24
    54c6:	e0 91 a7 21 	lds	r30, 0x21A7
    54ca:	f0 91 a8 21 	lds	r31, 0x21A8
    54ce:	19 95       	eicall
    54d0:	08 95       	ret

000054d2 <_readln_SHIFTOUT>:
    54d2:	88 e0       	ldi	r24, 0x08	; 8
    54d4:	80 93 a1 21 	sts	0x21A1, r24
    54d8:	e0 91 a7 21 	lds	r30, 0x21A7
    54dc:	f0 91 a8 21 	lds	r31, 0x21A8
    54e0:	19 95       	eicall
    54e2:	08 95       	ret

000054e4 <_readln_SHIFTIN>:
    54e4:	89 e0       	ldi	r24, 0x09	; 9
    54e6:	80 93 a1 21 	sts	0x21A1, r24
    54ea:	e0 91 a7 21 	lds	r30, 0x21A7
    54ee:	f0 91 a8 21 	lds	r31, 0x21A8
    54f2:	19 95       	eicall
    54f4:	08 95       	ret

000054f6 <EEPROM_ReadByte>:
    54f6:	98 2f       	mov	r25, r24
    54f8:	e0 ec       	ldi	r30, 0xC0	; 192
    54fa:	f1 e0       	ldi	r31, 0x01	; 1
    54fc:	80 91 cf 01 	lds	r24, 0x01CF
    5500:	87 fd       	sbrc	r24, 7
    5502:	fa cf       	rjmp	.-12     	; 0x54f8 <EEPROM_ReadByte+0x2>
    5504:	26 2f       	mov	r18, r22
    5506:	30 e0       	ldi	r19, 0x00	; 0
    5508:	2f 71       	andi	r18, 0x1F	; 31
    550a:	30 70       	andi	r19, 0x00	; 0
    550c:	89 2f       	mov	r24, r25
    550e:	90 e0       	ldi	r25, 0x00	; 0
    5510:	45 e0       	ldi	r20, 0x05	; 5
    5512:	88 0f       	add	r24, r24
    5514:	99 1f       	adc	r25, r25
    5516:	4a 95       	dec	r20
    5518:	e1 f7       	brne	.-8      	; 0x5512 <EEPROM_ReadByte+0x1c>
    551a:	28 2b       	or	r18, r24
    551c:	39 2b       	or	r19, r25
    551e:	20 93 c0 01 	sts	0x01C0, r18
    5522:	83 2f       	mov	r24, r19
    5524:	8f 71       	andi	r24, 0x1F	; 31
    5526:	81 83       	std	Z+1, r24	; 0x01
    5528:	12 82       	std	Z+2, r1	; 0x02
    552a:	86 e0       	ldi	r24, 0x06	; 6
    552c:	82 87       	std	Z+10, r24	; 0x0a
    552e:	ef 93       	push	r30
    5530:	ff 93       	push	r31
    5532:	0f 93       	push	r16
    5534:	2f 93       	push	r18
    5536:	eb ec       	ldi	r30, 0xCB	; 203
    5538:	f1 e0       	ldi	r31, 0x01	; 1
    553a:	08 ed       	ldi	r16, 0xD8	; 216
    553c:	21 e0       	ldi	r18, 0x01	; 1
    553e:	04 bf       	out	0x34, r16	; 52
    5540:	20 83       	st	Z, r18
    5542:	2f 91       	pop	r18
    5544:	0f 91       	pop	r16
    5546:	ff 91       	pop	r31
    5548:	ef 91       	pop	r30
    554a:	80 91 c4 01 	lds	r24, 0x01C4
    554e:	08 95       	ret

00005550 <eeprom_get_char>:
    5550:	68 2f       	mov	r22, r24
    5552:	6f 71       	andi	r22, 0x1F	; 31
    5554:	55 e0       	ldi	r21, 0x05	; 5
    5556:	96 95       	lsr	r25
    5558:	87 95       	ror	r24
    555a:	5a 95       	dec	r21
    555c:	e1 f7       	brne	.-8      	; 0x5556 <eeprom_get_char+0x6>
    555e:	0e 94 7b 2a 	call	0x54f6	; 0x54f6 <EEPROM_ReadByte>
    5562:	08 95       	ret

00005564 <memcpy_from_eeprom_with_checksum>:
    5564:	8f 92       	push	r8
    5566:	9f 92       	push	r9
    5568:	af 92       	push	r10
    556a:	bf 92       	push	r11
    556c:	cf 92       	push	r12
    556e:	df 92       	push	r13
    5570:	ff 92       	push	r15
    5572:	0f 93       	push	r16
    5574:	1f 93       	push	r17
    5576:	cf 93       	push	r28
    5578:	df 93       	push	r29
    557a:	4c 01       	movw	r8, r24
    557c:	5b 01       	movw	r10, r22
    557e:	6a 01       	movw	r12, r20
    5580:	8b 01       	movw	r16, r22
    5582:	ea 01       	movw	r28, r20
    5584:	ff 24       	eor	r15, r15
    5586:	18 c0       	rjmp	.+48     	; 0x55b8 <memcpy_from_eeprom_with_checksum+0x54>
    5588:	c8 01       	movw	r24, r16
    558a:	0e 94 a8 2a 	call	0x5550	; 0x5550 <eeprom_get_char>
    558e:	ff 20       	and	r15, r15
    5590:	19 f0       	breq	.+6      	; 0x5598 <memcpy_from_eeprom_with_checksum+0x34>
    5592:	21 e0       	ldi	r18, 0x01	; 1
    5594:	30 e0       	ldi	r19, 0x00	; 0
    5596:	08 c0       	rjmp	.+16     	; 0x55a8 <memcpy_from_eeprom_with_checksum+0x44>
    5598:	2f 2d       	mov	r18, r15
    559a:	33 27       	eor	r19, r19
    559c:	27 fd       	sbrc	r18, 7
    559e:	30 95       	com	r19
    55a0:	22 27       	eor	r18, r18
    55a2:	33 0f       	add	r19, r19
    55a4:	22 1f       	adc	r18, r18
    55a6:	33 27       	eor	r19, r19
    55a8:	0f 5f       	subi	r16, 0xFF	; 255
    55aa:	1f 4f       	sbci	r17, 0xFF	; 255
    55ac:	f8 2e       	mov	r15, r24
    55ae:	f2 0e       	add	r15, r18
    55b0:	f4 01       	movw	r30, r8
    55b2:	81 93       	st	Z+, r24
    55b4:	4f 01       	movw	r8, r30
    55b6:	21 97       	sbiw	r28, 0x01	; 1
    55b8:	20 97       	sbiw	r28, 0x00	; 0
    55ba:	31 f7       	brne	.-52     	; 0x5588 <memcpy_from_eeprom_with_checksum+0x24>
    55bc:	c6 01       	movw	r24, r12
    55be:	8a 0d       	add	r24, r10
    55c0:	9b 1d       	adc	r25, r11
    55c2:	0e 94 a8 2a 	call	0x5550	; 0x5550 <eeprom_get_char>
    55c6:	20 e0       	ldi	r18, 0x00	; 0
    55c8:	30 e0       	ldi	r19, 0x00	; 0
    55ca:	f8 16       	cp	r15, r24
    55cc:	11 f4       	brne	.+4      	; 0x55d2 <memcpy_from_eeprom_with_checksum+0x6e>
    55ce:	21 e0       	ldi	r18, 0x01	; 1
    55d0:	30 e0       	ldi	r19, 0x00	; 0
    55d2:	c9 01       	movw	r24, r18
    55d4:	df 91       	pop	r29
    55d6:	cf 91       	pop	r28
    55d8:	1f 91       	pop	r17
    55da:	0f 91       	pop	r16
    55dc:	ff 90       	pop	r15
    55de:	df 90       	pop	r13
    55e0:	cf 90       	pop	r12
    55e2:	bf 90       	pop	r11
    55e4:	af 90       	pop	r10
    55e6:	9f 90       	pop	r9
    55e8:	8f 90       	pop	r8
    55ea:	08 95       	ret

000055ec <EEPROM_WaitForNVM>:
    55ec:	80 91 cf 01 	lds	r24, 0x01CF
    55f0:	87 fd       	sbrc	r24, 7
    55f2:	fc cf       	rjmp	.-8      	; 0x55ec <EEPROM_WaitForNVM>
    55f4:	08 95       	ret

000055f6 <EEPROM_FlushBuffer>:
    55f6:	80 91 cf 01 	lds	r24, 0x01CF
    55fa:	87 fd       	sbrc	r24, 7
    55fc:	fc cf       	rjmp	.-8      	; 0x55f6 <EEPROM_FlushBuffer>
    55fe:	80 91 cf 01 	lds	r24, 0x01CF
    5602:	81 ff       	sbrs	r24, 1
    5604:	12 c0       	rjmp	.+36     	; 0x562a <EEPROM_FlushBuffer+0x34>
    5606:	86 e3       	ldi	r24, 0x36	; 54
    5608:	e0 ec       	ldi	r30, 0xC0	; 192
    560a:	f1 e0       	ldi	r31, 0x01	; 1
    560c:	82 87       	std	Z+10, r24	; 0x0a
    560e:	ef 93       	push	r30
    5610:	ff 93       	push	r31
    5612:	0f 93       	push	r16
    5614:	2f 93       	push	r18
    5616:	eb ec       	ldi	r30, 0xCB	; 203
    5618:	f1 e0       	ldi	r31, 0x01	; 1
    561a:	08 ed       	ldi	r16, 0xD8	; 216
    561c:	21 e0       	ldi	r18, 0x01	; 1
    561e:	04 bf       	out	0x34, r16	; 52
    5620:	20 83       	st	Z, r18
    5622:	2f 91       	pop	r18
    5624:	0f 91       	pop	r16
    5626:	ff 91       	pop	r31
    5628:	ef 91       	pop	r30
    562a:	08 95       	ret

0000562c <EEPROM_WriteByte>:
    562c:	df 92       	push	r13
    562e:	ef 92       	push	r14
    5630:	ff 92       	push	r15
    5632:	0f 93       	push	r16
    5634:	1f 93       	push	r17
    5636:	e8 2e       	mov	r14, r24
    5638:	06 2f       	mov	r16, r22
    563a:	d4 2e       	mov	r13, r20
    563c:	0e 94 fb 2a 	call	0x55f6	; 0x55f6 <EEPROM_FlushBuffer>
    5640:	e0 ec       	ldi	r30, 0xC0	; 192
    5642:	f1 e0       	ldi	r31, 0x01	; 1
    5644:	83 e3       	ldi	r24, 0x33	; 51
    5646:	82 87       	std	Z+10, r24	; 0x0a
    5648:	10 e0       	ldi	r17, 0x00	; 0
    564a:	0f 71       	andi	r16, 0x1F	; 31
    564c:	10 70       	andi	r17, 0x00	; 0
    564e:	ff 24       	eor	r15, r15
    5650:	75 e0       	ldi	r23, 0x05	; 5
    5652:	ee 0c       	add	r14, r14
    5654:	ff 1c       	adc	r15, r15
    5656:	7a 95       	dec	r23
    5658:	e1 f7       	brne	.-8      	; 0x5652 <EEPROM_WriteByte+0x26>
    565a:	0e 29       	or	r16, r14
    565c:	1f 29       	or	r17, r15
    565e:	00 83       	st	Z, r16
    5660:	81 2f       	mov	r24, r17
    5662:	8f 71       	andi	r24, 0x1F	; 31
    5664:	81 83       	std	Z+1, r24	; 0x01
    5666:	12 82       	std	Z+2, r1	; 0x02
    5668:	d4 82       	std	Z+4, r13	; 0x04
    566a:	85 e3       	ldi	r24, 0x35	; 53
    566c:	82 87       	std	Z+10, r24	; 0x0a
    566e:	ef 93       	push	r30
    5670:	ff 93       	push	r31
    5672:	0f 93       	push	r16
    5674:	2f 93       	push	r18
    5676:	eb ec       	ldi	r30, 0xCB	; 203
    5678:	f1 e0       	ldi	r31, 0x01	; 1
    567a:	08 ed       	ldi	r16, 0xD8	; 216
    567c:	21 e0       	ldi	r18, 0x01	; 1
    567e:	04 bf       	out	0x34, r16	; 52
    5680:	20 83       	st	Z, r18
    5682:	2f 91       	pop	r18
    5684:	0f 91       	pop	r16
    5686:	ff 91       	pop	r31
    5688:	ef 91       	pop	r30
    568a:	1f 91       	pop	r17
    568c:	0f 91       	pop	r16
    568e:	ff 90       	pop	r15
    5690:	ef 90       	pop	r14
    5692:	df 90       	pop	r13
    5694:	08 95       	ret

00005696 <eeprom_put_char>:
    5696:	46 2f       	mov	r20, r22
    5698:	68 2f       	mov	r22, r24
    569a:	6f 71       	andi	r22, 0x1F	; 31
    569c:	e5 e0       	ldi	r30, 0x05	; 5
    569e:	96 95       	lsr	r25
    56a0:	87 95       	ror	r24
    56a2:	ea 95       	dec	r30
    56a4:	e1 f7       	brne	.-8      	; 0x569e <eeprom_put_char+0x8>
    56a6:	0e 94 16 2b 	call	0x562c	; 0x562c <EEPROM_WriteByte>
    56aa:	08 95       	ret

000056ac <memcpy_to_eeprom_with_checksum>:
    56ac:	8f 92       	push	r8
    56ae:	9f 92       	push	r9
    56b0:	af 92       	push	r10
    56b2:	bf 92       	push	r11
    56b4:	cf 92       	push	r12
    56b6:	df 92       	push	r13
    56b8:	ef 92       	push	r14
    56ba:	ff 92       	push	r15
    56bc:	0f 93       	push	r16
    56be:	df 93       	push	r29
    56c0:	cf 93       	push	r28
    56c2:	0f 92       	push	r0
    56c4:	0f 92       	push	r0
    56c6:	cd b7       	in	r28, 0x3d	; 61
    56c8:	de b7       	in	r29, 0x3e	; 62
    56ca:	5c 01       	movw	r10, r24
    56cc:	6b 01       	movw	r12, r22
    56ce:	7a 01       	movw	r14, r20
    56d0:	4a 01       	movw	r8, r20
    56d2:	00 e0       	ldi	r16, 0x00	; 0
    56d4:	1e c0       	rjmp	.+60     	; 0x5712 <memcpy_to_eeprom_with_checksum+0x66>
    56d6:	00 23       	and	r16, r16
    56d8:	19 f0       	breq	.+6      	; 0x56e0 <memcpy_to_eeprom_with_checksum+0x34>
    56da:	21 e0       	ldi	r18, 0x01	; 1
    56dc:	30 e0       	ldi	r19, 0x00	; 0
    56de:	08 c0       	rjmp	.+16     	; 0x56f0 <memcpy_to_eeprom_with_checksum+0x44>
    56e0:	20 2f       	mov	r18, r16
    56e2:	33 27       	eor	r19, r19
    56e4:	27 fd       	sbrc	r18, 7
    56e6:	30 95       	com	r19
    56e8:	22 27       	eor	r18, r18
    56ea:	33 0f       	add	r19, r19
    56ec:	22 1f       	adc	r18, r18
    56ee:	33 27       	eor	r19, r19
    56f0:	f6 01       	movw	r30, r12
    56f2:	61 91       	ld	r22, Z+
    56f4:	6f 01       	movw	r12, r30
    56f6:	06 2f       	mov	r16, r22
    56f8:	02 0f       	add	r16, r18
    56fa:	9c 01       	movw	r18, r24
    56fc:	2f 5f       	subi	r18, 0xFF	; 255
    56fe:	3f 4f       	sbci	r19, 0xFF	; 255
    5700:	29 83       	std	Y+1, r18	; 0x01
    5702:	3a 83       	std	Y+2, r19	; 0x02
    5704:	0e 94 4b 2b 	call	0x5696	; 0x5696 <eeprom_put_char>
    5708:	08 94       	sec
    570a:	81 08       	sbc	r8, r1
    570c:	91 08       	sbc	r9, r1
    570e:	89 81       	ldd	r24, Y+1	; 0x01
    5710:	9a 81       	ldd	r25, Y+2	; 0x02
    5712:	81 14       	cp	r8, r1
    5714:	91 04       	cpc	r9, r1
    5716:	f9 f6       	brne	.-66     	; 0x56d6 <memcpy_to_eeprom_with_checksum+0x2a>
    5718:	c7 01       	movw	r24, r14
    571a:	8a 0d       	add	r24, r10
    571c:	9b 1d       	adc	r25, r11
    571e:	60 2f       	mov	r22, r16
    5720:	0e 94 4b 2b 	call	0x5696	; 0x5696 <eeprom_put_char>
    5724:	0f 90       	pop	r0
    5726:	0f 90       	pop	r0
    5728:	cf 91       	pop	r28
    572a:	df 91       	pop	r29
    572c:	0f 91       	pop	r16
    572e:	ff 90       	pop	r15
    5730:	ef 90       	pop	r14
    5732:	df 90       	pop	r13
    5734:	cf 90       	pop	r12
    5736:	bf 90       	pop	r11
    5738:	af 90       	pop	r10
    573a:	9f 90       	pop	r9
    573c:	8f 90       	pop	r8
    573e:	08 95       	ret

00005740 <EEPROM_LoadByte>:
    5740:	98 2f       	mov	r25, r24
    5742:	e0 ec       	ldi	r30, 0xC0	; 192
    5744:	f1 e0       	ldi	r31, 0x01	; 1
    5746:	80 91 cf 01 	lds	r24, 0x01CF
    574a:	87 fd       	sbrc	r24, 7
    574c:	fa cf       	rjmp	.-12     	; 0x5742 <EEPROM_LoadByte+0x2>
    574e:	83 e3       	ldi	r24, 0x33	; 51
    5750:	82 87       	std	Z+10, r24	; 0x0a
    5752:	90 93 c0 01 	sts	0x01C0, r25
    5756:	11 82       	std	Z+1, r1	; 0x01
    5758:	12 82       	std	Z+2, r1	; 0x02
    575a:	64 83       	std	Z+4, r22	; 0x04
    575c:	08 95       	ret

0000575e <EEPROM_LoadPage>:
    575e:	dc 01       	movw	r26, r24
    5760:	e0 ec       	ldi	r30, 0xC0	; 192
    5762:	f1 e0       	ldi	r31, 0x01	; 1
    5764:	80 91 cf 01 	lds	r24, 0x01CF
    5768:	87 fd       	sbrc	r24, 7
    576a:	fa cf       	rjmp	.-12     	; 0x5760 <EEPROM_LoadPage+0x2>
    576c:	83 e3       	ldi	r24, 0x33	; 51
    576e:	82 87       	std	Z+10, r24	; 0x0a
    5770:	11 82       	std	Z+1, r1	; 0x01
    5772:	12 82       	std	Z+2, r1	; 0x02
    5774:	90 e0       	ldi	r25, 0x00	; 0
    5776:	90 93 c0 01 	sts	0x01C0, r25
    577a:	8d 91       	ld	r24, X+
    577c:	84 83       	std	Z+4, r24	; 0x04
    577e:	9f 5f       	subi	r25, 0xFF	; 255
    5780:	90 32       	cpi	r25, 0x20	; 32
    5782:	c9 f7       	brne	.-14     	; 0x5776 <EEPROM_LoadPage+0x18>
    5784:	08 95       	ret

00005786 <EEPROM_AtomicWritePage>:
    5786:	98 2f       	mov	r25, r24
    5788:	e0 ec       	ldi	r30, 0xC0	; 192
    578a:	f1 e0       	ldi	r31, 0x01	; 1
    578c:	80 91 cf 01 	lds	r24, 0x01CF
    5790:	87 fd       	sbrc	r24, 7
    5792:	fa cf       	rjmp	.-12     	; 0x5788 <EEPROM_AtomicWritePage+0x2>
    5794:	89 2f       	mov	r24, r25
    5796:	90 e0       	ldi	r25, 0x00	; 0
    5798:	a5 e0       	ldi	r26, 0x05	; 5
    579a:	88 0f       	add	r24, r24
    579c:	99 1f       	adc	r25, r25
    579e:	aa 95       	dec	r26
    57a0:	e1 f7       	brne	.-8      	; 0x579a <EEPROM_AtomicWritePage+0x14>
    57a2:	80 93 c0 01 	sts	0x01C0, r24
    57a6:	89 2f       	mov	r24, r25
    57a8:	8f 71       	andi	r24, 0x1F	; 31
    57aa:	81 83       	std	Z+1, r24	; 0x01
    57ac:	12 82       	std	Z+2, r1	; 0x02
    57ae:	85 e3       	ldi	r24, 0x35	; 53
    57b0:	82 87       	std	Z+10, r24	; 0x0a
    57b2:	ef 93       	push	r30
    57b4:	ff 93       	push	r31
    57b6:	0f 93       	push	r16
    57b8:	2f 93       	push	r18
    57ba:	eb ec       	ldi	r30, 0xCB	; 203
    57bc:	f1 e0       	ldi	r31, 0x01	; 1
    57be:	08 ed       	ldi	r16, 0xD8	; 216
    57c0:	21 e0       	ldi	r18, 0x01	; 1
    57c2:	04 bf       	out	0x34, r16	; 52
    57c4:	20 83       	st	Z, r18
    57c6:	2f 91       	pop	r18
    57c8:	0f 91       	pop	r16
    57ca:	ff 91       	pop	r31
    57cc:	ef 91       	pop	r30
    57ce:	08 95       	ret

000057d0 <EEPROM_ErasePage>:
    57d0:	98 2f       	mov	r25, r24
    57d2:	e0 ec       	ldi	r30, 0xC0	; 192
    57d4:	f1 e0       	ldi	r31, 0x01	; 1
    57d6:	80 91 cf 01 	lds	r24, 0x01CF
    57da:	87 fd       	sbrc	r24, 7
    57dc:	fa cf       	rjmp	.-12     	; 0x57d2 <EEPROM_ErasePage+0x2>
    57de:	89 2f       	mov	r24, r25
    57e0:	90 e0       	ldi	r25, 0x00	; 0
    57e2:	b5 e0       	ldi	r27, 0x05	; 5
    57e4:	88 0f       	add	r24, r24
    57e6:	99 1f       	adc	r25, r25
    57e8:	ba 95       	dec	r27
    57ea:	e1 f7       	brne	.-8      	; 0x57e4 <EEPROM_ErasePage+0x14>
    57ec:	80 93 c0 01 	sts	0x01C0, r24
    57f0:	89 2f       	mov	r24, r25
    57f2:	8f 71       	andi	r24, 0x1F	; 31
    57f4:	81 83       	std	Z+1, r24	; 0x01
    57f6:	12 82       	std	Z+2, r1	; 0x02
    57f8:	82 e3       	ldi	r24, 0x32	; 50
    57fa:	82 87       	std	Z+10, r24	; 0x0a
    57fc:	ef 93       	push	r30
    57fe:	ff 93       	push	r31
    5800:	0f 93       	push	r16
    5802:	2f 93       	push	r18
    5804:	eb ec       	ldi	r30, 0xCB	; 203
    5806:	f1 e0       	ldi	r31, 0x01	; 1
    5808:	08 ed       	ldi	r16, 0xD8	; 216
    580a:	21 e0       	ldi	r18, 0x01	; 1
    580c:	04 bf       	out	0x34, r16	; 52
    580e:	20 83       	st	Z, r18
    5810:	2f 91       	pop	r18
    5812:	0f 91       	pop	r16
    5814:	ff 91       	pop	r31
    5816:	ef 91       	pop	r30
    5818:	08 95       	ret

0000581a <EEPROM_SplitWritePage>:
    581a:	98 2f       	mov	r25, r24
    581c:	e0 ec       	ldi	r30, 0xC0	; 192
    581e:	f1 e0       	ldi	r31, 0x01	; 1
    5820:	80 91 cf 01 	lds	r24, 0x01CF
    5824:	87 fd       	sbrc	r24, 7
    5826:	fa cf       	rjmp	.-12     	; 0x581c <EEPROM_SplitWritePage+0x2>
    5828:	89 2f       	mov	r24, r25
    582a:	90 e0       	ldi	r25, 0x00	; 0
    582c:	25 e0       	ldi	r18, 0x05	; 5
    582e:	88 0f       	add	r24, r24
    5830:	99 1f       	adc	r25, r25
    5832:	2a 95       	dec	r18
    5834:	e1 f7       	brne	.-8      	; 0x582e <EEPROM_SplitWritePage+0x14>
    5836:	80 93 c0 01 	sts	0x01C0, r24
    583a:	89 2f       	mov	r24, r25
    583c:	8f 71       	andi	r24, 0x1F	; 31
    583e:	81 83       	std	Z+1, r24	; 0x01
    5840:	12 82       	std	Z+2, r1	; 0x02
    5842:	84 e3       	ldi	r24, 0x34	; 52
    5844:	82 87       	std	Z+10, r24	; 0x0a
    5846:	ef 93       	push	r30
    5848:	ff 93       	push	r31
    584a:	0f 93       	push	r16
    584c:	2f 93       	push	r18
    584e:	eb ec       	ldi	r30, 0xCB	; 203
    5850:	f1 e0       	ldi	r31, 0x01	; 1
    5852:	08 ed       	ldi	r16, 0xD8	; 216
    5854:	21 e0       	ldi	r18, 0x01	; 1
    5856:	04 bf       	out	0x34, r16	; 52
    5858:	20 83       	st	Z, r18
    585a:	2f 91       	pop	r18
    585c:	0f 91       	pop	r16
    585e:	ff 91       	pop	r31
    5860:	ef 91       	pop	r30
    5862:	08 95       	ret

00005864 <EEPROM_EraseAll>:
    5864:	80 91 cf 01 	lds	r24, 0x01CF
    5868:	87 fd       	sbrc	r24, 7
    586a:	fc cf       	rjmp	.-8      	; 0x5864 <EEPROM_EraseAll>
    586c:	80 e3       	ldi	r24, 0x30	; 48
    586e:	e0 ec       	ldi	r30, 0xC0	; 192
    5870:	f1 e0       	ldi	r31, 0x01	; 1
    5872:	82 87       	std	Z+10, r24	; 0x0a
    5874:	ef 93       	push	r30
    5876:	ff 93       	push	r31
    5878:	0f 93       	push	r16
    587a:	2f 93       	push	r18
    587c:	eb ec       	ldi	r30, 0xCB	; 203
    587e:	f1 e0       	ldi	r31, 0x01	; 1
    5880:	08 ed       	ldi	r16, 0xD8	; 216
    5882:	21 e0       	ldi	r18, 0x01	; 1
    5884:	04 bf       	out	0x34, r16	; 52
    5886:	20 83       	st	Z, r18
    5888:	2f 91       	pop	r18
    588a:	0f 91       	pop	r16
    588c:	ff 91       	pop	r31
    588e:	ef 91       	pop	r30
    5890:	08 95       	ret

00005892 <xio_pgm_init>:
    5892:	9c 01       	movw	r18, r24
    5894:	85 e0       	ldi	r24, 0x05	; 5
    5896:	90 e0       	ldi	r25, 0x00	; 0
    5898:	80 93 d8 21 	sts	0x21D8, r24
    589c:	90 93 d9 21 	sts	0x21D9, r25
    58a0:	25 ff       	sbrs	r18, 5
    58a2:	06 c0       	rjmp	.+12     	; 0x58b0 <xio_pgm_init+0x1e>
    58a4:	87 e0       	ldi	r24, 0x07	; 7
    58a6:	90 e0       	ldi	r25, 0x00	; 0
    58a8:	80 93 d8 21 	sts	0x21D8, r24
    58ac:	90 93 d9 21 	sts	0x21D9, r25
    58b0:	27 ff       	sbrs	r18, 7
    58b2:	09 c0       	rjmp	.+18     	; 0x58c6 <xio_pgm_init+0x34>
    58b4:	80 91 d8 21 	lds	r24, 0x21D8
    58b8:	90 91 d9 21 	lds	r25, 0x21D9
    58bc:	8b 7f       	andi	r24, 0xFB	; 251
    58be:	80 93 d8 21 	sts	0x21D8, r24
    58c2:	90 93 d9 21 	sts	0x21D9, r25
    58c6:	30 ff       	sbrs	r19, 0
    58c8:	09 c0       	rjmp	.+18     	; 0x58dc <xio_pgm_init+0x4a>
    58ca:	80 91 d8 21 	lds	r24, 0x21D8
    58ce:	90 91 d9 21 	lds	r25, 0x21D9
    58d2:	80 61       	ori	r24, 0x10	; 16
    58d4:	80 93 d8 21 	sts	0x21D8, r24
    58d8:	90 93 d9 21 	sts	0x21D9, r25
    58dc:	31 ff       	sbrs	r19, 1
    58de:	09 c0       	rjmp	.+18     	; 0x58f2 <xio_pgm_init+0x60>
    58e0:	80 91 d8 21 	lds	r24, 0x21D8
    58e4:	90 91 d9 21 	lds	r25, 0x21D9
    58e8:	8f 7e       	andi	r24, 0xEF	; 239
    58ea:	80 93 d8 21 	sts	0x21D8, r24
    58ee:	90 93 d9 21 	sts	0x21D9, r25
    58f2:	32 ff       	sbrs	r19, 2
    58f4:	09 c0       	rjmp	.+18     	; 0x5908 <xio_pgm_init+0x76>
    58f6:	80 91 d8 21 	lds	r24, 0x21D8
    58fa:	90 91 d9 21 	lds	r25, 0x21D9
    58fe:	80 62       	ori	r24, 0x20	; 32
    5900:	80 93 d8 21 	sts	0x21D8, r24
    5904:	90 93 d9 21 	sts	0x21D9, r25
    5908:	33 ff       	sbrs	r19, 3
    590a:	09 c0       	rjmp	.+18     	; 0x591e <xio_pgm_init+0x8c>
    590c:	80 91 d8 21 	lds	r24, 0x21D8
    5910:	90 91 d9 21 	lds	r25, 0x21D9
    5914:	8f 7d       	andi	r24, 0xDF	; 223
    5916:	80 93 d8 21 	sts	0x21D8, r24
    591a:	90 93 d9 21 	sts	0x21D9, r25
    591e:	34 ff       	sbrs	r19, 4
    5920:	09 c0       	rjmp	.+18     	; 0x5934 <xio_pgm_init+0xa2>
    5922:	80 91 d8 21 	lds	r24, 0x21D8
    5926:	90 91 d9 21 	lds	r25, 0x21D9
    592a:	80 64       	ori	r24, 0x40	; 64
    592c:	80 93 d8 21 	sts	0x21D8, r24
    5930:	90 93 d9 21 	sts	0x21D9, r25
    5934:	35 ff       	sbrs	r19, 5
    5936:	09 c0       	rjmp	.+18     	; 0x594a <xio_pgm_init+0xb8>
    5938:	80 91 d8 21 	lds	r24, 0x21D8
    593c:	90 91 d9 21 	lds	r25, 0x21D9
    5940:	8f 7b       	andi	r24, 0xBF	; 191
    5942:	80 93 d8 21 	sts	0x21D8, r24
    5946:	90 93 d9 21 	sts	0x21D9, r25
    594a:	36 ff       	sbrs	r19, 6
    594c:	09 c0       	rjmp	.+18     	; 0x5960 <xio_pgm_init+0xce>
    594e:	80 91 d8 21 	lds	r24, 0x21D8
    5952:	90 91 d9 21 	lds	r25, 0x21D9
    5956:	80 68       	ori	r24, 0x80	; 128
    5958:	80 93 d8 21 	sts	0x21D8, r24
    595c:	90 93 d9 21 	sts	0x21D9, r25
    5960:	37 ff       	sbrs	r19, 7
    5962:	09 c0       	rjmp	.+18     	; 0x5976 <xio_pgm_init+0xe4>
    5964:	80 91 d8 21 	lds	r24, 0x21D8
    5968:	90 91 d9 21 	lds	r25, 0x21D9
    596c:	8f 77       	andi	r24, 0x7F	; 127
    596e:	80 93 d8 21 	sts	0x21D8, r24
    5972:	90 93 d9 21 	sts	0x21D9, r25
    5976:	10 92 e6 21 	sts	0x21E6, r1
    597a:	10 92 e7 21 	sts	0x21E7, r1
    597e:	10 92 da 21 	sts	0x21DA, r1
    5982:	8a ed       	ldi	r24, 0xDA	; 218
    5984:	91 e2       	ldi	r25, 0x21	; 33
    5986:	80 93 1a 20 	sts	0x201A, r24
    598a:	90 93 1b 20 	sts	0x201B, r25
    598e:	82 e0       	ldi	r24, 0x02	; 2
    5990:	80 93 dd 21 	sts	0x21DD, r24
    5994:	81 e0       	ldi	r24, 0x01	; 1
    5996:	96 e2       	ldi	r25, 0x26	; 38
    5998:	80 93 de 21 	sts	0x21DE, r24
    599c:	90 93 df 21 	sts	0x21DF, r25
    59a0:	84 e0       	ldi	r24, 0x04	; 4
    59a2:	96 e2       	ldi	r25, 0x26	; 38
    59a4:	80 93 e0 21 	sts	0x21E0, r24
    59a8:	90 93 e1 21 	sts	0x21E1, r25
    59ac:	08 95       	ret

000059ae <xio_pgm_open>:
    59ae:	20 91 d8 21 	lds	r18, 0x21D8
    59b2:	30 91 d9 21 	lds	r19, 0x21D9
    59b6:	3f 70       	andi	r19, 0x0F	; 15
    59b8:	20 93 d8 21 	sts	0x21D8, r18
    59bc:	30 93 d9 21 	sts	0x21D9, r19
    59c0:	80 93 e4 21 	sts	0x21E4, r24
    59c4:	90 93 e5 21 	sts	0x21E5, r25
    59c8:	10 92 e6 21 	sts	0x21E6, r1
    59cc:	10 92 e7 21 	sts	0x21E7, r1
    59d0:	8e e0       	ldi	r24, 0x0E	; 14
    59d2:	90 e2       	ldi	r25, 0x20	; 32
    59d4:	08 95       	ret

000059d6 <xio_pgm_control>:
    59d6:	9c 01       	movw	r18, r24
    59d8:	84 ff       	sbrs	r24, 4
    59da:	05 c0       	rjmp	.+10     	; 0x59e6 <xio_pgm_control+0x10>
    59dc:	60 93 de 21 	sts	0x21DE, r22
    59e0:	70 93 df 21 	sts	0x21DF, r23
    59e4:	62 c0       	rjmp	.+196    	; 0x5aaa <xio_pgm_control+0xd4>
    59e6:	85 ff       	sbrs	r24, 5
    59e8:	05 c0       	rjmp	.+10     	; 0x59f4 <xio_pgm_control+0x1e>
    59ea:	60 93 e0 21 	sts	0x21E0, r22
    59ee:	70 93 e1 21 	sts	0x21E1, r23
    59f2:	5b c0       	rjmp	.+182    	; 0x5aaa <xio_pgm_control+0xd4>
    59f4:	85 e0       	ldi	r24, 0x05	; 5
    59f6:	90 e0       	ldi	r25, 0x00	; 0
    59f8:	80 93 d8 21 	sts	0x21D8, r24
    59fc:	90 93 d9 21 	sts	0x21D9, r25
    5a00:	30 ff       	sbrs	r19, 0
    5a02:	06 c0       	rjmp	.+12     	; 0x5a10 <xio_pgm_control+0x3a>
    5a04:	85 e1       	ldi	r24, 0x15	; 21
    5a06:	90 e0       	ldi	r25, 0x00	; 0
    5a08:	80 93 d8 21 	sts	0x21D8, r24
    5a0c:	90 93 d9 21 	sts	0x21D9, r25
    5a10:	31 ff       	sbrs	r19, 1
    5a12:	09 c0       	rjmp	.+18     	; 0x5a26 <xio_pgm_control+0x50>
    5a14:	80 91 d8 21 	lds	r24, 0x21D8
    5a18:	90 91 d9 21 	lds	r25, 0x21D9
    5a1c:	8f 7e       	andi	r24, 0xEF	; 239
    5a1e:	80 93 d8 21 	sts	0x21D8, r24
    5a22:	90 93 d9 21 	sts	0x21D9, r25
    5a26:	32 ff       	sbrs	r19, 2
    5a28:	09 c0       	rjmp	.+18     	; 0x5a3c <xio_pgm_control+0x66>
    5a2a:	80 91 d8 21 	lds	r24, 0x21D8
    5a2e:	90 91 d9 21 	lds	r25, 0x21D9
    5a32:	80 62       	ori	r24, 0x20	; 32
    5a34:	80 93 d8 21 	sts	0x21D8, r24
    5a38:	90 93 d9 21 	sts	0x21D9, r25
    5a3c:	33 ff       	sbrs	r19, 3
    5a3e:	09 c0       	rjmp	.+18     	; 0x5a52 <xio_pgm_control+0x7c>
    5a40:	80 91 d8 21 	lds	r24, 0x21D8
    5a44:	90 91 d9 21 	lds	r25, 0x21D9
    5a48:	8f 7d       	andi	r24, 0xDF	; 223
    5a4a:	80 93 d8 21 	sts	0x21D8, r24
    5a4e:	90 93 d9 21 	sts	0x21D9, r25
    5a52:	34 ff       	sbrs	r19, 4
    5a54:	09 c0       	rjmp	.+18     	; 0x5a68 <xio_pgm_control+0x92>
    5a56:	80 91 d8 21 	lds	r24, 0x21D8
    5a5a:	90 91 d9 21 	lds	r25, 0x21D9
    5a5e:	80 64       	ori	r24, 0x40	; 64
    5a60:	80 93 d8 21 	sts	0x21D8, r24
    5a64:	90 93 d9 21 	sts	0x21D9, r25
    5a68:	35 ff       	sbrs	r19, 5
    5a6a:	09 c0       	rjmp	.+18     	; 0x5a7e <xio_pgm_control+0xa8>
    5a6c:	80 91 d8 21 	lds	r24, 0x21D8
    5a70:	90 91 d9 21 	lds	r25, 0x21D9
    5a74:	8f 7b       	andi	r24, 0xBF	; 191
    5a76:	80 93 d8 21 	sts	0x21D8, r24
    5a7a:	90 93 d9 21 	sts	0x21D9, r25
    5a7e:	36 ff       	sbrs	r19, 6
    5a80:	09 c0       	rjmp	.+18     	; 0x5a94 <xio_pgm_control+0xbe>
    5a82:	80 91 d8 21 	lds	r24, 0x21D8
    5a86:	90 91 d9 21 	lds	r25, 0x21D9
    5a8a:	80 68       	ori	r24, 0x80	; 128
    5a8c:	80 93 d8 21 	sts	0x21D8, r24
    5a90:	90 93 d9 21 	sts	0x21D9, r25
    5a94:	37 ff       	sbrs	r19, 7
    5a96:	09 c0       	rjmp	.+18     	; 0x5aaa <xio_pgm_control+0xd4>
    5a98:	80 91 d8 21 	lds	r24, 0x21D8
    5a9c:	90 91 d9 21 	lds	r25, 0x21D9
    5aa0:	8f 77       	andi	r24, 0x7F	; 127
    5aa2:	80 93 d8 21 	sts	0x21D8, r24
    5aa6:	90 93 d9 21 	sts	0x21D9, r25
    5aaa:	80 e0       	ldi	r24, 0x00	; 0
    5aac:	08 95       	ret

00005aae <xio_pgm_putc>:
    5aae:	8f ef       	ldi	r24, 0xFF	; 255
    5ab0:	9f ef       	ldi	r25, 0xFF	; 255
    5ab2:	08 95       	ret

00005ab4 <xio_pgm_readln>:
    5ab4:	9c 01       	movw	r18, r24
    5ab6:	80 91 e4 21 	lds	r24, 0x21E4
    5aba:	90 91 e5 21 	lds	r25, 0x21E5
    5abe:	89 2b       	or	r24, r25
    5ac0:	a9 f0       	breq	.+42     	; 0x5aec <xio_pgm_readln+0x38>
    5ac2:	10 92 da 21 	sts	0x21DA, r1
    5ac6:	c9 01       	movw	r24, r18
    5ac8:	70 e0       	ldi	r23, 0x00	; 0
    5aca:	4e e0       	ldi	r20, 0x0E	; 14
    5acc:	50 e2       	ldi	r21, 0x20	; 32
    5ace:	0e 94 25 44 	call	0x884a	; 0x884a <fgets>
    5ad2:	89 2b       	or	r24, r25
    5ad4:	59 f4       	brne	.+22     	; 0x5aec <xio_pgm_readln+0x38>
    5ad6:	10 92 e4 21 	sts	0x21E4, r1
    5ada:	10 92 e5 21 	sts	0x21E5, r1
    5ade:	8e e0       	ldi	r24, 0x0E	; 14
    5ae0:	90 e2       	ldi	r25, 0x20	; 32
    5ae2:	0e 94 20 44 	call	0x8840	; 0x8840 <clearerr>
    5ae6:	24 e0       	ldi	r18, 0x04	; 4
    5ae8:	30 e0       	ldi	r19, 0x00	; 0
    5aea:	02 c0       	rjmp	.+4      	; 0x5af0 <xio_pgm_readln+0x3c>
    5aec:	20 e0       	ldi	r18, 0x00	; 0
    5aee:	30 e0       	ldi	r19, 0x00	; 0
    5af0:	c9 01       	movw	r24, r18
    5af2:	08 95       	ret

00005af4 <xio_pgm_getc>:
    5af4:	40 91 d8 21 	lds	r20, 0x21D8
    5af8:	50 91 d9 21 	lds	r21, 0x21D9
    5afc:	55 ff       	sbrs	r21, 5
    5afe:	06 c0       	rjmp	.+12     	; 0x5b0c <xio_pgm_getc+0x18>
    5b00:	82 e0       	ldi	r24, 0x02	; 2
    5b02:	80 93 da 21 	sts	0x21DA, r24
    5b06:	2e ef       	ldi	r18, 0xFE	; 254
    5b08:	3f ef       	ldi	r19, 0xFF	; 255
    5b0a:	3f c0       	rjmp	.+126    	; 0x5b8a <xio_pgm_getc+0x96>
    5b0c:	20 91 e6 21 	lds	r18, 0x21E6
    5b10:	30 91 e7 21 	lds	r19, 0x21E7
    5b14:	e0 91 e4 21 	lds	r30, 0x21E4
    5b18:	f0 91 e5 21 	lds	r31, 0x21E5
    5b1c:	e2 0f       	add	r30, r18
    5b1e:	f3 1f       	adc	r31, r19
    5b20:	84 91       	lpm	r24, Z+
    5b22:	80 93 db 21 	sts	0x21DB, r24
    5b26:	88 23       	and	r24, r24
    5b28:	29 f4       	brne	.+10     	; 0x5b34 <xio_pgm_getc+0x40>
    5b2a:	50 62       	ori	r21, 0x20	; 32
    5b2c:	40 93 d8 21 	sts	0x21D8, r20
    5b30:	50 93 d9 21 	sts	0x21D9, r21
    5b34:	2f 5f       	subi	r18, 0xFF	; 255
    5b36:	3f 4f       	sbci	r19, 0xFF	; 255
    5b38:	20 93 e6 21 	sts	0x21E6, r18
    5b3c:	30 93 e7 21 	sts	0x21E7, r19
    5b40:	90 91 d8 21 	lds	r25, 0x21D8
    5b44:	96 fd       	sbrc	r25, 6
    5b46:	07 c0       	rjmp	.+14     	; 0x5b56 <xio_pgm_getc+0x62>
    5b48:	94 ff       	sbrs	r25, 4
    5b4a:	1b c0       	rjmp	.+54     	; 0x5b82 <xio_pgm_getc+0x8e>
    5b4c:	60 91 0e 25 	lds	r22, 0x250E
    5b50:	70 91 0f 25 	lds	r23, 0x250F
    5b54:	13 c0       	rjmp	.+38     	; 0x5b7c <xio_pgm_getc+0x88>
    5b56:	88 23       	and	r24, r24
    5b58:	31 f0       	breq	.+12     	; 0x5b66 <xio_pgm_getc+0x72>
    5b5a:	8d 30       	cpi	r24, 0x0D	; 13
    5b5c:	21 f0       	breq	.+8      	; 0x5b66 <xio_pgm_getc+0x72>
    5b5e:	97 ff       	sbrs	r25, 7
    5b60:	05 c0       	rjmp	.+10     	; 0x5b6c <xio_pgm_getc+0x78>
    5b62:	8b 33       	cpi	r24, 0x3B	; 59
    5b64:	19 f4       	brne	.+6      	; 0x5b6c <xio_pgm_getc+0x78>
    5b66:	8a e0       	ldi	r24, 0x0A	; 10
    5b68:	80 93 db 21 	sts	0x21DB, r24
    5b6c:	94 ff       	sbrs	r25, 4
    5b6e:	09 c0       	rjmp	.+18     	; 0x5b82 <xio_pgm_getc+0x8e>
    5b70:	60 91 0e 25 	lds	r22, 0x250E
    5b74:	70 91 0f 25 	lds	r23, 0x250F
    5b78:	80 91 db 21 	lds	r24, 0x21DB
    5b7c:	90 e0       	ldi	r25, 0x00	; 0
    5b7e:	0e 94 58 44 	call	0x88b0	; 0x88b0 <fputc>
    5b82:	80 91 db 21 	lds	r24, 0x21DB
    5b86:	28 2f       	mov	r18, r24
    5b88:	30 e0       	ldi	r19, 0x00	; 0
    5b8a:	c9 01       	movw	r24, r18
    5b8c:	08 95       	ret

00005b8e <_tg_set_source>:
 *	other messages are sent to the active device.
 */

void _tg_set_source(uint8_t d)
{
	tg.source = d;									// d = XIO device #. See xio.h
    5b8e:	80 93 ec 21 	sts	0x21EC, r24
	tg.prompts = TRUE;
    5b92:	61 e0       	ldi	r22, 0x01	; 1
    5b94:	60 93 ee 21 	sts	0x21EE, r22

	// reset common settings for all devices
	for (uint8_t i=1; i < XIO_DEV_MAX; i++) {		// don't bother with /dev/null
		tg.dev[i].state = TG_SRC_SIGNAL;
    5b98:	42 e0       	ldi	r20, 0x02	; 2
    5b9a:	40 93 44 22 	sts	0x2244, r20
		tg.dev[i].poll_func = &_tg_poll_signal;
    5b9e:	2c e4       	ldi	r18, 0x4C	; 76
    5ba0:	3e e2       	ldi	r19, 0x2E	; 46
    5ba2:	20 93 46 22 	sts	0x2246, r18
    5ba6:	30 93 47 22 	sts	0x2247, r19
		tg.dev[i].len = sizeof(tg.dev[i].buf);
    5baa:	90 e5       	ldi	r25, 0x50	; 80
    5bac:	90 93 45 22 	sts	0x2245, r25
	tg.source = d;									// d = XIO device #. See xio.h
	tg.prompts = TRUE;

	// reset common settings for all devices
	for (uint8_t i=1; i < XIO_DEV_MAX; i++) {		// don't bother with /dev/null
		tg.dev[i].state = TG_SRC_SIGNAL;
    5bb0:	40 93 98 22 	sts	0x2298, r20
		tg.dev[i].poll_func = &_tg_poll_signal;
    5bb4:	20 93 9a 22 	sts	0x229A, r18
    5bb8:	30 93 9b 22 	sts	0x229B, r19
		tg.dev[i].len = sizeof(tg.dev[i].buf);
    5bbc:	90 93 99 22 	sts	0x2299, r25
	tg.source = d;									// d = XIO device #. See xio.h
	tg.prompts = TRUE;

	// reset common settings for all devices
	for (uint8_t i=1; i < XIO_DEV_MAX; i++) {		// don't bother with /dev/null
		tg.dev[i].state = TG_SRC_SIGNAL;
    5bc0:	40 93 ec 22 	sts	0x22EC, r20
		tg.dev[i].poll_func = &_tg_poll_signal;
    5bc4:	20 93 ee 22 	sts	0x22EE, r18
    5bc8:	30 93 ef 22 	sts	0x22EF, r19
		tg.dev[i].len = sizeof(tg.dev[i].buf);
    5bcc:	90 93 ed 22 	sts	0x22ED, r25
	tg.prompts = TRUE;

	// reset common settings for all devices
	for (uint8_t i=1; i < XIO_DEV_MAX; i++) {		// don't bother with /dev/null
		tg.dev[i].state = TG_SRC_SIGNAL;
		tg.dev[i].poll_func = &_tg_poll_signal;
    5bd0:	20 93 42 23 	sts	0x2342, r18
    5bd4:	30 93 43 23 	sts	0x2343, r19
		tg.dev[i].len = sizeof(tg.dev[i].buf);
    5bd8:	90 93 41 23 	sts	0x2341, r25
	}
	tg.dev[XIO_DEV_PGM].state = TG_SRC_INACTIVE;	// program memory is an exception
    5bdc:	10 92 40 23 	sts	0x2340, r1

	// make selected device active
	tg.dev[d].state = TG_SRC_ACTIVE;	
    5be0:	48 2f       	mov	r20, r24
    5be2:	50 e0       	ldi	r21, 0x00	; 0
    5be4:	24 e5       	ldi	r18, 0x54	; 84
    5be6:	30 e0       	ldi	r19, 0x00	; 0
    5be8:	42 9f       	mul	r20, r18
    5bea:	f0 01       	movw	r30, r0
    5bec:	43 9f       	mul	r20, r19
    5bee:	f0 0d       	add	r31, r0
    5bf0:	52 9f       	mul	r21, r18
    5bf2:	f0 0d       	add	r31, r0
    5bf4:	11 24       	eor	r1, r1
    5bf6:	e7 51       	subi	r30, 0x17	; 23
    5bf8:	fe 4d       	sbci	r31, 0xDE	; 222
    5bfa:	67 83       	std	Z+7, r22	; 0x07
	tg.dev[d].poll_func = &_tg_poll_active;
    5bfc:	2a e2       	ldi	r18, 0x2A	; 42
    5bfe:	30 e0       	ldi	r19, 0x00	; 0
    5c00:	42 9f       	mul	r20, r18
    5c02:	f0 01       	movw	r30, r0
    5c04:	43 9f       	mul	r20, r19
    5c06:	f0 0d       	add	r31, r0
    5c08:	52 9f       	mul	r21, r18
    5c0a:	f0 0d       	add	r31, r0
    5c0c:	11 24       	eor	r1, r1
    5c0e:	ee 0f       	add	r30, r30
    5c10:	ff 1f       	adc	r31, r31
    5c12:	e5 51       	subi	r30, 0x15	; 21
    5c14:	fe 4d       	sbci	r31, 0xDE	; 222
    5c16:	24 ec       	ldi	r18, 0xC4	; 196
    5c18:	3e e2       	ldi	r19, 0x2E	; 46
    5c1a:	27 83       	std	Z+7, r18	; 0x07
    5c1c:	30 87       	std	Z+8, r19	; 0x08
	if (d == XIO_DEV_PGM) {
    5c1e:	84 30       	cpi	r24, 0x04	; 4
    5c20:	11 f4       	brne	.+4      	; 0x5c26 <_tg_set_source+0x98>
		tg.prompts = FALSE;							// no prompts for file input
    5c22:	10 92 ee 21 	sts	0x21EE, r1
    5c26:	08 95       	ret

00005c28 <tg_pause>:
}

void tg_pause()
{
	return;
}
    5c28:	08 95       	ret

00005c2a <tg_resume>:

void tg_resume()
{
	return;
}
    5c2a:	08 95       	ret

00005c2c <tg_kill>:
	return (0);
}

void tg_kill()
{
	_tg_set_source(tg.source_default);	// return control to standard device
    5c2c:	80 91 ed 21 	lds	r24, 0x21ED
    5c30:	0e 94 c7 2d 	call	0x5b8e	; 0x5b8e <_tg_set_source>
	mc_motion_stop();					// stop computing and generating motions
    5c34:	0e 94 2b 1a 	call	0x3456	; 0x3456 <mc_motion_stop>
	mv_flush();							// empty and reset the move queue
    5c38:	0e 94 21 30 	call	0x6042	; 0x6042 <mv_flush>
	st_stop_steppers();					// stop the steppers
    5c3c:	0e 94 7d 23 	call	0x46fa	; 0x46fa <st_stop_steppers>
	printf_P(PSTR("Got a KILL command or limit switch\n"));
    5c40:	0f 92       	push	r0
    5c42:	0f 92       	push	r0
    5c44:	80 e9       	ldi	r24, 0x90	; 144
    5c46:	9a e1       	ldi	r25, 0x1A	; 26
    5c48:	ed b7       	in	r30, 0x3d	; 61
    5c4a:	fe b7       	in	r31, 0x3e	; 62
    5c4c:	81 83       	std	Z+1, r24	; 0x01
    5c4e:	92 83       	std	Z+2, r25	; 0x02
    5c50:	0e 94 84 44 	call	0x8908	; 0x8908 <printf_P>
    5c54:	0f 90       	pop	r0
    5c56:	0f 90       	pop	r0
	return;
}
    5c58:	08 95       	ret

00005c5a <tg_terminate>:

void tg_terminate()
{
	tg_kill();
    5c5a:	0e 94 16 2e 	call	0x5c2c	; 0x5c2c <tg_kill>
	return;
}
    5c5e:	08 95       	ret

00005c60 <tg_signal>:
 * tg_signal() - default signal handler to bind to the line readers
 */

int tg_signal(uint8_t sig)
{
	switch (sig) {
    5c60:	84 30       	cpi	r24, 0x04	; 4
    5c62:	a9 f0       	breq	.+42     	; 0x5c8e <tg_signal+0x2e>
    5c64:	85 30       	cpi	r24, 0x05	; 5
    5c66:	99 f0       	breq	.+38     	; 0x5c8e <tg_signal+0x2e>
    5c68:	82 30       	cpi	r24, 0x02	; 2
    5c6a:	99 f4       	brne	.+38     	; 0x5c92 <tg_signal+0x32>
		case XIO_SIG_OK: break;
 		case XIO_SIG_EOL: break;

		case XIO_SIG_EOF:
			printf_P(PSTR("\r\nEnd of file encountered\r\n"));
    5c6c:	0f 92       	push	r0
    5c6e:	0f 92       	push	r0
    5c70:	89 ec       	ldi	r24, 0xC9	; 201
    5c72:	9a e1       	ldi	r25, 0x1A	; 26
    5c74:	ed b7       	in	r30, 0x3d	; 61
    5c76:	fe b7       	in	r31, 0x3e	; 62
    5c78:	81 83       	std	Z+1, r24	; 0x01
    5c7a:	92 83       	std	Z+2, r25	; 0x02
    5c7c:	0e 94 84 44 	call	0x8908	; 0x8908 <printf_P>
			_tg_set_source(tg.source_default);		// reset to default source
    5c80:	0f 90       	pop	r0
    5c82:	0f 90       	pop	r0
    5c84:	80 91 ed 21 	lds	r24, 0x21ED
    5c88:	0e 94 c7 2d 	call	0x5b8e	; 0x5b8e <_tg_set_source>
    5c8c:	02 c0       	rjmp	.+4      	; 0x5c92 <tg_signal+0x32>
	return;
}

void tg_terminate()
{
	tg_kill();
    5c8e:	0e 94 16 2e 	call	0x5c2c	; 0x5c2c <tg_kill>
		case XIO_SIG_SHIFTOUT: break;
		case XIO_SIG_SHIFTIN: break;
		default: break;
	}
	return (0);
}
    5c92:	80 e0       	ldi	r24, 0x00	; 0
    5c94:	90 e0       	ldi	r25, 0x00	; 0
    5c96:	08 95       	ret

00005c98 <_tg_poll_signal>:
 *	If a signal is received it's dispatched from the low-level line reader
 *	Any line that's read is ignored (tossed)
 */

static void _tg_poll_signal(uint8_t d)
{
    5c98:	48 2f       	mov	r20, r24
	if (tg.dev[d].state != TG_SRC_SIGNAL) {			// sanity check
    5c9a:	28 2f       	mov	r18, r24
    5c9c:	30 e0       	ldi	r19, 0x00	; 0
    5c9e:	84 e5       	ldi	r24, 0x54	; 84
    5ca0:	90 e0       	ldi	r25, 0x00	; 0
    5ca2:	28 9f       	mul	r18, r24
    5ca4:	f0 01       	movw	r30, r0
    5ca6:	29 9f       	mul	r18, r25
    5ca8:	f0 0d       	add	r31, r0
    5caa:	38 9f       	mul	r19, r24
    5cac:	f0 0d       	add	r31, r0
    5cae:	11 24       	eor	r1, r1
    5cb0:	e7 51       	subi	r30, 0x17	; 23
    5cb2:	fe 4d       	sbci	r31, 0xDE	; 222
    5cb4:	87 81       	ldd	r24, Z+7	; 0x07
    5cb6:	82 30       	cpi	r24, 0x02	; 2
    5cb8:	a9 f4       	brne	.+42     	; 0x5ce4 <_tg_poll_signal+0x4c>
		return;
	}
	tg.status = xio_fget_ln(d, tg.dev[d].buf, tg.dev[d].len);
    5cba:	85 e1       	ldi	r24, 0x15	; 21
    5cbc:	90 e0       	ldi	r25, 0x00	; 0
    5cbe:	28 9f       	mul	r18, r24
    5cc0:	b0 01       	movw	r22, r0
    5cc2:	29 9f       	mul	r18, r25
    5cc4:	70 0d       	add	r23, r0
    5cc6:	38 9f       	mul	r19, r24
    5cc8:	70 0d       	add	r23, r0
    5cca:	11 24       	eor	r1, r1
    5ccc:	66 0f       	add	r22, r22
    5cce:	77 1f       	adc	r23, r23
    5cd0:	66 0f       	add	r22, r22
    5cd2:	77 1f       	adc	r23, r23
    5cd4:	6c 50       	subi	r22, 0x0C	; 12
    5cd6:	7e 4d       	sbci	r23, 0xDE	; 222
    5cd8:	84 2f       	mov	r24, r20
    5cda:	40 85       	ldd	r20, Z+8	; 0x08
    5cdc:	0e 94 07 26 	call	0x4c0e	; 0x4c0e <xio_fget_ln>
    5ce0:	80 93 ea 21 	sts	0x21EA, r24
    5ce4:	08 95       	ret

00005ce6 <tg_parser>:
 *	Quits from a parser are handled by the controller (not the individual parsers)
 *	Preserves and passes through return codes (status codes) from lower levels
 */

int tg_parser(char * buf)
{
    5ce6:	fc 01       	movw	r30, r24
	// auto-detect mode if not already set 
	if (tg.mode == TG_CONTROL_MODE) {
    5ce8:	80 91 eb 21 	lds	r24, 0x21EB
    5cec:	88 23       	and	r24, r24
    5cee:	79 f5       	brne	.+94     	; 0x5d4e <tg_parser+0x68>
		if (buf[0] >= 'a' && buf[0] <= 'z') {		// convert lower to upper
    5cf0:	90 81       	ld	r25, Z
    5cf2:	89 2f       	mov	r24, r25
    5cf4:	81 56       	subi	r24, 0x61	; 97
    5cf6:	8a 31       	cpi	r24, 0x1A	; 26
    5cf8:	10 f4       	brcc	.+4      	; 0x5cfe <tg_parser+0x18>
			buf[0] = buf[0]-'a'+'A';
    5cfa:	90 52       	subi	r25, 0x20	; 32
    5cfc:	90 83       	st	Z, r25
		}
		switch (buf[0]) {
    5cfe:	80 81       	ld	r24, Z
    5d00:	86 34       	cpi	r24, 0x46	; 70
    5d02:	b1 f0       	breq	.+44     	; 0x5d30 <tg_parser+0x4a>
    5d04:	87 34       	cpi	r24, 0x47	; 71
    5d06:	38 f4       	brcc	.+14     	; 0x5d16 <tg_parser+0x30>
    5d08:	83 34       	cpi	r24, 0x43	; 67
    5d0a:	61 f0       	breq	.+24     	; 0x5d24 <tg_parser+0x3e>
    5d0c:	84 34       	cpi	r24, 0x44	; 68
    5d0e:	71 f0       	breq	.+28     	; 0x5d2c <tg_parser+0x46>
    5d10:	8f 33       	cpi	r24, 0x3F	; 63
    5d12:	d9 f4       	brne	.+54     	; 0x5d4a <tg_parser+0x64>
    5d14:	07 c0       	rjmp	.+14     	; 0x5d24 <tg_parser+0x3e>
    5d16:	87 34       	cpi	r24, 0x47	; 71
    5d18:	19 f0       	breq	.+6      	; 0x5d20 <tg_parser+0x3a>
    5d1a:	8d 54       	subi	r24, 0x4D	; 77
    5d1c:	82 30       	cpi	r24, 0x02	; 2
    5d1e:	a8 f4       	brcc	.+42     	; 0x5d4a <tg_parser+0x64>
 * _tg_set_mode() - Set current operating mode
 */

void _tg_set_mode(uint8_t mode)
{
	tg.mode = mode;
    5d20:	82 e0       	ldi	r24, 0x02	; 2
    5d22:	01 c0       	rjmp	.+2      	; 0x5d26 <tg_parser+0x40>
	if (tg.mode == TG_CONTROL_MODE) {
		if (buf[0] >= 'a' && buf[0] <= 'z') {		// convert lower to upper
			buf[0] = buf[0]-'a'+'A';
		}
		switch (buf[0]) {
			case 'G': case 'M': case 'N': _tg_set_mode(TG_GCODE_MODE); break;
    5d24:	81 e0       	ldi	r24, 0x01	; 1
    5d26:	80 93 eb 21 	sts	0x21EB, r24
    5d2a:	11 c0       	rjmp	.+34     	; 0x5d4e <tg_parser+0x68>
 * _tg_set_mode() - Set current operating mode
 */

void _tg_set_mode(uint8_t mode)
{
	tg.mode = mode;
    5d2c:	83 e0       	ldi	r24, 0x03	; 3
    5d2e:	fb cf       	rjmp	.-10     	; 0x5d26 <tg_parser+0x40>
//	xio_pgm_open(PGMFILE(&square_circle_test100));
//	xio_pgm_open(PGMFILE(&spiral_test50a));
//	xio_pgm_open(PGMFILE(&spiral_test5));

//	xio_pgm_open(PGMFILE(&contraptor_circle)); 	// contraptor circle test
	xio_pgm_open(PGMFILE(&zoetrope));
    5d30:	8b eb       	ldi	r24, 0xBB	; 187
    5d32:	9c e0       	ldi	r25, 0x0C	; 12
    5d34:	0e 94 d7 2c 	call	0x59ae	; 0x59ae <xio_pgm_open>
 * _tg_set_mode() - Set current operating mode
 */

void _tg_set_mode(uint8_t mode)
{
	tg.mode = mode;
    5d38:	82 e0       	ldi	r24, 0x02	; 2
    5d3a:	80 93 eb 21 	sts	0x21EB, r24
//	xio_pgm_open(PGMFILE(&contraptor_circle)); 	// contraptor circle test
	xio_pgm_open(PGMFILE(&zoetrope));

	// set mode and source for file mode
	_tg_set_mode(TG_GCODE_MODE);
	_tg_set_source(XIO_DEV_PGM);
    5d3e:	84 e0       	ldi	r24, 0x04	; 4
    5d40:	0e 94 c7 2d 	call	0x5b8e	; 0x5b8e <_tg_set_source>
    5d44:	20 e0       	ldi	r18, 0x00	; 0
    5d46:	30 e0       	ldi	r19, 0x00	; 0
    5d48:	1d c0       	rjmp	.+58     	; 0x5d84 <tg_parser+0x9e>
 * _tg_set_mode() - Set current operating mode
 */

void _tg_set_mode(uint8_t mode)
{
	tg.mode = mode;
    5d4a:	10 92 eb 21 	sts	0x21EB, r1
			case 'F': return (_tg_test_file());
			default:  _tg_set_mode(TG_CONTROL_MODE); break; //+++ put a help prompt here
		}
	}
	// dispatch based on mode
	tg.status = TG_OK;
    5d4e:	10 92 ea 21 	sts	0x21EA, r1
	switch (tg.mode) {
    5d52:	80 91 eb 21 	lds	r24, 0x21EB
    5d56:	82 30       	cpi	r24, 0x02	; 2
    5d58:	41 f0       	breq	.+16     	; 0x5d6a <tg_parser+0x84>
    5d5a:	83 30       	cpi	r24, 0x03	; 3
    5d5c:	51 f0       	breq	.+20     	; 0x5d72 <tg_parser+0x8c>
    5d5e:	81 30       	cpi	r24, 0x01	; 1
    5d60:	69 f4       	brne	.+26     	; 0x5d7c <tg_parser+0x96>
//		case TG_CONTROL_MODE: 
//			break;

		case TG_CONFIG_MODE:
			tg.status = cfg_parse(buf);
    5d62:	cf 01       	movw	r24, r30
    5d64:	0e 94 0e 18 	call	0x301c	; 0x301c <cfg_parse>
    5d68:	07 c0       	rjmp	.+14     	; 0x5d78 <tg_parser+0x92>
			break;

		case TG_GCODE_MODE: 
			tg.status = gc_gcode_parser(buf);
    5d6a:	cf 01       	movw	r24, r30
    5d6c:	0e 94 ab 14 	call	0x2956	; 0x2956 <gc_gcode_parser>
    5d70:	03 c0       	rjmp	.+6      	; 0x5d78 <tg_parser+0x92>
			break;

		case TG_DIRECT_DRIVE_MODE:
			tg.status = dd_parser(buf);
    5d72:	cf 01       	movw	r24, r30
    5d74:	0e 94 d6 2f 	call	0x5fac	; 0x5fac <dd_parser>
    5d78:	80 93 ea 21 	sts	0x21EA, r24
			break;
	}
	return (tg.status);
    5d7c:	80 91 ea 21 	lds	r24, 0x21EA
    5d80:	28 2f       	mov	r18, r24
    5d82:	30 e0       	ldi	r19, 0x00	; 0
}
    5d84:	c9 01       	movw	r24, r18
    5d86:	08 95       	ret

00005d88 <_tg_poll_active>:
/* 
 * _tg_poll_active() - Perform a non-blocking line read from active input device
 */

static void _tg_poll_active(uint8_t d)
{
    5d88:	cf 93       	push	r28
    5d8a:	df 93       	push	r29
    5d8c:	48 2f       	mov	r20, r24
	if (tg.dev[d].state != TG_SRC_ACTIVE) {			// sanity check
    5d8e:	28 2f       	mov	r18, r24
    5d90:	30 e0       	ldi	r19, 0x00	; 0
    5d92:	84 e5       	ldi	r24, 0x54	; 84
    5d94:	90 e0       	ldi	r25, 0x00	; 0
    5d96:	28 9f       	mul	r18, r24
    5d98:	f0 01       	movw	r30, r0
    5d9a:	29 9f       	mul	r18, r25
    5d9c:	f0 0d       	add	r31, r0
    5d9e:	38 9f       	mul	r19, r24
    5da0:	f0 0d       	add	r31, r0
    5da2:	11 24       	eor	r1, r1
    5da4:	e7 51       	subi	r30, 0x17	; 23
    5da6:	fe 4d       	sbci	r31, 0xDE	; 222
    5da8:	97 81       	ldd	r25, Z+7	; 0x07
    5daa:	91 30       	cpi	r25, 0x01	; 1
    5dac:	09 f0       	breq	.+2      	; 0x5db0 <_tg_poll_active+0x28>
    5dae:	5b c0       	rjmp	.+182    	; 0x5e66 <_tg_poll_active+0xde>
		return;
	}

	// special handling for file sources
	if (tg.source == XIO_DEV_PGM) {
    5db0:	80 91 ec 21 	lds	r24, 0x21EC
    5db4:	84 30       	cpi	r24, 0x04	; 4
    5db6:	39 f4       	brne	.+14     	; 0x5dc6 <_tg_poll_active+0x3e>
		if (tg.state == TG_STATE_READY_UNPROMPTED) {
    5db8:	80 91 e9 21 	lds	r24, 0x21E9
    5dbc:	88 23       	and	r24, r24
    5dbe:	09 f0       	breq	.+2      	; 0x5dc2 <_tg_poll_active+0x3a>
    5dc0:	52 c0       	rjmp	.+164    	; 0x5e66 <_tg_poll_active+0xde>
			tg.state = TG_STATE_READY_PROMPTED; 	// issue "virtual prompt"
    5dc2:	90 93 e9 21 	sts	0x21E9, r25
			return;									// not ready for next line
		}
	}

	// read input line or return if not a completed line
	if ((tg.status = xio_fget_ln(d, tg.dev[d].buf, tg.dev[d].len)) == TG_OK) {
    5dc6:	85 e1       	ldi	r24, 0x15	; 21
    5dc8:	90 e0       	ldi	r25, 0x00	; 0
    5dca:	28 9f       	mul	r18, r24
    5dcc:	e0 01       	movw	r28, r0
    5dce:	29 9f       	mul	r18, r25
    5dd0:	d0 0d       	add	r29, r0
    5dd2:	38 9f       	mul	r19, r24
    5dd4:	d0 0d       	add	r29, r0
    5dd6:	11 24       	eor	r1, r1
    5dd8:	cc 0f       	add	r28, r28
    5dda:	dd 1f       	adc	r29, r29
    5ddc:	cc 0f       	add	r28, r28
    5dde:	dd 1f       	adc	r29, r29
    5de0:	cc 50       	subi	r28, 0x0C	; 12
    5de2:	de 4d       	sbci	r29, 0xDE	; 222
    5de4:	84 e5       	ldi	r24, 0x54	; 84
    5de6:	90 e0       	ldi	r25, 0x00	; 0
    5de8:	28 9f       	mul	r18, r24
    5dea:	f0 01       	movw	r30, r0
    5dec:	29 9f       	mul	r18, r25
    5dee:	f0 0d       	add	r31, r0
    5df0:	38 9f       	mul	r19, r24
    5df2:	f0 0d       	add	r31, r0
    5df4:	11 24       	eor	r1, r1
    5df6:	e7 51       	subi	r30, 0x17	; 23
    5df8:	fe 4d       	sbci	r31, 0xDE	; 222
    5dfa:	84 2f       	mov	r24, r20
    5dfc:	be 01       	movw	r22, r28
    5dfe:	40 85       	ldd	r20, Z+8	; 0x08
    5e00:	0e 94 07 26 	call	0x4c0e	; 0x4c0e <xio_fget_ln>
    5e04:	80 93 ea 21 	sts	0x21EA, r24
    5e08:	88 23       	and	r24, r24
    5e0a:	29 f4       	brne	.+10     	; 0x5e16 <_tg_poll_active+0x8e>
		tg.status = tg_parser(tg.dev[d].buf);	// dispatch to parser
    5e0c:	ce 01       	movw	r24, r28
    5e0e:	0e 94 73 2e 	call	0x5ce6	; 0x5ce6 <tg_parser>
    5e12:	80 93 ea 21 	sts	0x21EA, r24
	}

	// Note: This switch statement could be reduced as most paths lead to
	//		 TG_STATE_READY_UNPROMPTED, but it's written for clarity instead.
	switch (tg.status) {
    5e16:	80 91 ea 21 	lds	r24, 0x21EA
    5e1a:	82 30       	cpi	r24, 0x02	; 2
    5e1c:	61 f0       	breq	.+24     	; 0x5e36 <_tg_poll_active+0xae>
    5e1e:	83 30       	cpi	r24, 0x03	; 3
    5e20:	28 f4       	brcc	.+10     	; 0x5e2c <_tg_poll_active+0xa4>
    5e22:	88 23       	and	r24, r24
    5e24:	f1 f0       	breq	.+60     	; 0x5e62 <_tg_poll_active+0xda>
    5e26:	81 30       	cpi	r24, 0x01	; 1
    5e28:	e1 f4       	brne	.+56     	; 0x5e62 <_tg_poll_active+0xda>
    5e2a:	1d c0       	rjmp	.+58     	; 0x5e66 <_tg_poll_active+0xde>
    5e2c:	83 30       	cpi	r24, 0x03	; 3
    5e2e:	31 f0       	breq	.+12     	; 0x5e3c <_tg_poll_active+0xb4>
    5e30:	84 30       	cpi	r24, 0x04	; 4
    5e32:	b9 f4       	brne	.+46     	; 0x5e62 <_tg_poll_active+0xda>
    5e34:	06 c0       	rjmp	.+12     	; 0x5e42 <_tg_poll_active+0xba>
		case TG_NOOP: {								// no change in state
			break;
		}

		case TG_CONTINUE: { 						// returned without a new line
			tg.state = TG_STATE_READING_COMMAND; 
    5e36:	80 93 e9 21 	sts	0x21E9, r24
    5e3a:	15 c0       	rjmp	.+42     	; 0x5e66 <_tg_poll_active+0xde>
 * _tg_set_mode() - Set current operating mode
 */

void _tg_set_mode(uint8_t mode)
{
	tg.mode = mode;
    5e3c:	10 92 eb 21 	sts	0x21EB, r1
    5e40:	10 c0       	rjmp	.+32     	; 0x5e62 <_tg_poll_active+0xda>
			tg.state = TG_STATE_READY_UNPROMPTED;
			break;
		}
					  	
		case TG_EOF: {								// file devices only
			printf_P(PSTR("End of command file\n"));
    5e42:	0f 92       	push	r0
    5e44:	0f 92       	push	r0
    5e46:	84 eb       	ldi	r24, 0xB4	; 180
    5e48:	9a e1       	ldi	r25, 0x1A	; 26
    5e4a:	ed b7       	in	r30, 0x3d	; 61
    5e4c:	fe b7       	in	r31, 0x3e	; 62
    5e4e:	81 83       	std	Z+1, r24	; 0x01
    5e50:	92 83       	std	Z+2, r25	; 0x02
    5e52:	0e 94 84 44 	call	0x8908	; 0x8908 <printf_P>
			_tg_set_source(tg.source_default);		// reset to default source
    5e56:	0f 90       	pop	r0
    5e58:	0f 90       	pop	r0
    5e5a:	80 91 ed 21 	lds	r24, 0x21ED
    5e5e:	0e 94 c7 2d 	call	0x5b8e	; 0x5b8e <_tg_set_source>
			tg.state = TG_STATE_READY_UNPROMPTED;
			break;
		}
		default: {
			tg.state = TG_STATE_READY_UNPROMPTED;	// traps various error returns
    5e62:	10 92 e9 21 	sts	0x21E9, r1
		}
	}
}
    5e66:	df 91       	pop	r29
    5e68:	cf 91       	pop	r28
    5e6a:	08 95       	ret

00005e6c <tg_controller>:
 *	more to the point - a hack. If the flow of control gets much more complicated 
 *	it will make sense to replace this section with an event driven dispatcher.
 */

void tg_controller()
{
    5e6c:	cf 93       	push	r28
    5e6e:	df 93       	push	r29
	tgModeStringDirect
};

void _tg_prompt()
{
	if ((tg.prompts) && (tg.state == TG_STATE_READY_UNPROMPTED)) {
    5e70:	80 91 ee 21 	lds	r24, 0x21EE
    5e74:	88 23       	and	r24, r24
    5e76:	09 f1       	breq	.+66     	; 0x5eba <tg_controller+0x4e>
    5e78:	80 91 e9 21 	lds	r24, 0x21E9
    5e7c:	88 23       	and	r24, r24
    5e7e:	e9 f4       	brne	.+58     	; 0x5eba <tg_controller+0x4e>
//		printf_P(PSTR("TinyG [%S]*> "),(PGM_P)pgm_read_word(&tgModeStrings[tg.mode]));
		printf_P(PSTR("TinyG [%S]*> \n"),(PGM_P)pgm_read_word(&tgModeStrings[tg.mode]));
    5e80:	80 91 eb 21 	lds	r24, 0x21EB
    5e84:	e8 2f       	mov	r30, r24
    5e86:	f0 e0       	ldi	r31, 0x00	; 0
    5e88:	ee 0f       	add	r30, r30
    5e8a:	ff 1f       	adc	r31, r31
    5e8c:	e8 57       	subi	r30, 0x78	; 120
    5e8e:	f5 4e       	sbci	r31, 0xE5	; 229
    5e90:	25 91       	lpm	r18, Z+
    5e92:	34 91       	lpm	r19, Z+
    5e94:	00 d0       	rcall	.+0      	; 0x5e96 <tg_controller+0x2a>
    5e96:	0f 92       	push	r0
    5e98:	84 ef       	ldi	r24, 0xF4	; 244
    5e9a:	9a e1       	ldi	r25, 0x1A	; 26
    5e9c:	ed b7       	in	r30, 0x3d	; 61
    5e9e:	fe b7       	in	r31, 0x3e	; 62
    5ea0:	81 83       	std	Z+1, r24	; 0x01
    5ea2:	92 83       	std	Z+2, r25	; 0x02
    5ea4:	23 83       	std	Z+3, r18	; 0x03
    5ea6:	34 83       	std	Z+4, r19	; 0x04
    5ea8:	0e 94 84 44 	call	0x8908	; 0x8908 <printf_P>
		tg.state = TG_STATE_READY_PROMPTED;
    5eac:	81 e0       	ldi	r24, 0x01	; 1
    5eae:	80 93 e9 21 	sts	0x21E9, r24
    5eb2:	0f 90       	pop	r0
    5eb4:	0f 90       	pop	r0
    5eb6:	0f 90       	pop	r0
    5eb8:	0f 90       	pop	r0
	}
	// bastardized prompts for file sources
	if ((!tg.prompts) && (tg.state == TG_STATE_READY_UNPROMPTED)) {
    5eba:	80 91 ee 21 	lds	r24, 0x21EE
    5ebe:	88 23       	and	r24, r24
    5ec0:	f1 f4       	brne	.+60     	; 0x5efe <tg_controller+0x92>
    5ec2:	80 91 e9 21 	lds	r24, 0x21E9
    5ec6:	88 23       	and	r24, r24
    5ec8:	d1 f4       	brne	.+52     	; 0x5efe <tg_controller+0x92>
//		printf_P(PSTR("TinyG [%S]*> "),(PGM_P)pgm_read_word(&tgModeStrings[tg.mode]));
		printf_P(PSTR("TinyG [%S]*> \n"),(PGM_P)pgm_read_word(&tgModeStrings[tg.mode]));
    5eca:	80 91 eb 21 	lds	r24, 0x21EB
    5ece:	e8 2f       	mov	r30, r24
    5ed0:	f0 e0       	ldi	r31, 0x00	; 0
    5ed2:	ee 0f       	add	r30, r30
    5ed4:	ff 1f       	adc	r31, r31
    5ed6:	e8 57       	subi	r30, 0x78	; 120
    5ed8:	f5 4e       	sbci	r31, 0xE5	; 229
    5eda:	25 91       	lpm	r18, Z+
    5edc:	34 91       	lpm	r19, Z+
    5ede:	00 d0       	rcall	.+0      	; 0x5ee0 <tg_controller+0x74>
    5ee0:	0f 92       	push	r0
    5ee2:	85 ee       	ldi	r24, 0xE5	; 229
    5ee4:	9a e1       	ldi	r25, 0x1A	; 26
    5ee6:	ed b7       	in	r30, 0x3d	; 61
    5ee8:	fe b7       	in	r31, 0x3e	; 62
    5eea:	81 83       	std	Z+1, r24	; 0x01
    5eec:	92 83       	std	Z+2, r25	; 0x02
    5eee:	23 83       	std	Z+3, r18	; 0x03
    5ef0:	34 83       	std	Z+4, r19	; 0x04
    5ef2:	0e 94 84 44 	call	0x8908	; 0x8908 <printf_P>
    5ef6:	0f 90       	pop	r0
    5ef8:	0f 90       	pop	r0
    5efa:	0f 90       	pop	r0
    5efc:	0f 90       	pop	r0
{
//	uint8_t i = 1;

	_tg_prompt();		// Send a prompt - but only if controller is ready for input

	if ((tg.status = mc_line_continuation()) == TG_OK) { // Run the line generator 
    5efe:	0e 94 93 1a 	call	0x3526	; 0x3526 <mc_line_continuation>
    5f02:	80 93 ea 21 	sts	0x21EA, r24
    5f06:	88 23       	and	r24, r24
    5f08:	31 f0       	breq	.+12     	; 0x5f16 <tg_controller+0xaa>
		tg.state = TG_STATE_READY_UNPROMPTED;
		return;
	}

	if ((tg.status = mc_arc_continuation()) == TG_OK) {	 // Run the arc generator 
    5f0a:	0e 94 73 1d 	call	0x3ae6	; 0x3ae6 <mc_arc_continuation>
    5f0e:	80 93 ea 21 	sts	0x21EA, r24
    5f12:	88 23       	and	r24, r24
    5f14:	19 f4       	brne	.+6      	; 0x5f1c <tg_controller+0xb0>
		tg.state = TG_STATE_READY_UNPROMPTED;
    5f16:	10 92 e9 21 	sts	0x21E9, r1
    5f1a:	21 c0       	rjmp	.+66     	; 0x5f5e <tg_controller+0xf2>
		return;
	}

	for (tg.i=1; tg.i < XIO_DEV_MAX; tg.i++) {	// Scan all input devices 
    5f1c:	81 e0       	ldi	r24, 0x01	; 1
    5f1e:	80 93 ef 21 	sts	0x21EF, r24
		tg.dev[tg.i].poll_func(tg.i);			//   ...(except /dev/null)
    5f22:	ca e2       	ldi	r28, 0x2A	; 42
    5f24:	d0 e0       	ldi	r29, 0x00	; 0
    5f26:	17 c0       	rjmp	.+46     	; 0x5f56 <tg_controller+0xea>
    5f28:	82 2f       	mov	r24, r18
    5f2a:	90 e0       	ldi	r25, 0x00	; 0
    5f2c:	8c 9f       	mul	r24, r28
    5f2e:	f0 01       	movw	r30, r0
    5f30:	8d 9f       	mul	r24, r29
    5f32:	f0 0d       	add	r31, r0
    5f34:	9c 9f       	mul	r25, r28
    5f36:	f0 0d       	add	r31, r0
    5f38:	11 24       	eor	r1, r1
    5f3a:	ee 0f       	add	r30, r30
    5f3c:	ff 1f       	adc	r31, r31
    5f3e:	e5 51       	subi	r30, 0x15	; 21
    5f40:	fe 4d       	sbci	r31, 0xDE	; 222
    5f42:	07 80       	ldd	r0, Z+7	; 0x07
    5f44:	f0 85       	ldd	r31, Z+8	; 0x08
    5f46:	e0 2d       	mov	r30, r0
    5f48:	82 2f       	mov	r24, r18
    5f4a:	19 95       	eicall
	if ((tg.status = mc_arc_continuation()) == TG_OK) {	 // Run the arc generator 
		tg.state = TG_STATE_READY_UNPROMPTED;
		return;
	}

	for (tg.i=1; tg.i < XIO_DEV_MAX; tg.i++) {	// Scan all input devices 
    5f4c:	80 91 ef 21 	lds	r24, 0x21EF
    5f50:	8f 5f       	subi	r24, 0xFF	; 255
    5f52:	80 93 ef 21 	sts	0x21EF, r24
    5f56:	20 91 ef 21 	lds	r18, 0x21EF
    5f5a:	25 30       	cpi	r18, 0x05	; 5
    5f5c:	28 f3       	brcs	.-54     	; 0x5f28 <tg_controller+0xbc>
		tg.dev[tg.i].poll_func(tg.i);			//   ...(except /dev/null)
	}
}
    5f5e:	df 91       	pop	r29
    5f60:	cf 91       	pop	r28
    5f62:	08 95       	ret

00005f64 <tg_init>:
 * tg_init()
 */

void tg_init() 
{
	xio_control(XIO_DEV_USB, XIO_SIG_FUNC, (int)&tg_signal); // bind sig handler
    5f64:	81 e0       	ldi	r24, 0x01	; 1
    5f66:	60 e1       	ldi	r22, 0x10	; 16
    5f68:	70 e0       	ldi	r23, 0x00	; 0
    5f6a:	40 e3       	ldi	r20, 0x30	; 48
    5f6c:	5e e2       	ldi	r21, 0x2E	; 46
    5f6e:	0e 94 1f 26 	call	0x4c3e	; 0x4c3e <xio_control>
//	xio_control(XIO_DEV_AUX, XIO_SIG_FUNC, (int)&tg_signal);
//	xio_control(XIO_DEV_RS485, XIO_SIG_FUNC, (int)&tg_signal);

	tg.source_default = XIO_DEV_USB; 
    5f72:	81 e0       	ldi	r24, 0x01	; 1
    5f74:	80 93 ed 21 	sts	0x21ED, r24
	tg.state = TG_STATE_READY_UNPROMPTED;
    5f78:	10 92 e9 21 	sts	0x21E9, r1
	_tg_set_source(tg.source_default);		// set initial active source
    5f7c:	0e 94 c7 2d 	call	0x5b8e	; 0x5b8e <_tg_set_source>
 * _tg_set_mode() - Set current operating mode
 */

void _tg_set_mode(uint8_t mode)
{
	tg.mode = mode;
    5f80:	10 92 eb 21 	sts	0x21EB, r1
	tg.source_default = XIO_DEV_USB; 
	tg.state = TG_STATE_READY_UNPROMPTED;
	_tg_set_source(tg.source_default);		// set initial active source
	_tg_set_mode(TG_CONTROL_MODE);			// set initial operating mode

	printf_P(PSTR("TinyG - Version %S\n"), (PSTR(TINYG_VERSION)));
    5f84:	00 d0       	rcall	.+0      	; 0x5f86 <tg_init+0x22>
    5f86:	0f 92       	push	r0
    5f88:	8d e0       	ldi	r24, 0x0D	; 13
    5f8a:	9b e1       	ldi	r25, 0x1B	; 27
    5f8c:	ed b7       	in	r30, 0x3d	; 61
    5f8e:	fe b7       	in	r31, 0x3e	; 62
    5f90:	81 83       	std	Z+1, r24	; 0x01
    5f92:	92 83       	std	Z+2, r25	; 0x02
    5f94:	83 e0       	ldi	r24, 0x03	; 3
    5f96:	9b e1       	ldi	r25, 0x1B	; 27
    5f98:	83 83       	std	Z+3, r24	; 0x03
    5f9a:	94 83       	std	Z+4, r25	; 0x04
    5f9c:	0e 94 84 44 	call	0x8908	; 0x8908 <printf_P>
    5fa0:	0f 90       	pop	r0
    5fa2:	0f 90       	pop	r0
    5fa4:	0f 90       	pop	r0
    5fa6:	0f 90       	pop	r0
}
    5fa8:	08 95       	ret

00005faa <dd_init>:
    5faa:	08 95       	ret

00005fac <dd_parser>:
    5fac:	80 e0       	ldi	r24, 0x00	; 0
    5fae:	90 e0       	ldi	r25, 0x00	; 0
    5fb0:	08 95       	ret

00005fb2 <mv_init>:
    5fb2:	10 92 94 23 	sts	0x2394, r1
    5fb6:	10 92 95 23 	sts	0x2395, r1
    5fba:	08 95       	ret

00005fbc <mv_dequeue_move_buffer>:
    5fbc:	90 91 94 23 	lds	r25, 0x2394
    5fc0:	80 91 95 23 	lds	r24, 0x2395
    5fc4:	98 17       	cp	r25, r24
    5fc6:	19 f4       	brne	.+6      	; 0x5fce <mv_dequeue_move_buffer+0x12>
    5fc8:	20 e0       	ldi	r18, 0x00	; 0
    5fca:	30 e0       	ldi	r19, 0x00	; 0
    5fcc:	17 c0       	rjmp	.+46     	; 0x5ffc <mv_dequeue_move_buffer+0x40>
    5fce:	90 91 95 23 	lds	r25, 0x2395
    5fd2:	8b e1       	ldi	r24, 0x1B	; 27
    5fd4:	98 9f       	mul	r25, r24
    5fd6:	90 01       	movw	r18, r0
    5fd8:	11 24       	eor	r1, r1
    5fda:	28 56       	subi	r18, 0x68	; 104
    5fdc:	3c 4d       	sbci	r19, 0xDC	; 220
    5fde:	20 93 96 23 	sts	0x2396, r18
    5fe2:	30 93 97 23 	sts	0x2397, r19
    5fe6:	80 91 95 23 	lds	r24, 0x2395
    5fea:	8f 5f       	subi	r24, 0xFF	; 255
    5fec:	80 93 95 23 	sts	0x2395, r24
    5ff0:	80 91 95 23 	lds	r24, 0x2395
    5ff4:	84 30       	cpi	r24, 0x04	; 4
    5ff6:	10 f0       	brcs	.+4      	; 0x5ffc <mv_dequeue_move_buffer+0x40>
    5ff8:	10 92 95 23 	sts	0x2395, r1
    5ffc:	c9 01       	movw	r24, r18
    5ffe:	08 95       	ret

00006000 <mv_test_move_buffer_full>:
    6000:	90 91 94 23 	lds	r25, 0x2394
    6004:	9f 5f       	subi	r25, 0xFF	; 255
    6006:	94 30       	cpi	r25, 0x04	; 4
    6008:	08 f0       	brcs	.+2      	; 0x600c <mv_test_move_buffer_full+0xc>
    600a:	90 e0       	ldi	r25, 0x00	; 0
    600c:	80 91 95 23 	lds	r24, 0x2395
    6010:	20 e0       	ldi	r18, 0x00	; 0
    6012:	89 17       	cp	r24, r25
    6014:	09 f4       	brne	.+2      	; 0x6018 <mv_test_move_buffer_full+0x18>
    6016:	21 e0       	ldi	r18, 0x01	; 1
    6018:	82 2f       	mov	r24, r18
    601a:	08 95       	ret

0000601c <mv_synchronize>:
    601c:	0b c0       	rjmp	.+22     	; 0x6034 <mv_synchronize+0x18>
    601e:	80 91 48 00 	lds	r24, 0x0048
    6022:	81 60       	ori	r24, 0x01	; 1
    6024:	80 93 48 00 	sts	0x0048, r24
    6028:	88 95       	sleep
    602a:	80 91 48 00 	lds	r24, 0x0048
    602e:	8e 7f       	andi	r24, 0xFE	; 254
    6030:	80 93 48 00 	sts	0x0048, r24
    6034:	90 91 95 23 	lds	r25, 0x2395
    6038:	80 91 94 23 	lds	r24, 0x2394
    603c:	98 17       	cp	r25, r24
    603e:	79 f7       	brne	.-34     	; 0x601e <mv_synchronize+0x2>
    6040:	08 95       	ret

00006042 <mv_flush>:
    6042:	f8 94       	cli
    6044:	80 91 94 23 	lds	r24, 0x2394
    6048:	80 93 95 23 	sts	0x2395, r24
    604c:	10 92 96 23 	sts	0x2396, r1
    6050:	10 92 97 23 	sts	0x2397, r1
    6054:	78 94       	sei
    6056:	08 95       	ret

00006058 <mv_queue_move_buffer>:
    6058:	2f 92       	push	r2
    605a:	4f 92       	push	r4
    605c:	5f 92       	push	r5
    605e:	6f 92       	push	r6
    6060:	7f 92       	push	r7
    6062:	8f 92       	push	r8
    6064:	9f 92       	push	r9
    6066:	af 92       	push	r10
    6068:	bf 92       	push	r11
    606a:	cf 92       	push	r12
    606c:	df 92       	push	r13
    606e:	ef 92       	push	r14
    6070:	ff 92       	push	r15
    6072:	0f 93       	push	r16
    6074:	1f 93       	push	r17
    6076:	df 93       	push	r29
    6078:	cf 93       	push	r28
    607a:	cd b7       	in	r28, 0x3d	; 61
    607c:	de b7       	in	r29, 0x3e	; 62
    607e:	2e 97       	sbiw	r28, 0x0e	; 14
    6080:	cd bf       	out	0x3d, r28	; 61
    6082:	de bf       	out	0x3e, r29	; 62
    6084:	3b 01       	movw	r6, r22
    6086:	4c 01       	movw	r8, r24
    6088:	61 15       	cp	r22, r1
    608a:	71 05       	cpc	r23, r1
    608c:	81 05       	cpc	r24, r1
    608e:	91 05       	cpc	r25, r1
    6090:	61 f4       	brne	.+24     	; 0x60aa <mv_queue_move_buffer+0x52>
    6092:	21 15       	cp	r18, r1
    6094:	31 05       	cpc	r19, r1
    6096:	41 05       	cpc	r20, r1
    6098:	51 05       	cpc	r21, r1
    609a:	39 f4       	brne	.+14     	; 0x60aa <mv_queue_move_buffer+0x52>
    609c:	e1 14       	cp	r14, r1
    609e:	f1 04       	cpc	r15, r1
    60a0:	01 05       	cpc	r16, r1
    60a2:	11 05       	cpc	r17, r1
    60a4:	11 f4       	brne	.+4      	; 0x60aa <mv_queue_move_buffer+0x52>
    60a6:	89 e0       	ldi	r24, 0x09	; 9
    60a8:	e2 c0       	rjmp	.+452    	; 0x626e <mv_queue_move_buffer+0x216>
    60aa:	20 90 94 23 	lds	r2, 0x2394
    60ae:	23 94       	inc	r2
    60b0:	63 e0       	ldi	r22, 0x03	; 3
    60b2:	62 15       	cp	r22, r2
    60b4:	08 f4       	brcc	.+2      	; 0x60b8 <mv_queue_move_buffer+0x60>
    60b6:	22 24       	eor	r2, r2
    60b8:	80 91 95 23 	lds	r24, 0x2395
    60bc:	82 15       	cp	r24, r2
    60be:	11 f4       	brne	.+4      	; 0x60c4 <mv_queue_move_buffer+0x6c>
    60c0:	86 e0       	ldi	r24, 0x06	; 6
    60c2:	d5 c0       	rjmp	.+426    	; 0x626e <mv_queue_move_buffer+0x216>
    60c4:	e0 91 94 23 	lds	r30, 0x2394
    60c8:	8b e1       	ldi	r24, 0x1B	; 27
    60ca:	e8 9f       	mul	r30, r24
    60cc:	f0 01       	movw	r30, r0
    60ce:	11 24       	eor	r1, r1
    60d0:	e8 56       	subi	r30, 0x68	; 104
    60d2:	fc 4d       	sbci	r31, 0xDC	; 220
    60d4:	e0 93 96 23 	sts	0x2396, r30
    60d8:	f0 93 97 23 	sts	0x2397, r31
    60dc:	60 82       	st	Z, r6
    60de:	71 82       	std	Z+1, r7	; 0x01
    60e0:	82 82       	std	Z+2, r8	; 0x02
    60e2:	93 82       	std	Z+3, r9	; 0x03
    60e4:	21 87       	std	Z+9, r18	; 0x09
    60e6:	32 87       	std	Z+10, r19	; 0x0a
    60e8:	43 87       	std	Z+11, r20	; 0x0b
    60ea:	54 87       	std	Z+12, r21	; 0x0c
    60ec:	e2 8a       	std	Z+18, r14	; 0x12
    60ee:	f3 8a       	std	Z+19, r15	; 0x13
    60f0:	04 8b       	std	Z+20, r16	; 0x14
    60f2:	15 8b       	std	Z+21, r17	; 0x15
    60f4:	65 e0       	ldi	r22, 0x05	; 5
    60f6:	aa 0c       	add	r10, r10
    60f8:	bb 1c       	adc	r11, r11
    60fa:	cc 1c       	adc	r12, r12
    60fc:	dd 1c       	adc	r13, r13
    60fe:	6a 95       	dec	r22
    6100:	d1 f7       	brne	.-12     	; 0x60f6 <mv_queue_move_buffer+0x9e>
    6102:	a6 01       	movw	r20, r12
    6104:	95 01       	movw	r18, r10
    6106:	60 e0       	ldi	r22, 0x00	; 0
    6108:	70 e0       	ldi	r23, 0x00	; 0
    610a:	80 e0       	ldi	r24, 0x00	; 0
    610c:	90 e0       	ldi	r25, 0x00	; 0
    610e:	ab 82       	std	Y+3, r10	; 0x03
    6110:	3c 83       	std	Y+4, r19	; 0x04
    6112:	4d 83       	std	Y+5, r20	; 0x05
    6114:	5e 83       	std	Y+6, r21	; 0x06
    6116:	6f 83       	std	Y+7, r22	; 0x07
    6118:	78 87       	std	Y+8, r23	; 0x08
    611a:	89 87       	std	Y+9, r24	; 0x09
    611c:	9a 87       	std	Y+10, r25	; 0x0a
    611e:	1d 86       	std	Y+13, r1	; 0x0d
    6120:	1e 86       	std	Y+14, r1	; 0x0e
    6122:	20 91 96 23 	lds	r18, 0x2396
    6126:	30 91 97 23 	lds	r19, 0x2397
    612a:	ed 85       	ldd	r30, Y+13	; 0x0d
    612c:	fe 85       	ldd	r31, Y+14	; 0x0e
    612e:	53 e0       	ldi	r21, 0x03	; 3
    6130:	ee 0f       	add	r30, r30
    6132:	ff 1f       	adc	r31, r31
    6134:	5a 95       	dec	r21
    6136:	e1 f7       	brne	.-8      	; 0x6130 <mv_queue_move_buffer+0xd8>
    6138:	4d 85       	ldd	r20, Y+13	; 0x0d
    613a:	5e 85       	ldd	r21, Y+14	; 0x0e
    613c:	e4 0f       	add	r30, r20
    613e:	f5 1f       	adc	r31, r21
    6140:	e2 0f       	add	r30, r18
    6142:	f3 1f       	adc	r31, r19
    6144:	80 81       	ld	r24, Z
    6146:	91 81       	ldd	r25, Z+1	; 0x01
    6148:	a2 81       	ldd	r26, Z+2	; 0x02
    614a:	b3 81       	ldd	r27, Z+3	; 0x03
    614c:	00 97       	sbiw	r24, 0x00	; 0
    614e:	a1 05       	cpc	r26, r1
    6150:	b1 05       	cpc	r27, r1
    6152:	09 f4       	brne	.+2      	; 0x6156 <mv_queue_move_buffer+0xfe>
    6154:	7f c0       	rjmp	.+254    	; 0x6254 <mv_queue_move_buffer+0x1fc>
    6156:	b7 ff       	sbrs	r27, 7
    6158:	03 c0       	rjmp	.+6      	; 0x6160 <mv_queue_move_buffer+0x108>
    615a:	51 e0       	ldi	r21, 0x01	; 1
    615c:	50 87       	std	Z+8, r21	; 0x08
    615e:	01 c0       	rjmp	.+2      	; 0x6162 <mv_queue_move_buffer+0x10a>
    6160:	10 86       	std	Z+8, r1	; 0x08
    6162:	ed 85       	ldd	r30, Y+13	; 0x0d
    6164:	fe 85       	ldd	r31, Y+14	; 0x0e
    6166:	43 e0       	ldi	r20, 0x03	; 3
    6168:	ee 0f       	add	r30, r30
    616a:	ff 1f       	adc	r31, r31
    616c:	4a 95       	dec	r20
    616e:	e1 f7       	brne	.-8      	; 0x6168 <mv_queue_move_buffer+0x110>
    6170:	6d 85       	ldd	r22, Y+13	; 0x0d
    6172:	7e 85       	ldd	r23, Y+14	; 0x0e
    6174:	e6 0f       	add	r30, r22
    6176:	f7 1f       	adc	r31, r23
    6178:	e2 0f       	add	r30, r18
    617a:	f3 1f       	adc	r31, r19
    617c:	80 81       	ld	r24, Z
    617e:	91 81       	ldd	r25, Z+1	; 0x01
    6180:	a2 81       	ldd	r26, Z+2	; 0x02
    6182:	b3 81       	ldd	r27, Z+3	; 0x03
    6184:	b7 ff       	sbrs	r27, 7
    6186:	07 c0       	rjmp	.+14     	; 0x6196 <mv_queue_move_buffer+0x13e>
    6188:	b0 95       	com	r27
    618a:	a0 95       	com	r26
    618c:	90 95       	com	r25
    618e:	81 95       	neg	r24
    6190:	9f 4f       	sbci	r25, 0xFF	; 255
    6192:	af 4f       	sbci	r26, 0xFF	; 255
    6194:	bf 4f       	sbci	r27, 0xFF	; 255
    6196:	80 83       	st	Z, r24
    6198:	91 83       	std	Z+1, r25	; 0x01
    619a:	a2 83       	std	Z+2, r26	; 0x02
    619c:	b3 83       	std	Z+3, r27	; 0x03
    619e:	80 91 96 23 	lds	r24, 0x2396
    61a2:	90 91 97 23 	lds	r25, 0x2397
    61a6:	89 83       	std	Y+1, r24	; 0x01
    61a8:	9a 83       	std	Y+2, r25	; 0x02
    61aa:	4d 84       	ldd	r4, Y+13	; 0x0d
    61ac:	5e 84       	ldd	r5, Y+14	; 0x0e
    61ae:	23 e0       	ldi	r18, 0x03	; 3
    61b0:	44 0c       	add	r4, r4
    61b2:	55 1c       	adc	r5, r5
    61b4:	2a 95       	dec	r18
    61b6:	e1 f7       	brne	.-8      	; 0x61b0 <mv_queue_move_buffer+0x158>
    61b8:	ed 85       	ldd	r30, Y+13	; 0x0d
    61ba:	fe 85       	ldd	r31, Y+14	; 0x0e
    61bc:	e4 0d       	add	r30, r4
    61be:	f5 1d       	adc	r31, r5
    61c0:	e8 0f       	add	r30, r24
    61c2:	f9 1f       	adc	r31, r25
    61c4:	df 01       	movw	r26, r30
    61c6:	16 96       	adiw	r26, 0x06	; 6
    61c8:	ab 87       	std	Y+11, r26	; 0x0b
    61ca:	bc 87       	std	Y+12, r27	; 0x0c
    61cc:	21 e0       	ldi	r18, 0x01	; 1
    61ce:	30 e0       	ldi	r19, 0x00	; 0
    61d0:	26 83       	std	Z+6, r18	; 0x06
    61d2:	37 83       	std	Z+7, r19	; 0x07
    61d4:	e0 80       	ld	r14, Z
    61d6:	f1 80       	ldd	r15, Z+1	; 0x01
    61d8:	02 81       	ldd	r16, Z+2	; 0x02
    61da:	13 81       	ldd	r17, Z+3	; 0x03
    61dc:	37 01       	movw	r6, r14
    61de:	48 01       	movw	r8, r16
    61e0:	99 0c       	add	r9, r9
    61e2:	66 08       	sbc	r6, r6
    61e4:	76 2c       	mov	r7, r6
    61e6:	43 01       	movw	r8, r6
    61e8:	2b 81       	ldd	r18, Y+3	; 0x03
    61ea:	3c 81       	ldd	r19, Y+4	; 0x04
    61ec:	4d 81       	ldd	r20, Y+5	; 0x05
    61ee:	5e 81       	ldd	r21, Y+6	; 0x06
    61f0:	6f 81       	ldd	r22, Y+7	; 0x07
    61f2:	78 85       	ldd	r23, Y+8	; 0x08
    61f4:	89 85       	ldd	r24, Y+9	; 0x09
    61f6:	9a 85       	ldd	r25, Y+10	; 0x0a
    61f8:	57 01       	movw	r10, r14
    61fa:	68 01       	movw	r12, r16
    61fc:	e6 2c       	mov	r14, r6
    61fe:	f6 2c       	mov	r15, r6
    6200:	06 2d       	mov	r16, r6
    6202:	16 2d       	mov	r17, r6
    6204:	0e 94 b4 32 	call	0x6568	; 0x6568 <__udivdi3>
    6208:	c9 01       	movw	r24, r18
    620a:	da 01       	movw	r26, r20
    620c:	9c 01       	movw	r18, r24
    620e:	ad 01       	movw	r20, r26
    6210:	b2 01       	movw	r22, r4
    6212:	eb 85       	ldd	r30, Y+11	; 0x0b
    6214:	fc 85       	ldd	r31, Y+12	; 0x0c
    6216:	0a c0       	rjmp	.+20     	; 0x622c <mv_queue_move_buffer+0x1d4>
    6218:	56 95       	lsr	r21
    621a:	47 95       	ror	r20
    621c:	37 95       	ror	r19
    621e:	27 95       	ror	r18
    6220:	80 81       	ld	r24, Z
    6222:	91 81       	ldd	r25, Z+1	; 0x01
    6224:	88 0f       	add	r24, r24
    6226:	99 1f       	adc	r25, r25
    6228:	80 83       	st	Z, r24
    622a:	91 83       	std	Z+1, r25	; 0x01
    622c:	da 01       	movw	r26, r20
    622e:	c9 01       	movw	r24, r18
    6230:	80 70       	andi	r24, 0x00	; 0
    6232:	90 70       	andi	r25, 0x00	; 0
    6234:	00 97       	sbiw	r24, 0x00	; 0
    6236:	a1 05       	cpc	r26, r1
    6238:	b1 05       	cpc	r27, r1
    623a:	71 f7       	brne	.-36     	; 0x6218 <mv_queue_move_buffer+0x1c0>
    623c:	8d 85       	ldd	r24, Y+13	; 0x0d
    623e:	9e 85       	ldd	r25, Y+14	; 0x0e
    6240:	68 0f       	add	r22, r24
    6242:	79 1f       	adc	r23, r25
    6244:	a9 81       	ldd	r26, Y+1	; 0x01
    6246:	ba 81       	ldd	r27, Y+2	; 0x02
    6248:	a6 0f       	add	r26, r22
    624a:	b7 1f       	adc	r27, r23
    624c:	14 96       	adiw	r26, 0x04	; 4
    624e:	2d 93       	st	X+, r18
    6250:	3c 93       	st	X, r19
    6252:	15 97       	sbiw	r26, 0x05	; 5
    6254:	ed 85       	ldd	r30, Y+13	; 0x0d
    6256:	fe 85       	ldd	r31, Y+14	; 0x0e
    6258:	31 96       	adiw	r30, 0x01	; 1
    625a:	ed 87       	std	Y+13, r30	; 0x0d
    625c:	fe 87       	std	Y+14, r31	; 0x0e
    625e:	33 97       	sbiw	r30, 0x03	; 3
    6260:	09 f0       	breq	.+2      	; 0x6264 <mv_queue_move_buffer+0x20c>
    6262:	5f cf       	rjmp	.-322    	; 0x6122 <mv_queue_move_buffer+0xca>
    6264:	20 92 94 23 	sts	0x2394, r2
    6268:	0e 94 98 23 	call	0x4730	; 0x4730 <st_execute_move>
    626c:	80 e0       	ldi	r24, 0x00	; 0
    626e:	2e 96       	adiw	r28, 0x0e	; 14
    6270:	cd bf       	out	0x3d, r28	; 61
    6272:	de bf       	out	0x3e, r29	; 62
    6274:	cf 91       	pop	r28
    6276:	df 91       	pop	r29
    6278:	1f 91       	pop	r17
    627a:	0f 91       	pop	r16
    627c:	ff 90       	pop	r15
    627e:	ef 90       	pop	r14
    6280:	df 90       	pop	r13
    6282:	cf 90       	pop	r12
    6284:	bf 90       	pop	r11
    6286:	af 90       	pop	r10
    6288:	9f 90       	pop	r9
    628a:	8f 90       	pop	r8
    628c:	7f 90       	pop	r7
    628e:	6f 90       	pop	r6
    6290:	5f 90       	pop	r5
    6292:	4f 90       	pop	r4
    6294:	2f 90       	pop	r2
    6296:	08 95       	ret

00006298 <ls_init>:

#define	LS_OPC_gc PORT_OPC_PULLUP_gc				// totem poll pullup mode
#define LS_ISC_gc PORT_ISC_RISING_gc				// ISRs on rising edge

void ls_init(void) 
{
    6298:	a3 e1       	ldi	r26, 0x13	; 19
    629a:	b4 e2       	ldi	r27, 0x24	; 36
	for (uint8_t i=0; i <= A_AXIS; i++) {
		AXIS(i).port->DIRCLR = (1<<MIN_LIMIT_BIT_bp);		// min - set as input
    629c:	20 e4       	ldi	r18, 0x40	; 64
		AXIS(i).port->DIRCLR = (1<<MAX_LIMIT_BIT_bp);		// max - set as input
    629e:	90 e8       	ldi	r25, 0x80	; 128
		AXIS(i).port->PIN6CTRL = (LS_OPC_gc | LS_ISC_gc);	// min - pin modes
    62a0:	89 e1       	ldi	r24, 0x19	; 25
		AXIS(i).port->PIN7CTRL = (LS_OPC_gc | LS_ISC_gc);	// max - pin modes
		AXIS(i).port->INT0MASK = (1<<MIN_LIMIT_BIT_bp);		// min - INT0
		AXIS(i).port->INT1MASK = (1<<MAX_LIMIT_BIT_bp);		// max - INT1
		// set interrupt levels. Interrupts must be enabled in main()
		AXIS(i).port->INTCTRL = (PORT_INT0LVL_MED_gc | PORT_INT1LVL_MED_gc);
    62a2:	3a e0       	ldi	r19, 0x0A	; 10
#define LS_ISC_gc PORT_ISC_RISING_gc				// ISRs on rising edge

void ls_init(void) 
{
	for (uint8_t i=0; i <= A_AXIS; i++) {
		AXIS(i).port->DIRCLR = (1<<MIN_LIMIT_BIT_bp);		// min - set as input
    62a4:	ed 91       	ld	r30, X+
    62a6:	fc 91       	ld	r31, X
    62a8:	11 97       	sbiw	r26, 0x01	; 1
    62aa:	22 83       	std	Z+2, r18	; 0x02
		AXIS(i).port->DIRCLR = (1<<MAX_LIMIT_BIT_bp);		// max - set as input
    62ac:	ed 91       	ld	r30, X+
    62ae:	fc 91       	ld	r31, X
    62b0:	11 97       	sbiw	r26, 0x01	; 1
    62b2:	92 83       	std	Z+2, r25	; 0x02
		AXIS(i).port->PIN6CTRL = (LS_OPC_gc | LS_ISC_gc);	// min - pin modes
    62b4:	ed 91       	ld	r30, X+
    62b6:	fc 91       	ld	r31, X
    62b8:	11 97       	sbiw	r26, 0x01	; 1
    62ba:	86 8b       	std	Z+22, r24	; 0x16
		AXIS(i).port->PIN7CTRL = (LS_OPC_gc | LS_ISC_gc);	// max - pin modes
    62bc:	ed 91       	ld	r30, X+
    62be:	fc 91       	ld	r31, X
    62c0:	11 97       	sbiw	r26, 0x01	; 1
    62c2:	87 8b       	std	Z+23, r24	; 0x17
		AXIS(i).port->INT0MASK = (1<<MIN_LIMIT_BIT_bp);		// min - INT0
    62c4:	ed 91       	ld	r30, X+
    62c6:	fc 91       	ld	r31, X
    62c8:	11 97       	sbiw	r26, 0x01	; 1
    62ca:	22 87       	std	Z+10, r18	; 0x0a
		AXIS(i).port->INT1MASK = (1<<MAX_LIMIT_BIT_bp);		// max - INT1
    62cc:	ed 91       	ld	r30, X+
    62ce:	fc 91       	ld	r31, X
    62d0:	11 97       	sbiw	r26, 0x01	; 1
    62d2:	93 87       	std	Z+11, r25	; 0x0b
		// set interrupt levels. Interrupts must be enabled in main()
		AXIS(i).port->INTCTRL = (PORT_INT0LVL_MED_gc | PORT_INT1LVL_MED_gc);
    62d4:	ed 91       	ld	r30, X+
    62d6:	fc 91       	ld	r31, X
    62d8:	11 97       	sbiw	r26, 0x01	; 1
    62da:	31 87       	std	Z+9, r19	; 0x09
    62dc:	1f 96       	adiw	r26, 0x0f	; 15
#define	LS_OPC_gc PORT_OPC_PULLUP_gc				// totem poll pullup mode
#define LS_ISC_gc PORT_ISC_RISING_gc				// ISRs on rising edge

void ls_init(void) 
{
	for (uint8_t i=0; i <= A_AXIS; i++) {
    62de:	44 e2       	ldi	r20, 0x24	; 36
    62e0:	af 34       	cpi	r26, 0x4F	; 79
    62e2:	b4 07       	cpc	r27, r20
    62e4:	f9 f6       	brne	.-66     	; 0x62a4 <ls_init+0xc>
		AXIS(i).port->INT0MASK = (1<<MIN_LIMIT_BIT_bp);		// min - INT0
		AXIS(i).port->INT1MASK = (1<<MAX_LIMIT_BIT_bp);		// max - INT1
		// set interrupt levels. Interrupts must be enabled in main()
		AXIS(i).port->INTCTRL = (PORT_INT0LVL_MED_gc | PORT_INT1LVL_MED_gc);
	}
}
    62e6:	08 95       	ret

000062e8 <__vector_65>:
ISR(Y_MIN_ISR_vect)	{ _ls_handler(); }
ISR(Y_MAX_ISR_vect)	{ _ls_handler(); }
ISR(Z_MIN_ISR_vect)	{ _ls_handler(); }
ISR(Z_MAX_ISR_vect)	{ _ls_handler(); }
ISR(A_MIN_ISR_vect)	{ _ls_handler(); }
ISR(A_MAX_ISR_vect)	{ _ls_handler(); }
    62e8:	1f 92       	push	r1
    62ea:	0f 92       	push	r0
    62ec:	0f b6       	in	r0, 0x3f	; 63
    62ee:	0f 92       	push	r0
    62f0:	0b b6       	in	r0, 0x3b	; 59
    62f2:	0f 92       	push	r0
    62f4:	11 24       	eor	r1, r1
    62f6:	2f 93       	push	r18
    62f8:	3f 93       	push	r19
    62fa:	4f 93       	push	r20
    62fc:	5f 93       	push	r21
    62fe:	6f 93       	push	r22
    6300:	7f 93       	push	r23
    6302:	8f 93       	push	r24
    6304:	9f 93       	push	r25
    6306:	af 93       	push	r26
    6308:	bf 93       	push	r27
    630a:	ef 93       	push	r30
    630c:	ff 93       	push	r31

void _ls_handler() {
	tg_kill();
    630e:	0e 94 16 2e 	call	0x5c2c	; 0x5c2c <tg_kill>
ISR(Y_MIN_ISR_vect)	{ _ls_handler(); }
ISR(Y_MAX_ISR_vect)	{ _ls_handler(); }
ISR(Z_MIN_ISR_vect)	{ _ls_handler(); }
ISR(Z_MAX_ISR_vect)	{ _ls_handler(); }
ISR(A_MIN_ISR_vect)	{ _ls_handler(); }
ISR(A_MAX_ISR_vect)	{ _ls_handler(); }
    6312:	ff 91       	pop	r31
    6314:	ef 91       	pop	r30
    6316:	bf 91       	pop	r27
    6318:	af 91       	pop	r26
    631a:	9f 91       	pop	r25
    631c:	8f 91       	pop	r24
    631e:	7f 91       	pop	r23
    6320:	6f 91       	pop	r22
    6322:	5f 91       	pop	r21
    6324:	4f 91       	pop	r20
    6326:	3f 91       	pop	r19
    6328:	2f 91       	pop	r18
    632a:	0f 90       	pop	r0
    632c:	0b be       	out	0x3b, r0	; 59
    632e:	0f 90       	pop	r0
    6330:	0f be       	out	0x3f, r0	; 63
    6332:	0f 90       	pop	r0
    6334:	1f 90       	pop	r1
    6336:	18 95       	reti

00006338 <__vector_64>:
ISR(X_MAX_ISR_vect)	{ _ls_handler(); }
ISR(Y_MIN_ISR_vect)	{ _ls_handler(); }
ISR(Y_MAX_ISR_vect)	{ _ls_handler(); }
ISR(Z_MIN_ISR_vect)	{ _ls_handler(); }
ISR(Z_MAX_ISR_vect)	{ _ls_handler(); }
ISR(A_MIN_ISR_vect)	{ _ls_handler(); }
    6338:	1f 92       	push	r1
    633a:	0f 92       	push	r0
    633c:	0f b6       	in	r0, 0x3f	; 63
    633e:	0f 92       	push	r0
    6340:	0b b6       	in	r0, 0x3b	; 59
    6342:	0f 92       	push	r0
    6344:	11 24       	eor	r1, r1
    6346:	2f 93       	push	r18
    6348:	3f 93       	push	r19
    634a:	4f 93       	push	r20
    634c:	5f 93       	push	r21
    634e:	6f 93       	push	r22
    6350:	7f 93       	push	r23
    6352:	8f 93       	push	r24
    6354:	9f 93       	push	r25
    6356:	af 93       	push	r26
    6358:	bf 93       	push	r27
    635a:	ef 93       	push	r30
    635c:	ff 93       	push	r31
ISR(A_MAX_ISR_vect)	{ _ls_handler(); }

void _ls_handler() {
	tg_kill();
    635e:	0e 94 16 2e 	call	0x5c2c	; 0x5c2c <tg_kill>
ISR(X_MAX_ISR_vect)	{ _ls_handler(); }
ISR(Y_MIN_ISR_vect)	{ _ls_handler(); }
ISR(Y_MAX_ISR_vect)	{ _ls_handler(); }
ISR(Z_MIN_ISR_vect)	{ _ls_handler(); }
ISR(Z_MAX_ISR_vect)	{ _ls_handler(); }
ISR(A_MIN_ISR_vect)	{ _ls_handler(); }
    6362:	ff 91       	pop	r31
    6364:	ef 91       	pop	r30
    6366:	bf 91       	pop	r27
    6368:	af 91       	pop	r26
    636a:	9f 91       	pop	r25
    636c:	8f 91       	pop	r24
    636e:	7f 91       	pop	r23
    6370:	6f 91       	pop	r22
    6372:	5f 91       	pop	r21
    6374:	4f 91       	pop	r20
    6376:	3f 91       	pop	r19
    6378:	2f 91       	pop	r18
    637a:	0f 90       	pop	r0
    637c:	0b be       	out	0x3b, r0	; 59
    637e:	0f 90       	pop	r0
    6380:	0f be       	out	0x3f, r0	; 63
    6382:	0f 90       	pop	r0
    6384:	1f 90       	pop	r1
    6386:	18 95       	reti

00006388 <__vector_44>:
ISR(X_MIN_ISR_vect)	{ _ls_handler(); }
ISR(X_MAX_ISR_vect)	{ _ls_handler(); }
ISR(Y_MIN_ISR_vect)	{ _ls_handler(); }
ISR(Y_MAX_ISR_vect)	{ _ls_handler(); }
ISR(Z_MIN_ISR_vect)	{ _ls_handler(); }
ISR(Z_MAX_ISR_vect)	{ _ls_handler(); }
    6388:	1f 92       	push	r1
    638a:	0f 92       	push	r0
    638c:	0f b6       	in	r0, 0x3f	; 63
    638e:	0f 92       	push	r0
    6390:	0b b6       	in	r0, 0x3b	; 59
    6392:	0f 92       	push	r0
    6394:	11 24       	eor	r1, r1
    6396:	2f 93       	push	r18
    6398:	3f 93       	push	r19
    639a:	4f 93       	push	r20
    639c:	5f 93       	push	r21
    639e:	6f 93       	push	r22
    63a0:	7f 93       	push	r23
    63a2:	8f 93       	push	r24
    63a4:	9f 93       	push	r25
    63a6:	af 93       	push	r26
    63a8:	bf 93       	push	r27
    63aa:	ef 93       	push	r30
    63ac:	ff 93       	push	r31
ISR(A_MIN_ISR_vect)	{ _ls_handler(); }
ISR(A_MAX_ISR_vect)	{ _ls_handler(); }

void _ls_handler() {
	tg_kill();
    63ae:	0e 94 16 2e 	call	0x5c2c	; 0x5c2c <tg_kill>
ISR(X_MIN_ISR_vect)	{ _ls_handler(); }
ISR(X_MAX_ISR_vect)	{ _ls_handler(); }
ISR(Y_MIN_ISR_vect)	{ _ls_handler(); }
ISR(Y_MAX_ISR_vect)	{ _ls_handler(); }
ISR(Z_MIN_ISR_vect)	{ _ls_handler(); }
ISR(Z_MAX_ISR_vect)	{ _ls_handler(); }
    63b2:	ff 91       	pop	r31
    63b4:	ef 91       	pop	r30
    63b6:	bf 91       	pop	r27
    63b8:	af 91       	pop	r26
    63ba:	9f 91       	pop	r25
    63bc:	8f 91       	pop	r24
    63be:	7f 91       	pop	r23
    63c0:	6f 91       	pop	r22
    63c2:	5f 91       	pop	r21
    63c4:	4f 91       	pop	r20
    63c6:	3f 91       	pop	r19
    63c8:	2f 91       	pop	r18
    63ca:	0f 90       	pop	r0
    63cc:	0b be       	out	0x3b, r0	; 59
    63ce:	0f 90       	pop	r0
    63d0:	0f be       	out	0x3f, r0	; 63
    63d2:	0f 90       	pop	r0
    63d4:	1f 90       	pop	r1
    63d6:	18 95       	reti

000063d8 <__vector_43>:

ISR(X_MIN_ISR_vect)	{ _ls_handler(); }
ISR(X_MAX_ISR_vect)	{ _ls_handler(); }
ISR(Y_MIN_ISR_vect)	{ _ls_handler(); }
ISR(Y_MAX_ISR_vect)	{ _ls_handler(); }
ISR(Z_MIN_ISR_vect)	{ _ls_handler(); }
    63d8:	1f 92       	push	r1
    63da:	0f 92       	push	r0
    63dc:	0f b6       	in	r0, 0x3f	; 63
    63de:	0f 92       	push	r0
    63e0:	0b b6       	in	r0, 0x3b	; 59
    63e2:	0f 92       	push	r0
    63e4:	11 24       	eor	r1, r1
    63e6:	2f 93       	push	r18
    63e8:	3f 93       	push	r19
    63ea:	4f 93       	push	r20
    63ec:	5f 93       	push	r21
    63ee:	6f 93       	push	r22
    63f0:	7f 93       	push	r23
    63f2:	8f 93       	push	r24
    63f4:	9f 93       	push	r25
    63f6:	af 93       	push	r26
    63f8:	bf 93       	push	r27
    63fa:	ef 93       	push	r30
    63fc:	ff 93       	push	r31
ISR(Z_MAX_ISR_vect)	{ _ls_handler(); }
ISR(A_MIN_ISR_vect)	{ _ls_handler(); }
ISR(A_MAX_ISR_vect)	{ _ls_handler(); }

void _ls_handler() {
	tg_kill();
    63fe:	0e 94 16 2e 	call	0x5c2c	; 0x5c2c <tg_kill>

ISR(X_MIN_ISR_vect)	{ _ls_handler(); }
ISR(X_MAX_ISR_vect)	{ _ls_handler(); }
ISR(Y_MIN_ISR_vect)	{ _ls_handler(); }
ISR(Y_MAX_ISR_vect)	{ _ls_handler(); }
ISR(Z_MIN_ISR_vect)	{ _ls_handler(); }
    6402:	ff 91       	pop	r31
    6404:	ef 91       	pop	r30
    6406:	bf 91       	pop	r27
    6408:	af 91       	pop	r26
    640a:	9f 91       	pop	r25
    640c:	8f 91       	pop	r24
    640e:	7f 91       	pop	r23
    6410:	6f 91       	pop	r22
    6412:	5f 91       	pop	r21
    6414:	4f 91       	pop	r20
    6416:	3f 91       	pop	r19
    6418:	2f 91       	pop	r18
    641a:	0f 90       	pop	r0
    641c:	0b be       	out	0x3b, r0	; 59
    641e:	0f 90       	pop	r0
    6420:	0f be       	out	0x3f, r0	; 63
    6422:	0f 90       	pop	r0
    6424:	1f 90       	pop	r1
    6426:	18 95       	reti

00006428 <__vector_105>:
 */

ISR(X_MIN_ISR_vect)	{ _ls_handler(); }
ISR(X_MAX_ISR_vect)	{ _ls_handler(); }
ISR(Y_MIN_ISR_vect)	{ _ls_handler(); }
ISR(Y_MAX_ISR_vect)	{ _ls_handler(); }
    6428:	1f 92       	push	r1
    642a:	0f 92       	push	r0
    642c:	0f b6       	in	r0, 0x3f	; 63
    642e:	0f 92       	push	r0
    6430:	0b b6       	in	r0, 0x3b	; 59
    6432:	0f 92       	push	r0
    6434:	11 24       	eor	r1, r1
    6436:	2f 93       	push	r18
    6438:	3f 93       	push	r19
    643a:	4f 93       	push	r20
    643c:	5f 93       	push	r21
    643e:	6f 93       	push	r22
    6440:	7f 93       	push	r23
    6442:	8f 93       	push	r24
    6444:	9f 93       	push	r25
    6446:	af 93       	push	r26
    6448:	bf 93       	push	r27
    644a:	ef 93       	push	r30
    644c:	ff 93       	push	r31
ISR(Z_MAX_ISR_vect)	{ _ls_handler(); }
ISR(A_MIN_ISR_vect)	{ _ls_handler(); }
ISR(A_MAX_ISR_vect)	{ _ls_handler(); }

void _ls_handler() {
	tg_kill();
    644e:	0e 94 16 2e 	call	0x5c2c	; 0x5c2c <tg_kill>
 */

ISR(X_MIN_ISR_vect)	{ _ls_handler(); }
ISR(X_MAX_ISR_vect)	{ _ls_handler(); }
ISR(Y_MIN_ISR_vect)	{ _ls_handler(); }
ISR(Y_MAX_ISR_vect)	{ _ls_handler(); }
    6452:	ff 91       	pop	r31
    6454:	ef 91       	pop	r30
    6456:	bf 91       	pop	r27
    6458:	af 91       	pop	r26
    645a:	9f 91       	pop	r25
    645c:	8f 91       	pop	r24
    645e:	7f 91       	pop	r23
    6460:	6f 91       	pop	r22
    6462:	5f 91       	pop	r21
    6464:	4f 91       	pop	r20
    6466:	3f 91       	pop	r19
    6468:	2f 91       	pop	r18
    646a:	0f 90       	pop	r0
    646c:	0b be       	out	0x3b, r0	; 59
    646e:	0f 90       	pop	r0
    6470:	0f be       	out	0x3f, r0	; 63
    6472:	0f 90       	pop	r0
    6474:	1f 90       	pop	r1
    6476:	18 95       	reti

00006478 <__vector_104>:
 * ISRs - Limit switch interrupt handler routine and vectors
 */

ISR(X_MIN_ISR_vect)	{ _ls_handler(); }
ISR(X_MAX_ISR_vect)	{ _ls_handler(); }
ISR(Y_MIN_ISR_vect)	{ _ls_handler(); }
    6478:	1f 92       	push	r1
    647a:	0f 92       	push	r0
    647c:	0f b6       	in	r0, 0x3f	; 63
    647e:	0f 92       	push	r0
    6480:	0b b6       	in	r0, 0x3b	; 59
    6482:	0f 92       	push	r0
    6484:	11 24       	eor	r1, r1
    6486:	2f 93       	push	r18
    6488:	3f 93       	push	r19
    648a:	4f 93       	push	r20
    648c:	5f 93       	push	r21
    648e:	6f 93       	push	r22
    6490:	7f 93       	push	r23
    6492:	8f 93       	push	r24
    6494:	9f 93       	push	r25
    6496:	af 93       	push	r26
    6498:	bf 93       	push	r27
    649a:	ef 93       	push	r30
    649c:	ff 93       	push	r31
ISR(Z_MAX_ISR_vect)	{ _ls_handler(); }
ISR(A_MIN_ISR_vect)	{ _ls_handler(); }
ISR(A_MAX_ISR_vect)	{ _ls_handler(); }

void _ls_handler() {
	tg_kill();
    649e:	0e 94 16 2e 	call	0x5c2c	; 0x5c2c <tg_kill>
 * ISRs - Limit switch interrupt handler routine and vectors
 */

ISR(X_MIN_ISR_vect)	{ _ls_handler(); }
ISR(X_MAX_ISR_vect)	{ _ls_handler(); }
ISR(Y_MIN_ISR_vect)	{ _ls_handler(); }
    64a2:	ff 91       	pop	r31
    64a4:	ef 91       	pop	r30
    64a6:	bf 91       	pop	r27
    64a8:	af 91       	pop	r26
    64aa:	9f 91       	pop	r25
    64ac:	8f 91       	pop	r24
    64ae:	7f 91       	pop	r23
    64b0:	6f 91       	pop	r22
    64b2:	5f 91       	pop	r21
    64b4:	4f 91       	pop	r20
    64b6:	3f 91       	pop	r19
    64b8:	2f 91       	pop	r18
    64ba:	0f 90       	pop	r0
    64bc:	0b be       	out	0x3b, r0	; 59
    64be:	0f 90       	pop	r0
    64c0:	0f be       	out	0x3f, r0	; 63
    64c2:	0f 90       	pop	r0
    64c4:	1f 90       	pop	r1
    64c6:	18 95       	reti

000064c8 <__vector_67>:
/*
 * ISRs - Limit switch interrupt handler routine and vectors
 */

ISR(X_MIN_ISR_vect)	{ _ls_handler(); }
ISR(X_MAX_ISR_vect)	{ _ls_handler(); }
    64c8:	1f 92       	push	r1
    64ca:	0f 92       	push	r0
    64cc:	0f b6       	in	r0, 0x3f	; 63
    64ce:	0f 92       	push	r0
    64d0:	0b b6       	in	r0, 0x3b	; 59
    64d2:	0f 92       	push	r0
    64d4:	11 24       	eor	r1, r1
    64d6:	2f 93       	push	r18
    64d8:	3f 93       	push	r19
    64da:	4f 93       	push	r20
    64dc:	5f 93       	push	r21
    64de:	6f 93       	push	r22
    64e0:	7f 93       	push	r23
    64e2:	8f 93       	push	r24
    64e4:	9f 93       	push	r25
    64e6:	af 93       	push	r26
    64e8:	bf 93       	push	r27
    64ea:	ef 93       	push	r30
    64ec:	ff 93       	push	r31
ISR(Z_MAX_ISR_vect)	{ _ls_handler(); }
ISR(A_MIN_ISR_vect)	{ _ls_handler(); }
ISR(A_MAX_ISR_vect)	{ _ls_handler(); }

void _ls_handler() {
	tg_kill();
    64ee:	0e 94 16 2e 	call	0x5c2c	; 0x5c2c <tg_kill>
/*
 * ISRs - Limit switch interrupt handler routine and vectors
 */

ISR(X_MIN_ISR_vect)	{ _ls_handler(); }
ISR(X_MAX_ISR_vect)	{ _ls_handler(); }
    64f2:	ff 91       	pop	r31
    64f4:	ef 91       	pop	r30
    64f6:	bf 91       	pop	r27
    64f8:	af 91       	pop	r26
    64fa:	9f 91       	pop	r25
    64fc:	8f 91       	pop	r24
    64fe:	7f 91       	pop	r23
    6500:	6f 91       	pop	r22
    6502:	5f 91       	pop	r21
    6504:	4f 91       	pop	r20
    6506:	3f 91       	pop	r19
    6508:	2f 91       	pop	r18
    650a:	0f 90       	pop	r0
    650c:	0b be       	out	0x3b, r0	; 59
    650e:	0f 90       	pop	r0
    6510:	0f be       	out	0x3f, r0	; 63
    6512:	0f 90       	pop	r0
    6514:	1f 90       	pop	r1
    6516:	18 95       	reti

00006518 <__vector_66>:

/*
 * ISRs - Limit switch interrupt handler routine and vectors
 */

ISR(X_MIN_ISR_vect)	{ _ls_handler(); }
    6518:	1f 92       	push	r1
    651a:	0f 92       	push	r0
    651c:	0f b6       	in	r0, 0x3f	; 63
    651e:	0f 92       	push	r0
    6520:	0b b6       	in	r0, 0x3b	; 59
    6522:	0f 92       	push	r0
    6524:	11 24       	eor	r1, r1
    6526:	2f 93       	push	r18
    6528:	3f 93       	push	r19
    652a:	4f 93       	push	r20
    652c:	5f 93       	push	r21
    652e:	6f 93       	push	r22
    6530:	7f 93       	push	r23
    6532:	8f 93       	push	r24
    6534:	9f 93       	push	r25
    6536:	af 93       	push	r26
    6538:	bf 93       	push	r27
    653a:	ef 93       	push	r30
    653c:	ff 93       	push	r31
ISR(Z_MAX_ISR_vect)	{ _ls_handler(); }
ISR(A_MIN_ISR_vect)	{ _ls_handler(); }
ISR(A_MAX_ISR_vect)	{ _ls_handler(); }

void _ls_handler() {
	tg_kill();
    653e:	0e 94 16 2e 	call	0x5c2c	; 0x5c2c <tg_kill>

/*
 * ISRs - Limit switch interrupt handler routine and vectors
 */

ISR(X_MIN_ISR_vect)	{ _ls_handler(); }
    6542:	ff 91       	pop	r31
    6544:	ef 91       	pop	r30
    6546:	bf 91       	pop	r27
    6548:	af 91       	pop	r26
    654a:	9f 91       	pop	r25
    654c:	8f 91       	pop	r24
    654e:	7f 91       	pop	r23
    6550:	6f 91       	pop	r22
    6552:	5f 91       	pop	r21
    6554:	4f 91       	pop	r20
    6556:	3f 91       	pop	r19
    6558:	2f 91       	pop	r18
    655a:	0f 90       	pop	r0
    655c:	0b be       	out	0x3b, r0	; 59
    655e:	0f 90       	pop	r0
    6560:	0f be       	out	0x3f, r0	; 63
    6562:	0f 90       	pop	r0
    6564:	1f 90       	pop	r1
    6566:	18 95       	reti

00006568 <__udivdi3>:
    6568:	ae e5       	ldi	r26, 0x5E	; 94
    656a:	b0 e0       	ldi	r27, 0x00	; 0
    656c:	ea eb       	ldi	r30, 0xBA	; 186
    656e:	f2 e3       	ldi	r31, 0x32	; 50
    6570:	0c 94 47 41 	jmp	0x828e	; 0x828e <__prologue_saves__>
    6574:	a8 e0       	ldi	r26, 0x08	; 8
    6576:	4e 01       	movw	r8, r28
    6578:	08 94       	sec
    657a:	81 1c       	adc	r8, r1
    657c:	91 1c       	adc	r9, r1
    657e:	f4 01       	movw	r30, r8
    6580:	6a 2e       	mov	r6, r26
    6582:	11 92       	st	Z+, r1
    6584:	6a 94       	dec	r6
    6586:	e9 f7       	brne	.-6      	; 0x6582 <__udivdi3+0x1a>
    6588:	29 83       	std	Y+1, r18	; 0x01
    658a:	3a 83       	std	Y+2, r19	; 0x02
    658c:	4b 83       	std	Y+3, r20	; 0x03
    658e:	5c 83       	std	Y+4, r21	; 0x04
    6590:	6d 83       	std	Y+5, r22	; 0x05
    6592:	7e 83       	std	Y+6, r23	; 0x06
    6594:	8f 83       	std	Y+7, r24	; 0x07
    6596:	98 87       	std	Y+8, r25	; 0x08
    6598:	ce 01       	movw	r24, r28
    659a:	09 96       	adiw	r24, 0x09	; 9
    659c:	fc 01       	movw	r30, r24
    659e:	11 92       	st	Z+, r1
    65a0:	aa 95       	dec	r26
    65a2:	e9 f7       	brne	.-6      	; 0x659e <__udivdi3+0x36>
    65a4:	a9 86       	std	Y+9, r10	; 0x09
    65a6:	ba 86       	std	Y+10, r11	; 0x0a
    65a8:	cb 86       	std	Y+11, r12	; 0x0b
    65aa:	dc 86       	std	Y+12, r13	; 0x0c
    65ac:	ed 86       	std	Y+13, r14	; 0x0d
    65ae:	fe 86       	std	Y+14, r15	; 0x0e
    65b0:	0f 87       	std	Y+15, r16	; 0x0f
    65b2:	18 8b       	std	Y+16, r17	; 0x10
    65b4:	29 84       	ldd	r2, Y+9	; 0x09
    65b6:	3a 84       	ldd	r3, Y+10	; 0x0a
    65b8:	4b 84       	ldd	r4, Y+11	; 0x0b
    65ba:	5c 84       	ldd	r5, Y+12	; 0x0c
    65bc:	ed 84       	ldd	r14, Y+13	; 0x0d
    65be:	fe 84       	ldd	r15, Y+14	; 0x0e
    65c0:	0f 85       	ldd	r16, Y+15	; 0x0f
    65c2:	18 89       	ldd	r17, Y+16	; 0x10
    65c4:	69 80       	ldd	r6, Y+1	; 0x01
    65c6:	7a 80       	ldd	r7, Y+2	; 0x02
    65c8:	8b 80       	ldd	r8, Y+3	; 0x03
    65ca:	9c 80       	ldd	r9, Y+4	; 0x04
    65cc:	6d a6       	std	Y+45, r6	; 0x2d
    65ce:	7e a6       	std	Y+46, r7	; 0x2e
    65d0:	8f a6       	std	Y+47, r8	; 0x2f
    65d2:	98 aa       	std	Y+48, r9	; 0x30
    65d4:	6d 80       	ldd	r6, Y+5	; 0x05
    65d6:	7e 80       	ldd	r7, Y+6	; 0x06
    65d8:	8f 80       	ldd	r8, Y+7	; 0x07
    65da:	98 84       	ldd	r9, Y+8	; 0x08
    65dc:	e1 14       	cp	r14, r1
    65de:	f1 04       	cpc	r15, r1
    65e0:	01 05       	cpc	r16, r1
    65e2:	11 05       	cpc	r17, r1
    65e4:	09 f0       	breq	.+2      	; 0x65e8 <__udivdi3+0x80>
    65e6:	b3 c3       	rjmp	.+1894   	; 0x6d4e <__udivdi3+0x7e6>
    65e8:	62 14       	cp	r6, r2
    65ea:	73 04       	cpc	r7, r3
    65ec:	84 04       	cpc	r8, r4
    65ee:	95 04       	cpc	r9, r5
    65f0:	08 f0       	brcs	.+2      	; 0x65f4 <__udivdi3+0x8c>
    65f2:	3d c1       	rjmp	.+634    	; 0x686e <__udivdi3+0x306>
    65f4:	00 e0       	ldi	r16, 0x00	; 0
    65f6:	20 16       	cp	r2, r16
    65f8:	00 e0       	ldi	r16, 0x00	; 0
    65fa:	30 06       	cpc	r3, r16
    65fc:	01 e0       	ldi	r16, 0x01	; 1
    65fe:	40 06       	cpc	r4, r16
    6600:	00 e0       	ldi	r16, 0x00	; 0
    6602:	50 06       	cpc	r5, r16
    6604:	88 f4       	brcc	.+34     	; 0x6628 <__udivdi3+0xc0>
    6606:	1f ef       	ldi	r17, 0xFF	; 255
    6608:	21 16       	cp	r2, r17
    660a:	31 04       	cpc	r3, r1
    660c:	41 04       	cpc	r4, r1
    660e:	51 04       	cpc	r5, r1
    6610:	39 f0       	breq	.+14     	; 0x6620 <__udivdi3+0xb8>
    6612:	30 f0       	brcs	.+12     	; 0x6620 <__udivdi3+0xb8>
    6614:	48 e0       	ldi	r20, 0x08	; 8
    6616:	e4 2e       	mov	r14, r20
    6618:	f1 2c       	mov	r15, r1
    661a:	01 2d       	mov	r16, r1
    661c:	11 2d       	mov	r17, r1
    661e:	18 c0       	rjmp	.+48     	; 0x6650 <__udivdi3+0xe8>
    6620:	ee 24       	eor	r14, r14
    6622:	ff 24       	eor	r15, r15
    6624:	87 01       	movw	r16, r14
    6626:	14 c0       	rjmp	.+40     	; 0x6650 <__udivdi3+0xe8>
    6628:	20 e0       	ldi	r18, 0x00	; 0
    662a:	22 16       	cp	r2, r18
    662c:	20 e0       	ldi	r18, 0x00	; 0
    662e:	32 06       	cpc	r3, r18
    6630:	20 e0       	ldi	r18, 0x00	; 0
    6632:	42 06       	cpc	r4, r18
    6634:	21 e0       	ldi	r18, 0x01	; 1
    6636:	52 06       	cpc	r5, r18
    6638:	30 f0       	brcs	.+12     	; 0x6646 <__udivdi3+0xde>
    663a:	38 e1       	ldi	r19, 0x18	; 24
    663c:	e3 2e       	mov	r14, r19
    663e:	f1 2c       	mov	r15, r1
    6640:	01 2d       	mov	r16, r1
    6642:	11 2d       	mov	r17, r1
    6644:	05 c0       	rjmp	.+10     	; 0x6650 <__udivdi3+0xe8>
    6646:	20 e1       	ldi	r18, 0x10	; 16
    6648:	e2 2e       	mov	r14, r18
    664a:	f1 2c       	mov	r15, r1
    664c:	01 2d       	mov	r16, r1
    664e:	11 2d       	mov	r17, r1
    6650:	d2 01       	movw	r26, r4
    6652:	c1 01       	movw	r24, r2
    6654:	0e 2c       	mov	r0, r14
    6656:	04 c0       	rjmp	.+8      	; 0x6660 <__udivdi3+0xf8>
    6658:	b6 95       	lsr	r27
    665a:	a7 95       	ror	r26
    665c:	97 95       	ror	r25
    665e:	87 95       	ror	r24
    6660:	0a 94       	dec	r0
    6662:	d2 f7       	brpl	.-12     	; 0x6658 <__udivdi3+0xf0>
    6664:	84 5e       	subi	r24, 0xE4	; 228
    6666:	9f 4d       	sbci	r25, 0xDF	; 223
    6668:	dc 01       	movw	r26, r24
    666a:	2c 91       	ld	r18, X
    666c:	80 e2       	ldi	r24, 0x20	; 32
    666e:	90 e0       	ldi	r25, 0x00	; 0
    6670:	a0 e0       	ldi	r26, 0x00	; 0
    6672:	b0 e0       	ldi	r27, 0x00	; 0
    6674:	8e 19       	sub	r24, r14
    6676:	9f 09       	sbc	r25, r15
    6678:	a0 0b       	sbc	r26, r16
    667a:	b1 0b       	sbc	r27, r17
    667c:	7c 01       	movw	r14, r24
    667e:	8d 01       	movw	r16, r26
    6680:	e2 1a       	sub	r14, r18
    6682:	f1 08       	sbc	r15, r1
    6684:	01 09       	sbc	r16, r1
    6686:	11 09       	sbc	r17, r1
    6688:	e1 14       	cp	r14, r1
    668a:	f1 04       	cpc	r15, r1
    668c:	01 05       	cpc	r16, r1
    668e:	11 05       	cpc	r17, r1
    6690:	a1 f1       	breq	.+104    	; 0x66fa <__udivdi3+0x192>
    6692:	0e 2c       	mov	r0, r14
    6694:	04 c0       	rjmp	.+8      	; 0x669e <__udivdi3+0x136>
    6696:	22 0c       	add	r2, r2
    6698:	33 1c       	adc	r3, r3
    669a:	44 1c       	adc	r4, r4
    669c:	55 1c       	adc	r5, r5
    669e:	0a 94       	dec	r0
    66a0:	d2 f7       	brpl	.-12     	; 0x6696 <__udivdi3+0x12e>
    66a2:	a4 01       	movw	r20, r8
    66a4:	93 01       	movw	r18, r6
    66a6:	0e 2c       	mov	r0, r14
    66a8:	04 c0       	rjmp	.+8      	; 0x66b2 <__udivdi3+0x14a>
    66aa:	22 0f       	add	r18, r18
    66ac:	33 1f       	adc	r19, r19
    66ae:	44 1f       	adc	r20, r20
    66b0:	55 1f       	adc	r21, r21
    66b2:	0a 94       	dec	r0
    66b4:	d2 f7       	brpl	.-12     	; 0x66aa <__udivdi3+0x142>
    66b6:	80 e2       	ldi	r24, 0x20	; 32
    66b8:	90 e0       	ldi	r25, 0x00	; 0
    66ba:	8e 19       	sub	r24, r14
    66bc:	9f 09       	sbc	r25, r15
    66be:	6d a4       	ldd	r6, Y+45	; 0x2d
    66c0:	7e a4       	ldd	r7, Y+46	; 0x2e
    66c2:	8f a4       	ldd	r8, Y+47	; 0x2f
    66c4:	98 a8       	ldd	r9, Y+48	; 0x30
    66c6:	04 c0       	rjmp	.+8      	; 0x66d0 <__udivdi3+0x168>
    66c8:	96 94       	lsr	r9
    66ca:	87 94       	ror	r8
    66cc:	77 94       	ror	r7
    66ce:	67 94       	ror	r6
    66d0:	8a 95       	dec	r24
    66d2:	d2 f7       	brpl	.-12     	; 0x66c8 <__udivdi3+0x160>
    66d4:	62 2a       	or	r6, r18
    66d6:	73 2a       	or	r7, r19
    66d8:	84 2a       	or	r8, r20
    66da:	95 2a       	or	r9, r21
    66dc:	ad a4       	ldd	r10, Y+45	; 0x2d
    66de:	be a4       	ldd	r11, Y+46	; 0x2e
    66e0:	cf a4       	ldd	r12, Y+47	; 0x2f
    66e2:	d8 a8       	ldd	r13, Y+48	; 0x30
    66e4:	04 c0       	rjmp	.+8      	; 0x66ee <__udivdi3+0x186>
    66e6:	aa 0c       	add	r10, r10
    66e8:	bb 1c       	adc	r11, r11
    66ea:	cc 1c       	adc	r12, r12
    66ec:	dd 1c       	adc	r13, r13
    66ee:	ea 94       	dec	r14
    66f0:	d2 f7       	brpl	.-12     	; 0x66e6 <__udivdi3+0x17e>
    66f2:	ad a6       	std	Y+45, r10	; 0x2d
    66f4:	be a6       	std	Y+46, r11	; 0x2e
    66f6:	cf a6       	std	Y+47, r12	; 0x2f
    66f8:	d8 aa       	std	Y+48, r13	; 0x30
    66fa:	62 01       	movw	r12, r4
    66fc:	ee 24       	eor	r14, r14
    66fe:	ff 24       	eor	r15, r15
    6700:	cd aa       	std	Y+53, r12	; 0x35
    6702:	de aa       	std	Y+54, r13	; 0x36
    6704:	ef aa       	std	Y+55, r14	; 0x37
    6706:	f8 ae       	std	Y+56, r15	; 0x38
    6708:	92 01       	movw	r18, r4
    670a:	81 01       	movw	r16, r2
    670c:	20 70       	andi	r18, 0x00	; 0
    670e:	30 70       	andi	r19, 0x00	; 0
    6710:	09 af       	std	Y+57, r16	; 0x39
    6712:	1a af       	std	Y+58, r17	; 0x3a
    6714:	2b af       	std	Y+59, r18	; 0x3b
    6716:	3c af       	std	Y+60, r19	; 0x3c
    6718:	c4 01       	movw	r24, r8
    671a:	b3 01       	movw	r22, r6
    671c:	a7 01       	movw	r20, r14
    671e:	96 01       	movw	r18, r12
    6720:	0e 94 25 41 	call	0x824a	; 0x824a <__udivmodsi4>
    6724:	7b 01       	movw	r14, r22
    6726:	8c 01       	movw	r16, r24
    6728:	c4 01       	movw	r24, r8
    672a:	b3 01       	movw	r22, r6
    672c:	2d a9       	ldd	r18, Y+53	; 0x35
    672e:	3e a9       	ldd	r19, Y+54	; 0x36
    6730:	4f a9       	ldd	r20, Y+55	; 0x37
    6732:	58 ad       	ldd	r21, Y+56	; 0x38
    6734:	0e 94 25 41 	call	0x824a	; 0x824a <__udivmodsi4>
    6738:	c9 01       	movw	r24, r18
    673a:	da 01       	movw	r26, r20
    673c:	3c 01       	movw	r6, r24
    673e:	4d 01       	movw	r8, r26
    6740:	c4 01       	movw	r24, r8
    6742:	b3 01       	movw	r22, r6
    6744:	29 ad       	ldd	r18, Y+57	; 0x39
    6746:	3a ad       	ldd	r19, Y+58	; 0x3a
    6748:	4b ad       	ldd	r20, Y+59	; 0x3b
    674a:	5c ad       	ldd	r21, Y+60	; 0x3c
    674c:	0e 94 06 41 	call	0x820c	; 0x820c <__mulsi3>
    6750:	9b 01       	movw	r18, r22
    6752:	ac 01       	movw	r20, r24
    6754:	87 01       	movw	r16, r14
    6756:	ff 24       	eor	r15, r15
    6758:	ee 24       	eor	r14, r14
    675a:	ad a4       	ldd	r10, Y+45	; 0x2d
    675c:	be a4       	ldd	r11, Y+46	; 0x2e
    675e:	cf a4       	ldd	r12, Y+47	; 0x2f
    6760:	d8 a8       	ldd	r13, Y+48	; 0x30
    6762:	c6 01       	movw	r24, r12
    6764:	aa 27       	eor	r26, r26
    6766:	bb 27       	eor	r27, r27
    6768:	57 01       	movw	r10, r14
    676a:	68 01       	movw	r12, r16
    676c:	a8 2a       	or	r10, r24
    676e:	b9 2a       	or	r11, r25
    6770:	ca 2a       	or	r12, r26
    6772:	db 2a       	or	r13, r27
    6774:	a2 16       	cp	r10, r18
    6776:	b3 06       	cpc	r11, r19
    6778:	c4 06       	cpc	r12, r20
    677a:	d5 06       	cpc	r13, r21
    677c:	e0 f4       	brcc	.+56     	; 0x67b6 <__udivdi3+0x24e>
    677e:	08 94       	sec
    6780:	61 08       	sbc	r6, r1
    6782:	71 08       	sbc	r7, r1
    6784:	81 08       	sbc	r8, r1
    6786:	91 08       	sbc	r9, r1
    6788:	a2 0c       	add	r10, r2
    678a:	b3 1c       	adc	r11, r3
    678c:	c4 1c       	adc	r12, r4
    678e:	d5 1c       	adc	r13, r5
    6790:	a2 14       	cp	r10, r2
    6792:	b3 04       	cpc	r11, r3
    6794:	c4 04       	cpc	r12, r4
    6796:	d5 04       	cpc	r13, r5
    6798:	70 f0       	brcs	.+28     	; 0x67b6 <__udivdi3+0x24e>
    679a:	a2 16       	cp	r10, r18
    679c:	b3 06       	cpc	r11, r19
    679e:	c4 06       	cpc	r12, r20
    67a0:	d5 06       	cpc	r13, r21
    67a2:	48 f4       	brcc	.+18     	; 0x67b6 <__udivdi3+0x24e>
    67a4:	08 94       	sec
    67a6:	61 08       	sbc	r6, r1
    67a8:	71 08       	sbc	r7, r1
    67aa:	81 08       	sbc	r8, r1
    67ac:	91 08       	sbc	r9, r1
    67ae:	a2 0c       	add	r10, r2
    67b0:	b3 1c       	adc	r11, r3
    67b2:	c4 1c       	adc	r12, r4
    67b4:	d5 1c       	adc	r13, r5
    67b6:	a2 1a       	sub	r10, r18
    67b8:	b3 0a       	sbc	r11, r19
    67ba:	c4 0a       	sbc	r12, r20
    67bc:	d5 0a       	sbc	r13, r21
    67be:	c6 01       	movw	r24, r12
    67c0:	b5 01       	movw	r22, r10
    67c2:	2d a9       	ldd	r18, Y+53	; 0x35
    67c4:	3e a9       	ldd	r19, Y+54	; 0x36
    67c6:	4f a9       	ldd	r20, Y+55	; 0x37
    67c8:	58 ad       	ldd	r21, Y+56	; 0x38
    67ca:	0e 94 25 41 	call	0x824a	; 0x824a <__udivmodsi4>
    67ce:	7b 01       	movw	r14, r22
    67d0:	8c 01       	movw	r16, r24
    67d2:	c6 01       	movw	r24, r12
    67d4:	b5 01       	movw	r22, r10
    67d6:	2d a9       	ldd	r18, Y+53	; 0x35
    67d8:	3e a9       	ldd	r19, Y+54	; 0x36
    67da:	4f a9       	ldd	r20, Y+55	; 0x37
    67dc:	58 ad       	ldd	r21, Y+56	; 0x38
    67de:	0e 94 25 41 	call	0x824a	; 0x824a <__udivmodsi4>
    67e2:	c9 01       	movw	r24, r18
    67e4:	da 01       	movw	r26, r20
    67e6:	5c 01       	movw	r10, r24
    67e8:	6d 01       	movw	r12, r26
    67ea:	c6 01       	movw	r24, r12
    67ec:	b5 01       	movw	r22, r10
    67ee:	29 ad       	ldd	r18, Y+57	; 0x39
    67f0:	3a ad       	ldd	r19, Y+58	; 0x3a
    67f2:	4b ad       	ldd	r20, Y+59	; 0x3b
    67f4:	5c ad       	ldd	r21, Y+60	; 0x3c
    67f6:	0e 94 06 41 	call	0x820c	; 0x820c <__mulsi3>
    67fa:	9b 01       	movw	r18, r22
    67fc:	ac 01       	movw	r20, r24
    67fe:	87 01       	movw	r16, r14
    6800:	ff 24       	eor	r15, r15
    6802:	ee 24       	eor	r14, r14
    6804:	8d a5       	ldd	r24, Y+45	; 0x2d
    6806:	9e a5       	ldd	r25, Y+46	; 0x2e
    6808:	af a5       	ldd	r26, Y+47	; 0x2f
    680a:	b8 a9       	ldd	r27, Y+48	; 0x30
    680c:	a0 70       	andi	r26, 0x00	; 0
    680e:	b0 70       	andi	r27, 0x00	; 0
    6810:	e8 2a       	or	r14, r24
    6812:	f9 2a       	or	r15, r25
    6814:	0a 2b       	or	r16, r26
    6816:	1b 2b       	or	r17, r27
    6818:	e2 16       	cp	r14, r18
    681a:	f3 06       	cpc	r15, r19
    681c:	04 07       	cpc	r16, r20
    681e:	15 07       	cpc	r17, r21
    6820:	c0 f4       	brcc	.+48     	; 0x6852 <__udivdi3+0x2ea>
    6822:	08 94       	sec
    6824:	a1 08       	sbc	r10, r1
    6826:	b1 08       	sbc	r11, r1
    6828:	c1 08       	sbc	r12, r1
    682a:	d1 08       	sbc	r13, r1
    682c:	e2 0c       	add	r14, r2
    682e:	f3 1c       	adc	r15, r3
    6830:	04 1d       	adc	r16, r4
    6832:	15 1d       	adc	r17, r5
    6834:	e2 14       	cp	r14, r2
    6836:	f3 04       	cpc	r15, r3
    6838:	04 05       	cpc	r16, r4
    683a:	15 05       	cpc	r17, r5
    683c:	50 f0       	brcs	.+20     	; 0x6852 <__udivdi3+0x2ea>
    683e:	e2 16       	cp	r14, r18
    6840:	f3 06       	cpc	r15, r19
    6842:	04 07       	cpc	r16, r20
    6844:	15 07       	cpc	r17, r21
    6846:	28 f4       	brcc	.+10     	; 0x6852 <__udivdi3+0x2ea>
    6848:	08 94       	sec
    684a:	a1 08       	sbc	r10, r1
    684c:	b1 08       	sbc	r11, r1
    684e:	c1 08       	sbc	r12, r1
    6850:	d1 08       	sbc	r13, r1
    6852:	d3 01       	movw	r26, r6
    6854:	99 27       	eor	r25, r25
    6856:	88 27       	eor	r24, r24
    6858:	86 01       	movw	r16, r12
    685a:	75 01       	movw	r14, r10
    685c:	e8 2a       	or	r14, r24
    685e:	f9 2a       	or	r15, r25
    6860:	0a 2b       	or	r16, r26
    6862:	1b 2b       	or	r17, r27
    6864:	e9 aa       	std	Y+49, r14	; 0x31
    6866:	fa aa       	std	Y+50, r15	; 0x32
    6868:	0b ab       	std	Y+51, r16	; 0x33
    686a:	1c ab       	std	Y+52, r17	; 0x34
    686c:	cf c4       	rjmp	.+2462   	; 0x720c <__udivdi3+0xca4>
    686e:	21 14       	cp	r2, r1
    6870:	31 04       	cpc	r3, r1
    6872:	41 04       	cpc	r4, r1
    6874:	51 04       	cpc	r5, r1
    6876:	71 f4       	brne	.+28     	; 0x6894 <__udivdi3+0x32c>
    6878:	61 e0       	ldi	r22, 0x01	; 1
    687a:	70 e0       	ldi	r23, 0x00	; 0
    687c:	80 e0       	ldi	r24, 0x00	; 0
    687e:	90 e0       	ldi	r25, 0x00	; 0
    6880:	20 e0       	ldi	r18, 0x00	; 0
    6882:	30 e0       	ldi	r19, 0x00	; 0
    6884:	40 e0       	ldi	r20, 0x00	; 0
    6886:	50 e0       	ldi	r21, 0x00	; 0
    6888:	0e 94 25 41 	call	0x824a	; 0x824a <__udivmodsi4>
    688c:	c9 01       	movw	r24, r18
    688e:	da 01       	movw	r26, r20
    6890:	1c 01       	movw	r2, r24
    6892:	2d 01       	movw	r4, r26
    6894:	00 e0       	ldi	r16, 0x00	; 0
    6896:	20 16       	cp	r2, r16
    6898:	00 e0       	ldi	r16, 0x00	; 0
    689a:	30 06       	cpc	r3, r16
    689c:	01 e0       	ldi	r16, 0x01	; 1
    689e:	40 06       	cpc	r4, r16
    68a0:	00 e0       	ldi	r16, 0x00	; 0
    68a2:	50 06       	cpc	r5, r16
    68a4:	88 f4       	brcc	.+34     	; 0x68c8 <__udivdi3+0x360>
    68a6:	1f ef       	ldi	r17, 0xFF	; 255
    68a8:	21 16       	cp	r2, r17
    68aa:	31 04       	cpc	r3, r1
    68ac:	41 04       	cpc	r4, r1
    68ae:	51 04       	cpc	r5, r1
    68b0:	31 f0       	breq	.+12     	; 0x68be <__udivdi3+0x356>
    68b2:	28 f0       	brcs	.+10     	; 0x68be <__udivdi3+0x356>
    68b4:	48 e0       	ldi	r20, 0x08	; 8
    68b6:	50 e0       	ldi	r21, 0x00	; 0
    68b8:	60 e0       	ldi	r22, 0x00	; 0
    68ba:	70 e0       	ldi	r23, 0x00	; 0
    68bc:	17 c0       	rjmp	.+46     	; 0x68ec <__udivdi3+0x384>
    68be:	40 e0       	ldi	r20, 0x00	; 0
    68c0:	50 e0       	ldi	r21, 0x00	; 0
    68c2:	60 e0       	ldi	r22, 0x00	; 0
    68c4:	70 e0       	ldi	r23, 0x00	; 0
    68c6:	12 c0       	rjmp	.+36     	; 0x68ec <__udivdi3+0x384>
    68c8:	20 e0       	ldi	r18, 0x00	; 0
    68ca:	22 16       	cp	r2, r18
    68cc:	20 e0       	ldi	r18, 0x00	; 0
    68ce:	32 06       	cpc	r3, r18
    68d0:	20 e0       	ldi	r18, 0x00	; 0
    68d2:	42 06       	cpc	r4, r18
    68d4:	21 e0       	ldi	r18, 0x01	; 1
    68d6:	52 06       	cpc	r5, r18
    68d8:	28 f0       	brcs	.+10     	; 0x68e4 <__udivdi3+0x37c>
    68da:	48 e1       	ldi	r20, 0x18	; 24
    68dc:	50 e0       	ldi	r21, 0x00	; 0
    68de:	60 e0       	ldi	r22, 0x00	; 0
    68e0:	70 e0       	ldi	r23, 0x00	; 0
    68e2:	04 c0       	rjmp	.+8      	; 0x68ec <__udivdi3+0x384>
    68e4:	40 e1       	ldi	r20, 0x10	; 16
    68e6:	50 e0       	ldi	r21, 0x00	; 0
    68e8:	60 e0       	ldi	r22, 0x00	; 0
    68ea:	70 e0       	ldi	r23, 0x00	; 0
    68ec:	d2 01       	movw	r26, r4
    68ee:	c1 01       	movw	r24, r2
    68f0:	04 2e       	mov	r0, r20
    68f2:	04 c0       	rjmp	.+8      	; 0x68fc <__udivdi3+0x394>
    68f4:	b6 95       	lsr	r27
    68f6:	a7 95       	ror	r26
    68f8:	97 95       	ror	r25
    68fa:	87 95       	ror	r24
    68fc:	0a 94       	dec	r0
    68fe:	d2 f7       	brpl	.-12     	; 0x68f4 <__udivdi3+0x38c>
    6900:	84 5e       	subi	r24, 0xE4	; 228
    6902:	9f 4d       	sbci	r25, 0xDF	; 223
    6904:	dc 01       	movw	r26, r24
    6906:	2c 91       	ld	r18, X
    6908:	e0 e2       	ldi	r30, 0x20	; 32
    690a:	ee 2e       	mov	r14, r30
    690c:	f1 2c       	mov	r15, r1
    690e:	01 2d       	mov	r16, r1
    6910:	11 2d       	mov	r17, r1
    6912:	d8 01       	movw	r26, r16
    6914:	c7 01       	movw	r24, r14
    6916:	84 1b       	sub	r24, r20
    6918:	95 0b       	sbc	r25, r21
    691a:	a6 0b       	sbc	r26, r22
    691c:	b7 0b       	sbc	r27, r23
    691e:	82 1b       	sub	r24, r18
    6920:	91 09       	sbc	r25, r1
    6922:	a1 09       	sbc	r26, r1
    6924:	b1 09       	sbc	r27, r1
    6926:	00 97       	sbiw	r24, 0x00	; 0
    6928:	a1 05       	cpc	r26, r1
    692a:	b1 05       	cpc	r27, r1
    692c:	61 f4       	brne	.+24     	; 0x6946 <__udivdi3+0x3de>
    692e:	64 01       	movw	r12, r8
    6930:	53 01       	movw	r10, r6
    6932:	a2 18       	sub	r10, r2
    6934:	b3 08       	sbc	r11, r3
    6936:	c4 08       	sbc	r12, r4
    6938:	d5 08       	sbc	r13, r5
    693a:	31 e0       	ldi	r19, 0x01	; 1
    693c:	63 2e       	mov	r6, r19
    693e:	71 2c       	mov	r7, r1
    6940:	81 2c       	mov	r8, r1
    6942:	91 2c       	mov	r9, r1
    6944:	1e c1       	rjmp	.+572    	; 0x6b82 <__udivdi3+0x61a>
    6946:	6f 96       	adiw	r28, 0x1f	; 31
    6948:	8f af       	std	Y+63, r24	; 0x3f
    694a:	6f 97       	sbiw	r28, 0x1f	; 31
    694c:	08 2e       	mov	r0, r24
    694e:	04 c0       	rjmp	.+8      	; 0x6958 <__udivdi3+0x3f0>
    6950:	22 0c       	add	r2, r2
    6952:	33 1c       	adc	r3, r3
    6954:	44 1c       	adc	r4, r4
    6956:	55 1c       	adc	r5, r5
    6958:	0a 94       	dec	r0
    695a:	d2 f7       	brpl	.-12     	; 0x6950 <__udivdi3+0x3e8>
    695c:	ee 2d       	mov	r30, r14
    695e:	e8 1b       	sub	r30, r24
    6960:	64 01       	movw	r12, r8
    6962:	53 01       	movw	r10, r6
    6964:	0e 2e       	mov	r0, r30
    6966:	04 c0       	rjmp	.+8      	; 0x6970 <__udivdi3+0x408>
    6968:	d6 94       	lsr	r13
    696a:	c7 94       	ror	r12
    696c:	b7 94       	ror	r11
    696e:	a7 94       	ror	r10
    6970:	0a 94       	dec	r0
    6972:	d2 f7       	brpl	.-12     	; 0x6968 <__udivdi3+0x400>
    6974:	a4 01       	movw	r20, r8
    6976:	93 01       	movw	r18, r6
    6978:	6f 96       	adiw	r28, 0x1f	; 31
    697a:	0f ac       	ldd	r0, Y+63	; 0x3f
    697c:	6f 97       	sbiw	r28, 0x1f	; 31
    697e:	04 c0       	rjmp	.+8      	; 0x6988 <__udivdi3+0x420>
    6980:	22 0f       	add	r18, r18
    6982:	33 1f       	adc	r19, r19
    6984:	44 1f       	adc	r20, r20
    6986:	55 1f       	adc	r21, r21
    6988:	0a 94       	dec	r0
    698a:	d2 f7       	brpl	.-12     	; 0x6980 <__udivdi3+0x418>
    698c:	6d a4       	ldd	r6, Y+45	; 0x2d
    698e:	7e a4       	ldd	r7, Y+46	; 0x2e
    6990:	8f a4       	ldd	r8, Y+47	; 0x2f
    6992:	98 a8       	ldd	r9, Y+48	; 0x30
    6994:	0e 2e       	mov	r0, r30
    6996:	04 c0       	rjmp	.+8      	; 0x69a0 <__udivdi3+0x438>
    6998:	96 94       	lsr	r9
    699a:	87 94       	ror	r8
    699c:	77 94       	ror	r7
    699e:	67 94       	ror	r6
    69a0:	0a 94       	dec	r0
    69a2:	d2 f7       	brpl	.-12     	; 0x6998 <__udivdi3+0x430>
    69a4:	84 01       	movw	r16, r8
    69a6:	73 01       	movw	r14, r6
    69a8:	e2 2a       	or	r14, r18
    69aa:	f3 2a       	or	r15, r19
    69ac:	04 2b       	or	r16, r20
    69ae:	15 2b       	or	r17, r21
    69b0:	e9 a6       	std	Y+41, r14	; 0x29
    69b2:	fa a6       	std	Y+42, r15	; 0x2a
    69b4:	0b a7       	std	Y+43, r16	; 0x2b
    69b6:	1c a7       	std	Y+44, r17	; 0x2c
    69b8:	32 01       	movw	r6, r4
    69ba:	88 24       	eor	r8, r8
    69bc:	99 24       	eor	r9, r9
    69be:	92 01       	movw	r18, r4
    69c0:	81 01       	movw	r16, r2
    69c2:	20 70       	andi	r18, 0x00	; 0
    69c4:	30 70       	andi	r19, 0x00	; 0
    69c6:	21 96       	adiw	r28, 0x01	; 1
    69c8:	0c af       	std	Y+60, r16	; 0x3c
    69ca:	1d af       	std	Y+61, r17	; 0x3d
    69cc:	2e af       	std	Y+62, r18	; 0x3e
    69ce:	3f af       	std	Y+63, r19	; 0x3f
    69d0:	21 97       	sbiw	r28, 0x01	; 1
    69d2:	c6 01       	movw	r24, r12
    69d4:	b5 01       	movw	r22, r10
    69d6:	a4 01       	movw	r20, r8
    69d8:	93 01       	movw	r18, r6
    69da:	0e 94 25 41 	call	0x824a	; 0x824a <__udivmodsi4>
    69de:	7b 01       	movw	r14, r22
    69e0:	8c 01       	movw	r16, r24
    69e2:	c6 01       	movw	r24, r12
    69e4:	b5 01       	movw	r22, r10
    69e6:	a4 01       	movw	r20, r8
    69e8:	93 01       	movw	r18, r6
    69ea:	0e 94 25 41 	call	0x824a	; 0x824a <__udivmodsi4>
    69ee:	c9 01       	movw	r24, r18
    69f0:	da 01       	movw	r26, r20
    69f2:	25 96       	adiw	r28, 0x05	; 5
    69f4:	8c af       	std	Y+60, r24	; 0x3c
    69f6:	9d af       	std	Y+61, r25	; 0x3d
    69f8:	ae af       	std	Y+62, r26	; 0x3e
    69fa:	bf af       	std	Y+63, r27	; 0x3f
    69fc:	25 97       	sbiw	r28, 0x05	; 5
    69fe:	bc 01       	movw	r22, r24
    6a00:	cd 01       	movw	r24, r26
    6a02:	21 96       	adiw	r28, 0x01	; 1
    6a04:	2c ad       	ldd	r18, Y+60	; 0x3c
    6a06:	3d ad       	ldd	r19, Y+61	; 0x3d
    6a08:	4e ad       	ldd	r20, Y+62	; 0x3e
    6a0a:	5f ad       	ldd	r21, Y+63	; 0x3f
    6a0c:	21 97       	sbiw	r28, 0x01	; 1
    6a0e:	0e 94 06 41 	call	0x820c	; 0x820c <__mulsi3>
    6a12:	9b 01       	movw	r18, r22
    6a14:	ac 01       	movw	r20, r24
    6a16:	87 01       	movw	r16, r14
    6a18:	ff 24       	eor	r15, r15
    6a1a:	ee 24       	eor	r14, r14
    6a1c:	a9 a4       	ldd	r10, Y+41	; 0x29
    6a1e:	ba a4       	ldd	r11, Y+42	; 0x2a
    6a20:	cb a4       	ldd	r12, Y+43	; 0x2b
    6a22:	dc a4       	ldd	r13, Y+44	; 0x2c
    6a24:	c6 01       	movw	r24, r12
    6a26:	aa 27       	eor	r26, r26
    6a28:	bb 27       	eor	r27, r27
    6a2a:	5c 01       	movw	r10, r24
    6a2c:	6d 01       	movw	r12, r26
    6a2e:	ae 28       	or	r10, r14
    6a30:	bf 28       	or	r11, r15
    6a32:	c0 2a       	or	r12, r16
    6a34:	d1 2a       	or	r13, r17
    6a36:	a2 16       	cp	r10, r18
    6a38:	b3 06       	cpc	r11, r19
    6a3a:	c4 06       	cpc	r12, r20
    6a3c:	d5 06       	cpc	r13, r21
    6a3e:	60 f5       	brcc	.+88     	; 0x6a98 <__udivdi3+0x530>
    6a40:	25 96       	adiw	r28, 0x05	; 5
    6a42:	6c ad       	ldd	r22, Y+60	; 0x3c
    6a44:	7d ad       	ldd	r23, Y+61	; 0x3d
    6a46:	8e ad       	ldd	r24, Y+62	; 0x3e
    6a48:	9f ad       	ldd	r25, Y+63	; 0x3f
    6a4a:	25 97       	sbiw	r28, 0x05	; 5
    6a4c:	61 50       	subi	r22, 0x01	; 1
    6a4e:	70 40       	sbci	r23, 0x00	; 0
    6a50:	80 40       	sbci	r24, 0x00	; 0
    6a52:	90 40       	sbci	r25, 0x00	; 0
    6a54:	25 96       	adiw	r28, 0x05	; 5
    6a56:	6c af       	std	Y+60, r22	; 0x3c
    6a58:	7d af       	std	Y+61, r23	; 0x3d
    6a5a:	8e af       	std	Y+62, r24	; 0x3e
    6a5c:	9f af       	std	Y+63, r25	; 0x3f
    6a5e:	25 97       	sbiw	r28, 0x05	; 5
    6a60:	a2 0c       	add	r10, r2
    6a62:	b3 1c       	adc	r11, r3
    6a64:	c4 1c       	adc	r12, r4
    6a66:	d5 1c       	adc	r13, r5
    6a68:	a2 14       	cp	r10, r2
    6a6a:	b3 04       	cpc	r11, r3
    6a6c:	c4 04       	cpc	r12, r4
    6a6e:	d5 04       	cpc	r13, r5
    6a70:	98 f0       	brcs	.+38     	; 0x6a98 <__udivdi3+0x530>
    6a72:	a2 16       	cp	r10, r18
    6a74:	b3 06       	cpc	r11, r19
    6a76:	c4 06       	cpc	r12, r20
    6a78:	d5 06       	cpc	r13, r21
    6a7a:	70 f4       	brcc	.+28     	; 0x6a98 <__udivdi3+0x530>
    6a7c:	61 50       	subi	r22, 0x01	; 1
    6a7e:	70 40       	sbci	r23, 0x00	; 0
    6a80:	80 40       	sbci	r24, 0x00	; 0
    6a82:	90 40       	sbci	r25, 0x00	; 0
    6a84:	25 96       	adiw	r28, 0x05	; 5
    6a86:	6c af       	std	Y+60, r22	; 0x3c
    6a88:	7d af       	std	Y+61, r23	; 0x3d
    6a8a:	8e af       	std	Y+62, r24	; 0x3e
    6a8c:	9f af       	std	Y+63, r25	; 0x3f
    6a8e:	25 97       	sbiw	r28, 0x05	; 5
    6a90:	a2 0c       	add	r10, r2
    6a92:	b3 1c       	adc	r11, r3
    6a94:	c4 1c       	adc	r12, r4
    6a96:	d5 1c       	adc	r13, r5
    6a98:	a2 1a       	sub	r10, r18
    6a9a:	b3 0a       	sbc	r11, r19
    6a9c:	c4 0a       	sbc	r12, r20
    6a9e:	d5 0a       	sbc	r13, r21
    6aa0:	c6 01       	movw	r24, r12
    6aa2:	b5 01       	movw	r22, r10
    6aa4:	a4 01       	movw	r20, r8
    6aa6:	93 01       	movw	r18, r6
    6aa8:	0e 94 25 41 	call	0x824a	; 0x824a <__udivmodsi4>
    6aac:	7b 01       	movw	r14, r22
    6aae:	8c 01       	movw	r16, r24
    6ab0:	c6 01       	movw	r24, r12
    6ab2:	b5 01       	movw	r22, r10
    6ab4:	a4 01       	movw	r20, r8
    6ab6:	93 01       	movw	r18, r6
    6ab8:	0e 94 25 41 	call	0x824a	; 0x824a <__udivmodsi4>
    6abc:	c9 01       	movw	r24, r18
    6abe:	da 01       	movw	r26, r20
    6ac0:	3c 01       	movw	r6, r24
    6ac2:	4d 01       	movw	r8, r26
    6ac4:	c4 01       	movw	r24, r8
    6ac6:	b3 01       	movw	r22, r6
    6ac8:	21 96       	adiw	r28, 0x01	; 1
    6aca:	2c ad       	ldd	r18, Y+60	; 0x3c
    6acc:	3d ad       	ldd	r19, Y+61	; 0x3d
    6ace:	4e ad       	ldd	r20, Y+62	; 0x3e
    6ad0:	5f ad       	ldd	r21, Y+63	; 0x3f
    6ad2:	21 97       	sbiw	r28, 0x01	; 1
    6ad4:	0e 94 06 41 	call	0x820c	; 0x820c <__mulsi3>
    6ad8:	9b 01       	movw	r18, r22
    6ada:	ac 01       	movw	r20, r24
    6adc:	87 01       	movw	r16, r14
    6ade:	ff 24       	eor	r15, r15
    6ae0:	ee 24       	eor	r14, r14
    6ae2:	89 a5       	ldd	r24, Y+41	; 0x29
    6ae4:	9a a5       	ldd	r25, Y+42	; 0x2a
    6ae6:	ab a5       	ldd	r26, Y+43	; 0x2b
    6ae8:	bc a5       	ldd	r27, Y+44	; 0x2c
    6aea:	a0 70       	andi	r26, 0x00	; 0
    6aec:	b0 70       	andi	r27, 0x00	; 0
    6aee:	57 01       	movw	r10, r14
    6af0:	68 01       	movw	r12, r16
    6af2:	a8 2a       	or	r10, r24
    6af4:	b9 2a       	or	r11, r25
    6af6:	ca 2a       	or	r12, r26
    6af8:	db 2a       	or	r13, r27
    6afa:	a2 16       	cp	r10, r18
    6afc:	b3 06       	cpc	r11, r19
    6afe:	c4 06       	cpc	r12, r20
    6b00:	d5 06       	cpc	r13, r21
    6b02:	e0 f4       	brcc	.+56     	; 0x6b3c <__udivdi3+0x5d4>
    6b04:	08 94       	sec
    6b06:	61 08       	sbc	r6, r1
    6b08:	71 08       	sbc	r7, r1
    6b0a:	81 08       	sbc	r8, r1
    6b0c:	91 08       	sbc	r9, r1
    6b0e:	a2 0c       	add	r10, r2
    6b10:	b3 1c       	adc	r11, r3
    6b12:	c4 1c       	adc	r12, r4
    6b14:	d5 1c       	adc	r13, r5
    6b16:	a2 14       	cp	r10, r2
    6b18:	b3 04       	cpc	r11, r3
    6b1a:	c4 04       	cpc	r12, r4
    6b1c:	d5 04       	cpc	r13, r5
    6b1e:	70 f0       	brcs	.+28     	; 0x6b3c <__udivdi3+0x5d4>
    6b20:	a2 16       	cp	r10, r18
    6b22:	b3 06       	cpc	r11, r19
    6b24:	c4 06       	cpc	r12, r20
    6b26:	d5 06       	cpc	r13, r21
    6b28:	48 f4       	brcc	.+18     	; 0x6b3c <__udivdi3+0x5d4>
    6b2a:	08 94       	sec
    6b2c:	61 08       	sbc	r6, r1
    6b2e:	71 08       	sbc	r7, r1
    6b30:	81 08       	sbc	r8, r1
    6b32:	91 08       	sbc	r9, r1
    6b34:	a2 0c       	add	r10, r2
    6b36:	b3 1c       	adc	r11, r3
    6b38:	c4 1c       	adc	r12, r4
    6b3a:	d5 1c       	adc	r13, r5
    6b3c:	8d a5       	ldd	r24, Y+45	; 0x2d
    6b3e:	9e a5       	ldd	r25, Y+46	; 0x2e
    6b40:	af a5       	ldd	r26, Y+47	; 0x2f
    6b42:	b8 a9       	ldd	r27, Y+48	; 0x30
    6b44:	6f 96       	adiw	r28, 0x1f	; 31
    6b46:	0f ac       	ldd	r0, Y+63	; 0x3f
    6b48:	6f 97       	sbiw	r28, 0x1f	; 31
    6b4a:	04 c0       	rjmp	.+8      	; 0x6b54 <__udivdi3+0x5ec>
    6b4c:	88 0f       	add	r24, r24
    6b4e:	99 1f       	adc	r25, r25
    6b50:	aa 1f       	adc	r26, r26
    6b52:	bb 1f       	adc	r27, r27
    6b54:	0a 94       	dec	r0
    6b56:	d2 f7       	brpl	.-12     	; 0x6b4c <__udivdi3+0x5e4>
    6b58:	8d a7       	std	Y+45, r24	; 0x2d
    6b5a:	9e a7       	std	Y+46, r25	; 0x2e
    6b5c:	af a7       	std	Y+47, r26	; 0x2f
    6b5e:	b8 ab       	std	Y+48, r27	; 0x30
    6b60:	a2 1a       	sub	r10, r18
    6b62:	b3 0a       	sbc	r11, r19
    6b64:	c4 0a       	sbc	r12, r20
    6b66:	d5 0a       	sbc	r13, r21
    6b68:	25 96       	adiw	r28, 0x05	; 5
    6b6a:	ec ac       	ldd	r14, Y+60	; 0x3c
    6b6c:	fd ac       	ldd	r15, Y+61	; 0x3d
    6b6e:	0e ad       	ldd	r16, Y+62	; 0x3e
    6b70:	1f ad       	ldd	r17, Y+63	; 0x3f
    6b72:	25 97       	sbiw	r28, 0x05	; 5
    6b74:	d7 01       	movw	r26, r14
    6b76:	99 27       	eor	r25, r25
    6b78:	88 27       	eor	r24, r24
    6b7a:	68 2a       	or	r6, r24
    6b7c:	79 2a       	or	r7, r25
    6b7e:	8a 2a       	or	r8, r26
    6b80:	9b 2a       	or	r9, r27
    6b82:	82 01       	movw	r16, r4
    6b84:	22 27       	eor	r18, r18
    6b86:	33 27       	eor	r19, r19
    6b88:	29 96       	adiw	r28, 0x09	; 9
    6b8a:	0c af       	std	Y+60, r16	; 0x3c
    6b8c:	1d af       	std	Y+61, r17	; 0x3d
    6b8e:	2e af       	std	Y+62, r18	; 0x3e
    6b90:	3f af       	std	Y+63, r19	; 0x3f
    6b92:	29 97       	sbiw	r28, 0x09	; 9
    6b94:	a2 01       	movw	r20, r4
    6b96:	91 01       	movw	r18, r2
    6b98:	40 70       	andi	r20, 0x00	; 0
    6b9a:	50 70       	andi	r21, 0x00	; 0
    6b9c:	2d 96       	adiw	r28, 0x0d	; 13
    6b9e:	2c af       	std	Y+60, r18	; 0x3c
    6ba0:	3d af       	std	Y+61, r19	; 0x3d
    6ba2:	4e af       	std	Y+62, r20	; 0x3e
    6ba4:	5f af       	std	Y+63, r21	; 0x3f
    6ba6:	2d 97       	sbiw	r28, 0x0d	; 13
    6ba8:	c6 01       	movw	r24, r12
    6baa:	b5 01       	movw	r22, r10
    6bac:	29 96       	adiw	r28, 0x09	; 9
    6bae:	2c ad       	ldd	r18, Y+60	; 0x3c
    6bb0:	3d ad       	ldd	r19, Y+61	; 0x3d
    6bb2:	4e ad       	ldd	r20, Y+62	; 0x3e
    6bb4:	5f ad       	ldd	r21, Y+63	; 0x3f
    6bb6:	29 97       	sbiw	r28, 0x09	; 9
    6bb8:	0e 94 25 41 	call	0x824a	; 0x824a <__udivmodsi4>
    6bbc:	7b 01       	movw	r14, r22
    6bbe:	8c 01       	movw	r16, r24
    6bc0:	c6 01       	movw	r24, r12
    6bc2:	b5 01       	movw	r22, r10
    6bc4:	29 96       	adiw	r28, 0x09	; 9
    6bc6:	2c ad       	ldd	r18, Y+60	; 0x3c
    6bc8:	3d ad       	ldd	r19, Y+61	; 0x3d
    6bca:	4e ad       	ldd	r20, Y+62	; 0x3e
    6bcc:	5f ad       	ldd	r21, Y+63	; 0x3f
    6bce:	29 97       	sbiw	r28, 0x09	; 9
    6bd0:	0e 94 25 41 	call	0x824a	; 0x824a <__udivmodsi4>
    6bd4:	c9 01       	movw	r24, r18
    6bd6:	da 01       	movw	r26, r20
    6bd8:	61 96       	adiw	r28, 0x11	; 17
    6bda:	8c af       	std	Y+60, r24	; 0x3c
    6bdc:	9d af       	std	Y+61, r25	; 0x3d
    6bde:	ae af       	std	Y+62, r26	; 0x3e
    6be0:	bf af       	std	Y+63, r27	; 0x3f
    6be2:	61 97       	sbiw	r28, 0x11	; 17
    6be4:	bc 01       	movw	r22, r24
    6be6:	cd 01       	movw	r24, r26
    6be8:	2d 96       	adiw	r28, 0x0d	; 13
    6bea:	2c ad       	ldd	r18, Y+60	; 0x3c
    6bec:	3d ad       	ldd	r19, Y+61	; 0x3d
    6bee:	4e ad       	ldd	r20, Y+62	; 0x3e
    6bf0:	5f ad       	ldd	r21, Y+63	; 0x3f
    6bf2:	2d 97       	sbiw	r28, 0x0d	; 13
    6bf4:	0e 94 06 41 	call	0x820c	; 0x820c <__mulsi3>
    6bf8:	9b 01       	movw	r18, r22
    6bfa:	ac 01       	movw	r20, r24
    6bfc:	87 01       	movw	r16, r14
    6bfe:	ff 24       	eor	r15, r15
    6c00:	ee 24       	eor	r14, r14
    6c02:	ad a4       	ldd	r10, Y+45	; 0x2d
    6c04:	be a4       	ldd	r11, Y+46	; 0x2e
    6c06:	cf a4       	ldd	r12, Y+47	; 0x2f
    6c08:	d8 a8       	ldd	r13, Y+48	; 0x30
    6c0a:	c6 01       	movw	r24, r12
    6c0c:	aa 27       	eor	r26, r26
    6c0e:	bb 27       	eor	r27, r27
    6c10:	57 01       	movw	r10, r14
    6c12:	68 01       	movw	r12, r16
    6c14:	a8 2a       	or	r10, r24
    6c16:	b9 2a       	or	r11, r25
    6c18:	ca 2a       	or	r12, r26
    6c1a:	db 2a       	or	r13, r27
    6c1c:	a2 16       	cp	r10, r18
    6c1e:	b3 06       	cpc	r11, r19
    6c20:	c4 06       	cpc	r12, r20
    6c22:	d5 06       	cpc	r13, r21
    6c24:	60 f5       	brcc	.+88     	; 0x6c7e <__udivdi3+0x716>
    6c26:	61 96       	adiw	r28, 0x11	; 17
    6c28:	6c ad       	ldd	r22, Y+60	; 0x3c
    6c2a:	7d ad       	ldd	r23, Y+61	; 0x3d
    6c2c:	8e ad       	ldd	r24, Y+62	; 0x3e
    6c2e:	9f ad       	ldd	r25, Y+63	; 0x3f
    6c30:	61 97       	sbiw	r28, 0x11	; 17
    6c32:	61 50       	subi	r22, 0x01	; 1
    6c34:	70 40       	sbci	r23, 0x00	; 0
    6c36:	80 40       	sbci	r24, 0x00	; 0
    6c38:	90 40       	sbci	r25, 0x00	; 0
    6c3a:	61 96       	adiw	r28, 0x11	; 17
    6c3c:	6c af       	std	Y+60, r22	; 0x3c
    6c3e:	7d af       	std	Y+61, r23	; 0x3d
    6c40:	8e af       	std	Y+62, r24	; 0x3e
    6c42:	9f af       	std	Y+63, r25	; 0x3f
    6c44:	61 97       	sbiw	r28, 0x11	; 17
    6c46:	a2 0c       	add	r10, r2
    6c48:	b3 1c       	adc	r11, r3
    6c4a:	c4 1c       	adc	r12, r4
    6c4c:	d5 1c       	adc	r13, r5
    6c4e:	a2 14       	cp	r10, r2
    6c50:	b3 04       	cpc	r11, r3
    6c52:	c4 04       	cpc	r12, r4
    6c54:	d5 04       	cpc	r13, r5
    6c56:	98 f0       	brcs	.+38     	; 0x6c7e <__udivdi3+0x716>
    6c58:	a2 16       	cp	r10, r18
    6c5a:	b3 06       	cpc	r11, r19
    6c5c:	c4 06       	cpc	r12, r20
    6c5e:	d5 06       	cpc	r13, r21
    6c60:	70 f4       	brcc	.+28     	; 0x6c7e <__udivdi3+0x716>
    6c62:	61 50       	subi	r22, 0x01	; 1
    6c64:	70 40       	sbci	r23, 0x00	; 0
    6c66:	80 40       	sbci	r24, 0x00	; 0
    6c68:	90 40       	sbci	r25, 0x00	; 0
    6c6a:	61 96       	adiw	r28, 0x11	; 17
    6c6c:	6c af       	std	Y+60, r22	; 0x3c
    6c6e:	7d af       	std	Y+61, r23	; 0x3d
    6c70:	8e af       	std	Y+62, r24	; 0x3e
    6c72:	9f af       	std	Y+63, r25	; 0x3f
    6c74:	61 97       	sbiw	r28, 0x11	; 17
    6c76:	a2 0c       	add	r10, r2
    6c78:	b3 1c       	adc	r11, r3
    6c7a:	c4 1c       	adc	r12, r4
    6c7c:	d5 1c       	adc	r13, r5
    6c7e:	a2 1a       	sub	r10, r18
    6c80:	b3 0a       	sbc	r11, r19
    6c82:	c4 0a       	sbc	r12, r20
    6c84:	d5 0a       	sbc	r13, r21
    6c86:	c6 01       	movw	r24, r12
    6c88:	b5 01       	movw	r22, r10
    6c8a:	29 96       	adiw	r28, 0x09	; 9
    6c8c:	2c ad       	ldd	r18, Y+60	; 0x3c
    6c8e:	3d ad       	ldd	r19, Y+61	; 0x3d
    6c90:	4e ad       	ldd	r20, Y+62	; 0x3e
    6c92:	5f ad       	ldd	r21, Y+63	; 0x3f
    6c94:	29 97       	sbiw	r28, 0x09	; 9
    6c96:	0e 94 25 41 	call	0x824a	; 0x824a <__udivmodsi4>
    6c9a:	7b 01       	movw	r14, r22
    6c9c:	8c 01       	movw	r16, r24
    6c9e:	c6 01       	movw	r24, r12
    6ca0:	b5 01       	movw	r22, r10
    6ca2:	29 96       	adiw	r28, 0x09	; 9
    6ca4:	2c ad       	ldd	r18, Y+60	; 0x3c
    6ca6:	3d ad       	ldd	r19, Y+61	; 0x3d
    6ca8:	4e ad       	ldd	r20, Y+62	; 0x3e
    6caa:	5f ad       	ldd	r21, Y+63	; 0x3f
    6cac:	29 97       	sbiw	r28, 0x09	; 9
    6cae:	0e 94 25 41 	call	0x824a	; 0x824a <__udivmodsi4>
    6cb2:	c9 01       	movw	r24, r18
    6cb4:	da 01       	movw	r26, r20
    6cb6:	5c 01       	movw	r10, r24
    6cb8:	6d 01       	movw	r12, r26
    6cba:	c6 01       	movw	r24, r12
    6cbc:	b5 01       	movw	r22, r10
    6cbe:	2d 96       	adiw	r28, 0x0d	; 13
    6cc0:	2c ad       	ldd	r18, Y+60	; 0x3c
    6cc2:	3d ad       	ldd	r19, Y+61	; 0x3d
    6cc4:	4e ad       	ldd	r20, Y+62	; 0x3e
    6cc6:	5f ad       	ldd	r21, Y+63	; 0x3f
    6cc8:	2d 97       	sbiw	r28, 0x0d	; 13
    6cca:	0e 94 06 41 	call	0x820c	; 0x820c <__mulsi3>
    6cce:	9b 01       	movw	r18, r22
    6cd0:	ac 01       	movw	r20, r24
    6cd2:	87 01       	movw	r16, r14
    6cd4:	ff 24       	eor	r15, r15
    6cd6:	ee 24       	eor	r14, r14
    6cd8:	8d a5       	ldd	r24, Y+45	; 0x2d
    6cda:	9e a5       	ldd	r25, Y+46	; 0x2e
    6cdc:	af a5       	ldd	r26, Y+47	; 0x2f
    6cde:	b8 a9       	ldd	r27, Y+48	; 0x30
    6ce0:	a0 70       	andi	r26, 0x00	; 0
    6ce2:	b0 70       	andi	r27, 0x00	; 0
    6ce4:	e8 2a       	or	r14, r24
    6ce6:	f9 2a       	or	r15, r25
    6ce8:	0a 2b       	or	r16, r26
    6cea:	1b 2b       	or	r17, r27
    6cec:	e2 16       	cp	r14, r18
    6cee:	f3 06       	cpc	r15, r19
    6cf0:	04 07       	cpc	r16, r20
    6cf2:	15 07       	cpc	r17, r21
    6cf4:	c0 f4       	brcc	.+48     	; 0x6d26 <__udivdi3+0x7be>
    6cf6:	08 94       	sec
    6cf8:	a1 08       	sbc	r10, r1
    6cfa:	b1 08       	sbc	r11, r1
    6cfc:	c1 08       	sbc	r12, r1
    6cfe:	d1 08       	sbc	r13, r1
    6d00:	e2 0c       	add	r14, r2
    6d02:	f3 1c       	adc	r15, r3
    6d04:	04 1d       	adc	r16, r4
    6d06:	15 1d       	adc	r17, r5
    6d08:	e2 14       	cp	r14, r2
    6d0a:	f3 04       	cpc	r15, r3
    6d0c:	04 05       	cpc	r16, r4
    6d0e:	15 05       	cpc	r17, r5
    6d10:	50 f0       	brcs	.+20     	; 0x6d26 <__udivdi3+0x7be>
    6d12:	e2 16       	cp	r14, r18
    6d14:	f3 06       	cpc	r15, r19
    6d16:	04 07       	cpc	r16, r20
    6d18:	15 07       	cpc	r17, r21
    6d1a:	28 f4       	brcc	.+10     	; 0x6d26 <__udivdi3+0x7be>
    6d1c:	08 94       	sec
    6d1e:	a1 08       	sbc	r10, r1
    6d20:	b1 08       	sbc	r11, r1
    6d22:	c1 08       	sbc	r12, r1
    6d24:	d1 08       	sbc	r13, r1
    6d26:	61 96       	adiw	r28, 0x11	; 17
    6d28:	ec ac       	ldd	r14, Y+60	; 0x3c
    6d2a:	fd ac       	ldd	r15, Y+61	; 0x3d
    6d2c:	0e ad       	ldd	r16, Y+62	; 0x3e
    6d2e:	1f ad       	ldd	r17, Y+63	; 0x3f
    6d30:	61 97       	sbiw	r28, 0x11	; 17
    6d32:	d7 01       	movw	r26, r14
    6d34:	99 27       	eor	r25, r25
    6d36:	88 27       	eor	r24, r24
    6d38:	96 01       	movw	r18, r12
    6d3a:	85 01       	movw	r16, r10
    6d3c:	08 2b       	or	r16, r24
    6d3e:	19 2b       	or	r17, r25
    6d40:	2a 2b       	or	r18, r26
    6d42:	3b 2b       	or	r19, r27
    6d44:	09 ab       	std	Y+49, r16	; 0x31
    6d46:	1a ab       	std	Y+50, r17	; 0x32
    6d48:	2b ab       	std	Y+51, r18	; 0x33
    6d4a:	3c ab       	std	Y+52, r19	; 0x34
    6d4c:	62 c2       	rjmp	.+1220   	; 0x7212 <__udivdi3+0xcaa>
    6d4e:	6e 14       	cp	r6, r14
    6d50:	7f 04       	cpc	r7, r15
    6d52:	80 06       	cpc	r8, r16
    6d54:	91 06       	cpc	r9, r17
    6d56:	08 f4       	brcc	.+2      	; 0x6d5a <__udivdi3+0x7f2>
    6d58:	51 c2       	rjmp	.+1186   	; 0x71fc <__udivdi3+0xc94>
    6d5a:	20 e0       	ldi	r18, 0x00	; 0
    6d5c:	e2 16       	cp	r14, r18
    6d5e:	20 e0       	ldi	r18, 0x00	; 0
    6d60:	f2 06       	cpc	r15, r18
    6d62:	21 e0       	ldi	r18, 0x01	; 1
    6d64:	02 07       	cpc	r16, r18
    6d66:	20 e0       	ldi	r18, 0x00	; 0
    6d68:	12 07       	cpc	r17, r18
    6d6a:	88 f4       	brcc	.+34     	; 0x6d8e <__udivdi3+0x826>
    6d6c:	3f ef       	ldi	r19, 0xFF	; 255
    6d6e:	e3 16       	cp	r14, r19
    6d70:	f1 04       	cpc	r15, r1
    6d72:	01 05       	cpc	r16, r1
    6d74:	11 05       	cpc	r17, r1
    6d76:	31 f0       	breq	.+12     	; 0x6d84 <__udivdi3+0x81c>
    6d78:	28 f0       	brcs	.+10     	; 0x6d84 <__udivdi3+0x81c>
    6d7a:	48 e0       	ldi	r20, 0x08	; 8
    6d7c:	50 e0       	ldi	r21, 0x00	; 0
    6d7e:	60 e0       	ldi	r22, 0x00	; 0
    6d80:	70 e0       	ldi	r23, 0x00	; 0
    6d82:	17 c0       	rjmp	.+46     	; 0x6db2 <__udivdi3+0x84a>
    6d84:	40 e0       	ldi	r20, 0x00	; 0
    6d86:	50 e0       	ldi	r21, 0x00	; 0
    6d88:	60 e0       	ldi	r22, 0x00	; 0
    6d8a:	70 e0       	ldi	r23, 0x00	; 0
    6d8c:	12 c0       	rjmp	.+36     	; 0x6db2 <__udivdi3+0x84a>
    6d8e:	40 e0       	ldi	r20, 0x00	; 0
    6d90:	e4 16       	cp	r14, r20
    6d92:	40 e0       	ldi	r20, 0x00	; 0
    6d94:	f4 06       	cpc	r15, r20
    6d96:	40 e0       	ldi	r20, 0x00	; 0
    6d98:	04 07       	cpc	r16, r20
    6d9a:	41 e0       	ldi	r20, 0x01	; 1
    6d9c:	14 07       	cpc	r17, r20
    6d9e:	28 f0       	brcs	.+10     	; 0x6daa <__udivdi3+0x842>
    6da0:	48 e1       	ldi	r20, 0x18	; 24
    6da2:	50 e0       	ldi	r21, 0x00	; 0
    6da4:	60 e0       	ldi	r22, 0x00	; 0
    6da6:	70 e0       	ldi	r23, 0x00	; 0
    6da8:	04 c0       	rjmp	.+8      	; 0x6db2 <__udivdi3+0x84a>
    6daa:	40 e1       	ldi	r20, 0x10	; 16
    6dac:	50 e0       	ldi	r21, 0x00	; 0
    6dae:	60 e0       	ldi	r22, 0x00	; 0
    6db0:	70 e0       	ldi	r23, 0x00	; 0
    6db2:	d8 01       	movw	r26, r16
    6db4:	c7 01       	movw	r24, r14
    6db6:	04 2e       	mov	r0, r20
    6db8:	04 c0       	rjmp	.+8      	; 0x6dc2 <__udivdi3+0x85a>
    6dba:	b6 95       	lsr	r27
    6dbc:	a7 95       	ror	r26
    6dbe:	97 95       	ror	r25
    6dc0:	87 95       	ror	r24
    6dc2:	0a 94       	dec	r0
    6dc4:	d2 f7       	brpl	.-12     	; 0x6dba <__udivdi3+0x852>
    6dc6:	84 5e       	subi	r24, 0xE4	; 228
    6dc8:	9f 4d       	sbci	r25, 0xDF	; 223
    6dca:	dc 01       	movw	r26, r24
    6dcc:	2c 91       	ld	r18, X
    6dce:	30 e2       	ldi	r19, 0x20	; 32
    6dd0:	a3 2e       	mov	r10, r19
    6dd2:	b1 2c       	mov	r11, r1
    6dd4:	c1 2c       	mov	r12, r1
    6dd6:	d1 2c       	mov	r13, r1
    6dd8:	d6 01       	movw	r26, r12
    6dda:	c5 01       	movw	r24, r10
    6ddc:	84 1b       	sub	r24, r20
    6dde:	95 0b       	sbc	r25, r21
    6de0:	a6 0b       	sbc	r26, r22
    6de2:	b7 0b       	sbc	r27, r23
    6de4:	82 1b       	sub	r24, r18
    6de6:	91 09       	sbc	r25, r1
    6de8:	a1 09       	sbc	r26, r1
    6dea:	b1 09       	sbc	r27, r1
    6dec:	00 97       	sbiw	r24, 0x00	; 0
    6dee:	a1 05       	cpc	r26, r1
    6df0:	b1 05       	cpc	r27, r1
    6df2:	89 f4       	brne	.+34     	; 0x6e16 <__udivdi3+0x8ae>
    6df4:	e6 14       	cp	r14, r6
    6df6:	f7 04       	cpc	r15, r7
    6df8:	08 05       	cpc	r16, r8
    6dfa:	19 05       	cpc	r17, r9
    6dfc:	08 f4       	brcc	.+2      	; 0x6e00 <__udivdi3+0x898>
    6dfe:	f2 c1       	rjmp	.+996    	; 0x71e4 <__udivdi3+0xc7c>
    6e00:	6d a4       	ldd	r6, Y+45	; 0x2d
    6e02:	7e a4       	ldd	r7, Y+46	; 0x2e
    6e04:	8f a4       	ldd	r8, Y+47	; 0x2f
    6e06:	98 a8       	ldd	r9, Y+48	; 0x30
    6e08:	62 14       	cp	r6, r2
    6e0a:	73 04       	cpc	r7, r3
    6e0c:	84 04       	cpc	r8, r4
    6e0e:	95 04       	cpc	r9, r5
    6e10:	08 f0       	brcs	.+2      	; 0x6e14 <__udivdi3+0x8ac>
    6e12:	e8 c1       	rjmp	.+976    	; 0x71e4 <__udivdi3+0xc7c>
    6e14:	f3 c1       	rjmp	.+998    	; 0x71fc <__udivdi3+0xc94>
    6e16:	6e 96       	adiw	r28, 0x1e	; 30
    6e18:	8f af       	std	Y+63, r24	; 0x3f
    6e1a:	6e 97       	sbiw	r28, 0x1e	; 30
    6e1c:	08 2e       	mov	r0, r24
    6e1e:	04 c0       	rjmp	.+8      	; 0x6e28 <__udivdi3+0x8c0>
    6e20:	ee 0c       	add	r14, r14
    6e22:	ff 1c       	adc	r15, r15
    6e24:	00 1f       	adc	r16, r16
    6e26:	11 1f       	adc	r17, r17
    6e28:	0a 94       	dec	r0
    6e2a:	d2 f7       	brpl	.-12     	; 0x6e20 <__udivdi3+0x8b8>
    6e2c:	6a 2d       	mov	r22, r10
    6e2e:	68 1b       	sub	r22, r24
    6e30:	d2 01       	movw	r26, r4
    6e32:	c1 01       	movw	r24, r2
    6e34:	06 2e       	mov	r0, r22
    6e36:	04 c0       	rjmp	.+8      	; 0x6e40 <__udivdi3+0x8d8>
    6e38:	b6 95       	lsr	r27
    6e3a:	a7 95       	ror	r26
    6e3c:	97 95       	ror	r25
    6e3e:	87 95       	ror	r24
    6e40:	0a 94       	dec	r0
    6e42:	d2 f7       	brpl	.-12     	; 0x6e38 <__udivdi3+0x8d0>
    6e44:	5c 01       	movw	r10, r24
    6e46:	6d 01       	movw	r12, r26
    6e48:	ae 28       	or	r10, r14
    6e4a:	bf 28       	or	r11, r15
    6e4c:	c0 2a       	or	r12, r16
    6e4e:	d1 2a       	or	r13, r17
    6e50:	ad a2       	std	Y+37, r10	; 0x25
    6e52:	be a2       	std	Y+38, r11	; 0x26
    6e54:	cf a2       	std	Y+39, r12	; 0x27
    6e56:	d8 a6       	std	Y+40, r13	; 0x28
    6e58:	72 01       	movw	r14, r4
    6e5a:	61 01       	movw	r12, r2
    6e5c:	6e 96       	adiw	r28, 0x1e	; 30
    6e5e:	0f ac       	ldd	r0, Y+63	; 0x3f
    6e60:	6e 97       	sbiw	r28, 0x1e	; 30
    6e62:	04 c0       	rjmp	.+8      	; 0x6e6c <__udivdi3+0x904>
    6e64:	cc 0c       	add	r12, r12
    6e66:	dd 1c       	adc	r13, r13
    6e68:	ee 1c       	adc	r14, r14
    6e6a:	ff 1c       	adc	r15, r15
    6e6c:	0a 94       	dec	r0
    6e6e:	d2 f7       	brpl	.-12     	; 0x6e64 <__udivdi3+0x8fc>
    6e70:	c9 a2       	std	Y+33, r12	; 0x21
    6e72:	da a2       	std	Y+34, r13	; 0x22
    6e74:	eb a2       	std	Y+35, r14	; 0x23
    6e76:	fc a2       	std	Y+36, r15	; 0x24
    6e78:	64 01       	movw	r12, r8
    6e7a:	53 01       	movw	r10, r6
    6e7c:	06 2e       	mov	r0, r22
    6e7e:	04 c0       	rjmp	.+8      	; 0x6e88 <__udivdi3+0x920>
    6e80:	d6 94       	lsr	r13
    6e82:	c7 94       	ror	r12
    6e84:	b7 94       	ror	r11
    6e86:	a7 94       	ror	r10
    6e88:	0a 94       	dec	r0
    6e8a:	d2 f7       	brpl	.-12     	; 0x6e80 <__udivdi3+0x918>
    6e8c:	d4 01       	movw	r26, r8
    6e8e:	c3 01       	movw	r24, r6
    6e90:	6e 96       	adiw	r28, 0x1e	; 30
    6e92:	0f ac       	ldd	r0, Y+63	; 0x3f
    6e94:	6e 97       	sbiw	r28, 0x1e	; 30
    6e96:	04 c0       	rjmp	.+8      	; 0x6ea0 <__udivdi3+0x938>
    6e98:	88 0f       	add	r24, r24
    6e9a:	99 1f       	adc	r25, r25
    6e9c:	aa 1f       	adc	r26, r26
    6e9e:	bb 1f       	adc	r27, r27
    6ea0:	0a 94       	dec	r0
    6ea2:	d2 f7       	brpl	.-12     	; 0x6e98 <__udivdi3+0x930>
    6ea4:	ed a4       	ldd	r14, Y+45	; 0x2d
    6ea6:	fe a4       	ldd	r15, Y+46	; 0x2e
    6ea8:	0f a5       	ldd	r16, Y+47	; 0x2f
    6eaa:	18 a9       	ldd	r17, Y+48	; 0x30
    6eac:	04 c0       	rjmp	.+8      	; 0x6eb6 <__udivdi3+0x94e>
    6eae:	16 95       	lsr	r17
    6eb0:	07 95       	ror	r16
    6eb2:	f7 94       	ror	r15
    6eb4:	e7 94       	ror	r14
    6eb6:	6a 95       	dec	r22
    6eb8:	d2 f7       	brpl	.-12     	; 0x6eae <__udivdi3+0x946>
    6eba:	37 01       	movw	r6, r14
    6ebc:	48 01       	movw	r8, r16
    6ebe:	68 2a       	or	r6, r24
    6ec0:	79 2a       	or	r7, r25
    6ec2:	8a 2a       	or	r8, r26
    6ec4:	9b 2a       	or	r9, r27
    6ec6:	6d 8e       	std	Y+29, r6	; 0x1d
    6ec8:	7e 8e       	std	Y+30, r7	; 0x1e
    6eca:	8f 8e       	std	Y+31, r8	; 0x1f
    6ecc:	98 a2       	std	Y+32, r9	; 0x20
    6ece:	ed a0       	ldd	r14, Y+37	; 0x25
    6ed0:	fe a0       	ldd	r15, Y+38	; 0x26
    6ed2:	0f a1       	ldd	r16, Y+39	; 0x27
    6ed4:	18 a5       	ldd	r17, Y+40	; 0x28
    6ed6:	38 01       	movw	r6, r16
    6ed8:	88 24       	eor	r8, r8
    6eda:	99 24       	eor	r9, r9
    6edc:	98 01       	movw	r18, r16
    6ede:	87 01       	movw	r16, r14
    6ee0:	20 70       	andi	r18, 0x00	; 0
    6ee2:	30 70       	andi	r19, 0x00	; 0
    6ee4:	65 96       	adiw	r28, 0x15	; 21
    6ee6:	0c af       	std	Y+60, r16	; 0x3c
    6ee8:	1d af       	std	Y+61, r17	; 0x3d
    6eea:	2e af       	std	Y+62, r18	; 0x3e
    6eec:	3f af       	std	Y+63, r19	; 0x3f
    6eee:	65 97       	sbiw	r28, 0x15	; 21
    6ef0:	c6 01       	movw	r24, r12
    6ef2:	b5 01       	movw	r22, r10
    6ef4:	a4 01       	movw	r20, r8
    6ef6:	93 01       	movw	r18, r6
    6ef8:	0e 94 25 41 	call	0x824a	; 0x824a <__udivmodsi4>
    6efc:	7b 01       	movw	r14, r22
    6efe:	8c 01       	movw	r16, r24
    6f00:	c6 01       	movw	r24, r12
    6f02:	b5 01       	movw	r22, r10
    6f04:	a4 01       	movw	r20, r8
    6f06:	93 01       	movw	r18, r6
    6f08:	0e 94 25 41 	call	0x824a	; 0x824a <__udivmodsi4>
    6f0c:	c9 01       	movw	r24, r18
    6f0e:	da 01       	movw	r26, r20
    6f10:	1c 01       	movw	r2, r24
    6f12:	2d 01       	movw	r4, r26
    6f14:	c2 01       	movw	r24, r4
    6f16:	b1 01       	movw	r22, r2
    6f18:	65 96       	adiw	r28, 0x15	; 21
    6f1a:	2c ad       	ldd	r18, Y+60	; 0x3c
    6f1c:	3d ad       	ldd	r19, Y+61	; 0x3d
    6f1e:	4e ad       	ldd	r20, Y+62	; 0x3e
    6f20:	5f ad       	ldd	r21, Y+63	; 0x3f
    6f22:	65 97       	sbiw	r28, 0x15	; 21
    6f24:	0e 94 06 41 	call	0x820c	; 0x820c <__mulsi3>
    6f28:	9b 01       	movw	r18, r22
    6f2a:	ac 01       	movw	r20, r24
    6f2c:	87 01       	movw	r16, r14
    6f2e:	ff 24       	eor	r15, r15
    6f30:	ee 24       	eor	r14, r14
    6f32:	ad 8c       	ldd	r10, Y+29	; 0x1d
    6f34:	be 8c       	ldd	r11, Y+30	; 0x1e
    6f36:	cf 8c       	ldd	r12, Y+31	; 0x1f
    6f38:	d8 a0       	ldd	r13, Y+32	; 0x20
    6f3a:	c6 01       	movw	r24, r12
    6f3c:	aa 27       	eor	r26, r26
    6f3e:	bb 27       	eor	r27, r27
    6f40:	57 01       	movw	r10, r14
    6f42:	68 01       	movw	r12, r16
    6f44:	a8 2a       	or	r10, r24
    6f46:	b9 2a       	or	r11, r25
    6f48:	ca 2a       	or	r12, r26
    6f4a:	db 2a       	or	r13, r27
    6f4c:	a2 16       	cp	r10, r18
    6f4e:	b3 06       	cpc	r11, r19
    6f50:	c4 06       	cpc	r12, r20
    6f52:	d5 06       	cpc	r13, r21
    6f54:	00 f5       	brcc	.+64     	; 0x6f96 <__udivdi3+0xa2e>
    6f56:	08 94       	sec
    6f58:	21 08       	sbc	r2, r1
    6f5a:	31 08       	sbc	r3, r1
    6f5c:	41 08       	sbc	r4, r1
    6f5e:	51 08       	sbc	r5, r1
    6f60:	ed a0       	ldd	r14, Y+37	; 0x25
    6f62:	fe a0       	ldd	r15, Y+38	; 0x26
    6f64:	0f a1       	ldd	r16, Y+39	; 0x27
    6f66:	18 a5       	ldd	r17, Y+40	; 0x28
    6f68:	ae 0c       	add	r10, r14
    6f6a:	bf 1c       	adc	r11, r15
    6f6c:	c0 1e       	adc	r12, r16
    6f6e:	d1 1e       	adc	r13, r17
    6f70:	ae 14       	cp	r10, r14
    6f72:	bf 04       	cpc	r11, r15
    6f74:	c0 06       	cpc	r12, r16
    6f76:	d1 06       	cpc	r13, r17
    6f78:	70 f0       	brcs	.+28     	; 0x6f96 <__udivdi3+0xa2e>
    6f7a:	a2 16       	cp	r10, r18
    6f7c:	b3 06       	cpc	r11, r19
    6f7e:	c4 06       	cpc	r12, r20
    6f80:	d5 06       	cpc	r13, r21
    6f82:	48 f4       	brcc	.+18     	; 0x6f96 <__udivdi3+0xa2e>
    6f84:	08 94       	sec
    6f86:	21 08       	sbc	r2, r1
    6f88:	31 08       	sbc	r3, r1
    6f8a:	41 08       	sbc	r4, r1
    6f8c:	51 08       	sbc	r5, r1
    6f8e:	ae 0c       	add	r10, r14
    6f90:	bf 1c       	adc	r11, r15
    6f92:	c0 1e       	adc	r12, r16
    6f94:	d1 1e       	adc	r13, r17
    6f96:	a2 1a       	sub	r10, r18
    6f98:	b3 0a       	sbc	r11, r19
    6f9a:	c4 0a       	sbc	r12, r20
    6f9c:	d5 0a       	sbc	r13, r21
    6f9e:	c6 01       	movw	r24, r12
    6fa0:	b5 01       	movw	r22, r10
    6fa2:	a4 01       	movw	r20, r8
    6fa4:	93 01       	movw	r18, r6
    6fa6:	0e 94 25 41 	call	0x824a	; 0x824a <__udivmodsi4>
    6faa:	7b 01       	movw	r14, r22
    6fac:	8c 01       	movw	r16, r24
    6fae:	c6 01       	movw	r24, r12
    6fb0:	b5 01       	movw	r22, r10
    6fb2:	a4 01       	movw	r20, r8
    6fb4:	93 01       	movw	r18, r6
    6fb6:	0e 94 25 41 	call	0x824a	; 0x824a <__udivmodsi4>
    6fba:	c9 01       	movw	r24, r18
    6fbc:	da 01       	movw	r26, r20
    6fbe:	3c 01       	movw	r6, r24
    6fc0:	4d 01       	movw	r8, r26
    6fc2:	c4 01       	movw	r24, r8
    6fc4:	b3 01       	movw	r22, r6
    6fc6:	65 96       	adiw	r28, 0x15	; 21
    6fc8:	2c ad       	ldd	r18, Y+60	; 0x3c
    6fca:	3d ad       	ldd	r19, Y+61	; 0x3d
    6fcc:	4e ad       	ldd	r20, Y+62	; 0x3e
    6fce:	5f ad       	ldd	r21, Y+63	; 0x3f
    6fd0:	65 97       	sbiw	r28, 0x15	; 21
    6fd2:	0e 94 06 41 	call	0x820c	; 0x820c <__mulsi3>
    6fd6:	9b 01       	movw	r18, r22
    6fd8:	ac 01       	movw	r20, r24
    6fda:	87 01       	movw	r16, r14
    6fdc:	ff 24       	eor	r15, r15
    6fde:	ee 24       	eor	r14, r14
    6fe0:	8d 8d       	ldd	r24, Y+29	; 0x1d
    6fe2:	9e 8d       	ldd	r25, Y+30	; 0x1e
    6fe4:	af 8d       	ldd	r26, Y+31	; 0x1f
    6fe6:	b8 a1       	ldd	r27, Y+32	; 0x20
    6fe8:	a0 70       	andi	r26, 0x00	; 0
    6fea:	b0 70       	andi	r27, 0x00	; 0
    6fec:	57 01       	movw	r10, r14
    6fee:	68 01       	movw	r12, r16
    6ff0:	a8 2a       	or	r10, r24
    6ff2:	b9 2a       	or	r11, r25
    6ff4:	ca 2a       	or	r12, r26
    6ff6:	db 2a       	or	r13, r27
    6ff8:	a2 16       	cp	r10, r18
    6ffa:	b3 06       	cpc	r11, r19
    6ffc:	c4 06       	cpc	r12, r20
    6ffe:	d5 06       	cpc	r13, r21
    7000:	00 f5       	brcc	.+64     	; 0x7042 <__udivdi3+0xada>
    7002:	08 94       	sec
    7004:	61 08       	sbc	r6, r1
    7006:	71 08       	sbc	r7, r1
    7008:	81 08       	sbc	r8, r1
    700a:	91 08       	sbc	r9, r1
    700c:	6d a1       	ldd	r22, Y+37	; 0x25
    700e:	7e a1       	ldd	r23, Y+38	; 0x26
    7010:	8f a1       	ldd	r24, Y+39	; 0x27
    7012:	98 a5       	ldd	r25, Y+40	; 0x28
    7014:	a6 0e       	add	r10, r22
    7016:	b7 1e       	adc	r11, r23
    7018:	c8 1e       	adc	r12, r24
    701a:	d9 1e       	adc	r13, r25
    701c:	a6 16       	cp	r10, r22
    701e:	b7 06       	cpc	r11, r23
    7020:	c8 06       	cpc	r12, r24
    7022:	d9 06       	cpc	r13, r25
    7024:	70 f0       	brcs	.+28     	; 0x7042 <__udivdi3+0xada>
    7026:	a2 16       	cp	r10, r18
    7028:	b3 06       	cpc	r11, r19
    702a:	c4 06       	cpc	r12, r20
    702c:	d5 06       	cpc	r13, r21
    702e:	48 f4       	brcc	.+18     	; 0x7042 <__udivdi3+0xada>
    7030:	08 94       	sec
    7032:	61 08       	sbc	r6, r1
    7034:	71 08       	sbc	r7, r1
    7036:	81 08       	sbc	r8, r1
    7038:	91 08       	sbc	r9, r1
    703a:	a6 0e       	add	r10, r22
    703c:	b7 1e       	adc	r11, r23
    703e:	c8 1e       	adc	r12, r24
    7040:	d9 1e       	adc	r13, r25
    7042:	d6 01       	movw	r26, r12
    7044:	c5 01       	movw	r24, r10
    7046:	82 1b       	sub	r24, r18
    7048:	93 0b       	sbc	r25, r19
    704a:	a4 0b       	sbc	r26, r20
    704c:	b5 0b       	sbc	r27, r21
    704e:	89 8f       	std	Y+25, r24	; 0x19
    7050:	9a 8f       	std	Y+26, r25	; 0x1a
    7052:	ab 8f       	std	Y+27, r26	; 0x1b
    7054:	bc 8f       	std	Y+28, r27	; 0x1c
    7056:	d1 01       	movw	r26, r2
    7058:	99 27       	eor	r25, r25
    705a:	88 27       	eor	r24, r24
    705c:	64 01       	movw	r12, r8
    705e:	53 01       	movw	r10, r6
    7060:	a8 2a       	or	r10, r24
    7062:	b9 2a       	or	r11, r25
    7064:	ca 2a       	or	r12, r26
    7066:	db 2a       	or	r13, r27
    7068:	a9 aa       	std	Y+49, r10	; 0x31
    706a:	ba aa       	std	Y+50, r11	; 0x32
    706c:	cb aa       	std	Y+51, r12	; 0x33
    706e:	dc aa       	std	Y+52, r13	; 0x34
    7070:	86 01       	movw	r16, r12
    7072:	75 01       	movw	r14, r10
    7074:	2f ef       	ldi	r18, 0xFF	; 255
    7076:	3f ef       	ldi	r19, 0xFF	; 255
    7078:	40 e0       	ldi	r20, 0x00	; 0
    707a:	50 e0       	ldi	r21, 0x00	; 0
    707c:	e2 22       	and	r14, r18
    707e:	f3 22       	and	r15, r19
    7080:	04 23       	and	r16, r20
    7082:	15 23       	and	r17, r21
    7084:	a6 01       	movw	r20, r12
    7086:	66 27       	eor	r22, r22
    7088:	77 27       	eor	r23, r23
    708a:	6d 96       	adiw	r28, 0x1d	; 29
    708c:	4c af       	std	Y+60, r20	; 0x3c
    708e:	5d af       	std	Y+61, r21	; 0x3d
    7090:	6e af       	std	Y+62, r22	; 0x3e
    7092:	7f af       	std	Y+63, r23	; 0x3f
    7094:	6d 97       	sbiw	r28, 0x1d	; 29
    7096:	a9 a0       	ldd	r10, Y+33	; 0x21
    7098:	ba a0       	ldd	r11, Y+34	; 0x22
    709a:	cb a0       	ldd	r12, Y+35	; 0x23
    709c:	dc a0       	ldd	r13, Y+36	; 0x24
    709e:	6f ef       	ldi	r22, 0xFF	; 255
    70a0:	7f ef       	ldi	r23, 0xFF	; 255
    70a2:	80 e0       	ldi	r24, 0x00	; 0
    70a4:	90 e0       	ldi	r25, 0x00	; 0
    70a6:	a6 22       	and	r10, r22
    70a8:	b7 22       	and	r11, r23
    70aa:	c8 22       	and	r12, r24
    70ac:	d9 22       	and	r13, r25
    70ae:	89 a1       	ldd	r24, Y+33	; 0x21
    70b0:	9a a1       	ldd	r25, Y+34	; 0x22
    70b2:	ab a1       	ldd	r26, Y+35	; 0x23
    70b4:	bc a1       	ldd	r27, Y+36	; 0x24
    70b6:	1d 01       	movw	r2, r26
    70b8:	44 24       	eor	r4, r4
    70ba:	55 24       	eor	r5, r5
    70bc:	c8 01       	movw	r24, r16
    70be:	b7 01       	movw	r22, r14
    70c0:	a6 01       	movw	r20, r12
    70c2:	95 01       	movw	r18, r10
    70c4:	0e 94 06 41 	call	0x820c	; 0x820c <__mulsi3>
    70c8:	69 96       	adiw	r28, 0x19	; 25
    70ca:	6c af       	std	Y+60, r22	; 0x3c
    70cc:	7d af       	std	Y+61, r23	; 0x3d
    70ce:	8e af       	std	Y+62, r24	; 0x3e
    70d0:	9f af       	std	Y+63, r25	; 0x3f
    70d2:	69 97       	sbiw	r28, 0x19	; 25
    70d4:	c8 01       	movw	r24, r16
    70d6:	b7 01       	movw	r22, r14
    70d8:	a2 01       	movw	r20, r4
    70da:	91 01       	movw	r18, r2
    70dc:	0e 94 06 41 	call	0x820c	; 0x820c <__mulsi3>
    70e0:	3b 01       	movw	r6, r22
    70e2:	4c 01       	movw	r8, r24
    70e4:	6d 96       	adiw	r28, 0x1d	; 29
    70e6:	6c ad       	ldd	r22, Y+60	; 0x3c
    70e8:	7d ad       	ldd	r23, Y+61	; 0x3d
    70ea:	8e ad       	ldd	r24, Y+62	; 0x3e
    70ec:	9f ad       	ldd	r25, Y+63	; 0x3f
    70ee:	6d 97       	sbiw	r28, 0x1d	; 29
    70f0:	a6 01       	movw	r20, r12
    70f2:	95 01       	movw	r18, r10
    70f4:	0e 94 06 41 	call	0x820c	; 0x820c <__mulsi3>
    70f8:	7b 01       	movw	r14, r22
    70fa:	8c 01       	movw	r16, r24
    70fc:	6d 96       	adiw	r28, 0x1d	; 29
    70fe:	6c ad       	ldd	r22, Y+60	; 0x3c
    7100:	7d ad       	ldd	r23, Y+61	; 0x3d
    7102:	8e ad       	ldd	r24, Y+62	; 0x3e
    7104:	9f ad       	ldd	r25, Y+63	; 0x3f
    7106:	6d 97       	sbiw	r28, 0x1d	; 29
    7108:	a2 01       	movw	r20, r4
    710a:	91 01       	movw	r18, r2
    710c:	0e 94 06 41 	call	0x820c	; 0x820c <__mulsi3>
    7110:	5b 01       	movw	r10, r22
    7112:	6c 01       	movw	r12, r24
    7114:	a8 01       	movw	r20, r16
    7116:	97 01       	movw	r18, r14
    7118:	26 0d       	add	r18, r6
    711a:	37 1d       	adc	r19, r7
    711c:	48 1d       	adc	r20, r8
    711e:	59 1d       	adc	r21, r9
    7120:	69 96       	adiw	r28, 0x19	; 25
    7122:	6c ac       	ldd	r6, Y+60	; 0x3c
    7124:	7d ac       	ldd	r7, Y+61	; 0x3d
    7126:	8e ac       	ldd	r8, Y+62	; 0x3e
    7128:	9f ac       	ldd	r9, Y+63	; 0x3f
    712a:	69 97       	sbiw	r28, 0x19	; 25
    712c:	c4 01       	movw	r24, r8
    712e:	aa 27       	eor	r26, r26
    7130:	bb 27       	eor	r27, r27
    7132:	28 0f       	add	r18, r24
    7134:	39 1f       	adc	r19, r25
    7136:	4a 1f       	adc	r20, r26
    7138:	5b 1f       	adc	r21, r27
    713a:	2e 15       	cp	r18, r14
    713c:	3f 05       	cpc	r19, r15
    713e:	40 07       	cpc	r20, r16
    7140:	51 07       	cpc	r21, r17
    7142:	48 f4       	brcc	.+18     	; 0x7156 <__udivdi3+0xbee>
    7144:	e1 2c       	mov	r14, r1
    7146:	f1 2c       	mov	r15, r1
    7148:	61 e0       	ldi	r22, 0x01	; 1
    714a:	06 2f       	mov	r16, r22
    714c:	11 2d       	mov	r17, r1
    714e:	ae 0c       	add	r10, r14
    7150:	bf 1c       	adc	r11, r15
    7152:	c0 1e       	adc	r12, r16
    7154:	d1 1e       	adc	r13, r17
    7156:	ca 01       	movw	r24, r20
    7158:	aa 27       	eor	r26, r26
    715a:	bb 27       	eor	r27, r27
    715c:	bc 01       	movw	r22, r24
    715e:	cd 01       	movw	r24, r26
    7160:	6a 0d       	add	r22, r10
    7162:	7b 1d       	adc	r23, r11
    7164:	8c 1d       	adc	r24, r12
    7166:	9d 1d       	adc	r25, r13
    7168:	69 8c       	ldd	r6, Y+25	; 0x19
    716a:	7a 8c       	ldd	r7, Y+26	; 0x1a
    716c:	8b 8c       	ldd	r8, Y+27	; 0x1b
    716e:	9c 8c       	ldd	r9, Y+28	; 0x1c
    7170:	66 16       	cp	r6, r22
    7172:	77 06       	cpc	r7, r23
    7174:	88 06       	cpc	r8, r24
    7176:	99 06       	cpc	r9, r25
    7178:	40 f1       	brcs	.+80     	; 0x71ca <__udivdi3+0xc62>
    717a:	66 15       	cp	r22, r6
    717c:	77 05       	cpc	r23, r7
    717e:	88 05       	cpc	r24, r8
    7180:	99 05       	cpc	r25, r9
    7182:	09 f0       	breq	.+2      	; 0x7186 <__udivdi3+0xc1e>
    7184:	43 c0       	rjmp	.+134    	; 0x720c <__udivdi3+0xca4>
    7186:	d9 01       	movw	r26, r18
    7188:	99 27       	eor	r25, r25
    718a:	88 27       	eor	r24, r24
    718c:	69 96       	adiw	r28, 0x19	; 25
    718e:	2c ad       	ldd	r18, Y+60	; 0x3c
    7190:	3d ad       	ldd	r19, Y+61	; 0x3d
    7192:	4e ad       	ldd	r20, Y+62	; 0x3e
    7194:	5f ad       	ldd	r21, Y+63	; 0x3f
    7196:	69 97       	sbiw	r28, 0x19	; 25
    7198:	40 70       	andi	r20, 0x00	; 0
    719a:	50 70       	andi	r21, 0x00	; 0
    719c:	82 0f       	add	r24, r18
    719e:	93 1f       	adc	r25, r19
    71a0:	a4 1f       	adc	r26, r20
    71a2:	b5 1f       	adc	r27, r21
    71a4:	2d a5       	ldd	r18, Y+45	; 0x2d
    71a6:	3e a5       	ldd	r19, Y+46	; 0x2e
    71a8:	4f a5       	ldd	r20, Y+47	; 0x2f
    71aa:	58 a9       	ldd	r21, Y+48	; 0x30
    71ac:	6e 96       	adiw	r28, 0x1e	; 30
    71ae:	0f ac       	ldd	r0, Y+63	; 0x3f
    71b0:	6e 97       	sbiw	r28, 0x1e	; 30
    71b2:	04 c0       	rjmp	.+8      	; 0x71bc <__udivdi3+0xc54>
    71b4:	22 0f       	add	r18, r18
    71b6:	33 1f       	adc	r19, r19
    71b8:	44 1f       	adc	r20, r20
    71ba:	55 1f       	adc	r21, r21
    71bc:	0a 94       	dec	r0
    71be:	d2 f7       	brpl	.-12     	; 0x71b4 <__udivdi3+0xc4c>
    71c0:	28 17       	cp	r18, r24
    71c2:	39 07       	cpc	r19, r25
    71c4:	4a 07       	cpc	r20, r26
    71c6:	5b 07       	cpc	r21, r27
    71c8:	08 f5       	brcc	.+66     	; 0x720c <__udivdi3+0xca4>
    71ca:	09 a9       	ldd	r16, Y+49	; 0x31
    71cc:	1a a9       	ldd	r17, Y+50	; 0x32
    71ce:	2b a9       	ldd	r18, Y+51	; 0x33
    71d0:	3c a9       	ldd	r19, Y+52	; 0x34
    71d2:	01 50       	subi	r16, 0x01	; 1
    71d4:	10 40       	sbci	r17, 0x00	; 0
    71d6:	20 40       	sbci	r18, 0x00	; 0
    71d8:	30 40       	sbci	r19, 0x00	; 0
    71da:	09 ab       	std	Y+49, r16	; 0x31
    71dc:	1a ab       	std	Y+50, r17	; 0x32
    71de:	2b ab       	std	Y+51, r18	; 0x33
    71e0:	3c ab       	std	Y+52, r19	; 0x34
    71e2:	14 c0       	rjmp	.+40     	; 0x720c <__udivdi3+0xca4>
    71e4:	66 24       	eor	r6, r6
    71e6:	77 24       	eor	r7, r7
    71e8:	43 01       	movw	r8, r6
    71ea:	21 e0       	ldi	r18, 0x01	; 1
    71ec:	30 e0       	ldi	r19, 0x00	; 0
    71ee:	40 e0       	ldi	r20, 0x00	; 0
    71f0:	50 e0       	ldi	r21, 0x00	; 0
    71f2:	29 ab       	std	Y+49, r18	; 0x31
    71f4:	3a ab       	std	Y+50, r19	; 0x32
    71f6:	4b ab       	std	Y+51, r20	; 0x33
    71f8:	5c ab       	std	Y+52, r21	; 0x34
    71fa:	0b c0       	rjmp	.+22     	; 0x7212 <__udivdi3+0xcaa>
    71fc:	66 24       	eor	r6, r6
    71fe:	77 24       	eor	r7, r7
    7200:	43 01       	movw	r8, r6
    7202:	19 aa       	std	Y+49, r1	; 0x31
    7204:	1a aa       	std	Y+50, r1	; 0x32
    7206:	1b aa       	std	Y+51, r1	; 0x33
    7208:	1c aa       	std	Y+52, r1	; 0x34
    720a:	03 c0       	rjmp	.+6      	; 0x7212 <__udivdi3+0xcaa>
    720c:	66 24       	eor	r6, r6
    720e:	77 24       	eor	r7, r7
    7210:	43 01       	movw	r8, r6
    7212:	fe 01       	movw	r30, r28
    7214:	71 96       	adiw	r30, 0x11	; 17
    7216:	88 e0       	ldi	r24, 0x08	; 8
    7218:	df 01       	movw	r26, r30
    721a:	1d 92       	st	X+, r1
    721c:	8a 95       	dec	r24
    721e:	e9 f7       	brne	.-6      	; 0x721a <__udivdi3+0xcb2>
    7220:	a9 a8       	ldd	r10, Y+49	; 0x31
    7222:	ba a8       	ldd	r11, Y+50	; 0x32
    7224:	cb a8       	ldd	r12, Y+51	; 0x33
    7226:	dc a8       	ldd	r13, Y+52	; 0x34
    7228:	a9 8a       	std	Y+17, r10	; 0x11
    722a:	ba 8a       	std	Y+18, r11	; 0x12
    722c:	cb 8a       	std	Y+19, r12	; 0x13
    722e:	dc 8a       	std	Y+20, r13	; 0x14
    7230:	6d 8a       	std	Y+21, r6	; 0x15
    7232:	7e 8a       	std	Y+22, r7	; 0x16
    7234:	8f 8a       	std	Y+23, r8	; 0x17
    7236:	98 8e       	std	Y+24, r9	; 0x18
    7238:	29 a9       	ldd	r18, Y+49	; 0x31
    723a:	3a 89       	ldd	r19, Y+18	; 0x12
    723c:	4b 89       	ldd	r20, Y+19	; 0x13
    723e:	5c 89       	ldd	r21, Y+20	; 0x14
    7240:	66 2d       	mov	r22, r6
    7242:	7e 89       	ldd	r23, Y+22	; 0x16
    7244:	8f 89       	ldd	r24, Y+23	; 0x17
    7246:	98 8d       	ldd	r25, Y+24	; 0x18
    7248:	c2 5a       	subi	r28, 0xA2	; 162
    724a:	df 4f       	sbci	r29, 0xFF	; 255
    724c:	e2 e1       	ldi	r30, 0x12	; 18
    724e:	0c 94 63 41 	jmp	0x82c6	; 0x82c6 <__epilogue_restores__>

00007252 <vfprintf>:
    7252:	2f 92       	push	r2
    7254:	3f 92       	push	r3
    7256:	4f 92       	push	r4
    7258:	5f 92       	push	r5
    725a:	6f 92       	push	r6
    725c:	7f 92       	push	r7
    725e:	8f 92       	push	r8
    7260:	9f 92       	push	r9
    7262:	af 92       	push	r10
    7264:	bf 92       	push	r11
    7266:	cf 92       	push	r12
    7268:	df 92       	push	r13
    726a:	ef 92       	push	r14
    726c:	ff 92       	push	r15
    726e:	0f 93       	push	r16
    7270:	1f 93       	push	r17
    7272:	df 93       	push	r29
    7274:	cf 93       	push	r28
    7276:	cd b7       	in	r28, 0x3d	; 61
    7278:	de b7       	in	r29, 0x3e	; 62
    727a:	61 97       	sbiw	r28, 0x11	; 17
    727c:	cd bf       	out	0x3d, r28	; 61
    727e:	de bf       	out	0x3e, r29	; 62
    7280:	3c 01       	movw	r6, r24
    7282:	6e 87       	std	Y+14, r22	; 0x0e
    7284:	7f 87       	std	Y+15, r23	; 0x0f
    7286:	6a 01       	movw	r12, r20
    7288:	fc 01       	movw	r30, r24
    728a:	16 82       	std	Z+6, r1	; 0x06
    728c:	17 82       	std	Z+7, r1	; 0x07
    728e:	83 81       	ldd	r24, Z+3	; 0x03
    7290:	81 fd       	sbrc	r24, 1
    7292:	03 c0       	rjmp	.+6      	; 0x729a <vfprintf+0x48>
    7294:	6f ef       	ldi	r22, 0xFF	; 255
    7296:	7f ef       	ldi	r23, 0xFF	; 255
    7298:	6f c3       	rjmp	.+1758   	; 0x7978 <vfprintf+0x726>
    729a:	9e 01       	movw	r18, r28
    729c:	2f 5f       	subi	r18, 0xFF	; 255
    729e:	3f 4f       	sbci	r19, 0xFF	; 255
    72a0:	28 8b       	std	Y+16, r18	; 0x10
    72a2:	39 8b       	std	Y+17, r19	; 0x11
    72a4:	f3 01       	movw	r30, r6
    72a6:	23 81       	ldd	r18, Z+3	; 0x03
    72a8:	ee 85       	ldd	r30, Y+14	; 0x0e
    72aa:	ff 85       	ldd	r31, Y+15	; 0x0f
    72ac:	23 fd       	sbrc	r18, 3
    72ae:	85 91       	lpm	r24, Z+
    72b0:	23 ff       	sbrs	r18, 3
    72b2:	81 91       	ld	r24, Z+
    72b4:	ee 87       	std	Y+14, r30	; 0x0e
    72b6:	ff 87       	std	Y+15, r31	; 0x0f
    72b8:	88 23       	and	r24, r24
    72ba:	09 f4       	brne	.+2      	; 0x72be <vfprintf+0x6c>
    72bc:	5a c3       	rjmp	.+1716   	; 0x7972 <vfprintf+0x720>
    72be:	85 32       	cpi	r24, 0x25	; 37
    72c0:	51 f4       	brne	.+20     	; 0x72d6 <vfprintf+0x84>
    72c2:	ee 85       	ldd	r30, Y+14	; 0x0e
    72c4:	ff 85       	ldd	r31, Y+15	; 0x0f
    72c6:	23 fd       	sbrc	r18, 3
    72c8:	85 91       	lpm	r24, Z+
    72ca:	23 ff       	sbrs	r18, 3
    72cc:	81 91       	ld	r24, Z+
    72ce:	ee 87       	std	Y+14, r30	; 0x0e
    72d0:	ff 87       	std	Y+15, r31	; 0x0f
    72d2:	85 32       	cpi	r24, 0x25	; 37
    72d4:	29 f4       	brne	.+10     	; 0x72e0 <vfprintf+0x8e>
    72d6:	90 e0       	ldi	r25, 0x00	; 0
    72d8:	b3 01       	movw	r22, r6
    72da:	0e 94 58 44 	call	0x88b0	; 0x88b0 <fputc>
    72de:	e2 cf       	rjmp	.-60     	; 0x72a4 <vfprintf+0x52>
    72e0:	98 2f       	mov	r25, r24
    72e2:	10 e0       	ldi	r17, 0x00	; 0
    72e4:	88 24       	eor	r8, r8
    72e6:	99 24       	eor	r9, r9
    72e8:	10 32       	cpi	r17, 0x20	; 32
    72ea:	b0 f4       	brcc	.+44     	; 0x7318 <vfprintf+0xc6>
    72ec:	9b 32       	cpi	r25, 0x2B	; 43
    72ee:	69 f0       	breq	.+26     	; 0x730a <vfprintf+0xb8>
    72f0:	9c 32       	cpi	r25, 0x2C	; 44
    72f2:	28 f4       	brcc	.+10     	; 0x72fe <vfprintf+0xac>
    72f4:	90 32       	cpi	r25, 0x20	; 32
    72f6:	51 f0       	breq	.+20     	; 0x730c <vfprintf+0xba>
    72f8:	93 32       	cpi	r25, 0x23	; 35
    72fa:	71 f4       	brne	.+28     	; 0x7318 <vfprintf+0xc6>
    72fc:	0b c0       	rjmp	.+22     	; 0x7314 <vfprintf+0xc2>
    72fe:	9d 32       	cpi	r25, 0x2D	; 45
    7300:	39 f0       	breq	.+14     	; 0x7310 <vfprintf+0xbe>
    7302:	90 33       	cpi	r25, 0x30	; 48
    7304:	49 f4       	brne	.+18     	; 0x7318 <vfprintf+0xc6>
    7306:	11 60       	ori	r17, 0x01	; 1
    7308:	28 c0       	rjmp	.+80     	; 0x735a <vfprintf+0x108>
    730a:	12 60       	ori	r17, 0x02	; 2
    730c:	14 60       	ori	r17, 0x04	; 4
    730e:	25 c0       	rjmp	.+74     	; 0x735a <vfprintf+0x108>
    7310:	18 60       	ori	r17, 0x08	; 8
    7312:	23 c0       	rjmp	.+70     	; 0x735a <vfprintf+0x108>
    7314:	10 61       	ori	r17, 0x10	; 16
    7316:	21 c0       	rjmp	.+66     	; 0x735a <vfprintf+0x108>
    7318:	17 fd       	sbrc	r17, 7
    731a:	2a c0       	rjmp	.+84     	; 0x7370 <vfprintf+0x11e>
    731c:	89 2f       	mov	r24, r25
    731e:	80 53       	subi	r24, 0x30	; 48
    7320:	8a 30       	cpi	r24, 0x0A	; 10
    7322:	78 f4       	brcc	.+30     	; 0x7342 <vfprintf+0xf0>
    7324:	16 ff       	sbrs	r17, 6
    7326:	06 c0       	rjmp	.+12     	; 0x7334 <vfprintf+0xe2>
    7328:	fa e0       	ldi	r31, 0x0A	; 10
    732a:	9f 9e       	mul	r9, r31
    732c:	90 2c       	mov	r9, r0
    732e:	11 24       	eor	r1, r1
    7330:	98 0e       	add	r9, r24
    7332:	13 c0       	rjmp	.+38     	; 0x735a <vfprintf+0x108>
    7334:	3a e0       	ldi	r19, 0x0A	; 10
    7336:	83 9e       	mul	r8, r19
    7338:	80 2c       	mov	r8, r0
    733a:	11 24       	eor	r1, r1
    733c:	88 0e       	add	r8, r24
    733e:	10 62       	ori	r17, 0x20	; 32
    7340:	0c c0       	rjmp	.+24     	; 0x735a <vfprintf+0x108>
    7342:	9e 32       	cpi	r25, 0x2E	; 46
    7344:	21 f4       	brne	.+8      	; 0x734e <vfprintf+0xfc>
    7346:	16 fd       	sbrc	r17, 6
    7348:	14 c3       	rjmp	.+1576   	; 0x7972 <vfprintf+0x720>
    734a:	10 64       	ori	r17, 0x40	; 64
    734c:	06 c0       	rjmp	.+12     	; 0x735a <vfprintf+0x108>
    734e:	9c 36       	cpi	r25, 0x6C	; 108
    7350:	11 f4       	brne	.+4      	; 0x7356 <vfprintf+0x104>
    7352:	10 68       	ori	r17, 0x80	; 128
    7354:	02 c0       	rjmp	.+4      	; 0x735a <vfprintf+0x108>
    7356:	98 36       	cpi	r25, 0x68	; 104
    7358:	59 f4       	brne	.+22     	; 0x7370 <vfprintf+0x11e>
    735a:	ee 85       	ldd	r30, Y+14	; 0x0e
    735c:	ff 85       	ldd	r31, Y+15	; 0x0f
    735e:	23 fd       	sbrc	r18, 3
    7360:	95 91       	lpm	r25, Z+
    7362:	23 ff       	sbrs	r18, 3
    7364:	91 91       	ld	r25, Z+
    7366:	ee 87       	std	Y+14, r30	; 0x0e
    7368:	ff 87       	std	Y+15, r31	; 0x0f
    736a:	99 23       	and	r25, r25
    736c:	09 f0       	breq	.+2      	; 0x7370 <vfprintf+0x11e>
    736e:	bc cf       	rjmp	.-136    	; 0x72e8 <vfprintf+0x96>
    7370:	89 2f       	mov	r24, r25
    7372:	85 54       	subi	r24, 0x45	; 69
    7374:	83 30       	cpi	r24, 0x03	; 3
    7376:	20 f4       	brcc	.+8      	; 0x7380 <vfprintf+0x12e>
    7378:	81 2f       	mov	r24, r17
    737a:	80 61       	ori	r24, 0x10	; 16
    737c:	90 5e       	subi	r25, 0xE0	; 224
    737e:	07 c0       	rjmp	.+14     	; 0x738e <vfprintf+0x13c>
    7380:	89 2f       	mov	r24, r25
    7382:	85 56       	subi	r24, 0x65	; 101
    7384:	83 30       	cpi	r24, 0x03	; 3
    7386:	08 f0       	brcs	.+2      	; 0x738a <vfprintf+0x138>
    7388:	9f c1       	rjmp	.+830    	; 0x76c8 <vfprintf+0x476>
    738a:	81 2f       	mov	r24, r17
    738c:	8f 7e       	andi	r24, 0xEF	; 239
    738e:	86 fd       	sbrc	r24, 6
    7390:	02 c0       	rjmp	.+4      	; 0x7396 <vfprintf+0x144>
    7392:	76 e0       	ldi	r23, 0x06	; 6
    7394:	97 2e       	mov	r9, r23
    7396:	6f e3       	ldi	r22, 0x3F	; 63
    7398:	f6 2e       	mov	r15, r22
    739a:	f8 22       	and	r15, r24
    739c:	95 36       	cpi	r25, 0x65	; 101
    739e:	19 f4       	brne	.+6      	; 0x73a6 <vfprintf+0x154>
    73a0:	f0 e4       	ldi	r31, 0x40	; 64
    73a2:	ff 2a       	or	r15, r31
    73a4:	07 c0       	rjmp	.+14     	; 0x73b4 <vfprintf+0x162>
    73a6:	96 36       	cpi	r25, 0x66	; 102
    73a8:	19 f4       	brne	.+6      	; 0x73b0 <vfprintf+0x15e>
    73aa:	20 e8       	ldi	r18, 0x80	; 128
    73ac:	f2 2a       	or	r15, r18
    73ae:	02 c0       	rjmp	.+4      	; 0x73b4 <vfprintf+0x162>
    73b0:	91 10       	cpse	r9, r1
    73b2:	9a 94       	dec	r9
    73b4:	f7 fe       	sbrs	r15, 7
    73b6:	0a c0       	rjmp	.+20     	; 0x73cc <vfprintf+0x17a>
    73b8:	3b e3       	ldi	r19, 0x3B	; 59
    73ba:	39 15       	cp	r19, r9
    73bc:	18 f4       	brcc	.+6      	; 0x73c4 <vfprintf+0x172>
    73be:	5c e3       	ldi	r21, 0x3C	; 60
    73c0:	b5 2e       	mov	r11, r21
    73c2:	02 c0       	rjmp	.+4      	; 0x73c8 <vfprintf+0x176>
    73c4:	b9 2c       	mov	r11, r9
    73c6:	b3 94       	inc	r11
    73c8:	27 e0       	ldi	r18, 0x07	; 7
    73ca:	09 c0       	rjmp	.+18     	; 0x73de <vfprintf+0x18c>
    73cc:	47 e0       	ldi	r20, 0x07	; 7
    73ce:	49 15       	cp	r20, r9
    73d0:	20 f4       	brcc	.+8      	; 0x73da <vfprintf+0x188>
    73d2:	bb 24       	eor	r11, r11
    73d4:	47 e0       	ldi	r20, 0x07	; 7
    73d6:	94 2e       	mov	r9, r20
    73d8:	f7 cf       	rjmp	.-18     	; 0x73c8 <vfprintf+0x176>
    73da:	29 2d       	mov	r18, r9
    73dc:	bb 24       	eor	r11, r11
    73de:	c6 01       	movw	r24, r12
    73e0:	04 96       	adiw	r24, 0x04	; 4
    73e2:	8c 87       	std	Y+12, r24	; 0x0c
    73e4:	9d 87       	std	Y+13, r25	; 0x0d
    73e6:	f6 01       	movw	r30, r12
    73e8:	60 81       	ld	r22, Z
    73ea:	71 81       	ldd	r23, Z+1	; 0x01
    73ec:	82 81       	ldd	r24, Z+2	; 0x02
    73ee:	93 81       	ldd	r25, Z+3	; 0x03
    73f0:	ae 01       	movw	r20, r28
    73f2:	4f 5f       	subi	r20, 0xFF	; 255
    73f4:	5f 4f       	sbci	r21, 0xFF	; 255
    73f6:	0b 2d       	mov	r16, r11
    73f8:	0e 94 0a 43 	call	0x8614	; 0x8614 <__ftoa_engine>
    73fc:	6c 01       	movw	r12, r24
    73fe:	09 81       	ldd	r16, Y+1	; 0x01
    7400:	20 2e       	mov	r2, r16
    7402:	33 24       	eor	r3, r3
    7404:	00 ff       	sbrs	r16, 0
    7406:	04 c0       	rjmp	.+8      	; 0x7410 <vfprintf+0x1be>
    7408:	03 fd       	sbrc	r16, 3
    740a:	02 c0       	rjmp	.+4      	; 0x7410 <vfprintf+0x1be>
    740c:	1d e2       	ldi	r17, 0x2D	; 45
    740e:	09 c0       	rjmp	.+18     	; 0x7422 <vfprintf+0x1d0>
    7410:	f1 fe       	sbrs	r15, 1
    7412:	02 c0       	rjmp	.+4      	; 0x7418 <vfprintf+0x1c6>
    7414:	1b e2       	ldi	r17, 0x2B	; 43
    7416:	05 c0       	rjmp	.+10     	; 0x7422 <vfprintf+0x1d0>
    7418:	f2 fc       	sbrc	r15, 2
    741a:	02 c0       	rjmp	.+4      	; 0x7420 <vfprintf+0x1ce>
    741c:	10 e0       	ldi	r17, 0x00	; 0
    741e:	01 c0       	rjmp	.+2      	; 0x7422 <vfprintf+0x1d0>
    7420:	10 e2       	ldi	r17, 0x20	; 32
    7422:	c1 01       	movw	r24, r2
    7424:	8c 70       	andi	r24, 0x0C	; 12
    7426:	90 70       	andi	r25, 0x00	; 0
    7428:	89 2b       	or	r24, r25
    742a:	b9 f1       	breq	.+110    	; 0x749a <vfprintf+0x248>
    742c:	11 23       	and	r17, r17
    742e:	11 f4       	brne	.+4      	; 0x7434 <vfprintf+0x1e2>
    7430:	83 e0       	ldi	r24, 0x03	; 3
    7432:	01 c0       	rjmp	.+2      	; 0x7436 <vfprintf+0x1e4>
    7434:	84 e0       	ldi	r24, 0x04	; 4
    7436:	88 15       	cp	r24, r8
    7438:	10 f0       	brcs	.+4      	; 0x743e <vfprintf+0x1ec>
    743a:	88 24       	eor	r8, r8
    743c:	0a c0       	rjmp	.+20     	; 0x7452 <vfprintf+0x200>
    743e:	88 1a       	sub	r8, r24
    7440:	f3 fc       	sbrc	r15, 3
    7442:	07 c0       	rjmp	.+14     	; 0x7452 <vfprintf+0x200>
    7444:	80 e2       	ldi	r24, 0x20	; 32
    7446:	90 e0       	ldi	r25, 0x00	; 0
    7448:	b3 01       	movw	r22, r6
    744a:	0e 94 58 44 	call	0x88b0	; 0x88b0 <fputc>
    744e:	8a 94       	dec	r8
    7450:	c9 f7       	brne	.-14     	; 0x7444 <vfprintf+0x1f2>
    7452:	11 23       	and	r17, r17
    7454:	29 f0       	breq	.+10     	; 0x7460 <vfprintf+0x20e>
    7456:	81 2f       	mov	r24, r17
    7458:	90 e0       	ldi	r25, 0x00	; 0
    745a:	b3 01       	movw	r22, r6
    745c:	0e 94 58 44 	call	0x88b0	; 0x88b0 <fputc>
    7460:	23 fe       	sbrs	r2, 3
    7462:	03 c0       	rjmp	.+6      	; 0x746a <vfprintf+0x218>
    7464:	03 e3       	ldi	r16, 0x33	; 51
    7466:	12 e0       	ldi	r17, 0x02	; 2
    7468:	0e c0       	rjmp	.+28     	; 0x7486 <vfprintf+0x234>
    746a:	07 e3       	ldi	r16, 0x37	; 55
    746c:	12 e0       	ldi	r17, 0x02	; 2
    746e:	0b c0       	rjmp	.+22     	; 0x7486 <vfprintf+0x234>
    7470:	e1 14       	cp	r14, r1
    7472:	f1 04       	cpc	r15, r1
    7474:	09 f0       	breq	.+2      	; 0x7478 <vfprintf+0x226>
    7476:	80 52       	subi	r24, 0x20	; 32
    7478:	90 e0       	ldi	r25, 0x00	; 0
    747a:	b3 01       	movw	r22, r6
    747c:	0e 94 58 44 	call	0x88b0	; 0x88b0 <fputc>
    7480:	0f 5f       	subi	r16, 0xFF	; 255
    7482:	1f 4f       	sbci	r17, 0xFF	; 255
    7484:	05 c0       	rjmp	.+10     	; 0x7490 <vfprintf+0x23e>
    7486:	ef 2c       	mov	r14, r15
    7488:	ff 24       	eor	r15, r15
    748a:	f0 e1       	ldi	r31, 0x10	; 16
    748c:	ef 22       	and	r14, r31
    748e:	ff 24       	eor	r15, r15
    7490:	f8 01       	movw	r30, r16
    7492:	84 91       	lpm	r24, Z+
    7494:	88 23       	and	r24, r24
    7496:	61 f7       	brne	.-40     	; 0x7470 <vfprintf+0x21e>
    7498:	14 c1       	rjmp	.+552    	; 0x76c2 <vfprintf+0x470>
    749a:	f7 fe       	sbrs	r15, 7
    749c:	12 c0       	rjmp	.+36     	; 0x74c2 <vfprintf+0x270>
    749e:	bc 0c       	add	r11, r12
    74a0:	24 fe       	sbrs	r2, 4
    74a2:	04 c0       	rjmp	.+8      	; 0x74ac <vfprintf+0x25a>
    74a4:	8a 81       	ldd	r24, Y+2	; 0x02
    74a6:	81 33       	cpi	r24, 0x31	; 49
    74a8:	09 f4       	brne	.+2      	; 0x74ac <vfprintf+0x25a>
    74aa:	ba 94       	dec	r11
    74ac:	1b 14       	cp	r1, r11
    74ae:	1c f0       	brlt	.+6      	; 0x74b6 <vfprintf+0x264>
    74b0:	bb 24       	eor	r11, r11
    74b2:	b3 94       	inc	r11
    74b4:	2d c0       	rjmp	.+90     	; 0x7510 <vfprintf+0x2be>
    74b6:	f8 e0       	ldi	r31, 0x08	; 8
    74b8:	fb 15       	cp	r31, r11
    74ba:	50 f5       	brcc	.+84     	; 0x7510 <vfprintf+0x2be>
    74bc:	38 e0       	ldi	r19, 0x08	; 8
    74be:	b3 2e       	mov	r11, r19
    74c0:	27 c0       	rjmp	.+78     	; 0x7510 <vfprintf+0x2be>
    74c2:	f6 fc       	sbrc	r15, 6
    74c4:	25 c0       	rjmp	.+74     	; 0x7510 <vfprintf+0x2be>
    74c6:	89 2d       	mov	r24, r9
    74c8:	90 e0       	ldi	r25, 0x00	; 0
    74ca:	8c 15       	cp	r24, r12
    74cc:	9d 05       	cpc	r25, r13
    74ce:	4c f0       	brlt	.+18     	; 0x74e2 <vfprintf+0x290>
    74d0:	2c ef       	ldi	r18, 0xFC	; 252
    74d2:	c2 16       	cp	r12, r18
    74d4:	2f ef       	ldi	r18, 0xFF	; 255
    74d6:	d2 06       	cpc	r13, r18
    74d8:	24 f0       	brlt	.+8      	; 0x74e2 <vfprintf+0x290>
    74da:	30 e8       	ldi	r19, 0x80	; 128
    74dc:	f3 2a       	or	r15, r19
    74de:	01 c0       	rjmp	.+2      	; 0x74e2 <vfprintf+0x290>
    74e0:	9a 94       	dec	r9
    74e2:	99 20       	and	r9, r9
    74e4:	49 f0       	breq	.+18     	; 0x74f8 <vfprintf+0x2a6>
    74e6:	e2 e0       	ldi	r30, 0x02	; 2
    74e8:	f0 e0       	ldi	r31, 0x00	; 0
    74ea:	ec 0f       	add	r30, r28
    74ec:	fd 1f       	adc	r31, r29
    74ee:	e9 0d       	add	r30, r9
    74f0:	f1 1d       	adc	r31, r1
    74f2:	80 81       	ld	r24, Z
    74f4:	80 33       	cpi	r24, 0x30	; 48
    74f6:	a1 f3       	breq	.-24     	; 0x74e0 <vfprintf+0x28e>
    74f8:	f7 fe       	sbrs	r15, 7
    74fa:	0a c0       	rjmp	.+20     	; 0x7510 <vfprintf+0x2be>
    74fc:	b9 2c       	mov	r11, r9
    74fe:	b3 94       	inc	r11
    7500:	89 2d       	mov	r24, r9
    7502:	90 e0       	ldi	r25, 0x00	; 0
    7504:	c8 16       	cp	r12, r24
    7506:	d9 06       	cpc	r13, r25
    7508:	14 f0       	brlt	.+4      	; 0x750e <vfprintf+0x2bc>
    750a:	99 24       	eor	r9, r9
    750c:	01 c0       	rjmp	.+2      	; 0x7510 <vfprintf+0x2be>
    750e:	9c 18       	sub	r9, r12
    7510:	f7 fc       	sbrc	r15, 7
    7512:	03 c0       	rjmp	.+6      	; 0x751a <vfprintf+0x2c8>
    7514:	25 e0       	ldi	r18, 0x05	; 5
    7516:	30 e0       	ldi	r19, 0x00	; 0
    7518:	09 c0       	rjmp	.+18     	; 0x752c <vfprintf+0x2da>
    751a:	1c 14       	cp	r1, r12
    751c:	1d 04       	cpc	r1, r13
    751e:	1c f0       	brlt	.+6      	; 0x7526 <vfprintf+0x2d4>
    7520:	21 e0       	ldi	r18, 0x01	; 1
    7522:	30 e0       	ldi	r19, 0x00	; 0
    7524:	03 c0       	rjmp	.+6      	; 0x752c <vfprintf+0x2da>
    7526:	96 01       	movw	r18, r12
    7528:	2f 5f       	subi	r18, 0xFF	; 255
    752a:	3f 4f       	sbci	r19, 0xFF	; 255
    752c:	11 23       	and	r17, r17
    752e:	11 f0       	breq	.+4      	; 0x7534 <vfprintf+0x2e2>
    7530:	2f 5f       	subi	r18, 0xFF	; 255
    7532:	3f 4f       	sbci	r19, 0xFF	; 255
    7534:	99 20       	and	r9, r9
    7536:	29 f0       	breq	.+10     	; 0x7542 <vfprintf+0x2f0>
    7538:	89 2d       	mov	r24, r9
    753a:	90 e0       	ldi	r25, 0x00	; 0
    753c:	01 96       	adiw	r24, 0x01	; 1
    753e:	28 0f       	add	r18, r24
    7540:	39 1f       	adc	r19, r25
    7542:	88 2d       	mov	r24, r8
    7544:	90 e0       	ldi	r25, 0x00	; 0
    7546:	28 17       	cp	r18, r24
    7548:	39 07       	cpc	r19, r25
    754a:	14 f0       	brlt	.+4      	; 0x7550 <vfprintf+0x2fe>
    754c:	88 24       	eor	r8, r8
    754e:	01 c0       	rjmp	.+2      	; 0x7552 <vfprintf+0x300>
    7550:	82 1a       	sub	r8, r18
    7552:	4f 2c       	mov	r4, r15
    7554:	55 24       	eor	r5, r5
    7556:	c2 01       	movw	r24, r4
    7558:	89 70       	andi	r24, 0x09	; 9
    755a:	90 70       	andi	r25, 0x00	; 0
    755c:	89 2b       	or	r24, r25
    755e:	39 f0       	breq	.+14     	; 0x756e <vfprintf+0x31c>
    7560:	08 c0       	rjmp	.+16     	; 0x7572 <vfprintf+0x320>
    7562:	80 e2       	ldi	r24, 0x20	; 32
    7564:	90 e0       	ldi	r25, 0x00	; 0
    7566:	b3 01       	movw	r22, r6
    7568:	0e 94 58 44 	call	0x88b0	; 0x88b0 <fputc>
    756c:	8a 94       	dec	r8
    756e:	88 20       	and	r8, r8
    7570:	c1 f7       	brne	.-16     	; 0x7562 <vfprintf+0x310>
    7572:	11 23       	and	r17, r17
    7574:	29 f0       	breq	.+10     	; 0x7580 <vfprintf+0x32e>
    7576:	81 2f       	mov	r24, r17
    7578:	90 e0       	ldi	r25, 0x00	; 0
    757a:	b3 01       	movw	r22, r6
    757c:	0e 94 58 44 	call	0x88b0	; 0x88b0 <fputc>
    7580:	43 fe       	sbrs	r4, 3
    7582:	07 c0       	rjmp	.+14     	; 0x7592 <vfprintf+0x340>
    7584:	08 c0       	rjmp	.+16     	; 0x7596 <vfprintf+0x344>
    7586:	80 e3       	ldi	r24, 0x30	; 48
    7588:	90 e0       	ldi	r25, 0x00	; 0
    758a:	b3 01       	movw	r22, r6
    758c:	0e 94 58 44 	call	0x88b0	; 0x88b0 <fputc>
    7590:	8a 94       	dec	r8
    7592:	88 20       	and	r8, r8
    7594:	c1 f7       	brne	.-16     	; 0x7586 <vfprintf+0x334>
    7596:	f7 fe       	sbrs	r15, 7
    7598:	46 c0       	rjmp	.+140    	; 0x7626 <vfprintf+0x3d4>
    759a:	86 01       	movw	r16, r12
    759c:	d7 fe       	sbrs	r13, 7
    759e:	02 c0       	rjmp	.+4      	; 0x75a4 <vfprintf+0x352>
    75a0:	00 e0       	ldi	r16, 0x00	; 0
    75a2:	10 e0       	ldi	r17, 0x00	; 0
    75a4:	76 01       	movw	r14, r12
    75a6:	08 94       	sec
    75a8:	e1 1c       	adc	r14, r1
    75aa:	f1 1c       	adc	r15, r1
    75ac:	e0 1a       	sub	r14, r16
    75ae:	f1 0a       	sbc	r15, r17
    75b0:	41 e0       	ldi	r20, 0x01	; 1
    75b2:	50 e0       	ldi	r21, 0x00	; 0
    75b4:	4c 0f       	add	r20, r28
    75b6:	5d 1f       	adc	r21, r29
    75b8:	e4 0e       	add	r14, r20
    75ba:	f5 1e       	adc	r15, r21
    75bc:	26 01       	movw	r4, r12
    75be:	4b 18       	sub	r4, r11
    75c0:	51 08       	sbc	r5, r1
    75c2:	89 2d       	mov	r24, r9
    75c4:	90 e0       	ldi	r25, 0x00	; 0
    75c6:	aa 24       	eor	r10, r10
    75c8:	bb 24       	eor	r11, r11
    75ca:	a8 1a       	sub	r10, r24
    75cc:	b9 0a       	sbc	r11, r25
    75ce:	5f ef       	ldi	r21, 0xFF	; 255
    75d0:	0f 3f       	cpi	r16, 0xFF	; 255
    75d2:	15 07       	cpc	r17, r21
    75d4:	29 f4       	brne	.+10     	; 0x75e0 <vfprintf+0x38e>
    75d6:	8e e2       	ldi	r24, 0x2E	; 46
    75d8:	90 e0       	ldi	r25, 0x00	; 0
    75da:	b3 01       	movw	r22, r6
    75dc:	0e 94 58 44 	call	0x88b0	; 0x88b0 <fputc>
    75e0:	c0 16       	cp	r12, r16
    75e2:	d1 06       	cpc	r13, r17
    75e4:	34 f0       	brlt	.+12     	; 0x75f2 <vfprintf+0x3a0>
    75e6:	40 16       	cp	r4, r16
    75e8:	51 06       	cpc	r5, r17
    75ea:	1c f4       	brge	.+6      	; 0x75f2 <vfprintf+0x3a0>
    75ec:	f7 01       	movw	r30, r14
    75ee:	80 81       	ld	r24, Z
    75f0:	01 c0       	rjmp	.+2      	; 0x75f4 <vfprintf+0x3a2>
    75f2:	80 e3       	ldi	r24, 0x30	; 48
    75f4:	01 50       	subi	r16, 0x01	; 1
    75f6:	10 40       	sbci	r17, 0x00	; 0
    75f8:	08 94       	sec
    75fa:	e1 1c       	adc	r14, r1
    75fc:	f1 1c       	adc	r15, r1
    75fe:	0a 15       	cp	r16, r10
    7600:	1b 05       	cpc	r17, r11
    7602:	2c f0       	brlt	.+10     	; 0x760e <vfprintf+0x3bc>
    7604:	90 e0       	ldi	r25, 0x00	; 0
    7606:	b3 01       	movw	r22, r6
    7608:	0e 94 58 44 	call	0x88b0	; 0x88b0 <fputc>
    760c:	e0 cf       	rjmp	.-64     	; 0x75ce <vfprintf+0x37c>
    760e:	0c 15       	cp	r16, r12
    7610:	1d 05       	cpc	r17, r13
    7612:	39 f4       	brne	.+14     	; 0x7622 <vfprintf+0x3d0>
    7614:	9a 81       	ldd	r25, Y+2	; 0x02
    7616:	96 33       	cpi	r25, 0x36	; 54
    7618:	18 f4       	brcc	.+6      	; 0x7620 <vfprintf+0x3ce>
    761a:	95 33       	cpi	r25, 0x35	; 53
    761c:	11 f4       	brne	.+4      	; 0x7622 <vfprintf+0x3d0>
    761e:	24 fe       	sbrs	r2, 4
    7620:	81 e3       	ldi	r24, 0x31	; 49
    7622:	90 e0       	ldi	r25, 0x00	; 0
    7624:	4b c0       	rjmp	.+150    	; 0x76bc <vfprintf+0x46a>
    7626:	8a 81       	ldd	r24, Y+2	; 0x02
    7628:	81 33       	cpi	r24, 0x31	; 49
    762a:	09 f0       	breq	.+2      	; 0x762e <vfprintf+0x3dc>
    762c:	0f 7e       	andi	r16, 0xEF	; 239
    762e:	90 e0       	ldi	r25, 0x00	; 0
    7630:	b3 01       	movw	r22, r6
    7632:	0e 94 58 44 	call	0x88b0	; 0x88b0 <fputc>
    7636:	99 20       	and	r9, r9
    7638:	a1 f0       	breq	.+40     	; 0x7662 <vfprintf+0x410>
    763a:	8e e2       	ldi	r24, 0x2E	; 46
    763c:	90 e0       	ldi	r25, 0x00	; 0
    763e:	b3 01       	movw	r22, r6
    7640:	0e 94 58 44 	call	0x88b0	; 0x88b0 <fputc>
    7644:	12 e0       	ldi	r17, 0x02	; 2
    7646:	e1 e0       	ldi	r30, 0x01	; 1
    7648:	f0 e0       	ldi	r31, 0x00	; 0
    764a:	ec 0f       	add	r30, r28
    764c:	fd 1f       	adc	r31, r29
    764e:	e1 0f       	add	r30, r17
    7650:	f1 1d       	adc	r31, r1
    7652:	1f 5f       	subi	r17, 0xFF	; 255
    7654:	80 81       	ld	r24, Z
    7656:	90 e0       	ldi	r25, 0x00	; 0
    7658:	b3 01       	movw	r22, r6
    765a:	0e 94 58 44 	call	0x88b0	; 0x88b0 <fputc>
    765e:	9a 94       	dec	r9
    7660:	91 f7       	brne	.-28     	; 0x7646 <vfprintf+0x3f4>
    7662:	44 fc       	sbrc	r4, 4
    7664:	03 c0       	rjmp	.+6      	; 0x766c <vfprintf+0x41a>
    7666:	85 e6       	ldi	r24, 0x65	; 101
    7668:	90 e0       	ldi	r25, 0x00	; 0
    766a:	02 c0       	rjmp	.+4      	; 0x7670 <vfprintf+0x41e>
    766c:	85 e4       	ldi	r24, 0x45	; 69
    766e:	90 e0       	ldi	r25, 0x00	; 0
    7670:	b3 01       	movw	r22, r6
    7672:	0e 94 58 44 	call	0x88b0	; 0x88b0 <fputc>
    7676:	d7 fc       	sbrc	r13, 7
    7678:	05 c0       	rjmp	.+10     	; 0x7684 <vfprintf+0x432>
    767a:	c1 14       	cp	r12, r1
    767c:	d1 04       	cpc	r13, r1
    767e:	41 f4       	brne	.+16     	; 0x7690 <vfprintf+0x43e>
    7680:	04 ff       	sbrs	r16, 4
    7682:	06 c0       	rjmp	.+12     	; 0x7690 <vfprintf+0x43e>
    7684:	d0 94       	com	r13
    7686:	c1 94       	neg	r12
    7688:	d1 08       	sbc	r13, r1
    768a:	d3 94       	inc	r13
    768c:	8d e2       	ldi	r24, 0x2D	; 45
    768e:	01 c0       	rjmp	.+2      	; 0x7692 <vfprintf+0x440>
    7690:	8b e2       	ldi	r24, 0x2B	; 43
    7692:	90 e0       	ldi	r25, 0x00	; 0
    7694:	b3 01       	movw	r22, r6
    7696:	0e 94 58 44 	call	0x88b0	; 0x88b0 <fputc>
    769a:	80 e3       	ldi	r24, 0x30	; 48
    769c:	05 c0       	rjmp	.+10     	; 0x76a8 <vfprintf+0x456>
    769e:	8f 5f       	subi	r24, 0xFF	; 255
    76a0:	26 ef       	ldi	r18, 0xF6	; 246
    76a2:	3f ef       	ldi	r19, 0xFF	; 255
    76a4:	c2 0e       	add	r12, r18
    76a6:	d3 1e       	adc	r13, r19
    76a8:	3a e0       	ldi	r19, 0x0A	; 10
    76aa:	c3 16       	cp	r12, r19
    76ac:	d1 04       	cpc	r13, r1
    76ae:	bc f7       	brge	.-18     	; 0x769e <vfprintf+0x44c>
    76b0:	90 e0       	ldi	r25, 0x00	; 0
    76b2:	b3 01       	movw	r22, r6
    76b4:	0e 94 58 44 	call	0x88b0	; 0x88b0 <fputc>
    76b8:	c6 01       	movw	r24, r12
    76ba:	c0 96       	adiw	r24, 0x30	; 48
    76bc:	b3 01       	movw	r22, r6
    76be:	0e 94 58 44 	call	0x88b0	; 0x88b0 <fputc>
    76c2:	cc 84       	ldd	r12, Y+12	; 0x0c
    76c4:	dd 84       	ldd	r13, Y+13	; 0x0d
    76c6:	52 c1       	rjmp	.+676    	; 0x796c <vfprintf+0x71a>
    76c8:	93 36       	cpi	r25, 0x63	; 99
    76ca:	31 f0       	breq	.+12     	; 0x76d8 <vfprintf+0x486>
    76cc:	93 37       	cpi	r25, 0x73	; 115
    76ce:	99 f0       	breq	.+38     	; 0x76f6 <vfprintf+0x4a4>
    76d0:	93 35       	cpi	r25, 0x53	; 83
    76d2:	09 f0       	breq	.+2      	; 0x76d6 <vfprintf+0x484>
    76d4:	59 c0       	rjmp	.+178    	; 0x7788 <vfprintf+0x536>
    76d6:	23 c0       	rjmp	.+70     	; 0x771e <vfprintf+0x4cc>
    76d8:	f6 01       	movw	r30, r12
    76da:	80 81       	ld	r24, Z
    76dc:	89 83       	std	Y+1, r24	; 0x01
    76de:	5e 01       	movw	r10, r28
    76e0:	08 94       	sec
    76e2:	a1 1c       	adc	r10, r1
    76e4:	b1 1c       	adc	r11, r1
    76e6:	22 e0       	ldi	r18, 0x02	; 2
    76e8:	30 e0       	ldi	r19, 0x00	; 0
    76ea:	c2 0e       	add	r12, r18
    76ec:	d3 1e       	adc	r13, r19
    76ee:	21 e0       	ldi	r18, 0x01	; 1
    76f0:	e2 2e       	mov	r14, r18
    76f2:	f1 2c       	mov	r15, r1
    76f4:	12 c0       	rjmp	.+36     	; 0x771a <vfprintf+0x4c8>
    76f6:	f6 01       	movw	r30, r12
    76f8:	a0 80       	ld	r10, Z
    76fa:	b1 80       	ldd	r11, Z+1	; 0x01
    76fc:	16 fd       	sbrc	r17, 6
    76fe:	03 c0       	rjmp	.+6      	; 0x7706 <vfprintf+0x4b4>
    7700:	6f ef       	ldi	r22, 0xFF	; 255
    7702:	7f ef       	ldi	r23, 0xFF	; 255
    7704:	02 c0       	rjmp	.+4      	; 0x770a <vfprintf+0x4b8>
    7706:	69 2d       	mov	r22, r9
    7708:	70 e0       	ldi	r23, 0x00	; 0
    770a:	22 e0       	ldi	r18, 0x02	; 2
    770c:	30 e0       	ldi	r19, 0x00	; 0
    770e:	c2 0e       	add	r12, r18
    7710:	d3 1e       	adc	r13, r19
    7712:	c5 01       	movw	r24, r10
    7714:	0e 94 0d 44 	call	0x881a	; 0x881a <strnlen>
    7718:	7c 01       	movw	r14, r24
    771a:	1f 77       	andi	r17, 0x7F	; 127
    771c:	13 c0       	rjmp	.+38     	; 0x7744 <vfprintf+0x4f2>
    771e:	f6 01       	movw	r30, r12
    7720:	a0 80       	ld	r10, Z
    7722:	b1 80       	ldd	r11, Z+1	; 0x01
    7724:	16 fd       	sbrc	r17, 6
    7726:	03 c0       	rjmp	.+6      	; 0x772e <vfprintf+0x4dc>
    7728:	6f ef       	ldi	r22, 0xFF	; 255
    772a:	7f ef       	ldi	r23, 0xFF	; 255
    772c:	02 c0       	rjmp	.+4      	; 0x7732 <vfprintf+0x4e0>
    772e:	69 2d       	mov	r22, r9
    7730:	70 e0       	ldi	r23, 0x00	; 0
    7732:	22 e0       	ldi	r18, 0x02	; 2
    7734:	30 e0       	ldi	r19, 0x00	; 0
    7736:	c2 0e       	add	r12, r18
    7738:	d3 1e       	adc	r13, r19
    773a:	c5 01       	movw	r24, r10
    773c:	0e 94 02 44 	call	0x8804	; 0x8804 <strnlen_P>
    7740:	7c 01       	movw	r14, r24
    7742:	10 68       	ori	r17, 0x80	; 128
    7744:	13 ff       	sbrs	r17, 3
    7746:	07 c0       	rjmp	.+14     	; 0x7756 <vfprintf+0x504>
    7748:	1b c0       	rjmp	.+54     	; 0x7780 <vfprintf+0x52e>
    774a:	80 e2       	ldi	r24, 0x20	; 32
    774c:	90 e0       	ldi	r25, 0x00	; 0
    774e:	b3 01       	movw	r22, r6
    7750:	0e 94 58 44 	call	0x88b0	; 0x88b0 <fputc>
    7754:	8a 94       	dec	r8
    7756:	88 2d       	mov	r24, r8
    7758:	90 e0       	ldi	r25, 0x00	; 0
    775a:	e8 16       	cp	r14, r24
    775c:	f9 06       	cpc	r15, r25
    775e:	a8 f3       	brcs	.-22     	; 0x774a <vfprintf+0x4f8>
    7760:	0f c0       	rjmp	.+30     	; 0x7780 <vfprintf+0x52e>
    7762:	f5 01       	movw	r30, r10
    7764:	17 fd       	sbrc	r17, 7
    7766:	85 91       	lpm	r24, Z+
    7768:	17 ff       	sbrs	r17, 7
    776a:	81 91       	ld	r24, Z+
    776c:	5f 01       	movw	r10, r30
    776e:	90 e0       	ldi	r25, 0x00	; 0
    7770:	b3 01       	movw	r22, r6
    7772:	0e 94 58 44 	call	0x88b0	; 0x88b0 <fputc>
    7776:	81 10       	cpse	r8, r1
    7778:	8a 94       	dec	r8
    777a:	08 94       	sec
    777c:	e1 08       	sbc	r14, r1
    777e:	f1 08       	sbc	r15, r1
    7780:	e1 14       	cp	r14, r1
    7782:	f1 04       	cpc	r15, r1
    7784:	71 f7       	brne	.-36     	; 0x7762 <vfprintf+0x510>
    7786:	f2 c0       	rjmp	.+484    	; 0x796c <vfprintf+0x71a>
    7788:	94 36       	cpi	r25, 0x64	; 100
    778a:	11 f0       	breq	.+4      	; 0x7790 <vfprintf+0x53e>
    778c:	99 36       	cpi	r25, 0x69	; 105
    778e:	89 f5       	brne	.+98     	; 0x77f2 <vfprintf+0x5a0>
    7790:	17 ff       	sbrs	r17, 7
    7792:	08 c0       	rjmp	.+16     	; 0x77a4 <vfprintf+0x552>
    7794:	f6 01       	movw	r30, r12
    7796:	20 81       	ld	r18, Z
    7798:	31 81       	ldd	r19, Z+1	; 0x01
    779a:	42 81       	ldd	r20, Z+2	; 0x02
    779c:	53 81       	ldd	r21, Z+3	; 0x03
    779e:	84 e0       	ldi	r24, 0x04	; 4
    77a0:	90 e0       	ldi	r25, 0x00	; 0
    77a2:	0a c0       	rjmp	.+20     	; 0x77b8 <vfprintf+0x566>
    77a4:	f6 01       	movw	r30, r12
    77a6:	80 81       	ld	r24, Z
    77a8:	91 81       	ldd	r25, Z+1	; 0x01
    77aa:	9c 01       	movw	r18, r24
    77ac:	44 27       	eor	r20, r20
    77ae:	37 fd       	sbrc	r19, 7
    77b0:	40 95       	com	r20
    77b2:	54 2f       	mov	r21, r20
    77b4:	82 e0       	ldi	r24, 0x02	; 2
    77b6:	90 e0       	ldi	r25, 0x00	; 0
    77b8:	c8 0e       	add	r12, r24
    77ba:	d9 1e       	adc	r13, r25
    77bc:	9f e6       	ldi	r25, 0x6F	; 111
    77be:	f9 2e       	mov	r15, r25
    77c0:	f1 22       	and	r15, r17
    77c2:	57 ff       	sbrs	r21, 7
    77c4:	09 c0       	rjmp	.+18     	; 0x77d8 <vfprintf+0x586>
    77c6:	50 95       	com	r21
    77c8:	40 95       	com	r20
    77ca:	30 95       	com	r19
    77cc:	21 95       	neg	r18
    77ce:	3f 4f       	sbci	r19, 0xFF	; 255
    77d0:	4f 4f       	sbci	r20, 0xFF	; 255
    77d2:	5f 4f       	sbci	r21, 0xFF	; 255
    77d4:	90 e8       	ldi	r25, 0x80	; 128
    77d6:	f9 2a       	or	r15, r25
    77d8:	ca 01       	movw	r24, r20
    77da:	b9 01       	movw	r22, r18
    77dc:	ae 01       	movw	r20, r28
    77de:	4f 5f       	subi	r20, 0xFF	; 255
    77e0:	5f 4f       	sbci	r21, 0xFF	; 255
    77e2:	2a e0       	ldi	r18, 0x0A	; 10
    77e4:	30 e0       	ldi	r19, 0x00	; 0
    77e6:	0e 94 a7 44 	call	0x894e	; 0x894e <__ultoa_invert>
    77ea:	e8 2e       	mov	r14, r24
    77ec:	e8 89       	ldd	r30, Y+16	; 0x10
    77ee:	ee 1a       	sub	r14, r30
    77f0:	41 c0       	rjmp	.+130    	; 0x7874 <vfprintf+0x622>
    77f2:	95 37       	cpi	r25, 0x75	; 117
    77f4:	21 f4       	brne	.+8      	; 0x77fe <vfprintf+0x5ac>
    77f6:	1f 7e       	andi	r17, 0xEF	; 239
    77f8:	2a e0       	ldi	r18, 0x0A	; 10
    77fa:	30 e0       	ldi	r19, 0x00	; 0
    77fc:	1c c0       	rjmp	.+56     	; 0x7836 <vfprintf+0x5e4>
    77fe:	19 7f       	andi	r17, 0xF9	; 249
    7800:	9f 36       	cpi	r25, 0x6F	; 111
    7802:	61 f0       	breq	.+24     	; 0x781c <vfprintf+0x5ca>
    7804:	90 37       	cpi	r25, 0x70	; 112
    7806:	20 f4       	brcc	.+8      	; 0x7810 <vfprintf+0x5be>
    7808:	98 35       	cpi	r25, 0x58	; 88
    780a:	09 f0       	breq	.+2      	; 0x780e <vfprintf+0x5bc>
    780c:	b2 c0       	rjmp	.+356    	; 0x7972 <vfprintf+0x720>
    780e:	0f c0       	rjmp	.+30     	; 0x782e <vfprintf+0x5dc>
    7810:	90 37       	cpi	r25, 0x70	; 112
    7812:	39 f0       	breq	.+14     	; 0x7822 <vfprintf+0x5d0>
    7814:	98 37       	cpi	r25, 0x78	; 120
    7816:	09 f0       	breq	.+2      	; 0x781a <vfprintf+0x5c8>
    7818:	ac c0       	rjmp	.+344    	; 0x7972 <vfprintf+0x720>
    781a:	04 c0       	rjmp	.+8      	; 0x7824 <vfprintf+0x5d2>
    781c:	28 e0       	ldi	r18, 0x08	; 8
    781e:	30 e0       	ldi	r19, 0x00	; 0
    7820:	0a c0       	rjmp	.+20     	; 0x7836 <vfprintf+0x5e4>
    7822:	10 61       	ori	r17, 0x10	; 16
    7824:	14 fd       	sbrc	r17, 4
    7826:	14 60       	ori	r17, 0x04	; 4
    7828:	20 e1       	ldi	r18, 0x10	; 16
    782a:	30 e0       	ldi	r19, 0x00	; 0
    782c:	04 c0       	rjmp	.+8      	; 0x7836 <vfprintf+0x5e4>
    782e:	14 fd       	sbrc	r17, 4
    7830:	16 60       	ori	r17, 0x06	; 6
    7832:	20 e1       	ldi	r18, 0x10	; 16
    7834:	32 e0       	ldi	r19, 0x02	; 2
    7836:	17 ff       	sbrs	r17, 7
    7838:	08 c0       	rjmp	.+16     	; 0x784a <vfprintf+0x5f8>
    783a:	f6 01       	movw	r30, r12
    783c:	60 81       	ld	r22, Z
    783e:	71 81       	ldd	r23, Z+1	; 0x01
    7840:	82 81       	ldd	r24, Z+2	; 0x02
    7842:	93 81       	ldd	r25, Z+3	; 0x03
    7844:	44 e0       	ldi	r20, 0x04	; 4
    7846:	50 e0       	ldi	r21, 0x00	; 0
    7848:	08 c0       	rjmp	.+16     	; 0x785a <vfprintf+0x608>
    784a:	f6 01       	movw	r30, r12
    784c:	80 81       	ld	r24, Z
    784e:	91 81       	ldd	r25, Z+1	; 0x01
    7850:	bc 01       	movw	r22, r24
    7852:	80 e0       	ldi	r24, 0x00	; 0
    7854:	90 e0       	ldi	r25, 0x00	; 0
    7856:	42 e0       	ldi	r20, 0x02	; 2
    7858:	50 e0       	ldi	r21, 0x00	; 0
    785a:	c4 0e       	add	r12, r20
    785c:	d5 1e       	adc	r13, r21
    785e:	ae 01       	movw	r20, r28
    7860:	4f 5f       	subi	r20, 0xFF	; 255
    7862:	5f 4f       	sbci	r21, 0xFF	; 255
    7864:	0e 94 a7 44 	call	0x894e	; 0x894e <__ultoa_invert>
    7868:	e8 2e       	mov	r14, r24
    786a:	58 89       	ldd	r21, Y+16	; 0x10
    786c:	e5 1a       	sub	r14, r21
    786e:	8f e7       	ldi	r24, 0x7F	; 127
    7870:	f8 2e       	mov	r15, r24
    7872:	f1 22       	and	r15, r17
    7874:	f6 fe       	sbrs	r15, 6
    7876:	0b c0       	rjmp	.+22     	; 0x788e <vfprintf+0x63c>
    7878:	8e ef       	ldi	r24, 0xFE	; 254
    787a:	f8 22       	and	r15, r24
    787c:	e9 14       	cp	r14, r9
    787e:	38 f4       	brcc	.+14     	; 0x788e <vfprintf+0x63c>
    7880:	f4 fe       	sbrs	r15, 4
    7882:	07 c0       	rjmp	.+14     	; 0x7892 <vfprintf+0x640>
    7884:	f2 fc       	sbrc	r15, 2
    7886:	05 c0       	rjmp	.+10     	; 0x7892 <vfprintf+0x640>
    7888:	9f ee       	ldi	r25, 0xEF	; 239
    788a:	f9 22       	and	r15, r25
    788c:	02 c0       	rjmp	.+4      	; 0x7892 <vfprintf+0x640>
    788e:	1e 2d       	mov	r17, r14
    7890:	01 c0       	rjmp	.+2      	; 0x7894 <vfprintf+0x642>
    7892:	19 2d       	mov	r17, r9
    7894:	f4 fe       	sbrs	r15, 4
    7896:	0d c0       	rjmp	.+26     	; 0x78b2 <vfprintf+0x660>
    7898:	fe 01       	movw	r30, r28
    789a:	ee 0d       	add	r30, r14
    789c:	f1 1d       	adc	r31, r1
    789e:	80 81       	ld	r24, Z
    78a0:	80 33       	cpi	r24, 0x30	; 48
    78a2:	19 f4       	brne	.+6      	; 0x78aa <vfprintf+0x658>
    78a4:	e9 ee       	ldi	r30, 0xE9	; 233
    78a6:	fe 22       	and	r15, r30
    78a8:	08 c0       	rjmp	.+16     	; 0x78ba <vfprintf+0x668>
    78aa:	1f 5f       	subi	r17, 0xFF	; 255
    78ac:	f2 fe       	sbrs	r15, 2
    78ae:	05 c0       	rjmp	.+10     	; 0x78ba <vfprintf+0x668>
    78b0:	03 c0       	rjmp	.+6      	; 0x78b8 <vfprintf+0x666>
    78b2:	8f 2d       	mov	r24, r15
    78b4:	86 78       	andi	r24, 0x86	; 134
    78b6:	09 f0       	breq	.+2      	; 0x78ba <vfprintf+0x668>
    78b8:	1f 5f       	subi	r17, 0xFF	; 255
    78ba:	0f 2d       	mov	r16, r15
    78bc:	f3 fc       	sbrc	r15, 3
    78be:	14 c0       	rjmp	.+40     	; 0x78e8 <vfprintf+0x696>
    78c0:	f0 fe       	sbrs	r15, 0
    78c2:	0f c0       	rjmp	.+30     	; 0x78e2 <vfprintf+0x690>
    78c4:	18 15       	cp	r17, r8
    78c6:	10 f0       	brcs	.+4      	; 0x78cc <vfprintf+0x67a>
    78c8:	9e 2c       	mov	r9, r14
    78ca:	0b c0       	rjmp	.+22     	; 0x78e2 <vfprintf+0x690>
    78cc:	9e 2c       	mov	r9, r14
    78ce:	98 0c       	add	r9, r8
    78d0:	91 1a       	sub	r9, r17
    78d2:	18 2d       	mov	r17, r8
    78d4:	06 c0       	rjmp	.+12     	; 0x78e2 <vfprintf+0x690>
    78d6:	80 e2       	ldi	r24, 0x20	; 32
    78d8:	90 e0       	ldi	r25, 0x00	; 0
    78da:	b3 01       	movw	r22, r6
    78dc:	0e 94 58 44 	call	0x88b0	; 0x88b0 <fputc>
    78e0:	1f 5f       	subi	r17, 0xFF	; 255
    78e2:	18 15       	cp	r17, r8
    78e4:	c0 f3       	brcs	.-16     	; 0x78d6 <vfprintf+0x684>
    78e6:	04 c0       	rjmp	.+8      	; 0x78f0 <vfprintf+0x69e>
    78e8:	18 15       	cp	r17, r8
    78ea:	10 f4       	brcc	.+4      	; 0x78f0 <vfprintf+0x69e>
    78ec:	81 1a       	sub	r8, r17
    78ee:	01 c0       	rjmp	.+2      	; 0x78f2 <vfprintf+0x6a0>
    78f0:	88 24       	eor	r8, r8
    78f2:	04 ff       	sbrs	r16, 4
    78f4:	0f c0       	rjmp	.+30     	; 0x7914 <vfprintf+0x6c2>
    78f6:	80 e3       	ldi	r24, 0x30	; 48
    78f8:	90 e0       	ldi	r25, 0x00	; 0
    78fa:	b3 01       	movw	r22, r6
    78fc:	0e 94 58 44 	call	0x88b0	; 0x88b0 <fputc>
    7900:	02 ff       	sbrs	r16, 2
    7902:	1d c0       	rjmp	.+58     	; 0x793e <vfprintf+0x6ec>
    7904:	01 fd       	sbrc	r16, 1
    7906:	03 c0       	rjmp	.+6      	; 0x790e <vfprintf+0x6bc>
    7908:	88 e7       	ldi	r24, 0x78	; 120
    790a:	90 e0       	ldi	r25, 0x00	; 0
    790c:	0e c0       	rjmp	.+28     	; 0x792a <vfprintf+0x6d8>
    790e:	88 e5       	ldi	r24, 0x58	; 88
    7910:	90 e0       	ldi	r25, 0x00	; 0
    7912:	0b c0       	rjmp	.+22     	; 0x792a <vfprintf+0x6d8>
    7914:	80 2f       	mov	r24, r16
    7916:	86 78       	andi	r24, 0x86	; 134
    7918:	91 f0       	breq	.+36     	; 0x793e <vfprintf+0x6ec>
    791a:	01 ff       	sbrs	r16, 1
    791c:	02 c0       	rjmp	.+4      	; 0x7922 <vfprintf+0x6d0>
    791e:	8b e2       	ldi	r24, 0x2B	; 43
    7920:	01 c0       	rjmp	.+2      	; 0x7924 <vfprintf+0x6d2>
    7922:	80 e2       	ldi	r24, 0x20	; 32
    7924:	f7 fc       	sbrc	r15, 7
    7926:	8d e2       	ldi	r24, 0x2D	; 45
    7928:	90 e0       	ldi	r25, 0x00	; 0
    792a:	b3 01       	movw	r22, r6
    792c:	0e 94 58 44 	call	0x88b0	; 0x88b0 <fputc>
    7930:	06 c0       	rjmp	.+12     	; 0x793e <vfprintf+0x6ec>
    7932:	80 e3       	ldi	r24, 0x30	; 48
    7934:	90 e0       	ldi	r25, 0x00	; 0
    7936:	b3 01       	movw	r22, r6
    7938:	0e 94 58 44 	call	0x88b0	; 0x88b0 <fputc>
    793c:	9a 94       	dec	r9
    793e:	e9 14       	cp	r14, r9
    7940:	c0 f3       	brcs	.-16     	; 0x7932 <vfprintf+0x6e0>
    7942:	ea 94       	dec	r14
    7944:	e1 e0       	ldi	r30, 0x01	; 1
    7946:	f0 e0       	ldi	r31, 0x00	; 0
    7948:	ec 0f       	add	r30, r28
    794a:	fd 1f       	adc	r31, r29
    794c:	ee 0d       	add	r30, r14
    794e:	f1 1d       	adc	r31, r1
    7950:	80 81       	ld	r24, Z
    7952:	90 e0       	ldi	r25, 0x00	; 0
    7954:	b3 01       	movw	r22, r6
    7956:	0e 94 58 44 	call	0x88b0	; 0x88b0 <fputc>
    795a:	ee 20       	and	r14, r14
    795c:	91 f7       	brne	.-28     	; 0x7942 <vfprintf+0x6f0>
    795e:	06 c0       	rjmp	.+12     	; 0x796c <vfprintf+0x71a>
    7960:	80 e2       	ldi	r24, 0x20	; 32
    7962:	90 e0       	ldi	r25, 0x00	; 0
    7964:	b3 01       	movw	r22, r6
    7966:	0e 94 58 44 	call	0x88b0	; 0x88b0 <fputc>
    796a:	8a 94       	dec	r8
    796c:	88 20       	and	r8, r8
    796e:	c1 f7       	brne	.-16     	; 0x7960 <vfprintf+0x70e>
    7970:	99 cc       	rjmp	.-1742   	; 0x72a4 <vfprintf+0x52>
    7972:	f3 01       	movw	r30, r6
    7974:	66 81       	ldd	r22, Z+6	; 0x06
    7976:	77 81       	ldd	r23, Z+7	; 0x07
    7978:	cb 01       	movw	r24, r22
    797a:	61 96       	adiw	r28, 0x11	; 17
    797c:	cd bf       	out	0x3d, r28	; 61
    797e:	de bf       	out	0x3e, r29	; 62
    7980:	cf 91       	pop	r28
    7982:	df 91       	pop	r29
    7984:	1f 91       	pop	r17
    7986:	0f 91       	pop	r16
    7988:	ff 90       	pop	r15
    798a:	ef 90       	pop	r14
    798c:	df 90       	pop	r13
    798e:	cf 90       	pop	r12
    7990:	bf 90       	pop	r11
    7992:	af 90       	pop	r10
    7994:	9f 90       	pop	r9
    7996:	8f 90       	pop	r8
    7998:	7f 90       	pop	r7
    799a:	6f 90       	pop	r6
    799c:	5f 90       	pop	r5
    799e:	4f 90       	pop	r4
    79a0:	3f 90       	pop	r3
    79a2:	2f 90       	pop	r2
    79a4:	08 95       	ret

000079a6 <__subsf3>:
    79a6:	50 58       	subi	r21, 0x80	; 128

000079a8 <__addsf3>:
    79a8:	bb 27       	eor	r27, r27
    79aa:	aa 27       	eor	r26, r26
    79ac:	0e d0       	rcall	.+28     	; 0x79ca <__addsf3x>
    79ae:	29 c2       	rjmp	.+1106   	; 0x7e02 <__fp_round>
    79b0:	f2 d1       	rcall	.+996    	; 0x7d96 <__fp_pscA>
    79b2:	30 f0       	brcs	.+12     	; 0x79c0 <__addsf3+0x18>
    79b4:	f7 d1       	rcall	.+1006   	; 0x7da4 <__fp_pscB>
    79b6:	20 f0       	brcs	.+8      	; 0x79c0 <__addsf3+0x18>
    79b8:	31 f4       	brne	.+12     	; 0x79c6 <__addsf3+0x1e>
    79ba:	9f 3f       	cpi	r25, 0xFF	; 255
    79bc:	11 f4       	brne	.+4      	; 0x79c2 <__addsf3+0x1a>
    79be:	1e f4       	brtc	.+6      	; 0x79c6 <__addsf3+0x1e>
    79c0:	c2 c1       	rjmp	.+900    	; 0x7d46 <__fp_nan>
    79c2:	0e f4       	brtc	.+2      	; 0x79c6 <__addsf3+0x1e>
    79c4:	e0 95       	com	r30
    79c6:	e7 fb       	bst	r30, 7
    79c8:	8f c1       	rjmp	.+798    	; 0x7ce8 <__fp_inf>

000079ca <__addsf3x>:
    79ca:	e9 2f       	mov	r30, r25
    79cc:	3c d2       	rcall	.+1144   	; 0x7e46 <__fp_split3>
    79ce:	80 f3       	brcs	.-32     	; 0x79b0 <__addsf3+0x8>
    79d0:	ba 17       	cp	r27, r26
    79d2:	62 07       	cpc	r22, r18
    79d4:	73 07       	cpc	r23, r19
    79d6:	84 07       	cpc	r24, r20
    79d8:	95 07       	cpc	r25, r21
    79da:	18 f0       	brcs	.+6      	; 0x79e2 <__addsf3x+0x18>
    79dc:	71 f4       	brne	.+28     	; 0x79fa <__addsf3x+0x30>
    79de:	9e f5       	brtc	.+102    	; 0x7a46 <__addsf3x+0x7c>
    79e0:	6b c2       	rjmp	.+1238   	; 0x7eb8 <__fp_zero>
    79e2:	0e f4       	brtc	.+2      	; 0x79e6 <__addsf3x+0x1c>
    79e4:	e0 95       	com	r30
    79e6:	0b 2e       	mov	r0, r27
    79e8:	ba 2f       	mov	r27, r26
    79ea:	a0 2d       	mov	r26, r0
    79ec:	0b 01       	movw	r0, r22
    79ee:	b9 01       	movw	r22, r18
    79f0:	90 01       	movw	r18, r0
    79f2:	0c 01       	movw	r0, r24
    79f4:	ca 01       	movw	r24, r20
    79f6:	a0 01       	movw	r20, r0
    79f8:	11 24       	eor	r1, r1
    79fa:	ff 27       	eor	r31, r31
    79fc:	59 1b       	sub	r21, r25
    79fe:	99 f0       	breq	.+38     	; 0x7a26 <__addsf3x+0x5c>
    7a00:	59 3f       	cpi	r21, 0xF9	; 249
    7a02:	50 f4       	brcc	.+20     	; 0x7a18 <__addsf3x+0x4e>
    7a04:	50 3e       	cpi	r21, 0xE0	; 224
    7a06:	68 f1       	brcs	.+90     	; 0x7a62 <__addsf3x+0x98>
    7a08:	1a 16       	cp	r1, r26
    7a0a:	f0 40       	sbci	r31, 0x00	; 0
    7a0c:	a2 2f       	mov	r26, r18
    7a0e:	23 2f       	mov	r18, r19
    7a10:	34 2f       	mov	r19, r20
    7a12:	44 27       	eor	r20, r20
    7a14:	58 5f       	subi	r21, 0xF8	; 248
    7a16:	f3 cf       	rjmp	.-26     	; 0x79fe <__addsf3x+0x34>
    7a18:	46 95       	lsr	r20
    7a1a:	37 95       	ror	r19
    7a1c:	27 95       	ror	r18
    7a1e:	a7 95       	ror	r26
    7a20:	f0 40       	sbci	r31, 0x00	; 0
    7a22:	53 95       	inc	r21
    7a24:	c9 f7       	brne	.-14     	; 0x7a18 <__addsf3x+0x4e>
    7a26:	7e f4       	brtc	.+30     	; 0x7a46 <__addsf3x+0x7c>
    7a28:	1f 16       	cp	r1, r31
    7a2a:	ba 0b       	sbc	r27, r26
    7a2c:	62 0b       	sbc	r22, r18
    7a2e:	73 0b       	sbc	r23, r19
    7a30:	84 0b       	sbc	r24, r20
    7a32:	ba f0       	brmi	.+46     	; 0x7a62 <__addsf3x+0x98>
    7a34:	91 50       	subi	r25, 0x01	; 1
    7a36:	a1 f0       	breq	.+40     	; 0x7a60 <__addsf3x+0x96>
    7a38:	ff 0f       	add	r31, r31
    7a3a:	bb 1f       	adc	r27, r27
    7a3c:	66 1f       	adc	r22, r22
    7a3e:	77 1f       	adc	r23, r23
    7a40:	88 1f       	adc	r24, r24
    7a42:	c2 f7       	brpl	.-16     	; 0x7a34 <__addsf3x+0x6a>
    7a44:	0e c0       	rjmp	.+28     	; 0x7a62 <__addsf3x+0x98>
    7a46:	ba 0f       	add	r27, r26
    7a48:	62 1f       	adc	r22, r18
    7a4a:	73 1f       	adc	r23, r19
    7a4c:	84 1f       	adc	r24, r20
    7a4e:	48 f4       	brcc	.+18     	; 0x7a62 <__addsf3x+0x98>
    7a50:	87 95       	ror	r24
    7a52:	77 95       	ror	r23
    7a54:	67 95       	ror	r22
    7a56:	b7 95       	ror	r27
    7a58:	f7 95       	ror	r31
    7a5a:	9e 3f       	cpi	r25, 0xFE	; 254
    7a5c:	08 f0       	brcs	.+2      	; 0x7a60 <__addsf3x+0x96>
    7a5e:	b3 cf       	rjmp	.-154    	; 0x79c6 <__addsf3+0x1e>
    7a60:	93 95       	inc	r25
    7a62:	88 0f       	add	r24, r24
    7a64:	08 f0       	brcs	.+2      	; 0x7a68 <__addsf3x+0x9e>
    7a66:	99 27       	eor	r25, r25
    7a68:	ee 0f       	add	r30, r30
    7a6a:	97 95       	ror	r25
    7a6c:	87 95       	ror	r24
    7a6e:	08 95       	ret

00007a70 <atan>:
    7a70:	df 93       	push	r29
    7a72:	dd 27       	eor	r29, r29
    7a74:	b9 2f       	mov	r27, r25
    7a76:	bf 77       	andi	r27, 0x7F	; 127
    7a78:	40 e8       	ldi	r20, 0x80	; 128
    7a7a:	5f e3       	ldi	r21, 0x3F	; 63
    7a7c:	16 16       	cp	r1, r22
    7a7e:	17 06       	cpc	r1, r23
    7a80:	48 07       	cpc	r20, r24
    7a82:	5b 07       	cpc	r21, r27
    7a84:	10 f4       	brcc	.+4      	; 0x7a8a <atan+0x1a>
    7a86:	d9 2f       	mov	r29, r25
    7a88:	83 d2       	rcall	.+1286   	; 0x7f90 <inverse>
    7a8a:	9f 93       	push	r25
    7a8c:	8f 93       	push	r24
    7a8e:	7f 93       	push	r23
    7a90:	6f 93       	push	r22
    7a92:	96 d3       	rcall	.+1836   	; 0x81c0 <square>
    7a94:	e8 ee       	ldi	r30, 0xE8	; 232
    7a96:	f1 e0       	ldi	r31, 0x01	; 1
    7a98:	59 d1       	rcall	.+690    	; 0x7d4c <__fp_powser>
    7a9a:	b3 d1       	rcall	.+870    	; 0x7e02 <__fp_round>
    7a9c:	2f 91       	pop	r18
    7a9e:	3f 91       	pop	r19
    7aa0:	4f 91       	pop	r20
    7aa2:	5f 91       	pop	r21
    7aa4:	ee d2       	rcall	.+1500   	; 0x8082 <__mulsf3x>
    7aa6:	dd 23       	and	r29, r29
    7aa8:	49 f0       	breq	.+18     	; 0x7abc <atan+0x4c>
    7aaa:	90 58       	subi	r25, 0x80	; 128
    7aac:	a2 ea       	ldi	r26, 0xA2	; 162
    7aae:	2a ed       	ldi	r18, 0xDA	; 218
    7ab0:	3f e0       	ldi	r19, 0x0F	; 15
    7ab2:	49 ec       	ldi	r20, 0xC9	; 201
    7ab4:	5f e3       	ldi	r21, 0x3F	; 63
    7ab6:	d0 78       	andi	r29, 0x80	; 128
    7ab8:	5d 27       	eor	r21, r29
    7aba:	87 df       	rcall	.-242    	; 0x79ca <__addsf3x>
    7abc:	df 91       	pop	r29
    7abe:	a1 c1       	rjmp	.+834    	; 0x7e02 <__fp_round>

00007ac0 <ceil>:
    7ac0:	e4 d1       	rcall	.+968    	; 0x7e8a <__fp_trunc>
    7ac2:	80 f0       	brcs	.+32     	; 0x7ae4 <ceil+0x24>
    7ac4:	9f 37       	cpi	r25, 0x7F	; 127
    7ac6:	40 f4       	brcc	.+16     	; 0x7ad8 <ceil+0x18>
    7ac8:	91 11       	cpse	r25, r1
    7aca:	0e f4       	brtc	.+2      	; 0x7ace <ceil+0xe>
    7acc:	f6 c1       	rjmp	.+1004   	; 0x7eba <__fp_szero>
    7ace:	60 e0       	ldi	r22, 0x00	; 0
    7ad0:	70 e0       	ldi	r23, 0x00	; 0
    7ad2:	80 e8       	ldi	r24, 0x80	; 128
    7ad4:	9f e3       	ldi	r25, 0x3F	; 63
    7ad6:	08 95       	ret
    7ad8:	26 f0       	brts	.+8      	; 0x7ae2 <ceil+0x22>
    7ada:	1b 16       	cp	r1, r27
    7adc:	61 1d       	adc	r22, r1
    7ade:	71 1d       	adc	r23, r1
    7ae0:	81 1d       	adc	r24, r1
    7ae2:	08 c1       	rjmp	.+528    	; 0x7cf4 <__fp_mintl>
    7ae4:	22 c1       	rjmp	.+580    	; 0x7d2a <__fp_mpack>

00007ae6 <__cmpsf2>:
    7ae6:	dc d0       	rcall	.+440    	; 0x7ca0 <__fp_cmp>
    7ae8:	08 f4       	brcc	.+2      	; 0x7aec <__cmpsf2+0x6>
    7aea:	81 e0       	ldi	r24, 0x01	; 1
    7aec:	08 95       	ret

00007aee <cos>:
    7aee:	62 d1       	rcall	.+708    	; 0x7db4 <__fp_rempio2>
    7af0:	e3 95       	inc	r30
    7af2:	98 c1       	rjmp	.+816    	; 0x7e24 <__fp_sinus>

00007af4 <__divsf3>:
    7af4:	0c d0       	rcall	.+24     	; 0x7b0e <__divsf3x>
    7af6:	85 c1       	rjmp	.+778    	; 0x7e02 <__fp_round>
    7af8:	55 d1       	rcall	.+682    	; 0x7da4 <__fp_pscB>
    7afa:	40 f0       	brcs	.+16     	; 0x7b0c <__divsf3+0x18>
    7afc:	4c d1       	rcall	.+664    	; 0x7d96 <__fp_pscA>
    7afe:	30 f0       	brcs	.+12     	; 0x7b0c <__divsf3+0x18>
    7b00:	21 f4       	brne	.+8      	; 0x7b0a <__divsf3+0x16>
    7b02:	5f 3f       	cpi	r21, 0xFF	; 255
    7b04:	19 f0       	breq	.+6      	; 0x7b0c <__divsf3+0x18>
    7b06:	f0 c0       	rjmp	.+480    	; 0x7ce8 <__fp_inf>
    7b08:	51 11       	cpse	r21, r1
    7b0a:	d7 c1       	rjmp	.+942    	; 0x7eba <__fp_szero>
    7b0c:	1c c1       	rjmp	.+568    	; 0x7d46 <__fp_nan>

00007b0e <__divsf3x>:
    7b0e:	9b d1       	rcall	.+822    	; 0x7e46 <__fp_split3>
    7b10:	98 f3       	brcs	.-26     	; 0x7af8 <__divsf3+0x4>

00007b12 <__divsf3_pse>:
    7b12:	99 23       	and	r25, r25
    7b14:	c9 f3       	breq	.-14     	; 0x7b08 <__divsf3+0x14>
    7b16:	55 23       	and	r21, r21
    7b18:	b1 f3       	breq	.-20     	; 0x7b06 <__divsf3+0x12>
    7b1a:	95 1b       	sub	r25, r21
    7b1c:	55 0b       	sbc	r21, r21
    7b1e:	bb 27       	eor	r27, r27
    7b20:	aa 27       	eor	r26, r26
    7b22:	62 17       	cp	r22, r18
    7b24:	73 07       	cpc	r23, r19
    7b26:	84 07       	cpc	r24, r20
    7b28:	38 f0       	brcs	.+14     	; 0x7b38 <__divsf3_pse+0x26>
    7b2a:	9f 5f       	subi	r25, 0xFF	; 255
    7b2c:	5f 4f       	sbci	r21, 0xFF	; 255
    7b2e:	22 0f       	add	r18, r18
    7b30:	33 1f       	adc	r19, r19
    7b32:	44 1f       	adc	r20, r20
    7b34:	aa 1f       	adc	r26, r26
    7b36:	a9 f3       	breq	.-22     	; 0x7b22 <__divsf3_pse+0x10>
    7b38:	33 d0       	rcall	.+102    	; 0x7ba0 <__divsf3_pse+0x8e>
    7b3a:	0e 2e       	mov	r0, r30
    7b3c:	3a f0       	brmi	.+14     	; 0x7b4c <__divsf3_pse+0x3a>
    7b3e:	e0 e8       	ldi	r30, 0x80	; 128
    7b40:	30 d0       	rcall	.+96     	; 0x7ba2 <__divsf3_pse+0x90>
    7b42:	91 50       	subi	r25, 0x01	; 1
    7b44:	50 40       	sbci	r21, 0x00	; 0
    7b46:	e6 95       	lsr	r30
    7b48:	00 1c       	adc	r0, r0
    7b4a:	ca f7       	brpl	.-14     	; 0x7b3e <__divsf3_pse+0x2c>
    7b4c:	29 d0       	rcall	.+82     	; 0x7ba0 <__divsf3_pse+0x8e>
    7b4e:	fe 2f       	mov	r31, r30
    7b50:	27 d0       	rcall	.+78     	; 0x7ba0 <__divsf3_pse+0x8e>
    7b52:	66 0f       	add	r22, r22
    7b54:	77 1f       	adc	r23, r23
    7b56:	88 1f       	adc	r24, r24
    7b58:	bb 1f       	adc	r27, r27
    7b5a:	26 17       	cp	r18, r22
    7b5c:	37 07       	cpc	r19, r23
    7b5e:	48 07       	cpc	r20, r24
    7b60:	ab 07       	cpc	r26, r27
    7b62:	b0 e8       	ldi	r27, 0x80	; 128
    7b64:	09 f0       	breq	.+2      	; 0x7b68 <__divsf3_pse+0x56>
    7b66:	bb 0b       	sbc	r27, r27
    7b68:	80 2d       	mov	r24, r0
    7b6a:	bf 01       	movw	r22, r30
    7b6c:	ff 27       	eor	r31, r31
    7b6e:	93 58       	subi	r25, 0x83	; 131
    7b70:	5f 4f       	sbci	r21, 0xFF	; 255
    7b72:	2a f0       	brmi	.+10     	; 0x7b7e <__divsf3_pse+0x6c>
    7b74:	9e 3f       	cpi	r25, 0xFE	; 254
    7b76:	51 05       	cpc	r21, r1
    7b78:	68 f0       	brcs	.+26     	; 0x7b94 <__divsf3_pse+0x82>
    7b7a:	b6 c0       	rjmp	.+364    	; 0x7ce8 <__fp_inf>
    7b7c:	9e c1       	rjmp	.+828    	; 0x7eba <__fp_szero>
    7b7e:	5f 3f       	cpi	r21, 0xFF	; 255
    7b80:	ec f3       	brlt	.-6      	; 0x7b7c <__divsf3_pse+0x6a>
    7b82:	98 3e       	cpi	r25, 0xE8	; 232
    7b84:	dc f3       	brlt	.-10     	; 0x7b7c <__divsf3_pse+0x6a>
    7b86:	86 95       	lsr	r24
    7b88:	77 95       	ror	r23
    7b8a:	67 95       	ror	r22
    7b8c:	b7 95       	ror	r27
    7b8e:	f7 95       	ror	r31
    7b90:	9f 5f       	subi	r25, 0xFF	; 255
    7b92:	c9 f7       	brne	.-14     	; 0x7b86 <__divsf3_pse+0x74>
    7b94:	88 0f       	add	r24, r24
    7b96:	91 1d       	adc	r25, r1
    7b98:	96 95       	lsr	r25
    7b9a:	87 95       	ror	r24
    7b9c:	97 f9       	bld	r25, 7
    7b9e:	08 95       	ret
    7ba0:	e1 e0       	ldi	r30, 0x01	; 1
    7ba2:	66 0f       	add	r22, r22
    7ba4:	77 1f       	adc	r23, r23
    7ba6:	88 1f       	adc	r24, r24
    7ba8:	bb 1f       	adc	r27, r27
    7baa:	62 17       	cp	r22, r18
    7bac:	73 07       	cpc	r23, r19
    7bae:	84 07       	cpc	r24, r20
    7bb0:	ba 07       	cpc	r27, r26
    7bb2:	20 f0       	brcs	.+8      	; 0x7bbc <__divsf3_pse+0xaa>
    7bb4:	62 1b       	sub	r22, r18
    7bb6:	73 0b       	sbc	r23, r19
    7bb8:	84 0b       	sbc	r24, r20
    7bba:	ba 0b       	sbc	r27, r26
    7bbc:	ee 1f       	adc	r30, r30
    7bbe:	88 f7       	brcc	.-30     	; 0x7ba2 <__divsf3_pse+0x90>
    7bc0:	e0 95       	com	r30
    7bc2:	08 95       	ret

00007bc4 <__fixsfsi>:
    7bc4:	04 d0       	rcall	.+8      	; 0x7bce <__fixunssfsi>
    7bc6:	68 94       	set
    7bc8:	b1 11       	cpse	r27, r1
    7bca:	77 c1       	rjmp	.+750    	; 0x7eba <__fp_szero>
    7bcc:	08 95       	ret

00007bce <__fixunssfsi>:
    7bce:	43 d1       	rcall	.+646    	; 0x7e56 <__fp_splitA>
    7bd0:	88 f0       	brcs	.+34     	; 0x7bf4 <__fixunssfsi+0x26>
    7bd2:	9f 57       	subi	r25, 0x7F	; 127
    7bd4:	90 f0       	brcs	.+36     	; 0x7bfa <__fixunssfsi+0x2c>
    7bd6:	b9 2f       	mov	r27, r25
    7bd8:	99 27       	eor	r25, r25
    7bda:	b7 51       	subi	r27, 0x17	; 23
    7bdc:	a0 f0       	brcs	.+40     	; 0x7c06 <__fixunssfsi+0x38>
    7bde:	d1 f0       	breq	.+52     	; 0x7c14 <__fixunssfsi+0x46>
    7be0:	66 0f       	add	r22, r22
    7be2:	77 1f       	adc	r23, r23
    7be4:	88 1f       	adc	r24, r24
    7be6:	99 1f       	adc	r25, r25
    7be8:	1a f0       	brmi	.+6      	; 0x7bf0 <__fixunssfsi+0x22>
    7bea:	ba 95       	dec	r27
    7bec:	c9 f7       	brne	.-14     	; 0x7be0 <__fixunssfsi+0x12>
    7bee:	12 c0       	rjmp	.+36     	; 0x7c14 <__fixunssfsi+0x46>
    7bf0:	b1 30       	cpi	r27, 0x01	; 1
    7bf2:	81 f0       	breq	.+32     	; 0x7c14 <__fixunssfsi+0x46>
    7bf4:	61 d1       	rcall	.+706    	; 0x7eb8 <__fp_zero>
    7bf6:	b1 e0       	ldi	r27, 0x01	; 1
    7bf8:	08 95       	ret
    7bfa:	5e c1       	rjmp	.+700    	; 0x7eb8 <__fp_zero>
    7bfc:	67 2f       	mov	r22, r23
    7bfe:	78 2f       	mov	r23, r24
    7c00:	88 27       	eor	r24, r24
    7c02:	b8 5f       	subi	r27, 0xF8	; 248
    7c04:	39 f0       	breq	.+14     	; 0x7c14 <__fixunssfsi+0x46>
    7c06:	b9 3f       	cpi	r27, 0xF9	; 249
    7c08:	cc f3       	brlt	.-14     	; 0x7bfc <__fixunssfsi+0x2e>
    7c0a:	86 95       	lsr	r24
    7c0c:	77 95       	ror	r23
    7c0e:	67 95       	ror	r22
    7c10:	b3 95       	inc	r27
    7c12:	d9 f7       	brne	.-10     	; 0x7c0a <__fixunssfsi+0x3c>
    7c14:	3e f4       	brtc	.+14     	; 0x7c24 <__fixunssfsi+0x56>
    7c16:	90 95       	com	r25
    7c18:	80 95       	com	r24
    7c1a:	70 95       	com	r23
    7c1c:	61 95       	neg	r22
    7c1e:	7f 4f       	sbci	r23, 0xFF	; 255
    7c20:	8f 4f       	sbci	r24, 0xFF	; 255
    7c22:	9f 4f       	sbci	r25, 0xFF	; 255
    7c24:	08 95       	ret

00007c26 <__floatunsisf>:
    7c26:	e8 94       	clt
    7c28:	09 c0       	rjmp	.+18     	; 0x7c3c <__floatsisf+0x12>

00007c2a <__floatsisf>:
    7c2a:	97 fb       	bst	r25, 7
    7c2c:	3e f4       	brtc	.+14     	; 0x7c3c <__floatsisf+0x12>
    7c2e:	90 95       	com	r25
    7c30:	80 95       	com	r24
    7c32:	70 95       	com	r23
    7c34:	61 95       	neg	r22
    7c36:	7f 4f       	sbci	r23, 0xFF	; 255
    7c38:	8f 4f       	sbci	r24, 0xFF	; 255
    7c3a:	9f 4f       	sbci	r25, 0xFF	; 255
    7c3c:	99 23       	and	r25, r25
    7c3e:	a9 f0       	breq	.+42     	; 0x7c6a <__floatsisf+0x40>
    7c40:	f9 2f       	mov	r31, r25
    7c42:	96 e9       	ldi	r25, 0x96	; 150
    7c44:	bb 27       	eor	r27, r27
    7c46:	93 95       	inc	r25
    7c48:	f6 95       	lsr	r31
    7c4a:	87 95       	ror	r24
    7c4c:	77 95       	ror	r23
    7c4e:	67 95       	ror	r22
    7c50:	b7 95       	ror	r27
    7c52:	f1 11       	cpse	r31, r1
    7c54:	f8 cf       	rjmp	.-16     	; 0x7c46 <__floatsisf+0x1c>
    7c56:	fa f4       	brpl	.+62     	; 0x7c96 <__floatsisf+0x6c>
    7c58:	bb 0f       	add	r27, r27
    7c5a:	11 f4       	brne	.+4      	; 0x7c60 <__floatsisf+0x36>
    7c5c:	60 ff       	sbrs	r22, 0
    7c5e:	1b c0       	rjmp	.+54     	; 0x7c96 <__floatsisf+0x6c>
    7c60:	6f 5f       	subi	r22, 0xFF	; 255
    7c62:	7f 4f       	sbci	r23, 0xFF	; 255
    7c64:	8f 4f       	sbci	r24, 0xFF	; 255
    7c66:	9f 4f       	sbci	r25, 0xFF	; 255
    7c68:	16 c0       	rjmp	.+44     	; 0x7c96 <__floatsisf+0x6c>
    7c6a:	88 23       	and	r24, r24
    7c6c:	11 f0       	breq	.+4      	; 0x7c72 <__floatsisf+0x48>
    7c6e:	96 e9       	ldi	r25, 0x96	; 150
    7c70:	11 c0       	rjmp	.+34     	; 0x7c94 <__floatsisf+0x6a>
    7c72:	77 23       	and	r23, r23
    7c74:	21 f0       	breq	.+8      	; 0x7c7e <__floatsisf+0x54>
    7c76:	9e e8       	ldi	r25, 0x8E	; 142
    7c78:	87 2f       	mov	r24, r23
    7c7a:	76 2f       	mov	r23, r22
    7c7c:	05 c0       	rjmp	.+10     	; 0x7c88 <__floatsisf+0x5e>
    7c7e:	66 23       	and	r22, r22
    7c80:	71 f0       	breq	.+28     	; 0x7c9e <__floatsisf+0x74>
    7c82:	96 e8       	ldi	r25, 0x86	; 134
    7c84:	86 2f       	mov	r24, r22
    7c86:	70 e0       	ldi	r23, 0x00	; 0
    7c88:	60 e0       	ldi	r22, 0x00	; 0
    7c8a:	2a f0       	brmi	.+10     	; 0x7c96 <__floatsisf+0x6c>
    7c8c:	9a 95       	dec	r25
    7c8e:	66 0f       	add	r22, r22
    7c90:	77 1f       	adc	r23, r23
    7c92:	88 1f       	adc	r24, r24
    7c94:	da f7       	brpl	.-10     	; 0x7c8c <__floatsisf+0x62>
    7c96:	88 0f       	add	r24, r24
    7c98:	96 95       	lsr	r25
    7c9a:	87 95       	ror	r24
    7c9c:	97 f9       	bld	r25, 7
    7c9e:	08 95       	ret

00007ca0 <__fp_cmp>:
    7ca0:	99 0f       	add	r25, r25
    7ca2:	00 08       	sbc	r0, r0
    7ca4:	55 0f       	add	r21, r21
    7ca6:	aa 0b       	sbc	r26, r26
    7ca8:	e0 e8       	ldi	r30, 0x80	; 128
    7caa:	fe ef       	ldi	r31, 0xFE	; 254
    7cac:	16 16       	cp	r1, r22
    7cae:	17 06       	cpc	r1, r23
    7cb0:	e8 07       	cpc	r30, r24
    7cb2:	f9 07       	cpc	r31, r25
    7cb4:	c0 f0       	brcs	.+48     	; 0x7ce6 <__fp_cmp+0x46>
    7cb6:	12 16       	cp	r1, r18
    7cb8:	13 06       	cpc	r1, r19
    7cba:	e4 07       	cpc	r30, r20
    7cbc:	f5 07       	cpc	r31, r21
    7cbe:	98 f0       	brcs	.+38     	; 0x7ce6 <__fp_cmp+0x46>
    7cc0:	62 1b       	sub	r22, r18
    7cc2:	73 0b       	sbc	r23, r19
    7cc4:	84 0b       	sbc	r24, r20
    7cc6:	95 0b       	sbc	r25, r21
    7cc8:	39 f4       	brne	.+14     	; 0x7cd8 <__fp_cmp+0x38>
    7cca:	0a 26       	eor	r0, r26
    7ccc:	61 f0       	breq	.+24     	; 0x7ce6 <__fp_cmp+0x46>
    7cce:	23 2b       	or	r18, r19
    7cd0:	24 2b       	or	r18, r20
    7cd2:	25 2b       	or	r18, r21
    7cd4:	21 f4       	brne	.+8      	; 0x7cde <__fp_cmp+0x3e>
    7cd6:	08 95       	ret
    7cd8:	0a 26       	eor	r0, r26
    7cda:	09 f4       	brne	.+2      	; 0x7cde <__fp_cmp+0x3e>
    7cdc:	a1 40       	sbci	r26, 0x01	; 1
    7cde:	a6 95       	lsr	r26
    7ce0:	8f ef       	ldi	r24, 0xFF	; 255
    7ce2:	81 1d       	adc	r24, r1
    7ce4:	81 1d       	adc	r24, r1
    7ce6:	08 95       	ret

00007ce8 <__fp_inf>:
    7ce8:	97 f9       	bld	r25, 7
    7cea:	9f 67       	ori	r25, 0x7F	; 127
    7cec:	80 e8       	ldi	r24, 0x80	; 128
    7cee:	70 e0       	ldi	r23, 0x00	; 0
    7cf0:	60 e0       	ldi	r22, 0x00	; 0
    7cf2:	08 95       	ret

00007cf4 <__fp_mintl>:
    7cf4:	88 23       	and	r24, r24
    7cf6:	71 f4       	brne	.+28     	; 0x7d14 <__fp_mintl+0x20>
    7cf8:	77 23       	and	r23, r23
    7cfa:	21 f0       	breq	.+8      	; 0x7d04 <__fp_mintl+0x10>
    7cfc:	98 50       	subi	r25, 0x08	; 8
    7cfe:	87 2b       	or	r24, r23
    7d00:	76 2f       	mov	r23, r22
    7d02:	07 c0       	rjmp	.+14     	; 0x7d12 <__fp_mintl+0x1e>
    7d04:	66 23       	and	r22, r22
    7d06:	11 f4       	brne	.+4      	; 0x7d0c <__fp_mintl+0x18>
    7d08:	99 27       	eor	r25, r25
    7d0a:	0d c0       	rjmp	.+26     	; 0x7d26 <__fp_mintl+0x32>
    7d0c:	90 51       	subi	r25, 0x10	; 16
    7d0e:	86 2b       	or	r24, r22
    7d10:	70 e0       	ldi	r23, 0x00	; 0
    7d12:	60 e0       	ldi	r22, 0x00	; 0
    7d14:	2a f0       	brmi	.+10     	; 0x7d20 <__fp_mintl+0x2c>
    7d16:	9a 95       	dec	r25
    7d18:	66 0f       	add	r22, r22
    7d1a:	77 1f       	adc	r23, r23
    7d1c:	88 1f       	adc	r24, r24
    7d1e:	da f7       	brpl	.-10     	; 0x7d16 <__fp_mintl+0x22>
    7d20:	88 0f       	add	r24, r24
    7d22:	96 95       	lsr	r25
    7d24:	87 95       	ror	r24
    7d26:	97 f9       	bld	r25, 7
    7d28:	08 95       	ret

00007d2a <__fp_mpack>:
    7d2a:	9f 3f       	cpi	r25, 0xFF	; 255
    7d2c:	31 f0       	breq	.+12     	; 0x7d3a <__fp_mpack_finite+0xc>

00007d2e <__fp_mpack_finite>:
    7d2e:	91 50       	subi	r25, 0x01	; 1
    7d30:	20 f4       	brcc	.+8      	; 0x7d3a <__fp_mpack_finite+0xc>
    7d32:	87 95       	ror	r24
    7d34:	77 95       	ror	r23
    7d36:	67 95       	ror	r22
    7d38:	b7 95       	ror	r27
    7d3a:	88 0f       	add	r24, r24
    7d3c:	91 1d       	adc	r25, r1
    7d3e:	96 95       	lsr	r25
    7d40:	87 95       	ror	r24
    7d42:	97 f9       	bld	r25, 7
    7d44:	08 95       	ret

00007d46 <__fp_nan>:
    7d46:	9f ef       	ldi	r25, 0xFF	; 255
    7d48:	80 ec       	ldi	r24, 0xC0	; 192
    7d4a:	08 95       	ret

00007d4c <__fp_powser>:
    7d4c:	df 93       	push	r29
    7d4e:	cf 93       	push	r28
    7d50:	1f 93       	push	r17
    7d52:	0f 93       	push	r16
    7d54:	ff 92       	push	r15
    7d56:	ef 92       	push	r14
    7d58:	df 92       	push	r13
    7d5a:	7b 01       	movw	r14, r22
    7d5c:	8c 01       	movw	r16, r24
    7d5e:	68 94       	set
    7d60:	05 c0       	rjmp	.+10     	; 0x7d6c <__fp_powser+0x20>
    7d62:	da 2e       	mov	r13, r26
    7d64:	ef 01       	movw	r28, r30
    7d66:	8d d1       	rcall	.+794    	; 0x8082 <__mulsf3x>
    7d68:	fe 01       	movw	r30, r28
    7d6a:	e8 94       	clt
    7d6c:	a5 91       	lpm	r26, Z+
    7d6e:	25 91       	lpm	r18, Z+
    7d70:	35 91       	lpm	r19, Z+
    7d72:	45 91       	lpm	r20, Z+
    7d74:	55 91       	lpm	r21, Z+
    7d76:	ae f3       	brts	.-22     	; 0x7d62 <__fp_powser+0x16>
    7d78:	ef 01       	movw	r28, r30
    7d7a:	27 de       	rcall	.-946    	; 0x79ca <__addsf3x>
    7d7c:	fe 01       	movw	r30, r28
    7d7e:	97 01       	movw	r18, r14
    7d80:	a8 01       	movw	r20, r16
    7d82:	da 94       	dec	r13
    7d84:	79 f7       	brne	.-34     	; 0x7d64 <__fp_powser+0x18>
    7d86:	df 90       	pop	r13
    7d88:	ef 90       	pop	r14
    7d8a:	ff 90       	pop	r15
    7d8c:	0f 91       	pop	r16
    7d8e:	1f 91       	pop	r17
    7d90:	cf 91       	pop	r28
    7d92:	df 91       	pop	r29
    7d94:	08 95       	ret

00007d96 <__fp_pscA>:
    7d96:	00 24       	eor	r0, r0
    7d98:	0a 94       	dec	r0
    7d9a:	16 16       	cp	r1, r22
    7d9c:	17 06       	cpc	r1, r23
    7d9e:	18 06       	cpc	r1, r24
    7da0:	09 06       	cpc	r0, r25
    7da2:	08 95       	ret

00007da4 <__fp_pscB>:
    7da4:	00 24       	eor	r0, r0
    7da6:	0a 94       	dec	r0
    7da8:	12 16       	cp	r1, r18
    7daa:	13 06       	cpc	r1, r19
    7dac:	14 06       	cpc	r1, r20
    7dae:	05 06       	cpc	r0, r21
    7db0:	08 95       	ret
    7db2:	c9 cf       	rjmp	.-110    	; 0x7d46 <__fp_nan>

00007db4 <__fp_rempio2>:
    7db4:	50 d0       	rcall	.+160    	; 0x7e56 <__fp_splitA>
    7db6:	e8 f3       	brcs	.-6      	; 0x7db2 <__fp_pscB+0xe>
    7db8:	e8 94       	clt
    7dba:	e0 e0       	ldi	r30, 0x00	; 0
    7dbc:	bb 27       	eor	r27, r27
    7dbe:	9f 57       	subi	r25, 0x7F	; 127
    7dc0:	f0 f0       	brcs	.+60     	; 0x7dfe <__fp_rempio2+0x4a>
    7dc2:	2a ed       	ldi	r18, 0xDA	; 218
    7dc4:	3f e0       	ldi	r19, 0x0F	; 15
    7dc6:	49 ec       	ldi	r20, 0xC9	; 201
    7dc8:	06 c0       	rjmp	.+12     	; 0x7dd6 <__fp_rempio2+0x22>
    7dca:	ee 0f       	add	r30, r30
    7dcc:	bb 0f       	add	r27, r27
    7dce:	66 1f       	adc	r22, r22
    7dd0:	77 1f       	adc	r23, r23
    7dd2:	88 1f       	adc	r24, r24
    7dd4:	28 f0       	brcs	.+10     	; 0x7de0 <__fp_rempio2+0x2c>
    7dd6:	b2 3a       	cpi	r27, 0xA2	; 162
    7dd8:	62 07       	cpc	r22, r18
    7dda:	73 07       	cpc	r23, r19
    7ddc:	84 07       	cpc	r24, r20
    7dde:	28 f0       	brcs	.+10     	; 0x7dea <__fp_rempio2+0x36>
    7de0:	b2 5a       	subi	r27, 0xA2	; 162
    7de2:	62 0b       	sbc	r22, r18
    7de4:	73 0b       	sbc	r23, r19
    7de6:	84 0b       	sbc	r24, r20
    7de8:	e3 95       	inc	r30
    7dea:	9a 95       	dec	r25
    7dec:	72 f7       	brpl	.-36     	; 0x7dca <__fp_rempio2+0x16>
    7dee:	80 38       	cpi	r24, 0x80	; 128
    7df0:	30 f4       	brcc	.+12     	; 0x7dfe <__fp_rempio2+0x4a>
    7df2:	9a 95       	dec	r25
    7df4:	bb 0f       	add	r27, r27
    7df6:	66 1f       	adc	r22, r22
    7df8:	77 1f       	adc	r23, r23
    7dfa:	88 1f       	adc	r24, r24
    7dfc:	d2 f7       	brpl	.-12     	; 0x7df2 <__fp_rempio2+0x3e>
    7dfe:	90 48       	sbci	r25, 0x80	; 128
    7e00:	96 cf       	rjmp	.-212    	; 0x7d2e <__fp_mpack_finite>

00007e02 <__fp_round>:
    7e02:	09 2e       	mov	r0, r25
    7e04:	03 94       	inc	r0
    7e06:	00 0c       	add	r0, r0
    7e08:	11 f4       	brne	.+4      	; 0x7e0e <__fp_round+0xc>
    7e0a:	88 23       	and	r24, r24
    7e0c:	52 f0       	brmi	.+20     	; 0x7e22 <__fp_round+0x20>
    7e0e:	bb 0f       	add	r27, r27
    7e10:	40 f4       	brcc	.+16     	; 0x7e22 <__fp_round+0x20>
    7e12:	bf 2b       	or	r27, r31
    7e14:	11 f4       	brne	.+4      	; 0x7e1a <__fp_round+0x18>
    7e16:	60 ff       	sbrs	r22, 0
    7e18:	04 c0       	rjmp	.+8      	; 0x7e22 <__fp_round+0x20>
    7e1a:	6f 5f       	subi	r22, 0xFF	; 255
    7e1c:	7f 4f       	sbci	r23, 0xFF	; 255
    7e1e:	8f 4f       	sbci	r24, 0xFF	; 255
    7e20:	9f 4f       	sbci	r25, 0xFF	; 255
    7e22:	08 95       	ret

00007e24 <__fp_sinus>:
    7e24:	ef 93       	push	r30
    7e26:	e0 ff       	sbrs	r30, 0
    7e28:	06 c0       	rjmp	.+12     	; 0x7e36 <__fp_sinus+0x12>
    7e2a:	a2 ea       	ldi	r26, 0xA2	; 162
    7e2c:	2a ed       	ldi	r18, 0xDA	; 218
    7e2e:	3f e0       	ldi	r19, 0x0F	; 15
    7e30:	49 ec       	ldi	r20, 0xC9	; 201
    7e32:	5f eb       	ldi	r21, 0xBF	; 191
    7e34:	ca dd       	rcall	.-1132   	; 0x79ca <__addsf3x>
    7e36:	e5 df       	rcall	.-54     	; 0x7e02 <__fp_round>
    7e38:	0f 90       	pop	r0
    7e3a:	03 94       	inc	r0
    7e3c:	01 fc       	sbrc	r0, 1
    7e3e:	90 58       	subi	r25, 0x80	; 128
    7e40:	e5 e1       	ldi	r30, 0x15	; 21
    7e42:	f2 e0       	ldi	r31, 0x02	; 2
    7e44:	d2 c1       	rjmp	.+932    	; 0x81ea <__fp_powsodd>

00007e46 <__fp_split3>:
    7e46:	57 fd       	sbrc	r21, 7
    7e48:	90 58       	subi	r25, 0x80	; 128
    7e4a:	44 0f       	add	r20, r20
    7e4c:	55 1f       	adc	r21, r21
    7e4e:	59 f0       	breq	.+22     	; 0x7e66 <__fp_splitA+0x10>
    7e50:	5f 3f       	cpi	r21, 0xFF	; 255
    7e52:	71 f0       	breq	.+28     	; 0x7e70 <__fp_splitA+0x1a>
    7e54:	47 95       	ror	r20

00007e56 <__fp_splitA>:
    7e56:	88 0f       	add	r24, r24
    7e58:	97 fb       	bst	r25, 7
    7e5a:	99 1f       	adc	r25, r25
    7e5c:	61 f0       	breq	.+24     	; 0x7e76 <__fp_splitA+0x20>
    7e5e:	9f 3f       	cpi	r25, 0xFF	; 255
    7e60:	79 f0       	breq	.+30     	; 0x7e80 <__fp_splitA+0x2a>
    7e62:	87 95       	ror	r24
    7e64:	08 95       	ret
    7e66:	12 16       	cp	r1, r18
    7e68:	13 06       	cpc	r1, r19
    7e6a:	14 06       	cpc	r1, r20
    7e6c:	55 1f       	adc	r21, r21
    7e6e:	f2 cf       	rjmp	.-28     	; 0x7e54 <__fp_split3+0xe>
    7e70:	46 95       	lsr	r20
    7e72:	f1 df       	rcall	.-30     	; 0x7e56 <__fp_splitA>
    7e74:	08 c0       	rjmp	.+16     	; 0x7e86 <__fp_splitA+0x30>
    7e76:	16 16       	cp	r1, r22
    7e78:	17 06       	cpc	r1, r23
    7e7a:	18 06       	cpc	r1, r24
    7e7c:	99 1f       	adc	r25, r25
    7e7e:	f1 cf       	rjmp	.-30     	; 0x7e62 <__fp_splitA+0xc>
    7e80:	86 95       	lsr	r24
    7e82:	71 05       	cpc	r23, r1
    7e84:	61 05       	cpc	r22, r1
    7e86:	08 94       	sec
    7e88:	08 95       	ret

00007e8a <__fp_trunc>:
    7e8a:	e5 df       	rcall	.-54     	; 0x7e56 <__fp_splitA>
    7e8c:	a0 f0       	brcs	.+40     	; 0x7eb6 <__fp_trunc+0x2c>
    7e8e:	be e7       	ldi	r27, 0x7E	; 126
    7e90:	b9 17       	cp	r27, r25
    7e92:	88 f4       	brcc	.+34     	; 0x7eb6 <__fp_trunc+0x2c>
    7e94:	bb 27       	eor	r27, r27
    7e96:	9f 38       	cpi	r25, 0x8F	; 143
    7e98:	60 f4       	brcc	.+24     	; 0x7eb2 <__fp_trunc+0x28>
    7e9a:	16 16       	cp	r1, r22
    7e9c:	b1 1d       	adc	r27, r1
    7e9e:	67 2f       	mov	r22, r23
    7ea0:	78 2f       	mov	r23, r24
    7ea2:	88 27       	eor	r24, r24
    7ea4:	98 5f       	subi	r25, 0xF8	; 248
    7ea6:	f7 cf       	rjmp	.-18     	; 0x7e96 <__fp_trunc+0xc>
    7ea8:	86 95       	lsr	r24
    7eaa:	77 95       	ror	r23
    7eac:	67 95       	ror	r22
    7eae:	b1 1d       	adc	r27, r1
    7eb0:	93 95       	inc	r25
    7eb2:	96 39       	cpi	r25, 0x96	; 150
    7eb4:	c8 f3       	brcs	.-14     	; 0x7ea8 <__fp_trunc+0x1e>
    7eb6:	08 95       	ret

00007eb8 <__fp_zero>:
    7eb8:	e8 94       	clt

00007eba <__fp_szero>:
    7eba:	bb 27       	eor	r27, r27
    7ebc:	66 27       	eor	r22, r22
    7ebe:	77 27       	eor	r23, r23
    7ec0:	cb 01       	movw	r24, r22
    7ec2:	97 f9       	bld	r25, 7
    7ec4:	08 95       	ret

00007ec6 <__gesf2>:
    7ec6:	ec de       	rcall	.-552    	; 0x7ca0 <__fp_cmp>
    7ec8:	08 f4       	brcc	.+2      	; 0x7ecc <__gesf2+0x6>
    7eca:	8f ef       	ldi	r24, 0xFF	; 255
    7ecc:	08 95       	ret
    7ece:	63 df       	rcall	.-314    	; 0x7d96 <__fp_pscA>
    7ed0:	19 f0       	breq	.+6      	; 0x7ed8 <__gesf2+0x12>
    7ed2:	68 df       	rcall	.-304    	; 0x7da4 <__fp_pscB>
    7ed4:	09 f0       	breq	.+2      	; 0x7ed8 <__gesf2+0x12>
    7ed6:	37 cf       	rjmp	.-402    	; 0x7d46 <__fp_nan>
    7ed8:	07 cf       	rjmp	.-498    	; 0x7ce8 <__fp_inf>
    7eda:	b9 01       	movw	r22, r18
    7edc:	ca 01       	movw	r24, r20
    7ede:	25 cf       	rjmp	.-438    	; 0x7d2a <__fp_mpack>

00007ee0 <hypot>:
    7ee0:	9f 77       	andi	r25, 0x7F	; 127
    7ee2:	5f 77       	andi	r21, 0x7F	; 127
    7ee4:	b0 df       	rcall	.-160    	; 0x7e46 <__fp_split3>
    7ee6:	98 f3       	brcs	.-26     	; 0x7ece <__gesf2+0x8>
    7ee8:	99 23       	and	r25, r25
    7eea:	b9 f3       	breq	.-18     	; 0x7eda <__gesf2+0x14>
    7eec:	55 23       	and	r21, r21
    7eee:	b9 f3       	breq	.-18     	; 0x7ede <__gesf2+0x18>
    7ef0:	ff 27       	eor	r31, r31
    7ef2:	95 17       	cp	r25, r21
    7ef4:	58 f4       	brcc	.+22     	; 0x7f0c <hypot+0x2c>
    7ef6:	e5 2f       	mov	r30, r21
    7ef8:	e9 1b       	sub	r30, r25
    7efa:	ed 30       	cpi	r30, 0x0D	; 13
    7efc:	70 f7       	brcc	.-36     	; 0x7eda <__gesf2+0x14>
    7efe:	5e 3b       	cpi	r21, 0xBE	; 190
    7f00:	10 f0       	brcs	.+4      	; 0x7f06 <hypot+0x26>
    7f02:	f1 e4       	ldi	r31, 0x41	; 65
    7f04:	1c c0       	rjmp	.+56     	; 0x7f3e <hypot+0x5e>
    7f06:	90 34       	cpi	r25, 0x40	; 64
    7f08:	e0 f4       	brcc	.+56     	; 0x7f42 <hypot+0x62>
    7f0a:	0a c0       	rjmp	.+20     	; 0x7f20 <hypot+0x40>
    7f0c:	e9 2f       	mov	r30, r25
    7f0e:	e5 1b       	sub	r30, r21
    7f10:	ed 30       	cpi	r30, 0x0D	; 13
    7f12:	28 f7       	brcc	.-54     	; 0x7ede <__gesf2+0x18>
    7f14:	9e 3b       	cpi	r25, 0xBE	; 190
    7f16:	10 f0       	brcs	.+4      	; 0x7f1c <hypot+0x3c>
    7f18:	f1 e4       	ldi	r31, 0x41	; 65
    7f1a:	11 c0       	rjmp	.+34     	; 0x7f3e <hypot+0x5e>
    7f1c:	50 34       	cpi	r21, 0x40	; 64
    7f1e:	88 f4       	brcc	.+34     	; 0x7f42 <hypot+0x62>
    7f20:	f9 ea       	ldi	r31, 0xA9	; 169
    7f22:	88 23       	and	r24, r24
    7f24:	2a f0       	brmi	.+10     	; 0x7f30 <hypot+0x50>
    7f26:	9a 95       	dec	r25
    7f28:	66 0f       	add	r22, r22
    7f2a:	77 1f       	adc	r23, r23
    7f2c:	88 1f       	adc	r24, r24
    7f2e:	da f7       	brpl	.-10     	; 0x7f26 <hypot+0x46>
    7f30:	44 23       	and	r20, r20
    7f32:	2a f0       	brmi	.+10     	; 0x7f3e <hypot+0x5e>
    7f34:	5a 95       	dec	r21
    7f36:	22 0f       	add	r18, r18
    7f38:	33 1f       	adc	r19, r19
    7f3a:	44 1f       	adc	r20, r20
    7f3c:	da f7       	brpl	.-10     	; 0x7f34 <hypot+0x54>
    7f3e:	9f 1b       	sub	r25, r31
    7f40:	5f 1b       	sub	r21, r31
    7f42:	ff 93       	push	r31
    7f44:	1f 93       	push	r17
    7f46:	0f 93       	push	r16
    7f48:	ff 92       	push	r15
    7f4a:	ef 92       	push	r14
    7f4c:	79 01       	movw	r14, r18
    7f4e:	8a 01       	movw	r16, r20
    7f50:	bb 27       	eor	r27, r27
    7f52:	ab 2f       	mov	r26, r27
    7f54:	9b 01       	movw	r18, r22
    7f56:	ac 01       	movw	r20, r24
    7f58:	96 d0       	rcall	.+300    	; 0x8086 <__mulsf3_pse>
    7f5a:	97 01       	movw	r18, r14
    7f5c:	a8 01       	movw	r20, r16
    7f5e:	bf 93       	push	r27
    7f60:	7b 01       	movw	r14, r22
    7f62:	8c 01       	movw	r16, r24
    7f64:	aa 27       	eor	r26, r26
    7f66:	ba 2f       	mov	r27, r26
    7f68:	b9 01       	movw	r22, r18
    7f6a:	ca 01       	movw	r24, r20
    7f6c:	8c d0       	rcall	.+280    	; 0x8086 <__mulsf3_pse>
    7f6e:	af 91       	pop	r26
    7f70:	97 01       	movw	r18, r14
    7f72:	a8 01       	movw	r20, r16
    7f74:	ef 90       	pop	r14
    7f76:	ff 90       	pop	r15
    7f78:	0f 91       	pop	r16
    7f7a:	1f 91       	pop	r17
    7f7c:	26 dd       	rcall	.-1460   	; 0x79ca <__addsf3x>
    7f7e:	41 df       	rcall	.-382    	; 0x7e02 <__fp_round>
    7f80:	e1 d0       	rcall	.+450    	; 0x8144 <sqrt>
    7f82:	4f 91       	pop	r20
    7f84:	40 ff       	sbrs	r20, 0
    7f86:	08 95       	ret
    7f88:	55 27       	eor	r21, r21
    7f8a:	47 fd       	sbrc	r20, 7
    7f8c:	50 95       	com	r21
    7f8e:	09 c0       	rjmp	.+18     	; 0x7fa2 <ldexp>

00007f90 <inverse>:
    7f90:	9b 01       	movw	r18, r22
    7f92:	ac 01       	movw	r20, r24
    7f94:	60 e0       	ldi	r22, 0x00	; 0
    7f96:	70 e0       	ldi	r23, 0x00	; 0
    7f98:	80 e8       	ldi	r24, 0x80	; 128
    7f9a:	9f e3       	ldi	r25, 0x3F	; 63
    7f9c:	ab cd       	rjmp	.-1194   	; 0x7af4 <__divsf3>
    7f9e:	a4 ce       	rjmp	.-696    	; 0x7ce8 <__fp_inf>
    7fa0:	c4 ce       	rjmp	.-632    	; 0x7d2a <__fp_mpack>

00007fa2 <ldexp>:
    7fa2:	59 df       	rcall	.-334    	; 0x7e56 <__fp_splitA>
    7fa4:	e8 f3       	brcs	.-6      	; 0x7fa0 <inverse+0x10>
    7fa6:	99 23       	and	r25, r25
    7fa8:	d9 f3       	breq	.-10     	; 0x7fa0 <inverse+0x10>
    7faa:	94 0f       	add	r25, r20
    7fac:	51 1d       	adc	r21, r1
    7fae:	bb f3       	brvs	.-18     	; 0x7f9e <inverse+0xe>
    7fb0:	91 50       	subi	r25, 0x01	; 1
    7fb2:	50 40       	sbci	r21, 0x00	; 0
    7fb4:	94 f0       	brlt	.+36     	; 0x7fda <ldexp+0x38>
    7fb6:	59 f0       	breq	.+22     	; 0x7fce <ldexp+0x2c>
    7fb8:	88 23       	and	r24, r24
    7fba:	32 f0       	brmi	.+12     	; 0x7fc8 <ldexp+0x26>
    7fbc:	66 0f       	add	r22, r22
    7fbe:	77 1f       	adc	r23, r23
    7fc0:	88 1f       	adc	r24, r24
    7fc2:	91 50       	subi	r25, 0x01	; 1
    7fc4:	50 40       	sbci	r21, 0x00	; 0
    7fc6:	c1 f7       	brne	.-16     	; 0x7fb8 <ldexp+0x16>
    7fc8:	9e 3f       	cpi	r25, 0xFE	; 254
    7fca:	51 05       	cpc	r21, r1
    7fcc:	44 f7       	brge	.-48     	; 0x7f9e <inverse+0xe>
    7fce:	88 0f       	add	r24, r24
    7fd0:	91 1d       	adc	r25, r1
    7fd2:	96 95       	lsr	r25
    7fd4:	87 95       	ror	r24
    7fd6:	97 f9       	bld	r25, 7
    7fd8:	08 95       	ret
    7fda:	5f 3f       	cpi	r21, 0xFF	; 255
    7fdc:	ac f0       	brlt	.+42     	; 0x8008 <ldexp+0x66>
    7fde:	98 3e       	cpi	r25, 0xE8	; 232
    7fe0:	9c f0       	brlt	.+38     	; 0x8008 <ldexp+0x66>
    7fe2:	bb 27       	eor	r27, r27
    7fe4:	86 95       	lsr	r24
    7fe6:	77 95       	ror	r23
    7fe8:	67 95       	ror	r22
    7fea:	b7 95       	ror	r27
    7fec:	08 f4       	brcc	.+2      	; 0x7ff0 <ldexp+0x4e>
    7fee:	b1 60       	ori	r27, 0x01	; 1
    7ff0:	93 95       	inc	r25
    7ff2:	c1 f7       	brne	.-16     	; 0x7fe4 <ldexp+0x42>
    7ff4:	bb 0f       	add	r27, r27
    7ff6:	58 f7       	brcc	.-42     	; 0x7fce <ldexp+0x2c>
    7ff8:	11 f4       	brne	.+4      	; 0x7ffe <ldexp+0x5c>
    7ffa:	60 ff       	sbrs	r22, 0
    7ffc:	e8 cf       	rjmp	.-48     	; 0x7fce <ldexp+0x2c>
    7ffe:	6f 5f       	subi	r22, 0xFF	; 255
    8000:	7f 4f       	sbci	r23, 0xFF	; 255
    8002:	8f 4f       	sbci	r24, 0xFF	; 255
    8004:	9f 4f       	sbci	r25, 0xFF	; 255
    8006:	e3 cf       	rjmp	.-58     	; 0x7fce <ldexp+0x2c>
    8008:	58 cf       	rjmp	.-336    	; 0x7eba <__fp_szero>

0000800a <lround>:
    800a:	25 df       	rcall	.-438    	; 0x7e56 <__fp_splitA>
    800c:	58 f1       	brcs	.+86     	; 0x8064 <lround+0x5a>
    800e:	9e 57       	subi	r25, 0x7E	; 126
    8010:	58 f1       	brcs	.+86     	; 0x8068 <lround+0x5e>
    8012:	98 51       	subi	r25, 0x18	; 24
    8014:	a0 f0       	brcs	.+40     	; 0x803e <lround+0x34>
    8016:	e9 f0       	breq	.+58     	; 0x8052 <lround+0x48>
    8018:	98 30       	cpi	r25, 0x08	; 8
    801a:	20 f5       	brcc	.+72     	; 0x8064 <lround+0x5a>
    801c:	09 2e       	mov	r0, r25
    801e:	99 27       	eor	r25, r25
    8020:	66 0f       	add	r22, r22
    8022:	77 1f       	adc	r23, r23
    8024:	88 1f       	adc	r24, r24
    8026:	99 1f       	adc	r25, r25
    8028:	0a 94       	dec	r0
    802a:	d1 f7       	brne	.-12     	; 0x8020 <lround+0x16>
    802c:	12 c0       	rjmp	.+36     	; 0x8052 <lround+0x48>
    802e:	06 2e       	mov	r0, r22
    8030:	67 2f       	mov	r22, r23
    8032:	78 2f       	mov	r23, r24
    8034:	88 27       	eor	r24, r24
    8036:	98 5f       	subi	r25, 0xF8	; 248
    8038:	11 f4       	brne	.+4      	; 0x803e <lround+0x34>
    803a:	00 0c       	add	r0, r0
    803c:	07 c0       	rjmp	.+14     	; 0x804c <lround+0x42>
    803e:	99 3f       	cpi	r25, 0xF9	; 249
    8040:	b4 f3       	brlt	.-20     	; 0x802e <lround+0x24>
    8042:	86 95       	lsr	r24
    8044:	77 95       	ror	r23
    8046:	67 95       	ror	r22
    8048:	93 95       	inc	r25
    804a:	d9 f7       	brne	.-10     	; 0x8042 <lround+0x38>
    804c:	61 1d       	adc	r22, r1
    804e:	71 1d       	adc	r23, r1
    8050:	81 1d       	adc	r24, r1
    8052:	3e f4       	brtc	.+14     	; 0x8062 <lround+0x58>
    8054:	90 95       	com	r25
    8056:	80 95       	com	r24
    8058:	70 95       	com	r23
    805a:	61 95       	neg	r22
    805c:	7f 4f       	sbci	r23, 0xFF	; 255
    805e:	8f 4f       	sbci	r24, 0xFF	; 255
    8060:	9f 4f       	sbci	r25, 0xFF	; 255
    8062:	08 95       	ret
    8064:	68 94       	set
    8066:	29 cf       	rjmp	.-430    	; 0x7eba <__fp_szero>
    8068:	27 cf       	rjmp	.-434    	; 0x7eb8 <__fp_zero>

0000806a <__mulsf3>:
    806a:	0b d0       	rcall	.+22     	; 0x8082 <__mulsf3x>
    806c:	ca ce       	rjmp	.-620    	; 0x7e02 <__fp_round>
    806e:	93 de       	rcall	.-730    	; 0x7d96 <__fp_pscA>
    8070:	28 f0       	brcs	.+10     	; 0x807c <__mulsf3+0x12>
    8072:	98 de       	rcall	.-720    	; 0x7da4 <__fp_pscB>
    8074:	18 f0       	brcs	.+6      	; 0x807c <__mulsf3+0x12>
    8076:	95 23       	and	r25, r21
    8078:	09 f0       	breq	.+2      	; 0x807c <__mulsf3+0x12>
    807a:	36 ce       	rjmp	.-916    	; 0x7ce8 <__fp_inf>
    807c:	64 ce       	rjmp	.-824    	; 0x7d46 <__fp_nan>
    807e:	11 24       	eor	r1, r1
    8080:	1c cf       	rjmp	.-456    	; 0x7eba <__fp_szero>

00008082 <__mulsf3x>:
    8082:	e1 de       	rcall	.-574    	; 0x7e46 <__fp_split3>
    8084:	a0 f3       	brcs	.-24     	; 0x806e <__mulsf3+0x4>

00008086 <__mulsf3_pse>:
    8086:	95 9f       	mul	r25, r21
    8088:	d1 f3       	breq	.-12     	; 0x807e <__mulsf3+0x14>
    808a:	95 0f       	add	r25, r21
    808c:	50 e0       	ldi	r21, 0x00	; 0
    808e:	55 1f       	adc	r21, r21
    8090:	62 9f       	mul	r22, r18
    8092:	f0 01       	movw	r30, r0
    8094:	72 9f       	mul	r23, r18
    8096:	bb 27       	eor	r27, r27
    8098:	f0 0d       	add	r31, r0
    809a:	b1 1d       	adc	r27, r1
    809c:	63 9f       	mul	r22, r19
    809e:	aa 27       	eor	r26, r26
    80a0:	f0 0d       	add	r31, r0
    80a2:	b1 1d       	adc	r27, r1
    80a4:	aa 1f       	adc	r26, r26
    80a6:	64 9f       	mul	r22, r20
    80a8:	66 27       	eor	r22, r22
    80aa:	b0 0d       	add	r27, r0
    80ac:	a1 1d       	adc	r26, r1
    80ae:	66 1f       	adc	r22, r22
    80b0:	82 9f       	mul	r24, r18
    80b2:	22 27       	eor	r18, r18
    80b4:	b0 0d       	add	r27, r0
    80b6:	a1 1d       	adc	r26, r1
    80b8:	62 1f       	adc	r22, r18
    80ba:	73 9f       	mul	r23, r19
    80bc:	b0 0d       	add	r27, r0
    80be:	a1 1d       	adc	r26, r1
    80c0:	62 1f       	adc	r22, r18
    80c2:	83 9f       	mul	r24, r19
    80c4:	a0 0d       	add	r26, r0
    80c6:	61 1d       	adc	r22, r1
    80c8:	22 1f       	adc	r18, r18
    80ca:	74 9f       	mul	r23, r20
    80cc:	33 27       	eor	r19, r19
    80ce:	a0 0d       	add	r26, r0
    80d0:	61 1d       	adc	r22, r1
    80d2:	23 1f       	adc	r18, r19
    80d4:	84 9f       	mul	r24, r20
    80d6:	60 0d       	add	r22, r0
    80d8:	21 1d       	adc	r18, r1
    80da:	82 2f       	mov	r24, r18
    80dc:	76 2f       	mov	r23, r22
    80de:	6a 2f       	mov	r22, r26
    80e0:	11 24       	eor	r1, r1
    80e2:	9f 57       	subi	r25, 0x7F	; 127
    80e4:	50 40       	sbci	r21, 0x00	; 0
    80e6:	8a f0       	brmi	.+34     	; 0x810a <__mulsf3_pse+0x84>
    80e8:	e1 f0       	breq	.+56     	; 0x8122 <__mulsf3_pse+0x9c>
    80ea:	88 23       	and	r24, r24
    80ec:	4a f0       	brmi	.+18     	; 0x8100 <__mulsf3_pse+0x7a>
    80ee:	ee 0f       	add	r30, r30
    80f0:	ff 1f       	adc	r31, r31
    80f2:	bb 1f       	adc	r27, r27
    80f4:	66 1f       	adc	r22, r22
    80f6:	77 1f       	adc	r23, r23
    80f8:	88 1f       	adc	r24, r24
    80fa:	91 50       	subi	r25, 0x01	; 1
    80fc:	50 40       	sbci	r21, 0x00	; 0
    80fe:	a9 f7       	brne	.-22     	; 0x80ea <__mulsf3_pse+0x64>
    8100:	9e 3f       	cpi	r25, 0xFE	; 254
    8102:	51 05       	cpc	r21, r1
    8104:	70 f0       	brcs	.+28     	; 0x8122 <__mulsf3_pse+0x9c>
    8106:	f0 cd       	rjmp	.-1056   	; 0x7ce8 <__fp_inf>
    8108:	d8 ce       	rjmp	.-592    	; 0x7eba <__fp_szero>
    810a:	5f 3f       	cpi	r21, 0xFF	; 255
    810c:	ec f3       	brlt	.-6      	; 0x8108 <__mulsf3_pse+0x82>
    810e:	98 3e       	cpi	r25, 0xE8	; 232
    8110:	dc f3       	brlt	.-10     	; 0x8108 <__mulsf3_pse+0x82>
    8112:	86 95       	lsr	r24
    8114:	77 95       	ror	r23
    8116:	67 95       	ror	r22
    8118:	b7 95       	ror	r27
    811a:	f7 95       	ror	r31
    811c:	e7 95       	ror	r30
    811e:	9f 5f       	subi	r25, 0xFF	; 255
    8120:	c1 f7       	brne	.-16     	; 0x8112 <__mulsf3_pse+0x8c>
    8122:	fe 2b       	or	r31, r30
    8124:	88 0f       	add	r24, r24
    8126:	91 1d       	adc	r25, r1
    8128:	96 95       	lsr	r25
    812a:	87 95       	ror	r24
    812c:	97 f9       	bld	r25, 7
    812e:	08 95       	ret

00008130 <sin>:
    8130:	9f 93       	push	r25
    8132:	40 de       	rcall	.-896    	; 0x7db4 <__fp_rempio2>
    8134:	0f 90       	pop	r0
    8136:	07 fc       	sbrc	r0, 7
    8138:	ee 5f       	subi	r30, 0xFE	; 254
    813a:	74 ce       	rjmp	.-792    	; 0x7e24 <__fp_sinus>
    813c:	11 f4       	brne	.+4      	; 0x8142 <sin+0x12>
    813e:	0e f4       	brtc	.+2      	; 0x8142 <sin+0x12>
    8140:	02 ce       	rjmp	.-1020   	; 0x7d46 <__fp_nan>
    8142:	f3 cd       	rjmp	.-1050   	; 0x7d2a <__fp_mpack>

00008144 <sqrt>:
    8144:	88 de       	rcall	.-752    	; 0x7e56 <__fp_splitA>
    8146:	d0 f3       	brcs	.-12     	; 0x813c <sin+0xc>
    8148:	99 23       	and	r25, r25
    814a:	d9 f3       	breq	.-10     	; 0x8142 <sin+0x12>
    814c:	ce f3       	brts	.-14     	; 0x8140 <sin+0x10>
    814e:	9f 57       	subi	r25, 0x7F	; 127
    8150:	55 0b       	sbc	r21, r21
    8152:	87 ff       	sbrs	r24, 7
    8154:	43 d0       	rcall	.+134    	; 0x81dc <__fp_norm2>
    8156:	00 24       	eor	r0, r0
    8158:	a0 e6       	ldi	r26, 0x60	; 96
    815a:	40 ea       	ldi	r20, 0xA0	; 160
    815c:	90 01       	movw	r18, r0
    815e:	80 58       	subi	r24, 0x80	; 128
    8160:	56 95       	lsr	r21
    8162:	97 95       	ror	r25
    8164:	28 f4       	brcc	.+10     	; 0x8170 <sqrt+0x2c>
    8166:	80 5c       	subi	r24, 0xC0	; 192
    8168:	66 0f       	add	r22, r22
    816a:	77 1f       	adc	r23, r23
    816c:	88 1f       	adc	r24, r24
    816e:	20 f0       	brcs	.+8      	; 0x8178 <sqrt+0x34>
    8170:	26 17       	cp	r18, r22
    8172:	37 07       	cpc	r19, r23
    8174:	48 07       	cpc	r20, r24
    8176:	30 f4       	brcc	.+12     	; 0x8184 <sqrt+0x40>
    8178:	62 1b       	sub	r22, r18
    817a:	73 0b       	sbc	r23, r19
    817c:	84 0b       	sbc	r24, r20
    817e:	20 29       	or	r18, r0
    8180:	31 29       	or	r19, r1
    8182:	4a 2b       	or	r20, r26
    8184:	a6 95       	lsr	r26
    8186:	17 94       	ror	r1
    8188:	07 94       	ror	r0
    818a:	20 25       	eor	r18, r0
    818c:	31 25       	eor	r19, r1
    818e:	4a 27       	eor	r20, r26
    8190:	58 f7       	brcc	.-42     	; 0x8168 <sqrt+0x24>
    8192:	66 0f       	add	r22, r22
    8194:	77 1f       	adc	r23, r23
    8196:	88 1f       	adc	r24, r24
    8198:	20 f0       	brcs	.+8      	; 0x81a2 <sqrt+0x5e>
    819a:	26 17       	cp	r18, r22
    819c:	37 07       	cpc	r19, r23
    819e:	48 07       	cpc	r20, r24
    81a0:	30 f4       	brcc	.+12     	; 0x81ae <sqrt+0x6a>
    81a2:	62 0b       	sbc	r22, r18
    81a4:	73 0b       	sbc	r23, r19
    81a6:	84 0b       	sbc	r24, r20
    81a8:	20 0d       	add	r18, r0
    81aa:	31 1d       	adc	r19, r1
    81ac:	41 1d       	adc	r20, r1
    81ae:	a0 95       	com	r26
    81b0:	81 f7       	brne	.-32     	; 0x8192 <sqrt+0x4e>
    81b2:	b9 01       	movw	r22, r18
    81b4:	84 2f       	mov	r24, r20
    81b6:	91 58       	subi	r25, 0x81	; 129
    81b8:	88 0f       	add	r24, r24
    81ba:	96 95       	lsr	r25
    81bc:	87 95       	ror	r24
    81be:	08 95       	ret

000081c0 <square>:
    81c0:	9b 01       	movw	r18, r22
    81c2:	ac 01       	movw	r20, r24
    81c4:	52 cf       	rjmp	.-348    	; 0x806a <__mulsf3>

000081c6 <trunc>:
    81c6:	61 de       	rcall	.-830    	; 0x7e8a <__fp_trunc>
    81c8:	20 f0       	brcs	.+8      	; 0x81d2 <trunc+0xc>
    81ca:	9f 37       	cpi	r25, 0x7F	; 127
    81cc:	08 f4       	brcc	.+2      	; 0x81d0 <trunc+0xa>
    81ce:	75 ce       	rjmp	.-790    	; 0x7eba <__fp_szero>
    81d0:	91 cd       	rjmp	.-1246   	; 0x7cf4 <__fp_mintl>
    81d2:	ab cd       	rjmp	.-1194   	; 0x7d2a <__fp_mpack>

000081d4 <__unordsf2>:
    81d4:	65 dd       	rcall	.-1334   	; 0x7ca0 <__fp_cmp>
    81d6:	88 0b       	sbc	r24, r24
    81d8:	99 0b       	sbc	r25, r25
    81da:	08 95       	ret

000081dc <__fp_norm2>:
    81dc:	91 50       	subi	r25, 0x01	; 1
    81de:	50 40       	sbci	r21, 0x00	; 0
    81e0:	66 0f       	add	r22, r22
    81e2:	77 1f       	adc	r23, r23
    81e4:	88 1f       	adc	r24, r24
    81e6:	d2 f7       	brpl	.-12     	; 0x81dc <__fp_norm2>
    81e8:	08 95       	ret

000081ea <__fp_powsodd>:
    81ea:	9f 93       	push	r25
    81ec:	8f 93       	push	r24
    81ee:	7f 93       	push	r23
    81f0:	6f 93       	push	r22
    81f2:	ff 93       	push	r31
    81f4:	ef 93       	push	r30
    81f6:	9b 01       	movw	r18, r22
    81f8:	ac 01       	movw	r20, r24
    81fa:	37 df       	rcall	.-402    	; 0x806a <__mulsf3>
    81fc:	ef 91       	pop	r30
    81fe:	ff 91       	pop	r31
    8200:	a5 dd       	rcall	.-1206   	; 0x7d4c <__fp_powser>
    8202:	2f 91       	pop	r18
    8204:	3f 91       	pop	r19
    8206:	4f 91       	pop	r20
    8208:	5f 91       	pop	r21
    820a:	2f cf       	rjmp	.-418    	; 0x806a <__mulsf3>

0000820c <__mulsi3>:
    820c:	62 9f       	mul	r22, r18
    820e:	d0 01       	movw	r26, r0
    8210:	73 9f       	mul	r23, r19
    8212:	f0 01       	movw	r30, r0
    8214:	82 9f       	mul	r24, r18
    8216:	e0 0d       	add	r30, r0
    8218:	f1 1d       	adc	r31, r1
    821a:	64 9f       	mul	r22, r20
    821c:	e0 0d       	add	r30, r0
    821e:	f1 1d       	adc	r31, r1
    8220:	92 9f       	mul	r25, r18
    8222:	f0 0d       	add	r31, r0
    8224:	83 9f       	mul	r24, r19
    8226:	f0 0d       	add	r31, r0
    8228:	74 9f       	mul	r23, r20
    822a:	f0 0d       	add	r31, r0
    822c:	65 9f       	mul	r22, r21
    822e:	f0 0d       	add	r31, r0
    8230:	99 27       	eor	r25, r25
    8232:	72 9f       	mul	r23, r18
    8234:	b0 0d       	add	r27, r0
    8236:	e1 1d       	adc	r30, r1
    8238:	f9 1f       	adc	r31, r25
    823a:	63 9f       	mul	r22, r19
    823c:	b0 0d       	add	r27, r0
    823e:	e1 1d       	adc	r30, r1
    8240:	f9 1f       	adc	r31, r25
    8242:	bd 01       	movw	r22, r26
    8244:	cf 01       	movw	r24, r30
    8246:	11 24       	eor	r1, r1
    8248:	08 95       	ret

0000824a <__udivmodsi4>:
    824a:	a1 e2       	ldi	r26, 0x21	; 33
    824c:	1a 2e       	mov	r1, r26
    824e:	aa 1b       	sub	r26, r26
    8250:	bb 1b       	sub	r27, r27
    8252:	fd 01       	movw	r30, r26
    8254:	0d c0       	rjmp	.+26     	; 0x8270 <__udivmodsi4_ep>

00008256 <__udivmodsi4_loop>:
    8256:	aa 1f       	adc	r26, r26
    8258:	bb 1f       	adc	r27, r27
    825a:	ee 1f       	adc	r30, r30
    825c:	ff 1f       	adc	r31, r31
    825e:	a2 17       	cp	r26, r18
    8260:	b3 07       	cpc	r27, r19
    8262:	e4 07       	cpc	r30, r20
    8264:	f5 07       	cpc	r31, r21
    8266:	20 f0       	brcs	.+8      	; 0x8270 <__udivmodsi4_ep>
    8268:	a2 1b       	sub	r26, r18
    826a:	b3 0b       	sbc	r27, r19
    826c:	e4 0b       	sbc	r30, r20
    826e:	f5 0b       	sbc	r31, r21

00008270 <__udivmodsi4_ep>:
    8270:	66 1f       	adc	r22, r22
    8272:	77 1f       	adc	r23, r23
    8274:	88 1f       	adc	r24, r24
    8276:	99 1f       	adc	r25, r25
    8278:	1a 94       	dec	r1
    827a:	69 f7       	brne	.-38     	; 0x8256 <__udivmodsi4_loop>
    827c:	60 95       	com	r22
    827e:	70 95       	com	r23
    8280:	80 95       	com	r24
    8282:	90 95       	com	r25
    8284:	9b 01       	movw	r18, r22
    8286:	ac 01       	movw	r20, r24
    8288:	bd 01       	movw	r22, r26
    828a:	cf 01       	movw	r24, r30
    828c:	08 95       	ret

0000828e <__prologue_saves__>:
    828e:	2f 92       	push	r2
    8290:	3f 92       	push	r3
    8292:	4f 92       	push	r4
    8294:	5f 92       	push	r5
    8296:	6f 92       	push	r6
    8298:	7f 92       	push	r7
    829a:	8f 92       	push	r8
    829c:	9f 92       	push	r9
    829e:	af 92       	push	r10
    82a0:	bf 92       	push	r11
    82a2:	cf 92       	push	r12
    82a4:	df 92       	push	r13
    82a6:	ef 92       	push	r14
    82a8:	ff 92       	push	r15
    82aa:	0f 93       	push	r16
    82ac:	1f 93       	push	r17
    82ae:	cf 93       	push	r28
    82b0:	df 93       	push	r29
    82b2:	cd b7       	in	r28, 0x3d	; 61
    82b4:	de b7       	in	r29, 0x3e	; 62
    82b6:	ca 1b       	sub	r28, r26
    82b8:	db 0b       	sbc	r29, r27
    82ba:	0f b6       	in	r0, 0x3f	; 63
    82bc:	f8 94       	cli
    82be:	de bf       	out	0x3e, r29	; 62
    82c0:	0f be       	out	0x3f, r0	; 63
    82c2:	cd bf       	out	0x3d, r28	; 61
    82c4:	19 94       	eijmp

000082c6 <__epilogue_restores__>:
    82c6:	2a 88       	ldd	r2, Y+18	; 0x12
    82c8:	39 88       	ldd	r3, Y+17	; 0x11
    82ca:	48 88       	ldd	r4, Y+16	; 0x10
    82cc:	5f 84       	ldd	r5, Y+15	; 0x0f
    82ce:	6e 84       	ldd	r6, Y+14	; 0x0e
    82d0:	7d 84       	ldd	r7, Y+13	; 0x0d
    82d2:	8c 84       	ldd	r8, Y+12	; 0x0c
    82d4:	9b 84       	ldd	r9, Y+11	; 0x0b
    82d6:	aa 84       	ldd	r10, Y+10	; 0x0a
    82d8:	b9 84       	ldd	r11, Y+9	; 0x09
    82da:	c8 84       	ldd	r12, Y+8	; 0x08
    82dc:	df 80       	ldd	r13, Y+7	; 0x07
    82de:	ee 80       	ldd	r14, Y+6	; 0x06
    82e0:	fd 80       	ldd	r15, Y+5	; 0x05
    82e2:	0c 81       	ldd	r16, Y+4	; 0x04
    82e4:	1b 81       	ldd	r17, Y+3	; 0x03
    82e6:	aa 81       	ldd	r26, Y+2	; 0x02
    82e8:	b9 81       	ldd	r27, Y+1	; 0x01
    82ea:	ce 0f       	add	r28, r30
    82ec:	d1 1d       	adc	r29, r1
    82ee:	0f b6       	in	r0, 0x3f	; 63
    82f0:	f8 94       	cli
    82f2:	de bf       	out	0x3e, r29	; 62
    82f4:	0f be       	out	0x3f, r0	; 63
    82f6:	cd bf       	out	0x3d, r28	; 61
    82f8:	ed 01       	movw	r28, r26
    82fa:	08 95       	ret

000082fc <strtod>:
    82fc:	8f 92       	push	r8
    82fe:	9f 92       	push	r9
    8300:	af 92       	push	r10
    8302:	bf 92       	push	r11
    8304:	cf 92       	push	r12
    8306:	df 92       	push	r13
    8308:	ef 92       	push	r14
    830a:	ff 92       	push	r15
    830c:	0f 93       	push	r16
    830e:	1f 93       	push	r17
    8310:	cf 93       	push	r28
    8312:	df 93       	push	r29
    8314:	ec 01       	movw	r28, r24
    8316:	5b 01       	movw	r10, r22
    8318:	61 15       	cp	r22, r1
    831a:	71 05       	cpc	r23, r1
    831c:	19 f0       	breq	.+6      	; 0x8324 <strtod+0x28>
    831e:	fb 01       	movw	r30, r22
    8320:	80 83       	st	Z, r24
    8322:	91 83       	std	Z+1, r25	; 0x01
    8324:	f9 90       	ld	r15, Y+
    8326:	8f 2d       	mov	r24, r15
    8328:	90 e0       	ldi	r25, 0x00	; 0
    832a:	0e 94 e2 43 	call	0x87c4	; 0x87c4 <isspace>
    832e:	89 2b       	or	r24, r25
    8330:	c9 f7       	brne	.-14     	; 0x8324 <strtod+0x28>
    8332:	fd e2       	ldi	r31, 0x2D	; 45
    8334:	ff 16       	cp	r15, r31
    8336:	21 f4       	brne	.+8      	; 0x8340 <strtod+0x44>
    8338:	f9 90       	ld	r15, Y+
    833a:	ee 24       	eor	r14, r14
    833c:	e3 94       	inc	r14
    833e:	05 c0       	rjmp	.+10     	; 0x834a <strtod+0x4e>
    8340:	2b e2       	ldi	r18, 0x2B	; 43
    8342:	f2 16       	cp	r15, r18
    8344:	09 f4       	brne	.+2      	; 0x8348 <strtod+0x4c>
    8346:	f9 90       	ld	r15, Y+
    8348:	ee 24       	eor	r14, r14
    834a:	8e 01       	movw	r16, r28
    834c:	01 50       	subi	r16, 0x01	; 1
    834e:	10 40       	sbci	r17, 0x00	; 0
    8350:	c8 01       	movw	r24, r16
    8352:	61 e2       	ldi	r22, 0x21	; 33
    8354:	7b e1       	ldi	r23, 0x1B	; 27
    8356:	43 e0       	ldi	r20, 0x03	; 3
    8358:	50 e0       	ldi	r21, 0x00	; 0
    835a:	0e 94 ea 43 	call	0x87d4	; 0x87d4 <strncasecmp_P>
    835e:	89 2b       	or	r24, r25
    8360:	01 f5       	brne	.+64     	; 0x83a2 <strtod+0xa6>
    8362:	8e 01       	movw	r16, r28
    8364:	0e 5f       	subi	r16, 0xFE	; 254
    8366:	1f 4f       	sbci	r17, 0xFF	; 255
    8368:	c8 01       	movw	r24, r16
    836a:	64 e2       	ldi	r22, 0x24	; 36
    836c:	7b e1       	ldi	r23, 0x1B	; 27
    836e:	45 e0       	ldi	r20, 0x05	; 5
    8370:	50 e0       	ldi	r21, 0x00	; 0
    8372:	0e 94 ea 43 	call	0x87d4	; 0x87d4 <strncasecmp_P>
    8376:	89 2b       	or	r24, r25
    8378:	19 f4       	brne	.+6      	; 0x8380 <strtod+0x84>
    837a:	8e 01       	movw	r16, r28
    837c:	09 5f       	subi	r16, 0xF9	; 249
    837e:	1f 4f       	sbci	r17, 0xFF	; 255
    8380:	a1 14       	cp	r10, r1
    8382:	b1 04       	cpc	r11, r1
    8384:	19 f0       	breq	.+6      	; 0x838c <strtod+0x90>
    8386:	f5 01       	movw	r30, r10
    8388:	00 83       	st	Z, r16
    838a:	11 83       	std	Z+1, r17	; 0x01
    838c:	e0 fc       	sbrc	r14, 0
    838e:	04 c0       	rjmp	.+8      	; 0x8398 <strtod+0x9c>
    8390:	70 e0       	ldi	r23, 0x00	; 0
    8392:	90 e0       	ldi	r25, 0x00	; 0
    8394:	80 e8       	ldi	r24, 0x80	; 128
    8396:	14 c0       	rjmp	.+40     	; 0x83c0 <strtod+0xc4>
    8398:	70 e0       	ldi	r23, 0x00	; 0
    839a:	90 e0       	ldi	r25, 0x00	; 0
    839c:	80 e8       	ldi	r24, 0x80	; 128
    839e:	6f ef       	ldi	r22, 0xFF	; 255
    83a0:	08 c1       	rjmp	.+528    	; 0x85b2 <strtod+0x2b6>
    83a2:	c8 01       	movw	r24, r16
    83a4:	69 e2       	ldi	r22, 0x29	; 41
    83a6:	7b e1       	ldi	r23, 0x1B	; 27
    83a8:	43 e0       	ldi	r20, 0x03	; 3
    83aa:	50 e0       	ldi	r21, 0x00	; 0
    83ac:	0e 94 ea 43 	call	0x87d4	; 0x87d4 <strncasecmp_P>
    83b0:	89 2b       	or	r24, r25
    83b2:	69 f4       	brne	.+26     	; 0x83ce <strtod+0xd2>
    83b4:	a1 14       	cp	r10, r1
    83b6:	b1 04       	cpc	r11, r1
    83b8:	29 f4       	brne	.+10     	; 0x83c4 <strtod+0xc8>
    83ba:	70 e0       	ldi	r23, 0x00	; 0
    83bc:	90 e0       	ldi	r25, 0x00	; 0
    83be:	80 ec       	ldi	r24, 0xC0	; 192
    83c0:	6f e7       	ldi	r22, 0x7F	; 127
    83c2:	f7 c0       	rjmp	.+494    	; 0x85b2 <strtod+0x2b6>
    83c4:	22 96       	adiw	r28, 0x02	; 2
    83c6:	f5 01       	movw	r30, r10
    83c8:	c0 83       	st	Z, r28
    83ca:	d1 83       	std	Z+1, r29	; 0x01
    83cc:	f6 cf       	rjmp	.-20     	; 0x83ba <strtod+0xbe>
    83ce:	88 24       	eor	r8, r8
    83d0:	99 24       	eor	r9, r9
    83d2:	40 e0       	ldi	r20, 0x00	; 0
    83d4:	50 e0       	ldi	r21, 0x00	; 0
    83d6:	60 e0       	ldi	r22, 0x00	; 0
    83d8:	70 e0       	ldi	r23, 0x00	; 0
    83da:	ef 2d       	mov	r30, r15
    83dc:	e0 53       	subi	r30, 0x30	; 48
    83de:	ea 30       	cpi	r30, 0x0A	; 10
    83e0:	a0 f5       	brcc	.+104    	; 0x844a <strtod+0x14e>
    83e2:	f2 e0       	ldi	r31, 0x02	; 2
    83e4:	ef 2a       	or	r14, r31
    83e6:	8e 2d       	mov	r24, r14
    83e8:	90 e0       	ldi	r25, 0x00	; 0
    83ea:	9c 01       	movw	r18, r24
    83ec:	28 70       	andi	r18, 0x08	; 8
    83ee:	30 70       	andi	r19, 0x00	; 0
    83f0:	e2 fe       	sbrs	r14, 2
    83f2:	06 c0       	rjmp	.+12     	; 0x8400 <strtod+0x104>
    83f4:	23 2b       	or	r18, r19
    83f6:	79 f5       	brne	.+94     	; 0x8456 <strtod+0x15a>
    83f8:	08 94       	sec
    83fa:	81 1c       	adc	r8, r1
    83fc:	91 1c       	adc	r9, r1
    83fe:	2b c0       	rjmp	.+86     	; 0x8456 <strtod+0x15a>
    8400:	23 2b       	or	r18, r19
    8402:	19 f0       	breq	.+6      	; 0x840a <strtod+0x10e>
    8404:	08 94       	sec
    8406:	81 08       	sbc	r8, r1
    8408:	91 08       	sbc	r9, r1
    840a:	db 01       	movw	r26, r22
    840c:	ca 01       	movw	r24, r20
    840e:	12 e0       	ldi	r17, 0x02	; 2
    8410:	88 0f       	add	r24, r24
    8412:	99 1f       	adc	r25, r25
    8414:	aa 1f       	adc	r26, r26
    8416:	bb 1f       	adc	r27, r27
    8418:	1a 95       	dec	r17
    841a:	d1 f7       	brne	.-12     	; 0x8410 <strtod+0x114>
    841c:	48 0f       	add	r20, r24
    841e:	59 1f       	adc	r21, r25
    8420:	6a 1f       	adc	r22, r26
    8422:	7b 1f       	adc	r23, r27
    8424:	44 0f       	add	r20, r20
    8426:	55 1f       	adc	r21, r21
    8428:	66 1f       	adc	r22, r22
    842a:	77 1f       	adc	r23, r23
    842c:	4e 0f       	add	r20, r30
    842e:	51 1d       	adc	r21, r1
    8430:	61 1d       	adc	r22, r1
    8432:	71 1d       	adc	r23, r1
    8434:	48 39       	cpi	r20, 0x98	; 152
    8436:	29 e9       	ldi	r18, 0x99	; 153
    8438:	52 07       	cpc	r21, r18
    843a:	29 e9       	ldi	r18, 0x99	; 153
    843c:	62 07       	cpc	r22, r18
    843e:	29 e1       	ldi	r18, 0x19	; 25
    8440:	72 07       	cpc	r23, r18
    8442:	48 f0       	brcs	.+18     	; 0x8456 <strtod+0x15a>
    8444:	84 e0       	ldi	r24, 0x04	; 4
    8446:	e8 2a       	or	r14, r24
    8448:	06 c0       	rjmp	.+12     	; 0x8456 <strtod+0x15a>
    844a:	ee 3f       	cpi	r30, 0xFE	; 254
    844c:	31 f4       	brne	.+12     	; 0x845a <strtod+0x15e>
    844e:	e3 fc       	sbrc	r14, 3
    8450:	39 c0       	rjmp	.+114    	; 0x84c4 <strtod+0x1c8>
    8452:	98 e0       	ldi	r25, 0x08	; 8
    8454:	e9 2a       	or	r14, r25
    8456:	f9 90       	ld	r15, Y+
    8458:	c0 cf       	rjmp	.-128    	; 0x83da <strtod+0xde>
    845a:	e5 33       	cpi	r30, 0x35	; 53
    845c:	11 f0       	breq	.+4      	; 0x8462 <strtod+0x166>
    845e:	e5 31       	cpi	r30, 0x15	; 21
    8460:	89 f5       	brne	.+98     	; 0x84c4 <strtod+0x1c8>
    8462:	29 91       	ld	r18, Y+
    8464:	2d 32       	cpi	r18, 0x2D	; 45
    8466:	19 f4       	brne	.+6      	; 0x846e <strtod+0x172>
    8468:	e0 e1       	ldi	r30, 0x10	; 16
    846a:	ee 2a       	or	r14, r30
    846c:	05 c0       	rjmp	.+10     	; 0x8478 <strtod+0x17c>
    846e:	2b 32       	cpi	r18, 0x2B	; 43
    8470:	19 f0       	breq	.+6      	; 0x8478 <strtod+0x17c>
    8472:	81 e0       	ldi	r24, 0x01	; 1
    8474:	90 e0       	ldi	r25, 0x00	; 0
    8476:	03 c0       	rjmp	.+6      	; 0x847e <strtod+0x182>
    8478:	29 91       	ld	r18, Y+
    847a:	82 e0       	ldi	r24, 0x02	; 2
    847c:	90 e0       	ldi	r25, 0x00	; 0
    847e:	e2 2f       	mov	r30, r18
    8480:	e0 53       	subi	r30, 0x30	; 48
    8482:	ea 30       	cpi	r30, 0x0A	; 10
    8484:	18 f0       	brcs	.+6      	; 0x848c <strtod+0x190>
    8486:	c8 1b       	sub	r28, r24
    8488:	d9 0b       	sbc	r29, r25
    848a:	1c c0       	rjmp	.+56     	; 0x84c4 <strtod+0x1c8>
    848c:	20 e0       	ldi	r18, 0x00	; 0
    848e:	30 e0       	ldi	r19, 0x00	; 0
    8490:	fc e0       	ldi	r31, 0x0C	; 12
    8492:	20 38       	cpi	r18, 0x80	; 128
    8494:	3f 07       	cpc	r19, r31
    8496:	5c f4       	brge	.+22     	; 0x84ae <strtod+0x1b2>
    8498:	c9 01       	movw	r24, r18
    849a:	88 0f       	add	r24, r24
    849c:	99 1f       	adc	r25, r25
    849e:	88 0f       	add	r24, r24
    84a0:	99 1f       	adc	r25, r25
    84a2:	28 0f       	add	r18, r24
    84a4:	39 1f       	adc	r19, r25
    84a6:	22 0f       	add	r18, r18
    84a8:	33 1f       	adc	r19, r19
    84aa:	2e 0f       	add	r18, r30
    84ac:	31 1d       	adc	r19, r1
    84ae:	e9 91       	ld	r30, Y+
    84b0:	e0 53       	subi	r30, 0x30	; 48
    84b2:	ea 30       	cpi	r30, 0x0A	; 10
    84b4:	68 f3       	brcs	.-38     	; 0x8490 <strtod+0x194>
    84b6:	e4 fe       	sbrs	r14, 4
    84b8:	03 c0       	rjmp	.+6      	; 0x84c0 <strtod+0x1c4>
    84ba:	30 95       	com	r19
    84bc:	21 95       	neg	r18
    84be:	3f 4f       	sbci	r19, 0xFF	; 255
    84c0:	82 0e       	add	r8, r18
    84c2:	93 1e       	adc	r9, r19
    84c4:	ce 2c       	mov	r12, r14
    84c6:	dd 24       	eor	r13, r13
    84c8:	e1 fe       	sbrs	r14, 1
    84ca:	07 c0       	rjmp	.+14     	; 0x84da <strtod+0x1de>
    84cc:	a1 14       	cp	r10, r1
    84ce:	b1 04       	cpc	r11, r1
    84d0:	21 f0       	breq	.+8      	; 0x84da <strtod+0x1de>
    84d2:	21 97       	sbiw	r28, 0x01	; 1
    84d4:	f5 01       	movw	r30, r10
    84d6:	c0 83       	st	Z, r28
    84d8:	d1 83       	std	Z+1, r29	; 0x01
    84da:	cb 01       	movw	r24, r22
    84dc:	ba 01       	movw	r22, r20
    84de:	0e 94 13 3e 	call	0x7c26	; 0x7c26 <__floatunsisf>
    84e2:	7b 01       	movw	r14, r22
    84e4:	8c 01       	movw	r16, r24
    84e6:	f3 e0       	ldi	r31, 0x03	; 3
    84e8:	cf 22       	and	r12, r31
    84ea:	dd 24       	eor	r13, r13
    84ec:	23 e0       	ldi	r18, 0x03	; 3
    84ee:	c2 16       	cp	r12, r18
    84f0:	d1 04       	cpc	r13, r1
    84f2:	21 f4       	brne	.+8      	; 0x84fc <strtod+0x200>
    84f4:	17 fb       	bst	r17, 7
    84f6:	10 95       	com	r17
    84f8:	17 f9       	bld	r17, 7
    84fa:	10 95       	com	r17
    84fc:	57 01       	movw	r10, r14
    84fe:	68 01       	movw	r12, r16
    8500:	c8 01       	movw	r24, r16
    8502:	b7 01       	movw	r22, r14
    8504:	20 e0       	ldi	r18, 0x00	; 0
    8506:	30 e0       	ldi	r19, 0x00	; 0
    8508:	40 e0       	ldi	r20, 0x00	; 0
    850a:	50 e0       	ldi	r21, 0x00	; 0
    850c:	0e 94 73 3d 	call	0x7ae6	; 0x7ae6 <__cmpsf2>
    8510:	88 23       	and	r24, r24
    8512:	09 f4       	brne	.+2      	; 0x8516 <strtod+0x21a>
    8514:	4a c0       	rjmp	.+148    	; 0x85aa <strtod+0x2ae>
    8516:	97 fe       	sbrs	r9, 7
    8518:	0d c0       	rjmp	.+26     	; 0x8534 <strtod+0x238>
    851a:	20 e4       	ldi	r18, 0x40	; 64
    851c:	e2 2e       	mov	r14, r18
    851e:	2b e1       	ldi	r18, 0x1B	; 27
    8520:	f2 2e       	mov	r15, r18
    8522:	90 94       	com	r9
    8524:	81 94       	neg	r8
    8526:	91 08       	sbc	r9, r1
    8528:	93 94       	inc	r9
    852a:	c0 e2       	ldi	r28, 0x20	; 32
    852c:	d0 e0       	ldi	r29, 0x00	; 0
    852e:	00 e0       	ldi	r16, 0x00	; 0
    8530:	10 e0       	ldi	r17, 0x00	; 0
    8532:	12 c0       	rjmp	.+36     	; 0x8558 <strtod+0x25c>
    8534:	98 e5       	ldi	r25, 0x58	; 88
    8536:	e9 2e       	mov	r14, r25
    8538:	9b e1       	ldi	r25, 0x1B	; 27
    853a:	f9 2e       	mov	r15, r25
    853c:	f6 cf       	rjmp	.-20     	; 0x852a <strtod+0x22e>
    853e:	f7 01       	movw	r30, r14
    8540:	25 91       	lpm	r18, Z+
    8542:	35 91       	lpm	r19, Z+
    8544:	45 91       	lpm	r20, Z+
    8546:	54 91       	lpm	r21, Z+
    8548:	c6 01       	movw	r24, r12
    854a:	b5 01       	movw	r22, r10
    854c:	0e 94 35 40 	call	0x806a	; 0x806a <__mulsf3>
    8550:	5b 01       	movw	r10, r22
    8552:	6c 01       	movw	r12, r24
    8554:	8c 1a       	sub	r8, r28
    8556:	9d 0a       	sbc	r9, r29
    8558:	8c 16       	cp	r8, r28
    855a:	9d 06       	cpc	r9, r29
    855c:	84 f7       	brge	.-32     	; 0x853e <strtod+0x242>
    855e:	d5 95       	asr	r29
    8560:	c7 95       	ror	r28
    8562:	0f 5f       	subi	r16, 0xFF	; 255
    8564:	1f 4f       	sbci	r17, 0xFF	; 255
    8566:	06 30       	cpi	r16, 0x06	; 6
    8568:	11 05       	cpc	r17, r1
    856a:	29 f0       	breq	.+10     	; 0x8576 <strtod+0x27a>
    856c:	8c ef       	ldi	r24, 0xFC	; 252
    856e:	9f ef       	ldi	r25, 0xFF	; 255
    8570:	e8 0e       	add	r14, r24
    8572:	f9 1e       	adc	r15, r25
    8574:	f1 cf       	rjmp	.-30     	; 0x8558 <strtod+0x25c>
    8576:	c5 01       	movw	r24, r10
    8578:	d6 01       	movw	r26, r12
    857a:	7c 01       	movw	r14, r24
    857c:	8d 01       	movw	r16, r26
    857e:	8c 2d       	mov	r24, r12
    8580:	88 0f       	add	r24, r24
    8582:	8d 2d       	mov	r24, r13
    8584:	88 1f       	adc	r24, r24
    8586:	8f 3f       	cpi	r24, 0xFF	; 255
    8588:	51 f0       	breq	.+20     	; 0x859e <strtod+0x2a2>
    858a:	c6 01       	movw	r24, r12
    858c:	b5 01       	movw	r22, r10
    858e:	20 e0       	ldi	r18, 0x00	; 0
    8590:	30 e0       	ldi	r19, 0x00	; 0
    8592:	40 e0       	ldi	r20, 0x00	; 0
    8594:	50 e0       	ldi	r21, 0x00	; 0
    8596:	0e 94 73 3d 	call	0x7ae6	; 0x7ae6 <__cmpsf2>
    859a:	88 23       	and	r24, r24
    859c:	31 f4       	brne	.+12     	; 0x85aa <strtod+0x2ae>
    859e:	82 e2       	ldi	r24, 0x22	; 34
    85a0:	90 e0       	ldi	r25, 0x00	; 0
    85a2:	80 93 12 25 	sts	0x2512, r24
    85a6:	90 93 13 25 	sts	0x2513, r25
    85aa:	7e 2d       	mov	r23, r14
    85ac:	9f 2d       	mov	r25, r15
    85ae:	80 2f       	mov	r24, r16
    85b0:	61 2f       	mov	r22, r17
    85b2:	27 2f       	mov	r18, r23
    85b4:	39 2f       	mov	r19, r25
    85b6:	48 2f       	mov	r20, r24
    85b8:	56 2f       	mov	r21, r22
    85ba:	b9 01       	movw	r22, r18
    85bc:	ca 01       	movw	r24, r20
    85be:	df 91       	pop	r29
    85c0:	cf 91       	pop	r28
    85c2:	1f 91       	pop	r17
    85c4:	0f 91       	pop	r16
    85c6:	ff 90       	pop	r15
    85c8:	ef 90       	pop	r14
    85ca:	df 90       	pop	r13
    85cc:	cf 90       	pop	r12
    85ce:	bf 90       	pop	r11
    85d0:	af 90       	pop	r10
    85d2:	9f 90       	pop	r9
    85d4:	8f 90       	pop	r8
    85d6:	08 95       	ret

000085d8 <atoi>:
    85d8:	fc 01       	movw	r30, r24
    85da:	88 27       	eor	r24, r24
    85dc:	99 27       	eor	r25, r25
    85de:	e8 94       	clt
    85e0:	21 91       	ld	r18, Z+
    85e2:	20 32       	cpi	r18, 0x20	; 32
    85e4:	e9 f3       	breq	.-6      	; 0x85e0 <atoi+0x8>
    85e6:	29 30       	cpi	r18, 0x09	; 9
    85e8:	10 f0       	brcs	.+4      	; 0x85ee <atoi+0x16>
    85ea:	2e 30       	cpi	r18, 0x0E	; 14
    85ec:	c8 f3       	brcs	.-14     	; 0x85e0 <atoi+0x8>
    85ee:	2b 32       	cpi	r18, 0x2B	; 43
    85f0:	41 f0       	breq	.+16     	; 0x8602 <atoi+0x2a>
    85f2:	2d 32       	cpi	r18, 0x2D	; 45
    85f4:	39 f4       	brne	.+14     	; 0x8604 <atoi+0x2c>
    85f6:	68 94       	set
    85f8:	04 c0       	rjmp	.+8      	; 0x8602 <atoi+0x2a>
    85fa:	0e 94 18 44 	call	0x8830	; 0x8830 <__mulhi_const_10>
    85fe:	82 0f       	add	r24, r18
    8600:	91 1d       	adc	r25, r1
    8602:	21 91       	ld	r18, Z+
    8604:	20 53       	subi	r18, 0x30	; 48
    8606:	2a 30       	cpi	r18, 0x0A	; 10
    8608:	c0 f3       	brcs	.-16     	; 0x85fa <atoi+0x22>
    860a:	1e f4       	brtc	.+6      	; 0x8612 <atoi+0x3a>
    860c:	90 95       	com	r25
    860e:	81 95       	neg	r24
    8610:	9f 4f       	sbci	r25, 0xFF	; 255
    8612:	08 95       	ret

00008614 <__ftoa_engine>:
    8614:	28 30       	cpi	r18, 0x08	; 8
    8616:	08 f0       	brcs	.+2      	; 0x861a <__ftoa_engine+0x6>
    8618:	27 e0       	ldi	r18, 0x07	; 7
    861a:	33 27       	eor	r19, r19
    861c:	da 01       	movw	r26, r20
    861e:	99 0f       	add	r25, r25
    8620:	31 1d       	adc	r19, r1
    8622:	87 fd       	sbrc	r24, 7
    8624:	91 60       	ori	r25, 0x01	; 1
    8626:	00 96       	adiw	r24, 0x00	; 0
    8628:	61 05       	cpc	r22, r1
    862a:	71 05       	cpc	r23, r1
    862c:	39 f4       	brne	.+14     	; 0x863c <__ftoa_engine+0x28>
    862e:	32 60       	ori	r19, 0x02	; 2
    8630:	2e 5f       	subi	r18, 0xFE	; 254
    8632:	3d 93       	st	X+, r19
    8634:	30 e3       	ldi	r19, 0x30	; 48
    8636:	2a 95       	dec	r18
    8638:	e1 f7       	brne	.-8      	; 0x8632 <__ftoa_engine+0x1e>
    863a:	08 95       	ret
    863c:	9f 3f       	cpi	r25, 0xFF	; 255
    863e:	30 f0       	brcs	.+12     	; 0x864c <__ftoa_engine+0x38>
    8640:	80 38       	cpi	r24, 0x80	; 128
    8642:	71 05       	cpc	r23, r1
    8644:	61 05       	cpc	r22, r1
    8646:	09 f0       	breq	.+2      	; 0x864a <__ftoa_engine+0x36>
    8648:	3c 5f       	subi	r19, 0xFC	; 252
    864a:	3c 5f       	subi	r19, 0xFC	; 252
    864c:	3d 93       	st	X+, r19
    864e:	91 30       	cpi	r25, 0x01	; 1
    8650:	08 f0       	brcs	.+2      	; 0x8654 <__ftoa_engine+0x40>
    8652:	80 68       	ori	r24, 0x80	; 128
    8654:	91 1d       	adc	r25, r1
    8656:	df 93       	push	r29
    8658:	cf 93       	push	r28
    865a:	1f 93       	push	r17
    865c:	0f 93       	push	r16
    865e:	ff 92       	push	r15
    8660:	ef 92       	push	r14
    8662:	19 2f       	mov	r17, r25
    8664:	98 7f       	andi	r25, 0xF8	; 248
    8666:	96 95       	lsr	r25
    8668:	e9 2f       	mov	r30, r25
    866a:	96 95       	lsr	r25
    866c:	96 95       	lsr	r25
    866e:	e9 0f       	add	r30, r25
    8670:	ff 27       	eor	r31, r31
    8672:	ea 54       	subi	r30, 0x4A	; 74
    8674:	f4 4e       	sbci	r31, 0xE4	; 228
    8676:	99 27       	eor	r25, r25
    8678:	33 27       	eor	r19, r19
    867a:	ee 24       	eor	r14, r14
    867c:	ff 24       	eor	r15, r15
    867e:	a7 01       	movw	r20, r14
    8680:	e7 01       	movw	r28, r14
    8682:	05 90       	lpm	r0, Z+
    8684:	08 94       	sec
    8686:	07 94       	ror	r0
    8688:	28 f4       	brcc	.+10     	; 0x8694 <__ftoa_engine+0x80>
    868a:	36 0f       	add	r19, r22
    868c:	e7 1e       	adc	r14, r23
    868e:	f8 1e       	adc	r15, r24
    8690:	49 1f       	adc	r20, r25
    8692:	51 1d       	adc	r21, r1
    8694:	66 0f       	add	r22, r22
    8696:	77 1f       	adc	r23, r23
    8698:	88 1f       	adc	r24, r24
    869a:	99 1f       	adc	r25, r25
    869c:	06 94       	lsr	r0
    869e:	a1 f7       	brne	.-24     	; 0x8688 <__ftoa_engine+0x74>
    86a0:	05 90       	lpm	r0, Z+
    86a2:	07 94       	ror	r0
    86a4:	28 f4       	brcc	.+10     	; 0x86b0 <__ftoa_engine+0x9c>
    86a6:	e7 0e       	add	r14, r23
    86a8:	f8 1e       	adc	r15, r24
    86aa:	49 1f       	adc	r20, r25
    86ac:	56 1f       	adc	r21, r22
    86ae:	c1 1d       	adc	r28, r1
    86b0:	77 0f       	add	r23, r23
    86b2:	88 1f       	adc	r24, r24
    86b4:	99 1f       	adc	r25, r25
    86b6:	66 1f       	adc	r22, r22
    86b8:	06 94       	lsr	r0
    86ba:	a1 f7       	brne	.-24     	; 0x86a4 <__ftoa_engine+0x90>
    86bc:	05 90       	lpm	r0, Z+
    86be:	07 94       	ror	r0
    86c0:	28 f4       	brcc	.+10     	; 0x86cc <__ftoa_engine+0xb8>
    86c2:	f8 0e       	add	r15, r24
    86c4:	49 1f       	adc	r20, r25
    86c6:	56 1f       	adc	r21, r22
    86c8:	c7 1f       	adc	r28, r23
    86ca:	d1 1d       	adc	r29, r1
    86cc:	88 0f       	add	r24, r24
    86ce:	99 1f       	adc	r25, r25
    86d0:	66 1f       	adc	r22, r22
    86d2:	77 1f       	adc	r23, r23
    86d4:	06 94       	lsr	r0
    86d6:	a1 f7       	brne	.-24     	; 0x86c0 <__ftoa_engine+0xac>
    86d8:	05 90       	lpm	r0, Z+
    86da:	07 94       	ror	r0
    86dc:	20 f4       	brcc	.+8      	; 0x86e6 <__ftoa_engine+0xd2>
    86de:	49 0f       	add	r20, r25
    86e0:	56 1f       	adc	r21, r22
    86e2:	c7 1f       	adc	r28, r23
    86e4:	d8 1f       	adc	r29, r24
    86e6:	99 0f       	add	r25, r25
    86e8:	66 1f       	adc	r22, r22
    86ea:	77 1f       	adc	r23, r23
    86ec:	88 1f       	adc	r24, r24
    86ee:	06 94       	lsr	r0
    86f0:	a9 f7       	brne	.-22     	; 0x86dc <__ftoa_engine+0xc8>
    86f2:	84 91       	lpm	r24, Z+
    86f4:	10 95       	com	r17
    86f6:	17 70       	andi	r17, 0x07	; 7
    86f8:	41 f0       	breq	.+16     	; 0x870a <__ftoa_engine+0xf6>
    86fa:	d6 95       	lsr	r29
    86fc:	c7 95       	ror	r28
    86fe:	57 95       	ror	r21
    8700:	47 95       	ror	r20
    8702:	f7 94       	ror	r15
    8704:	e7 94       	ror	r14
    8706:	1a 95       	dec	r17
    8708:	c1 f7       	brne	.-16     	; 0x86fa <__ftoa_engine+0xe6>
    870a:	ec e5       	ldi	r30, 0x5C	; 92
    870c:	fb e1       	ldi	r31, 0x1B	; 27
    870e:	68 94       	set
    8710:	15 90       	lpm	r1, Z+
    8712:	15 91       	lpm	r17, Z+
    8714:	35 91       	lpm	r19, Z+
    8716:	65 91       	lpm	r22, Z+
    8718:	95 91       	lpm	r25, Z+
    871a:	05 90       	lpm	r0, Z+
    871c:	7f e2       	ldi	r23, 0x2F	; 47
    871e:	73 95       	inc	r23
    8720:	e1 18       	sub	r14, r1
    8722:	f1 0a       	sbc	r15, r17
    8724:	43 0b       	sbc	r20, r19
    8726:	56 0b       	sbc	r21, r22
    8728:	c9 0b       	sbc	r28, r25
    872a:	d0 09       	sbc	r29, r0
    872c:	c0 f7       	brcc	.-16     	; 0x871e <__ftoa_engine+0x10a>
    872e:	e1 0c       	add	r14, r1
    8730:	f1 1e       	adc	r15, r17
    8732:	43 1f       	adc	r20, r19
    8734:	56 1f       	adc	r21, r22
    8736:	c9 1f       	adc	r28, r25
    8738:	d0 1d       	adc	r29, r0
    873a:	7e f4       	brtc	.+30     	; 0x875a <__ftoa_engine+0x146>
    873c:	70 33       	cpi	r23, 0x30	; 48
    873e:	11 f4       	brne	.+4      	; 0x8744 <__ftoa_engine+0x130>
    8740:	8a 95       	dec	r24
    8742:	e6 cf       	rjmp	.-52     	; 0x8710 <__ftoa_engine+0xfc>
    8744:	e8 94       	clt
    8746:	01 50       	subi	r16, 0x01	; 1
    8748:	30 f0       	brcs	.+12     	; 0x8756 <__ftoa_engine+0x142>
    874a:	08 0f       	add	r16, r24
    874c:	0a f4       	brpl	.+2      	; 0x8750 <__ftoa_engine+0x13c>
    874e:	00 27       	eor	r16, r16
    8750:	02 17       	cp	r16, r18
    8752:	08 f4       	brcc	.+2      	; 0x8756 <__ftoa_engine+0x142>
    8754:	20 2f       	mov	r18, r16
    8756:	23 95       	inc	r18
    8758:	02 2f       	mov	r16, r18
    875a:	7a 33       	cpi	r23, 0x3A	; 58
    875c:	28 f0       	brcs	.+10     	; 0x8768 <__ftoa_engine+0x154>
    875e:	79 e3       	ldi	r23, 0x39	; 57
    8760:	7d 93       	st	X+, r23
    8762:	2a 95       	dec	r18
    8764:	e9 f7       	brne	.-6      	; 0x8760 <__ftoa_engine+0x14c>
    8766:	10 c0       	rjmp	.+32     	; 0x8788 <__ftoa_engine+0x174>
    8768:	7d 93       	st	X+, r23
    876a:	2a 95       	dec	r18
    876c:	89 f6       	brne	.-94     	; 0x8710 <__ftoa_engine+0xfc>
    876e:	06 94       	lsr	r0
    8770:	97 95       	ror	r25
    8772:	67 95       	ror	r22
    8774:	37 95       	ror	r19
    8776:	17 95       	ror	r17
    8778:	17 94       	ror	r1
    877a:	e1 18       	sub	r14, r1
    877c:	f1 0a       	sbc	r15, r17
    877e:	43 0b       	sbc	r20, r19
    8780:	56 0b       	sbc	r21, r22
    8782:	c9 0b       	sbc	r28, r25
    8784:	d0 09       	sbc	r29, r0
    8786:	98 f0       	brcs	.+38     	; 0x87ae <__ftoa_engine+0x19a>
    8788:	23 95       	inc	r18
    878a:	7e 91       	ld	r23, -X
    878c:	73 95       	inc	r23
    878e:	7a 33       	cpi	r23, 0x3A	; 58
    8790:	08 f0       	brcs	.+2      	; 0x8794 <__ftoa_engine+0x180>
    8792:	70 e3       	ldi	r23, 0x30	; 48
    8794:	7c 93       	st	X, r23
    8796:	20 13       	cpse	r18, r16
    8798:	b8 f7       	brcc	.-18     	; 0x8788 <__ftoa_engine+0x174>
    879a:	7e 91       	ld	r23, -X
    879c:	70 61       	ori	r23, 0x10	; 16
    879e:	7d 93       	st	X+, r23
    87a0:	30 f0       	brcs	.+12     	; 0x87ae <__ftoa_engine+0x19a>
    87a2:	83 95       	inc	r24
    87a4:	71 e3       	ldi	r23, 0x31	; 49
    87a6:	7d 93       	st	X+, r23
    87a8:	70 e3       	ldi	r23, 0x30	; 48
    87aa:	2a 95       	dec	r18
    87ac:	e1 f7       	brne	.-8      	; 0x87a6 <__ftoa_engine+0x192>
    87ae:	11 24       	eor	r1, r1
    87b0:	ef 90       	pop	r14
    87b2:	ff 90       	pop	r15
    87b4:	0f 91       	pop	r16
    87b6:	1f 91       	pop	r17
    87b8:	cf 91       	pop	r28
    87ba:	df 91       	pop	r29
    87bc:	99 27       	eor	r25, r25
    87be:	87 fd       	sbrc	r24, 7
    87c0:	90 95       	com	r25
    87c2:	08 95       	ret

000087c4 <isspace>:
    87c4:	91 11       	cpse	r25, r1
    87c6:	21 c1       	rjmp	.+578    	; 0x8a0a <__ctype_isfalse>
    87c8:	80 32       	cpi	r24, 0x20	; 32
    87ca:	19 f0       	breq	.+6      	; 0x87d2 <isspace+0xe>
    87cc:	89 50       	subi	r24, 0x09	; 9
    87ce:	85 50       	subi	r24, 0x05	; 5
    87d0:	d0 f7       	brcc	.-12     	; 0x87c6 <isspace+0x2>
    87d2:	08 95       	ret

000087d4 <strncasecmp_P>:
    87d4:	fb 01       	movw	r30, r22
    87d6:	dc 01       	movw	r26, r24
    87d8:	41 50       	subi	r20, 0x01	; 1
    87da:	50 40       	sbci	r21, 0x00	; 0
    87dc:	88 f0       	brcs	.+34     	; 0x8800 <strncasecmp_P+0x2c>
    87de:	8d 91       	ld	r24, X+
    87e0:	81 34       	cpi	r24, 0x41	; 65
    87e2:	1c f0       	brlt	.+6      	; 0x87ea <strncasecmp_P+0x16>
    87e4:	8b 35       	cpi	r24, 0x5B	; 91
    87e6:	0c f4       	brge	.+2      	; 0x87ea <strncasecmp_P+0x16>
    87e8:	80 5e       	subi	r24, 0xE0	; 224
    87ea:	65 91       	lpm	r22, Z+
    87ec:	61 34       	cpi	r22, 0x41	; 65
    87ee:	1c f0       	brlt	.+6      	; 0x87f6 <strncasecmp_P+0x22>
    87f0:	6b 35       	cpi	r22, 0x5B	; 91
    87f2:	0c f4       	brge	.+2      	; 0x87f6 <strncasecmp_P+0x22>
    87f4:	60 5e       	subi	r22, 0xE0	; 224
    87f6:	86 1b       	sub	r24, r22
    87f8:	61 11       	cpse	r22, r1
    87fa:	71 f3       	breq	.-36     	; 0x87d8 <strncasecmp_P+0x4>
    87fc:	99 0b       	sbc	r25, r25
    87fe:	08 95       	ret
    8800:	88 1b       	sub	r24, r24
    8802:	fc cf       	rjmp	.-8      	; 0x87fc <strncasecmp_P+0x28>

00008804 <strnlen_P>:
    8804:	fc 01       	movw	r30, r24
    8806:	05 90       	lpm	r0, Z+
    8808:	61 50       	subi	r22, 0x01	; 1
    880a:	70 40       	sbci	r23, 0x00	; 0
    880c:	01 10       	cpse	r0, r1
    880e:	d8 f7       	brcc	.-10     	; 0x8806 <strnlen_P+0x2>
    8810:	80 95       	com	r24
    8812:	90 95       	com	r25
    8814:	8e 0f       	add	r24, r30
    8816:	9f 1f       	adc	r25, r31
    8818:	08 95       	ret

0000881a <strnlen>:
    881a:	fc 01       	movw	r30, r24
    881c:	61 50       	subi	r22, 0x01	; 1
    881e:	70 40       	sbci	r23, 0x00	; 0
    8820:	01 90       	ld	r0, Z+
    8822:	01 10       	cpse	r0, r1
    8824:	d8 f7       	brcc	.-10     	; 0x881c <strnlen+0x2>
    8826:	80 95       	com	r24
    8828:	90 95       	com	r25
    882a:	8e 0f       	add	r24, r30
    882c:	9f 1f       	adc	r25, r31
    882e:	08 95       	ret

00008830 <__mulhi_const_10>:
    8830:	7a e0       	ldi	r23, 0x0A	; 10
    8832:	97 9f       	mul	r25, r23
    8834:	90 2d       	mov	r25, r0
    8836:	87 9f       	mul	r24, r23
    8838:	80 2d       	mov	r24, r0
    883a:	91 0d       	add	r25, r1
    883c:	11 24       	eor	r1, r1
    883e:	08 95       	ret

00008840 <clearerr>:
    8840:	fc 01       	movw	r30, r24
    8842:	83 81       	ldd	r24, Z+3	; 0x03
    8844:	8f 7c       	andi	r24, 0xCF	; 207
    8846:	83 83       	std	Z+3, r24	; 0x03
    8848:	08 95       	ret

0000884a <fgets>:
    884a:	cf 92       	push	r12
    884c:	df 92       	push	r13
    884e:	ef 92       	push	r14
    8850:	ff 92       	push	r15
    8852:	0f 93       	push	r16
    8854:	1f 93       	push	r17
    8856:	cf 93       	push	r28
    8858:	df 93       	push	r29
    885a:	7c 01       	movw	r14, r24
    885c:	6a 01       	movw	r12, r20
    885e:	fa 01       	movw	r30, r20
    8860:	83 81       	ldd	r24, Z+3	; 0x03
    8862:	80 ff       	sbrs	r24, 0
    8864:	19 c0       	rjmp	.+50     	; 0x8898 <fgets+0x4e>
    8866:	16 16       	cp	r1, r22
    8868:	17 06       	cpc	r1, r23
    886a:	b4 f4       	brge	.+44     	; 0x8898 <fgets+0x4e>
    886c:	eb 01       	movw	r28, r22
    886e:	21 97       	sbiw	r28, 0x01	; 1
    8870:	87 01       	movw	r16, r14
    8872:	0d c0       	rjmp	.+26     	; 0x888e <fgets+0x44>
    8874:	c6 01       	movw	r24, r12
    8876:	0e 94 08 45 	call	0x8a10	; 0x8a10 <fgetc>
    887a:	ff ef       	ldi	r31, 0xFF	; 255
    887c:	8f 3f       	cpi	r24, 0xFF	; 255
    887e:	9f 07       	cpc	r25, r31
    8880:	59 f0       	breq	.+22     	; 0x8898 <fgets+0x4e>
    8882:	f8 01       	movw	r30, r16
    8884:	81 93       	st	Z+, r24
    8886:	8f 01       	movw	r16, r30
    8888:	0a 97       	sbiw	r24, 0x0a	; 10
    888a:	19 f0       	breq	.+6      	; 0x8892 <fgets+0x48>
    888c:	21 97       	sbiw	r28, 0x01	; 1
    888e:	20 97       	sbiw	r28, 0x00	; 0
    8890:	89 f7       	brne	.-30     	; 0x8874 <fgets+0x2a>
    8892:	f8 01       	movw	r30, r16
    8894:	10 82       	st	Z, r1
    8896:	02 c0       	rjmp	.+4      	; 0x889c <fgets+0x52>
    8898:	ee 24       	eor	r14, r14
    889a:	ff 24       	eor	r15, r15
    889c:	c7 01       	movw	r24, r14
    889e:	df 91       	pop	r29
    88a0:	cf 91       	pop	r28
    88a2:	1f 91       	pop	r17
    88a4:	0f 91       	pop	r16
    88a6:	ff 90       	pop	r15
    88a8:	ef 90       	pop	r14
    88aa:	df 90       	pop	r13
    88ac:	cf 90       	pop	r12
    88ae:	08 95       	ret

000088b0 <fputc>:
    88b0:	0f 93       	push	r16
    88b2:	1f 93       	push	r17
    88b4:	cf 93       	push	r28
    88b6:	df 93       	push	r29
    88b8:	8c 01       	movw	r16, r24
    88ba:	eb 01       	movw	r28, r22
    88bc:	8b 81       	ldd	r24, Y+3	; 0x03
    88be:	81 ff       	sbrs	r24, 1
    88c0:	1b c0       	rjmp	.+54     	; 0x88f8 <fputc+0x48>
    88c2:	82 ff       	sbrs	r24, 2
    88c4:	0d c0       	rjmp	.+26     	; 0x88e0 <fputc+0x30>
    88c6:	2e 81       	ldd	r18, Y+6	; 0x06
    88c8:	3f 81       	ldd	r19, Y+7	; 0x07
    88ca:	8c 81       	ldd	r24, Y+4	; 0x04
    88cc:	9d 81       	ldd	r25, Y+5	; 0x05
    88ce:	28 17       	cp	r18, r24
    88d0:	39 07       	cpc	r19, r25
    88d2:	64 f4       	brge	.+24     	; 0x88ec <fputc+0x3c>
    88d4:	e8 81       	ld	r30, Y
    88d6:	f9 81       	ldd	r31, Y+1	; 0x01
    88d8:	01 93       	st	Z+, r16
    88da:	e8 83       	st	Y, r30
    88dc:	f9 83       	std	Y+1, r31	; 0x01
    88de:	06 c0       	rjmp	.+12     	; 0x88ec <fputc+0x3c>
    88e0:	e8 85       	ldd	r30, Y+8	; 0x08
    88e2:	f9 85       	ldd	r31, Y+9	; 0x09
    88e4:	80 2f       	mov	r24, r16
    88e6:	19 95       	eicall
    88e8:	89 2b       	or	r24, r25
    88ea:	31 f4       	brne	.+12     	; 0x88f8 <fputc+0x48>
    88ec:	8e 81       	ldd	r24, Y+6	; 0x06
    88ee:	9f 81       	ldd	r25, Y+7	; 0x07
    88f0:	01 96       	adiw	r24, 0x01	; 1
    88f2:	8e 83       	std	Y+6, r24	; 0x06
    88f4:	9f 83       	std	Y+7, r25	; 0x07
    88f6:	02 c0       	rjmp	.+4      	; 0x88fc <fputc+0x4c>
    88f8:	0f ef       	ldi	r16, 0xFF	; 255
    88fa:	1f ef       	ldi	r17, 0xFF	; 255
    88fc:	c8 01       	movw	r24, r16
    88fe:	df 91       	pop	r29
    8900:	cf 91       	pop	r28
    8902:	1f 91       	pop	r17
    8904:	0f 91       	pop	r16
    8906:	08 95       	ret

00008908 <printf_P>:
    8908:	df 93       	push	r29
    890a:	cf 93       	push	r28
    890c:	cd b7       	in	r28, 0x3d	; 61
    890e:	de b7       	in	r29, 0x3e	; 62
    8910:	fe 01       	movw	r30, r28
    8912:	36 96       	adiw	r30, 0x06	; 6
    8914:	61 91       	ld	r22, Z+
    8916:	71 91       	ld	r23, Z+
    8918:	a0 91 0e 25 	lds	r26, 0x250E
    891c:	b0 91 0f 25 	lds	r27, 0x250F
    8920:	13 96       	adiw	r26, 0x03	; 3
    8922:	8c 91       	ld	r24, X
    8924:	13 97       	sbiw	r26, 0x03	; 3
    8926:	88 60       	ori	r24, 0x08	; 8
    8928:	13 96       	adiw	r26, 0x03	; 3
    892a:	8c 93       	st	X, r24
    892c:	80 91 0e 25 	lds	r24, 0x250E
    8930:	90 91 0f 25 	lds	r25, 0x250F
    8934:	af 01       	movw	r20, r30
    8936:	0e 94 29 39 	call	0x7252	; 0x7252 <vfprintf>
    893a:	e0 91 0e 25 	lds	r30, 0x250E
    893e:	f0 91 0f 25 	lds	r31, 0x250F
    8942:	23 81       	ldd	r18, Z+3	; 0x03
    8944:	27 7f       	andi	r18, 0xF7	; 247
    8946:	23 83       	std	Z+3, r18	; 0x03
    8948:	cf 91       	pop	r28
    894a:	df 91       	pop	r29
    894c:	08 95       	ret

0000894e <__ultoa_invert>:
    894e:	fa 01       	movw	r30, r20
    8950:	aa 27       	eor	r26, r26
    8952:	28 30       	cpi	r18, 0x08	; 8
    8954:	51 f1       	breq	.+84     	; 0x89aa <__ultoa_invert+0x5c>
    8956:	20 31       	cpi	r18, 0x10	; 16
    8958:	81 f1       	breq	.+96     	; 0x89ba <__ultoa_invert+0x6c>
    895a:	e8 94       	clt
    895c:	6f 93       	push	r22
    895e:	6e 7f       	andi	r22, 0xFE	; 254
    8960:	6e 5f       	subi	r22, 0xFE	; 254
    8962:	7f 4f       	sbci	r23, 0xFF	; 255
    8964:	8f 4f       	sbci	r24, 0xFF	; 255
    8966:	9f 4f       	sbci	r25, 0xFF	; 255
    8968:	af 4f       	sbci	r26, 0xFF	; 255
    896a:	b1 e0       	ldi	r27, 0x01	; 1
    896c:	3e d0       	rcall	.+124    	; 0x89ea <__ultoa_invert+0x9c>
    896e:	b4 e0       	ldi	r27, 0x04	; 4
    8970:	3c d0       	rcall	.+120    	; 0x89ea <__ultoa_invert+0x9c>
    8972:	67 0f       	add	r22, r23
    8974:	78 1f       	adc	r23, r24
    8976:	89 1f       	adc	r24, r25
    8978:	9a 1f       	adc	r25, r26
    897a:	a1 1d       	adc	r26, r1
    897c:	68 0f       	add	r22, r24
    897e:	79 1f       	adc	r23, r25
    8980:	8a 1f       	adc	r24, r26
    8982:	91 1d       	adc	r25, r1
    8984:	a1 1d       	adc	r26, r1
    8986:	6a 0f       	add	r22, r26
    8988:	71 1d       	adc	r23, r1
    898a:	81 1d       	adc	r24, r1
    898c:	91 1d       	adc	r25, r1
    898e:	a1 1d       	adc	r26, r1
    8990:	20 d0       	rcall	.+64     	; 0x89d2 <__ultoa_invert+0x84>
    8992:	09 f4       	brne	.+2      	; 0x8996 <__ultoa_invert+0x48>
    8994:	68 94       	set
    8996:	3f 91       	pop	r19
    8998:	2a e0       	ldi	r18, 0x0A	; 10
    899a:	26 9f       	mul	r18, r22
    899c:	11 24       	eor	r1, r1
    899e:	30 19       	sub	r19, r0
    89a0:	30 5d       	subi	r19, 0xD0	; 208
    89a2:	31 93       	st	Z+, r19
    89a4:	de f6       	brtc	.-74     	; 0x895c <__ultoa_invert+0xe>
    89a6:	cf 01       	movw	r24, r30
    89a8:	08 95       	ret
    89aa:	46 2f       	mov	r20, r22
    89ac:	47 70       	andi	r20, 0x07	; 7
    89ae:	40 5d       	subi	r20, 0xD0	; 208
    89b0:	41 93       	st	Z+, r20
    89b2:	b3 e0       	ldi	r27, 0x03	; 3
    89b4:	0f d0       	rcall	.+30     	; 0x89d4 <__ultoa_invert+0x86>
    89b6:	c9 f7       	brne	.-14     	; 0x89aa <__ultoa_invert+0x5c>
    89b8:	f6 cf       	rjmp	.-20     	; 0x89a6 <__ultoa_invert+0x58>
    89ba:	46 2f       	mov	r20, r22
    89bc:	4f 70       	andi	r20, 0x0F	; 15
    89be:	40 5d       	subi	r20, 0xD0	; 208
    89c0:	4a 33       	cpi	r20, 0x3A	; 58
    89c2:	18 f0       	brcs	.+6      	; 0x89ca <__ultoa_invert+0x7c>
    89c4:	49 5d       	subi	r20, 0xD9	; 217
    89c6:	31 fd       	sbrc	r19, 1
    89c8:	40 52       	subi	r20, 0x20	; 32
    89ca:	41 93       	st	Z+, r20
    89cc:	02 d0       	rcall	.+4      	; 0x89d2 <__ultoa_invert+0x84>
    89ce:	a9 f7       	brne	.-22     	; 0x89ba <__ultoa_invert+0x6c>
    89d0:	ea cf       	rjmp	.-44     	; 0x89a6 <__ultoa_invert+0x58>
    89d2:	b4 e0       	ldi	r27, 0x04	; 4
    89d4:	a6 95       	lsr	r26
    89d6:	97 95       	ror	r25
    89d8:	87 95       	ror	r24
    89da:	77 95       	ror	r23
    89dc:	67 95       	ror	r22
    89de:	ba 95       	dec	r27
    89e0:	c9 f7       	brne	.-14     	; 0x89d4 <__ultoa_invert+0x86>
    89e2:	00 97       	sbiw	r24, 0x00	; 0
    89e4:	61 05       	cpc	r22, r1
    89e6:	71 05       	cpc	r23, r1
    89e8:	08 95       	ret
    89ea:	9b 01       	movw	r18, r22
    89ec:	ac 01       	movw	r20, r24
    89ee:	0a 2e       	mov	r0, r26
    89f0:	06 94       	lsr	r0
    89f2:	57 95       	ror	r21
    89f4:	47 95       	ror	r20
    89f6:	37 95       	ror	r19
    89f8:	27 95       	ror	r18
    89fa:	ba 95       	dec	r27
    89fc:	c9 f7       	brne	.-14     	; 0x89f0 <__ultoa_invert+0xa2>
    89fe:	62 0f       	add	r22, r18
    8a00:	73 1f       	adc	r23, r19
    8a02:	84 1f       	adc	r24, r20
    8a04:	95 1f       	adc	r25, r21
    8a06:	a0 1d       	adc	r26, r0
    8a08:	08 95       	ret

00008a0a <__ctype_isfalse>:
    8a0a:	99 27       	eor	r25, r25
    8a0c:	88 27       	eor	r24, r24

00008a0e <__ctype_istrue>:
    8a0e:	08 95       	ret

00008a10 <fgetc>:
    8a10:	cf 93       	push	r28
    8a12:	df 93       	push	r29
    8a14:	ec 01       	movw	r28, r24
    8a16:	4b 81       	ldd	r20, Y+3	; 0x03
    8a18:	40 ff       	sbrs	r20, 0
    8a1a:	1a c0       	rjmp	.+52     	; 0x8a50 <fgetc+0x40>
    8a1c:	46 ff       	sbrs	r20, 6
    8a1e:	0a c0       	rjmp	.+20     	; 0x8a34 <fgetc+0x24>
    8a20:	4f 7b       	andi	r20, 0xBF	; 191
    8a22:	4b 83       	std	Y+3, r20	; 0x03
    8a24:	8e 81       	ldd	r24, Y+6	; 0x06
    8a26:	9f 81       	ldd	r25, Y+7	; 0x07
    8a28:	01 96       	adiw	r24, 0x01	; 1
    8a2a:	8e 83       	std	Y+6, r24	; 0x06
    8a2c:	9f 83       	std	Y+7, r25	; 0x07
    8a2e:	8a 81       	ldd	r24, Y+2	; 0x02
    8a30:	28 2f       	mov	r18, r24
    8a32:	2b c0       	rjmp	.+86     	; 0x8a8a <fgetc+0x7a>
    8a34:	42 ff       	sbrs	r20, 2
    8a36:	13 c0       	rjmp	.+38     	; 0x8a5e <fgetc+0x4e>
    8a38:	e8 81       	ld	r30, Y
    8a3a:	f9 81       	ldd	r31, Y+1	; 0x01
    8a3c:	80 81       	ld	r24, Z
    8a3e:	28 2f       	mov	r18, r24
    8a40:	33 27       	eor	r19, r19
    8a42:	27 fd       	sbrc	r18, 7
    8a44:	30 95       	com	r19
    8a46:	21 15       	cp	r18, r1
    8a48:	31 05       	cpc	r19, r1
    8a4a:	29 f4       	brne	.+10     	; 0x8a56 <fgetc+0x46>
    8a4c:	40 62       	ori	r20, 0x20	; 32
    8a4e:	4b 83       	std	Y+3, r20	; 0x03
    8a50:	2f ef       	ldi	r18, 0xFF	; 255
    8a52:	3f ef       	ldi	r19, 0xFF	; 255
    8a54:	1b c0       	rjmp	.+54     	; 0x8a8c <fgetc+0x7c>
    8a56:	31 96       	adiw	r30, 0x01	; 1
    8a58:	e8 83       	st	Y, r30
    8a5a:	f9 83       	std	Y+1, r31	; 0x01
    8a5c:	11 c0       	rjmp	.+34     	; 0x8a80 <fgetc+0x70>
    8a5e:	ea 85       	ldd	r30, Y+10	; 0x0a
    8a60:	fb 85       	ldd	r31, Y+11	; 0x0b
    8a62:	ce 01       	movw	r24, r28
    8a64:	19 95       	eicall
    8a66:	9c 01       	movw	r18, r24
    8a68:	97 ff       	sbrs	r25, 7
    8a6a:	0a c0       	rjmp	.+20     	; 0x8a80 <fgetc+0x70>
    8a6c:	9b 81       	ldd	r25, Y+3	; 0x03
    8a6e:	2f 5f       	subi	r18, 0xFF	; 255
    8a70:	3f 4f       	sbci	r19, 0xFF	; 255
    8a72:	11 f0       	breq	.+4      	; 0x8a78 <fgetc+0x68>
    8a74:	80 e2       	ldi	r24, 0x20	; 32
    8a76:	01 c0       	rjmp	.+2      	; 0x8a7a <fgetc+0x6a>
    8a78:	80 e1       	ldi	r24, 0x10	; 16
    8a7a:	89 2b       	or	r24, r25
    8a7c:	8b 83       	std	Y+3, r24	; 0x03
    8a7e:	e8 cf       	rjmp	.-48     	; 0x8a50 <fgetc+0x40>
    8a80:	8e 81       	ldd	r24, Y+6	; 0x06
    8a82:	9f 81       	ldd	r25, Y+7	; 0x07
    8a84:	01 96       	adiw	r24, 0x01	; 1
    8a86:	8e 83       	std	Y+6, r24	; 0x06
    8a88:	9f 83       	std	Y+7, r25	; 0x07
    8a8a:	30 e0       	ldi	r19, 0x00	; 0
    8a8c:	c9 01       	movw	r24, r18
    8a8e:	df 91       	pop	r29
    8a90:	cf 91       	pop	r28
    8a92:	08 95       	ret

00008a94 <_exit>:
    8a94:	f8 94       	cli

00008a96 <__stop_program>:
    8a96:	ff cf       	rjmp	.-2      	; 0x8a96 <__stop_program>
